LX51 LINKER/LOCATER V4.64.0.0                                                           03/27/2019  09:25:09  PAGE 1


LX51 LINKER/LOCATER V4.64.0.0, INVOKED BY:
C:\PROGRAM FILES (X86)\CYPRESS\PSOC CREATOR\4.2\PSOC CREATOR\IMPORT\KEIL\PK51\9.51\C51\BIN\LX51.EXE .\DP8051_Keil_951\Re
>> lease\command_processing.obj, .\DP8051_Keil_951\Release\globals.obj, .\DP8051_Keil_951\Release\main.obj, .\DP8051_Kei
>> l_951\Release\utils.obj, .\DP8051_Keil_951\Release\interruptions.obj, .\DP8051_Keil_951\Release\cyfitter_cfg.obj, .\D
>> P8051_Keil_951\Release\cuff_mod_firmware.lib, C:\Program Files (x86)\Cypress\PSoC Creator\4.2\PSoC Creator\psoc\conte
>> nt\cycomponentlibrary\CyComponentLibrary.cylib\DP8051\DP8051_Keil_951\Release\CyComponentLibrary.lib TO .\DP8051_Keil
>> _951\Release\cuff_mod_firmware.omf CODE RU RC (10) DW (16) WL (2) PR (.\DP8051_Keil_951\Release/cuff_mod_firmware.map
>> ) IX CL (XDATA (X:0X0000-X:0X1FFF)) CL (CODE (C:0X2600-C:0XFFBF)) CL (CONST (C:0X2600-C:0XFFBF))


CPU MODE:     8051 MODE
MEMORY MODEL: LARGE WITH FLOATING POINT ARITHMETIC


INPUT MODULES INCLUDED:
  .\DP8051_Keil_951\Release\command_processing.obj (COMMAND_PROCESSING)
         COMMENT TYPE 0: C51 V9.51
  .\DP8051_Keil_951\Release\globals.obj (GLOBALS)
         COMMENT TYPE 0: C51 V9.51
  .\DP8051_Keil_951\Release\main.obj (MAIN)
         COMMENT TYPE 0: C51 V9.51
  .\DP8051_Keil_951\Release\utils.obj (UTILS)
         COMMENT TYPE 0: C51 V9.51
  .\DP8051_Keil_951\Release\interruptions.obj (INTERRUPTIONS)
         COMMENT TYPE 0: C51 V9.51
  .\DP8051_Keil_951\Release\cyfitter_cfg.obj (CYFITTER_CFG)
         COMMENT TYPE 0: C51 V9.51
  .\DP8051_Keil_951\Release\cuff_mod_firmware.lib (UART_RS485)
         COMMENT TYPE 0: C51 V9.51
  .\DP8051_Keil_951\Release\cuff_mod_firmware.lib (PWM_MOTORS)
         COMMENT TYPE 0: C51 V9.51
  .\DP8051_Keil_951\Release\cuff_mod_firmware.lib (ISR_RS485_RX)
         COMMENT TYPE 0: C51 V9.51
  .\DP8051_Keil_951\Release\cuff_mod_firmware.lib (CLOCK_UART)
         COMMENT TYPE 0: C51 V9.51
  .\DP8051_Keil_951\Release\cuff_mod_firmware.lib (COUNTER_ENC)
         COMMENT TYPE 0: C51 V9.51
  .\DP8051_Keil_951\Release\cuff_mod_firmware.lib (SHIFTREG_ENC_1)
         COMMENT TYPE 0: C51 V9.51
  .\DP8051_Keil_951\Release\cuff_mod_firmware.lib (SHIFTREG_ENC_2)
         COMMENT TYPE 0: C51 V9.51
  .\DP8051_Keil_951\Release\cuff_mod_firmware.lib (SHIFTREG_ENC_3)
         COMMENT TYPE 0: C51 V9.51
  .\DP8051_Keil_951\Release\cuff_mod_firmware.lib (EEPROM)
         COMMENT TYPE 0: C51 V9.51
  .\DP8051_Keil_951\Release\cuff_mod_firmware.lib (SHIFTREG_ENC_4)
         COMMENT TYPE 0: C51 V9.51
  .\DP8051_Keil_951\Release\cuff_mod_firmware.lib (RS485_CTS)
         COMMENT TYPE 0: C51 V9.51
  .\DP8051_Keil_951\Release\cuff_mod_firmware.lib (MOTOR_ON_OFF)
         COMMENT TYPE 0: C51 V9.51
  .\DP8051_Keil_951\Release\cuff_mod_firmware.lib (BOOTLOADABLE)
         COMMENT TYPE 0: C51 V9.51
  .\DP8051_Keil_951\Release\cuff_mod_firmware.lib (MY_TIMER)
         COMMENT TYPE 0: C51 V9.51
  .\DP8051_Keil_951\Release\cuff_mod_firmware.lib (FTDI_ENABLE_REG)
         COMMENT TYPE 0: C51 V9.51
  .\DP8051_Keil_951\Release\cuff_mod_firmware.lib (PACER_TIMER)
         COMMENT TYPE 0: C51 V9.51
  .\DP8051_Keil_951\Release\cuff_mod_firmware.lib (FF_STATUS)
         COMMENT TYPE 0: C51 V9.51
  .\DP8051_Keil_951\Release\cuff_mod_firmware.lib (RESET_FF)
         COMMENT TYPE 0: C51 V9.51
  .\DP8051_Keil_951\Release\cuff_mod_firmware.lib (MOTOR_DIR)
         COMMENT TYPE 0: C51 V9.51
  .\DP8051_Keil_951\Release\cuff_mod_firmware.lib (ADC_STATUS)
LX51 LINKER/LOCATER V4.64.0.0                                                         03/27/2019  09:25:09  PAGE 2


         COMMENT TYPE 0: C51 V9.51
  .\DP8051_Keil_951\Release\cuff_mod_firmware.lib (ADC)
         COMMENT TYPE 0: C51 V9.51
  .\DP8051_Keil_951\Release\cuff_mod_firmware.lib (DMA_DMA)
         COMMENT TYPE 0: C51 V9.51
  .\DP8051_Keil_951\Release\cuff_mod_firmware.lib (ADC_SOC)
         COMMENT TYPE 0: C51 V9.51
  .\DP8051_Keil_951\Release\cuff_mod_firmware.lib (ISR_WATCHDOG)
         COMMENT TYPE 0: C51 V9.51
  .\DP8051_Keil_951\Release\cuff_mod_firmware.lib (WATCHDOG_COUNTER)
         COMMENT TYPE 0: C51 V9.51
  .\DP8051_Keil_951\Release\cuff_mod_firmware.lib (WATCHDOG_ENABLER)
         COMMENT TYPE 0: C51 V9.51
  .\DP8051_Keil_951\Release\cuff_mod_firmware.lib (WATCHDOG_REFRESH)
         COMMENT TYPE 0: C51 V9.51
  .\DP8051_Keil_951\Release\cuff_mod_firmware.lib (CYDMAC)
         COMMENT TYPE 0: C51 V9.51
  .\DP8051_Keil_951\Release\cuff_mod_firmware.lib (CYLIB)
         COMMENT TYPE 0: C51 V9.51
  .\DP8051_Keil_951\Release\cuff_mod_firmware.lib (CYBOOTASMKEIL)
         COMMENT TYPE 0: AX51 V3.07d
  .\DP8051_Keil_951\Release\cuff_mod_firmware.lib (CYMEM)
         COMMENT TYPE 0: AX51 V3.07d
  .\DP8051_Keil_951\Release\cuff_mod_firmware.lib (?C_STARTUP)
         COMMENT TYPE 0: AX51 V3.07d
  .\DP8051_Keil_951\Release\cuff_mod_firmware.lib (UART_RS485_INT)
         COMMENT TYPE 0: C51 V9.51
  .\DP8051_Keil_951\Release\cuff_mod_firmware.lib (ADC_INT)
         COMMENT TYPE 0: C51 V9.51
  .\DP8051_Keil_951\Release\cuff_mod_firmware.lib (ADC_AMUX)
         COMMENT TYPE 0: C51 V9.51
  .\DP8051_Keil_951\Release\cuff_mod_firmware.lib (ADC_EXT_CP_CLK)
         COMMENT TYPE 0: C51 V9.51
  .\DP8051_Keil_951\Release\cuff_mod_firmware.lib (ADC_THEACLK)
         COMMENT TYPE 0: C51 V9.51
  .\DP8051_Keil_951\Release\cuff_mod_firmware.lib (CYFLASH)
         COMMENT TYPE 0: C51 V9.51
  .\DP8051_Keil_951\Release\cuff_mod_firmware.lib (CYPM)
         COMMENT TYPE 0: C51 V9.51
  .\DP8051_Keil_951\Release\cuff_mod_firmware.lib (CYSPC)
         COMMENT TYPE 0: C51 V9.51
  C:\PROGRAM FILES (X86)\CYPRESS\PSOC CREATOR\4.2\PSOC CREATOR\IMPORT\KEIL\PK51\9.51\C51\LIB\C51FPL.LIB (?C?FPADD)
         COMMENT TYPE 1: A51 / ASM51 Assembler
  C:\PROGRAM FILES (X86)\CYPRESS\PSOC CREATOR\4.2\PSOC CREATOR\IMPORT\KEIL\PK51\9.51\C51\LIB\C51FPL.LIB (?C?FPMUL)
         COMMENT TYPE 1: A51 / ASM51 Assembler
  C:\PROGRAM FILES (X86)\CYPRESS\PSOC CREATOR\4.2\PSOC CREATOR\IMPORT\KEIL\PK51\9.51\C51\LIB\C51FPL.LIB (?C?FPDIV)
         COMMENT TYPE 1: A51 / ASM51 Assembler
  C:\PROGRAM FILES (X86)\CYPRESS\PSOC CREATOR\4.2\PSOC CREATOR\IMPORT\KEIL\PK51\9.51\C51\LIB\C51FPL.LIB (?C?FPCMP)
         COMMENT TYPE 1: A51 / ASM51 Assembler
  C:\PROGRAM FILES (X86)\CYPRESS\PSOC CREATOR\4.2\PSOC CREATOR\IMPORT\KEIL\PK51\9.51\C51\LIB\C51FPL.LIB (?C?FCAST)
         COMMENT TYPE 1: A51 / ASM51 Assembler
  C:\PROGRAM FILES (X86)\CYPRESS\PSOC CREATOR\4.2\PSOC CREATOR\IMPORT\KEIL\PK51\9.51\C51\LIB\C51FPL.LIB (?C?CASTF)
         COMMENT TYPE 1: A51 / ASM51 Assembler
  C:\PROGRAM FILES (X86)\CYPRESS\PSOC CREATOR\4.2\PSOC CREATOR\IMPORT\KEIL\PK51\9.51\C51\LIB\C51FPL.LIB (PRINTF)
         COMMENT TYPE 1: A51 / ASM51 Assembler
  C:\PROGRAM FILES (X86)\CYPRESS\PSOC CREATOR\4.2\PSOC CREATOR\IMPORT\KEIL\PK51\9.51\C51\LIB\C51FPL.LIB (?C?FPGETOPN)
         COMMENT TYPE 1: A51 / ASM51 Assembler
  C:\PROGRAM FILES (X86)\CYPRESS\PSOC CREATOR\4.2\PSOC CREATOR\IMPORT\KEIL\PK51\9.51\C51\LIB\C51FPL.LIB (?C?FPROUND)
         COMMENT TYPE 1: A51 / ASM51 Assembler
  C:\PROGRAM FILES (X86)\CYPRESS\PSOC CREATOR\4.2\PSOC CREATOR\IMPORT\KEIL\PK51\9.51\C51\LIB\C51FPL.LIB (?C?FPCONVERT)
         COMMENT TYPE 1: A51 / ASM51 Assembler
  C:\PROGRAM FILES (X86)\CYPRESS\PSOC CREATOR\4.2\PSOC CREATOR\IMPORT\KEIL\PK51\9.51\C51\LIB\C51FPL.LIB (?C?FTNPWR)
         COMMENT TYPE 1: A51 / ASM51 Assembler
  C:\PROGRAM FILES (X86)\CYPRESS\PSOC CREATOR\4.2\PSOC CREATOR\IMPORT\KEIL\PK51\9.51\C51\LIB\C51L.LIB (?C_INIT)
         COMMENT TYPE 1: A51 / ASM51 Assembler
LX51 LINKER/LOCATER V4.64.0.0                                                         03/27/2019  09:25:09  PAGE 3


  C:\PROGRAM FILES (X86)\CYPRESS\PSOC CREATOR\4.2\PSOC CREATOR\IMPORT\KEIL\PK51\9.51\C51\LIB\C51L.LIB (?C?CLDPTR)
         COMMENT TYPE 1: A51 / ASM51 Assembler
  C:\PROGRAM FILES (X86)\CYPRESS\PSOC CREATOR\4.2\PSOC CREATOR\IMPORT\KEIL\PK51\9.51\C51\LIB\C51L.LIB (?C?CLDOPTR)
         COMMENT TYPE 1: A51 / ASM51 Assembler
  C:\PROGRAM FILES (X86)\CYPRESS\PSOC CREATOR\4.2\PSOC CREATOR\IMPORT\KEIL\PK51\9.51\C51\LIB\C51L.LIB (?C?CSTPTR)
         COMMENT TYPE 1: A51 / ASM51 Assembler
  C:\PROGRAM FILES (X86)\CYPRESS\PSOC CREATOR\4.2\PSOC CREATOR\IMPORT\KEIL\PK51\9.51\C51\LIB\C51L.LIB (?C?IMUL)
         COMMENT TYPE 1: A51 / ASM51 Assembler
  C:\PROGRAM FILES (X86)\CYPRESS\PSOC CREATOR\4.2\PSOC CREATOR\IMPORT\KEIL\PK51\9.51\C51\LIB\C51L.LIB (?C?ISTPTR)
         COMMENT TYPE 1: A51 / ASM51 Assembler
  C:\PROGRAM FILES (X86)\CYPRESS\PSOC CREATOR\4.2\PSOC CREATOR\IMPORT\KEIL\PK51\9.51\C51\LIB\C51L.LIB (?C?LMUL)
         COMMENT TYPE 1: A51 / ASM51 Assembler
  C:\PROGRAM FILES (X86)\CYPRESS\PSOC CREATOR\4.2\PSOC CREATOR\IMPORT\KEIL\PK51\9.51\C51\LIB\C51L.LIB (?C?ULDIV)
         COMMENT TYPE 1: A51 / ASM51 Assembler
  C:\PROGRAM FILES (X86)\CYPRESS\PSOC CREATOR\4.2\PSOC CREATOR\IMPORT\KEIL\PK51\9.51\C51\LIB\C51L.LIB (?C?SLDIV)
         COMMENT TYPE 1: A51 / ASM51 Assembler
  C:\PROGRAM FILES (X86)\CYPRESS\PSOC CREATOR\4.2\PSOC CREATOR\IMPORT\KEIL\PK51\9.51\C51\LIB\C51L.LIB (?C?LNOT)
         COMMENT TYPE 1: A51 / ASM51 Assembler
  C:\PROGRAM FILES (X86)\CYPRESS\PSOC CREATOR\4.2\PSOC CREATOR\IMPORT\KEIL\PK51\9.51\C51\LIB\C51L.LIB (?C?LNEG)
         COMMENT TYPE 1: A51 / ASM51 Assembler
  C:\PROGRAM FILES (X86)\CYPRESS\PSOC CREATOR\4.2\PSOC CREATOR\IMPORT\KEIL\PK51\9.51\C51\LIB\C51L.LIB (?C?SLCMP)
         COMMENT TYPE 1: A51 / ASM51 Assembler
  C:\PROGRAM FILES (X86)\CYPRESS\PSOC CREATOR\4.2\PSOC CREATOR\IMPORT\KEIL\PK51\9.51\C51\LIB\C51L.LIB (?C?ULCMP)
         COMMENT TYPE 1: A51 / ASM51 Assembler
  C:\PROGRAM FILES (X86)\CYPRESS\PSOC CREATOR\4.2\PSOC CREATOR\IMPORT\KEIL\PK51\9.51\C51\LIB\C51L.LIB (?C?ULSHR)
         COMMENT TYPE 1: A51 / ASM51 Assembler
  C:\PROGRAM FILES (X86)\CYPRESS\PSOC CREATOR\4.2\PSOC CREATOR\IMPORT\KEIL\PK51\9.51\C51\LIB\C51L.LIB (?C?SLSHR)
         COMMENT TYPE 1: A51 / ASM51 Assembler
  C:\PROGRAM FILES (X86)\CYPRESS\PSOC CREATOR\4.2\PSOC CREATOR\IMPORT\KEIL\PK51\9.51\C51\LIB\C51L.LIB (?C?LSHL)
         COMMENT TYPE 1: A51 / ASM51 Assembler
  C:\PROGRAM FILES (X86)\CYPRESS\PSOC CREATOR\4.2\PSOC CREATOR\IMPORT\KEIL\PK51\9.51\C51\LIB\C51L.LIB (?C?LLDPTR)
         COMMENT TYPE 1: A51 / ASM51 Assembler
  C:\PROGRAM FILES (X86)\CYPRESS\PSOC CREATOR\4.2\PSOC CREATOR\IMPORT\KEIL\PK51\9.51\C51\LIB\C51L.LIB (?C?LSTPTR)
         COMMENT TYPE 1: A51 / ASM51 Assembler
  C:\PROGRAM FILES (X86)\CYPRESS\PSOC CREATOR\4.2\PSOC CREATOR\IMPORT\KEIL\PK51\9.51\C51\LIB\C51L.LIB (?C?LSTXDATA)
         COMMENT TYPE 1: A51 / ASM51 Assembler
  C:\PROGRAM FILES (X86)\CYPRESS\PSOC CREATOR\4.2\PSOC CREATOR\IMPORT\KEIL\PK51\9.51\C51\LIB\C51L.LIB (?C?PLDIXDATA)
         COMMENT TYPE 1: A51 / ASM51 Assembler
  C:\PROGRAM FILES (X86)\CYPRESS\PSOC CREATOR\4.2\PSOC CREATOR\IMPORT\KEIL\PK51\9.51\C51\LIB\C51L.LIB (?C?PSTXDATA)
         COMMENT TYPE 1: A51 / ASM51 Assembler
  C:\PROGRAM FILES (X86)\CYPRESS\PSOC CREATOR\4.2\PSOC CREATOR\IMPORT\KEIL\PK51\9.51\C51\LIB\C51L.LIB (?C?CCASE)
         COMMENT TYPE 1: A51 / ASM51 Assembler
  C:\PROGRAM FILES (X86)\CYPRESS\PSOC CREATOR\4.2\PSOC CREATOR\IMPORT\KEIL\PK51\9.51\C51\LIB\C51L.LIB (?C_XBP)
         COMMENT TYPE 1: A51 / ASM51 Assembler
  C:\PROGRAM FILES (X86)\CYPRESS\PSOC CREATOR\4.2\PSOC CREATOR\IMPORT\KEIL\PK51\9.51\C51\LIB\C51L.LIB (?C?ADDXBP)
         COMMENT TYPE 1: A51 / ASM51 Assembler
  C:\PROGRAM FILES (X86)\CYPRESS\PSOC CREATOR\4.2\PSOC CREATOR\IMPORT\KEIL\PK51\9.51\C51\LIB\C51L.LIB (?C?LIMUL)
         COMMENT TYPE 1: A51 / ASM51 Assembler
  C:\PROGRAM FILES (X86)\CYPRESS\PSOC CREATOR\4.2\PSOC CREATOR\IMPORT\KEIL\PK51\9.51\C51\LIB\C51L.LIB (PUTCHAR)
         COMMENT TYPE 1: A51 / ASM51 Assembler
  C:\PROGRAM FILES (X86)\CYPRESS\PSOC CREATOR\4.2\PSOC CREATOR\IMPORT\KEIL\PK51\9.51\C51\LIB\C51L.LIB (ABS)
         COMMENT TYPE 1: A51 / ASM51 Assembler
  C:\PROGRAM FILES (X86)\CYPRESS\PSOC CREATOR\4.2\PSOC CREATOR\IMPORT\KEIL\PK51\9.51\C51\LIB\C51L.LIB (STRCAT)
         COMMENT TYPE 1: C51 Compiler
  C:\PROGRAM FILES (X86)\CYPRESS\PSOC CREATOR\4.2\PSOC CREATOR\IMPORT\KEIL\PK51\9.51\C51\LIB\C51L.LIB (STRLEN)
         COMMENT TYPE 1: A51 / ASM51 Assembler
  C:\PROGRAM FILES (X86)\CYPRESS\PSOC CREATOR\4.2\PSOC CREATOR\IMPORT\KEIL\PK51\9.51\C51\LIB\C51L.LIB (?C?COPYAMD)
         COMMENT TYPE 1: A51 / ASM51 Assembler
  C:\PROGRAM FILES (X86)\CYPRESS\PSOC CREATOR\4.2\PSOC CREATOR\IMPORT\KEIL\PK51\9.51\C51\LIB\C51L.LIB (?C?STRCPYAMD)
         COMMENT TYPE 1: A51 / ASM51 Assembler
  C:\PROGRAM FILES (X86)\CYPRESS\PSOC CREATOR\4.2\PSOC CREATOR\IMPORT\KEIL\PK51\9.51\C51\LIB\C51L.LIB (?C?IILDX)
         COMMENT TYPE 1: A51 / ASM51 Assembler
  C:\PROGRAM FILES (X86)\CYPRESS\PSOC CREATOR\4.2\PSOC CREATOR\IMPORT\KEIL\PK51\9.51\C51\LIB\C51L.LIB (?C?ILDIX)
         COMMENT TYPE 1: A51 / ASM51 Assembler
  C:\PROGRAM FILES (X86)\CYPRESS\PSOC CREATOR\4.2\PSOC CREATOR\IMPORT\KEIL\PK51\9.51\C51\LIB\C51L.LIB (?C?LLDIDATA)
LX51 LINKER/LOCATER V4.64.0.0                                                         03/27/2019  09:25:09  PAGE 4


         COMMENT TYPE 1: A51 / ASM51 Assembler
  C:\PROGRAM FILES (X86)\CYPRESS\PSOC CREATOR\4.2\PSOC CREATOR\IMPORT\KEIL\PK51\9.51\C51\LIB\C51L.LIB (?C?LLDXDATA)
         COMMENT TYPE 1: A51 / ASM51 Assembler
  C:\PROGRAM FILES (X86)\CYPRESS\PSOC CREATOR\4.2\PSOC CREATOR\IMPORT\KEIL\PK51\9.51\C51\LIB\C51L.LIB (?C?LLDPDATA)
         COMMENT TYPE 1: A51 / ASM51 Assembler
  C:\PROGRAM FILES (X86)\CYPRESS\PSOC CREATOR\4.2\PSOC CREATOR\IMPORT\KEIL\PK51\9.51\C51\LIB\C51L.LIB (?C?LLDCODE)
         COMMENT TYPE 1: A51 / ASM51 Assembler
  C:\PROGRAM FILES (X86)\CYPRESS\PSOC CREATOR\4.2\PSOC CREATOR\IMPORT\KEIL\PK51\9.51\C51\LIB\C51L.LIB (?C?LSTIDATA)
         COMMENT TYPE 1: A51 / ASM51 Assembler
  C:\PROGRAM FILES (X86)\CYPRESS\PSOC CREATOR\4.2\PSOC CREATOR\IMPORT\KEIL\PK51\9.51\C51\LIB\C51L.LIB (?C?LSTPDATA)
         COMMENT TYPE 1: A51 / ASM51 Assembler


ACTIVE MEMORY CLASSES OF MODULE:  .\DP8051_Keil_951\Release\cuff_mod_firmware.omf (COMMAND_PROCESSING)

BASE        START       END         USED      MEMORY CLASS
==========================================================
X:000000H   X:000000H   X:001FFFH   000EA5H   XDATA
C:000000H   C:002600H   C:00FFBFH   00A22EH   CODE
C:000000H   C:002600H   C:00FFBFH   000BB8H   CONST
I:000000H   I:000000H   I:00007FH   00006BH   DATA
I:000020H.0 I:000020H.0 I:00002FH.7 000002H.6 BIT
I:000000H   I:000000H   I:0000FFH   000004H   IDATA


MEMORY MAP OF MODULE:  .\DP8051_Keil_951\Release\cuff_mod_firmware.omf (COMMAND_PROCESSING)


START     STOP      LENGTH    ALIGN  RELOC    MEMORY CLASS   SEGMENT NAME
=========================================================================

* * * * * * * * * * *   D A T A   M E M O R Y   * * * * * * * * * * * * *
000000H   000007H   000008H   ---    AT..     DATA           "REG BANK 0"
000008H   00000DH   000006H   BYTE   UNIT     DATA           ?DT?INTERRUPTIONS
00000EH   00000FH   000002H   BYTE   UNIT     DATA           ?C?LIB_DATA
000010H   000012H   000003H   BYTE   UNIT     IDATA          _IDATA_GROUP_
000013H.0 00001FH.7 00000DH.0 ---    ---      **GAP**
000020H.0 000021H.1 000001H.2 BIT    UNIT     BIT            _BIT_GROUP_
000021H.2 000022H.2 000001H.1 BIT    UNIT     BIT            ?BI?GLOBALS
000022H.3 000022H.5 000000H.3 BIT    UNIT     BIT            ?BI?INTERRUPTIONS
000022H.6 000022H   000000H.2 ---    ---      **GAP**
000023H   00007DH   00005BH   BYTE   UNIT     DATA           _DATA_GROUP_
00007EH   00007EH   000001H   BYTE   UNIT     IDATA          ?STACK

* * * * * * * * * * *   C O D E   M E M O R Y   * * * * * * * * * * * * *
002600H   002619H   00001AH   ---    OFFS..   CODE           ?CO?KEILSTART?3
00261AH   003E70H   001857H   BYTE   UNIT     CODE           ?PR?_GET_PARAM_LIST?COMMAND_PROCESSING
003E71H   005167H   0012F7H   BYTE   UNIT     CODE           ?PR?_INFOPREPARE?COMMAND_PROCESSING
005168H   0061E3H   00107CH   BYTE   UNIT     CODE           ?CO?COMMAND_PROCESSING
0061E4H   006F4CH   000D69H   BYTE   UNIT     CODE           ?PR?_MOTOR_CONTROL?INTERRUPTIONS
006F4DH   007A02H   000AB6H   BYTE   UNIT     CODE           ?C?LIB_CODE
007A03H   0080A6H   0006A4H   BYTE   UNIT     CODE           ?PR?FORCE_AND_SLIDE_CUFF?COMMAND_PROCESSING
0080A7H   008529H   000483H   BYTE   UNIT     CODE           ?PR?PRINTF?PRINTF
00852AH   008939H   000410H   BYTE   UNIT     CODE           ?PR?SLIDE_CUFF?COMMAND_PROCESSING
00893AH   008CA7H   00036EH   BYTE   UNIT     CODE           ?PR?DRIVE_CUFF?COMMAND_PROCESSING
008CA8H   008FD7H   000330H   BYTE   UNIT     CODE           ?PR?CMD_STORE_PARAMS?COMMAND_PROCESSING
008FD8H   0092CCH   0002F5H   BYTE   UNIT     CODE           ?PR?_ENCODER_READING?INTERRUPTIONS
0092CDH   009584H   0002B8H   BYTE   UNIT     CODE           ?PR?PRETENSIONING_PROCESS?INTERRUPTIONS
009585H   0097F0H   00026CH   BYTE   UNIT     CODE           ?PR?MAIN?MAIN
0097F1H   0099E4H   0001F4H   BYTE   UNIT     CODE           ?PR?MEMINIT?COMMAND_PROCESSING
0099E5H   009B85H   0001A1H   BYTE   UNIT     CODE           ?PR?_ADC_GAINCOMPENSATION?ADC
009B86H   009D04H   00017FH   BYTE   UNIT     CODE           ?PR?CLOCKSETUP?CYFITTER_CFG
009D05H   009E6FH   00016BH   BYTE   UNIT     CODE           ?PR?CMD_SET_POS_STIFF?COMMAND_PROCESSING
009E70H   009FB5H   000146H   BYTE   UNIT     CODE           ?PR?INTERRUPT_MANAGER?INTERRUPTIONS
009FB6H   00A0F7H   000142H   BYTE   UNIT     CODE           ?PR?CMD_SET_INPUTS?COMMAND_PROCESSING
LX51 LINKER/LOCATER V4.64.0.0                                                         03/27/2019  09:25:09  PAGE 5


00A0F8H   00A228H   000131H   BYTE   UNIT     CODE           ?PR?_ADC_EXT_CP_CLK_SETDIVIDERREGISTER?ADC_EXT_CP_CLK
00A229H   00A358H   000130H   BYTE   UNIT     CODE           ?PR?_CLOCK_UART_SETDIVIDERREGISTER?CLOCK_UART
00A359H   00A487H   00012FH   BYTE   UNIT     CODE           ?PR?_ADC_THEACLK_SETDIVIDERREGISTER?ADC_THEACLK
00A488H   00A5B3H   00012CH   BYTE   UNIT     CODE           ?PR?COMMPROCESS?COMMAND_PROCESSING
00A5B4H   00A6DAH   000127H   BYTE   UNIT     CODE           ?PR?PWM_LIMIT_SEARCH?INTERRUPTIONS
00A6DBH   00A7F7H   00011DH   BYTE   UNIT     CODE           ?C_C51STARTUP
00A7F8H   00A90EH   000117H   BYTE   UNIT     CODE           ?PR?CYFITTER_CFG?CYFITTER_CFG
00A90FH   00AA10H   000102H   BYTE   UNIT     CODE           ?PR?ANALOG_READ_END?INTERRUPTIONS
00AA11H   00AAF9H   0000E9H   BYTE   UNIT     CODE           ?PR?FUNCTION_SCHEDULER?INTERRUPTIONS
00AAFAH   00ABE2H   0000E9H   BYTE   UNIT     CODE           ?PR?CFG_DMA_INIT?CYFITTER_CFG
00ABE3H   00ACC1H   0000DFH   BYTE   UNIT     CODE           ?PR?_EEPROM_WRITE?EEPROM
00ACC2H   00AD73H   0000B2H   BYTE   UNIT     CODE           ?PR?_MEMSTORE?COMMAND_PROCESSING
00AD74H   00AE24H   0000B1H   BYTE   UNIT     CODE           ?PR?ADC_INIT?ADC
00AE25H   00AED5H   0000B1H   BYTE   UNIT     CODE           ?PR?UART_RS485_RXISR?UART_RS485_INT
00AED6H   00AF83H   0000AEH   BYTE   UNIT     CODE           ?PR?_ADC_INITCONFIG?ADC
00AF84H   00B02DH   0000AAH   BYTE   UNIT     CODE           ?C_INITSEG
00B02EH   00B0D0H   0000A3H   BYTE   UNIT     CODE           ?PR?_COMMWRITE?COMMAND_PROCESSING
00B0D1H   00B161H   000091H   BYTE   UNIT     CODE           ?PR?CMD_GET_CURR_AND_MEAS?COMMAND_PROCESSING
00B162H   00B1EEH   00008DH   BYTE   UNIT     CODE           ?PR?_COMMWRITE_OLD_ID?COMMAND_PROCESSING
00B1EFH   00B276H   000088H   BYTE   UNIT     CODE           ?PR?ADC_ENABLE?ADC
00B277H   00B2FEH   000088H   BYTE   UNIT     CODE           ?PR?_?CYDELAY?CYLIB
00B2FFH   00B385H   000087H   BYTE   UNIT     CODE           ?PR?_CYDMATDSETCONFIGURATION?CYDMAC
00B386H   00B408H   000083H   BYTE   UNIT     CODE           ?PR?SETZEROS?COMMAND_PROCESSING
00B409H   00B481H   000079H   BYTE   UNIT     CODE           ?PR?_CYDMACHSETCONFIGURATION?CYDMAC
00B482H   00B4F9H   000078H   BYTE   UNIT     CODE           ?PR?_CYDMACHSETEXTENDEDADDRESS?CYDMAC
00B4FAH   00B571H   000078H   BYTE   UNIT     CODE           ?PR?_CYDMATDSETADDRESS?CYDMAC
00B572H   00B5E6H   000075H   BYTE   UNIT     CODE           ?PR?_FILTER_I1?UTILS
00B5E7H   00B65BH   000075H   BYTE   UNIT     CODE           ?PR?_FILTER_I2?UTILS
00B65CH   00B6CEH   000073H   BYTE   UNIT     CODE           ?PR?_CYSPCLOADROW?CYSPC
00B6CFH   00B73FH   000071H   BYTE   UNIT     CODE           ?PR?CMD_GET_MEASUREMENTS?COMMAND_PROCESSING
00B740H   00B7AAH   00006BH   BYTE   UNIT     CODE           ?PR?_CHECK_ENC_DATA?UTILS
00B7ABH   00B815H   00006BH   BYTE   UNIT     CODE           ?PR?_STRCAT?STRCAT
00B816H   00B87BH   000066H   BYTE   UNIT     CODE           ?PR?CMD_GET_INPUTS?COMMAND_PROCESSING
00B87CH   00B8DBH   000060H   BYTE   UNIT     CODE           ?PR?_CYSPCREADDATA?CYSPC
00B8DCH   00B936H   00005BH   BYTE   UNIT     CODE           ?PR?UART_RS485_GETCHAR?UART_RS485
00B937H   00B990H   00005AH   BYTE   UNIT     CODE           ?PR?CMD_GET_VELOCITIES?COMMAND_PROCESSING
00B991H   00B9E6H   000056H   BYTE   UNIT     CODE           ?PR?CYSETTEMPINT?CYFLASH
00B9E7H   00BA3AH   000054H   BYTE   UNIT     CODE           ?PR?_CYINTSETVECTOR?CYLIB
00BA3BH   00BA8EH   000054H   BYTE   UNIT     CODE           ?PR?_CYSPCWRITEROW?CYSPC
00BA8FH   00BADEH   000050H   BYTE   UNIT     CODE           ?PR?CYFLASHGETSPCALGORITHM?CYFLASH
00BADFH   00BB2DH   00004FH   BYTE   UNIT     CODE           ?PR?UART_RS485_GETRXBUFFERSIZE?UART_RS485
00BB2EH   00BB7AH   00004DH   BYTE   UNIT     CODE           ?PR?MEMRECALL?COMMAND_PROCESSING
00BB7BH   00BBC5H   00004BH   BYTE   UNIT     CODE           ?PR?_CYDMACHENABLE?CYDMAC
00BBC6H   00BC0FH   00004AH   BYTE   UNIT     CODE           ?PR?_DMA_DMAINITIALIZE?DMA_DMA
00BC10H   00BC56H   000047H   BYTE   UNIT     CODE           ?PR?MEMRESTORE?COMMAND_PROCESSING
00BC57H   00BC9CH   000046H   BYTE   UNIT     CODE           ?PR?CMD_GET_CURRENTS?COMMAND_PROCESSING
00BC9DH   00BCE0H   000044H   BYTE   UNIT     CODE           ?C?LDIV
00BCE1H   00BD23H   000043H   BYTE   UNIT     CODE           ?PR?CMD_ACTIVATE?COMMAND_PROCESSING
00BD24H   00BD64H   000041H   BYTE   UNIT     CODE           ?PR?CMD_SET_WATCHDOG?COMMAND_PROCESSING
00BD65H   00BDA4H   000040H   BYTE   UNIT     CODE           ?PR?_CYDMACHPRIORITY?CYDMAC
00BDA5H   00BDE2H   00003EH   BYTE   UNIT     CODE           ?PR?CYDMATDALLOCATE?CYDMAC
00BDE3H   00BE1FH   00003DH   BYTE   UNIT     CODE           ?PR?_ADC_SETDSMREF0REG?ADC
00BE20H   00BE5BH   00003CH   BYTE   UNIT     CODE           ?PR?PACER_TIMER_INIT?PACER_TIMER
00BE5CH   00BE93H   000038H   BYTE   UNIT     CODE           ?PR?WATCHDOG_COUNTER_INIT?WATCHDOG_COUNTER
00BE94H   00BEC9H   000036H   BYTE   UNIT     CODE           ?PR?CYDMACCONFIGURE?CYDMAC
00BECAH   00BEFEH   000035H   BYTE   UNIT     CODE           ?PR?COUNTER_ENC_INIT?COUNTER_ENC
00BEFFH   00BEFFH   000001H   BYTE   UNIT     CODE           ?PR?ISR_RS485_RX_INTERRUPT?ISR_RS485_RX
00BF00H   00BF3AH   00003BH   PAGE   UNIT     CODE           ?PR?CYDELAYCYCLES?CYBOOTASMKEIL
00BF3BH   00BF6EH   000034H   BYTE   UNIT     CODE           ?PR?_UART_RS485_PUTSTRING?UART_RS485
00BF6FH   00BFA2H   000034H   BYTE   UNIT     CODE           ?PR?_CYCONFIGCPY?CYMEM
00BFA3H   00BFD5H   000033H   BYTE   UNIT     CODE           ?PR?UART_RS485_INIT?UART_RS485
00BFD6H   00C007H   000032H   BYTE   UNIT     CODE           ?PR?_LCRCHECKSUM?UTILS
00C008H   00C038H   000031H   BYTE   UNIT     CODE           ?PR?_ADC_AMUX_UNSET?CYFITTER_CFG
00C039H   00C069H   000031H   BYTE   UNIT     CODE           ?PR?CYEEPROM_START?CYFLASH
00C06AH   00C099H   000030H   BYTE   UNIT     CODE           ?PR?CMD_GET_ACTIVATE?COMMAND_PROCESSING
LX51 LINKER/LOCATER V4.64.0.0                                                         03/27/2019  09:25:09  PAGE 6


00C09AH   00C0C9H   000030H   BYTE   UNIT     CODE           ?PR?_ADC_AMUX_SET?CYFITTER_CFG
00C0CAH   00C0F8H   00002FH   BYTE   UNIT     CODE           ?PR?UART_RS485_CLEARRXBUFFER?UART_RS485
00C0F9H   00C126H   00002EH   BYTE   UNIT     CODE           ?PR?_CYSPCGETTEMP?CYSPC
00C127H   00C127H   000001H   BYTE   UNIT     CODE           ?PR?ISR_WATCHDOG_INTERRUPT?ISR_WATCHDOG
00C128H   00C154H   00002DH   DWORD  UNIT     CODE           ?PR?CYDELAYUS?CYBOOTASMKEIL
00C155H   00C180H   00002CH   BYTE   UNIT     CODE           ?PR?MY_TIMER_INIT?MY_TIMER
00C181H   00C1A7H   000027H   BYTE   UNIT     CODE           ?PR?ANALOGSETDEFAULT?CYFITTER_CFG
00C1A8H   00C1CEH   000027H   BYTE   UNIT     CODE           ?PR?PUTCHAR?PUTCHAR
00C1CFH   00C1F4H   000026H   BYTE   UNIT     CODE           ?PR?PWM_MOTORS_INIT?PWM_MOTORS
00C1F5H   00C21AH   000026H   BYTE   UNIT     CODE           ?PR?CYCONFIGCPYCODE?CYMEM
00C21BH   00C23CH   000022H   BYTE   UNIT     CODE           ?PR?UART_RS485_ENABLE?UART_RS485
00C23DH   00C25EH   000022H   BYTE   UNIT     CODE           ?PR?UART_RS485_STOP?UART_RS485
00C25FH   00C27FH   000021H   BYTE   UNIT     CODE           ?PR?ADC_AMUX_START?ADC_AMUX
00C280H   00C29FH   000020H   BYTE   UNIT     CODE           ?PR?CMD_SET_BAUDRATE?COMMAND_PROCESSING
00C2A0H   00C2BEH   00001FH   BYTE   UNIT     CODE           ?PR?_ISR_RS485_RX_STARTEX?ISR_RS485_RX
00C2BFH   00C2DDH   00001FH   BYTE   UNIT     CODE           ?PR?_ISR_WATCHDOG_STARTEX?ISR_WATCHDOG
00C2DEH   00C2FCH   00001FH   BYTE   UNIT     CODE           ?PR?CYSPCLOCK?CYSPC
00C2FDH   00C31AH   00001EH   BYTE   UNIT     CODE           ?PR?_CYDMACHSETINITIALTD?CYDMAC
00C31BH   00C336H   00001CH   BYTE   UNIT     CODE           ?PR?_WATCHDOG_COUNTER_WRITECOUNTER?WATCHDOG_COUNTER
00C337H   00C351H   00001BH   BYTE   UNIT     CODE           ?PR?CYSPCGETALGORITHM?CYSPC
00C352H   00C36AH   000019H   BYTE   UNIT     CODE           ?PR?_INFOGET?COMMAND_PROCESSING
00C36BH   00C383H   000019H   BYTE   UNIT     CODE           ?PR?ADC_START?ADC
00C384H   00C39CH   000019H   BYTE   UNIT     CODE           ?PR?_CYINTSETPRIORITY?CYLIB
00C39DH   00C3B5H   000019H   BYTE   UNIT     CODE           ?PR?_ADC_AMUX_SELECT?ADC_AMUX
00C3B6H   00C3CDH   000018H   BYTE   UNIT     CODE           ?PR?CMD_PING?COMMAND_PROCESSING
00C3CEH   00C3E5H   000018H   BYTE   UNIT     CODE           ?PR?CYEXITCRITICALSECTION?CYBOOTASMKEIL
00C3E6H   00C3FDH   000018H   BYTE   UNIT     CODE           ?PR?CYSETTEMP?CYFLASH
00C3FEH   00C413H   000016H   BYTE   UNIT     CODE           ?PR?_SENDACKNOWLEDGMENT?COMMAND_PROCESSING
00C414H   00C429H   000016H   BYTE   UNIT     CODE           ?PR?PACER_TIMER_ENABLE?PACER_TIMER
00C42AH   00C43FH   000016H   BYTE   UNIT     CODE           ?PR?WATCHDOG_COUNTER_ENABLE?WATCHDOG_COUNTER
00C440H   00C454H   000015H   BYTE   UNIT     CODE           ?PR?CYENTERCRITICALSECTION?CYBOOTASMKEIL
00C455H   00C469H   000015H   BYTE   UNIT     CODE           ?PR?CYSPCSTART?CYSPC
00C46AH   00C47EH   000015H   BYTE   UNIT     CODE           ?PR?_STRLEN?STRLEN
00C47FH   00C492H   000014H   BYTE   UNIT     CODE           ?PR?UART_RS485_READRXSTATUS?UART_RS485
00C493H   00C4A5H   000013H   BYTE   UNIT     CODE           ?PR?UART_RS485_START?UART_RS485
00C4A6H   00C4B8H   000013H   BYTE   UNIT     CODE           ?PR?PWM_MOTORS_START?PWM_MOTORS
00C4B9H   00C4CBH   000013H   BYTE   UNIT     CODE           ?PR?COUNTER_ENC_START?COUNTER_ENC
00C4CCH   00C4DEH   000013H   BYTE   UNIT     CODE           ?PR?SHIFTREG_ENC_1_START?SHIFTREG_ENC_1
00C4DFH   00C4F1H   000013H   BYTE   UNIT     CODE           ?PR?SHIFTREG_ENC_2_START?SHIFTREG_ENC_2
00C4F2H   00C504H   000013H   BYTE   UNIT     CODE           ?PR?MY_TIMER_START?MY_TIMER
00C505H   00C517H   000013H   BYTE   UNIT     CODE           ?PR?PACER_TIMER_START?PACER_TIMER
00C518H   00C52AH   000013H   BYTE   UNIT     CODE           ?PR?WATCHDOG_COUNTER_START?WATCHDOG_COUNTER
00C52BH   00C53DH   000013H   BYTE   UNIT     CODE           ?PR?CYREAD24?CYMEM
00C53EH   00C54FH   000012H   BYTE   UNIT     CODE           ?PR?UART_RS485_CLEARTXBUFFER?UART_RS485
00C550H   00C561H   000012H   BYTE   UNIT     CODE           ?PR?CYWRITE24?CYMEM
00C562H   00C572H   000011H   BYTE   UNIT     CODE           ?PR?_SHIFTREG_ENC_1_SETINTMODE?SHIFTREG_ENC_1
00C573H   00C583H   000011H   BYTE   UNIT     CODE           ?PR?_SHIFTREG_ENC_2_SETINTMODE?SHIFTREG_ENC_2
00C584H   00C592H   00000FH   BYTE   UNIT     CODE           ?PR?MY_TIMER_READCOUNTER?MY_TIMER
00C593H   00C5A1H   00000FH   BYTE   UNIT     CODE           ?PR?CYREAD16?CYMEM
00C5A2H   00C5B0H   00000FH   BYTE   UNIT     CODE           ?PR?CYWRITE16?CYMEM
00C5B1H   00C5BEH   00000EH   BYTE   UNIT     CODE           ?PR?_ISR_RS485_RX_SETVECTOR?ISR_RS485_RX
00C5BFH   00C5CCH   00000EH   BYTE   UNIT     CODE           ?PR?SHIFTREG_ENC_1_ENABLEINT?SHIFTREG_ENC_1
00C5CDH   00C5DAH   00000EH   BYTE   UNIT     CODE           ?PR?SHIFTREG_ENC_2_ENABLEINT?SHIFTREG_ENC_2
00C5DBH   00C5E8H   00000EH   BYTE   UNIT     CODE           ?PR?_PACER_TIMER_WRITEPERIOD?PACER_TIMER
00C5E9H   00C5F6H   00000EH   BYTE   UNIT     CODE           ?PR?_PACER_TIMER_WRITECOUNTER?PACER_TIMER
00C5F7H   00C604H   00000EH   BYTE   UNIT     CODE           ?PR?_ISR_WATCHDOG_SETVECTOR?ISR_WATCHDOG
00C605H   00C612H   00000EH   BYTE   UNIT     CODE           ?PR?_WATCHDOG_COUNTER_WRITEPERIOD?WATCHDOG_COUNTER
00C613H   00C61FH   00000DH   BYTE   UNIT     CODE           ?PR?_UART_RS485_PUTCHAR?UART_RS485
00C620H   00C62CH   00000DH   BYTE   UNIT     CODE           ?PR?COUNTER_ENC_CLEARFIFO?COUNTER_ENC
00C62DH   00C639H   00000DH   BYTE   UNIT     CODE           ?PR?MY_TIMER_CLEARFIFO?MY_TIMER
00C63AH   00C646H   00000DH   BYTE   UNIT     CODE           ?PR?_ADC_EXT_CP_CLK_SETMODEREGISTER?ADC_EXT_CP_CLK
00C647H   00C653H   00000DH   BYTE   UNIT     CODE           ?PR?_ADC_THEACLK_SETMODEREGISTER?ADC_THEACLK
00C654H   00C65FH   00000CH   BYTE   UNIT     CODE           ?PR?CYREAD8?CYMEM
00C660H   00C66BH   00000CH   BYTE   UNIT     CODE           ?PR?CYWRITE8?CYMEM
00C66CH   00C677H   00000CH   BYTE   UNIT     CODE           ?PR?CYSPCUNLOCK?CYSPC
LX51 LINKER/LOCATER V4.64.0.0                                                         03/27/2019  09:25:09  PAGE 7


00C678H   00C683H   00000CH   BYTE   UNIT     CODE           ?PR?_ABS?ABS
00C684H   00C68EH   00000BH   BYTE   UNIT     CODE           ?PR?SHIFTREG_ENC_1_ENABLE?SHIFTREG_ENC_1
00C68FH   00C699H   00000BH   BYTE   UNIT     CODE           ?PR?SHIFTREG_ENC_2_ENABLE?SHIFTREG_ENC_2
00C69AH   00C6A3H   00000AH   BYTE   UNIT     CODE           ?PR?_ISR_RS485_RX_SETPRIORITY?ISR_RS485_RX
00C6A4H   00C6ADH   00000AH   BYTE   UNIT     CODE           ?PR?CLOCK_UART_GETDIVIDERREGISTER?CLOCK_UART
00C6AEH   00C6B7H   00000AH   BYTE   UNIT     CODE           ?PR?SHIFTREG_ENC_1_READDATA?SHIFTREG_ENC_1
00C6B8H   00C6C1H   00000AH   BYTE   UNIT     CODE           ?PR?SHIFTREG_ENC_2_READDATA?SHIFTREG_ENC_2
00C6C2H   00C6CBH   00000AH   BYTE   UNIT     CODE           ?PR?SHIFTREG_ENC_3_READDATA?SHIFTREG_ENC_3
00C6CCH   00C6D5H   00000AH   BYTE   UNIT     CODE           ?PR?SHIFTREG_ENC_4_READDATA?SHIFTREG_ENC_4
00C6D6H   00C6DFH   00000AH   BYTE   UNIT     CODE           ?PR?BOOTLOADABLE_LOAD?BOOTLOADABLE
00C6E0H   00C6E9H   00000AH   BYTE   UNIT     CODE           ?PR?_MY_TIMER_WRITEPERIOD?MY_TIMER
00C6EAH   00C6F3H   00000AH   BYTE   UNIT     CODE           ?PR?MY_TIMER_READCAPTURE?MY_TIMER
00C6F4H   00C6FDH   00000AH   BYTE   UNIT     CODE           ?PR?_MY_TIMER_WRITECOUNTER?MY_TIMER
00C6FEH   00C707H   00000AH   BYTE   UNIT     CODE           ?PR?_ISR_WATCHDOG_SETPRIORITY?ISR_WATCHDOG
00C708H   00C711H   00000AH   BYTE   UNIT     CODE           ?PR?ADC_EXT_CP_CLK_GETDIVIDERREGISTER?ADC_EXT_CP_CLK
00C712H   00C71BH   00000AH   BYTE   UNIT     CODE           ?PR?ADC_THEACLK_GETDIVIDERREGISTER?ADC_THEACLK
00C71CH   00C723H   000008H   BYTE   UNIT     CODE           ?PR?PWM_MOTORS_ENABLE?PWM_MOTORS
00C724H   00C72BH   000008H   BYTE   UNIT     CODE           ?PR?CLOCK_UART_GETSOURCEREGISTER?CLOCK_UART
00C72CH   00C733H   000008H   BYTE   UNIT     CODE           ?PR?COUNTER_ENC_ENABLE?COUNTER_ENC
00C734H   00C73BH   000008H   BYTE   UNIT     CODE           ?PR?MY_TIMER_ENABLE?MY_TIMER
00C73CH   00C743H   000008H   BYTE   UNIT     CODE           ?PR?CYSOFTWARERESET?CYLIB
00C744H   00C74BH   000008H   BYTE   UNIT     CODE           ?PR?ADC_EXT_CP_CLK_GETSOURCEREGISTER?ADC_EXT_CP_CLK
00C74CH   00C753H   000008H   BYTE   UNIT     CODE           ?PR?ADC_THEACLK_GETSOURCEREGISTER?ADC_THEACLK
00C754H   00C75AH   000007H   BYTE   UNIT     CODE           ?PR?ISR_RS485_RX_ENABLE?ISR_RS485_RX
00C75BH   00C761H   000007H   BYTE   UNIT     CODE           ?PR?ISR_RS485_RX_DISABLE?ISR_RS485_RX
00C762H   00C768H   000007H   BYTE   UNIT     CODE           ?PR?EEPROM_ENABLE?EEPROM
00C769H   00C76FH   000007H   BYTE   UNIT     CODE           ?PR?ISR_WATCHDOG_ENABLE?ISR_WATCHDOG
00C770H   00C776H   000007H   BYTE   UNIT     CODE           ?PR?ISR_WATCHDOG_DISABLE?ISR_WATCHDOG
00C777H   00C77CH   000006H   BYTE   UNIT     CODE           ?PR?UART_RS485_READTXSTATUS?UART_RS485
00C77DH   00C782H   000006H   BYTE   UNIT     CODE           ?PR?_PWM_MOTORS_WRITECOUNTER?PWM_MOTORS
00C783H   00C788H   000006H   BYTE   UNIT     CODE           ?PR?_PWM_MOTORS_WRITEPERIOD?PWM_MOTORS
00C789H   00C78EH   000006H   BYTE   UNIT     CODE           ?PR?_PWM_MOTORS_WRITECOMPARE1?PWM_MOTORS
00C78FH   00C794H   000006H   BYTE   UNIT     CODE           ?PR?_PWM_MOTORS_WRITECOMPARE2?PWM_MOTORS
00C795H   00C79AH   000006H   BYTE   UNIT     CODE           ?PR?_COUNTER_ENC_SETINTERRUPTMODE?COUNTER_ENC
00C79BH   00C7A0H   000006H   BYTE   UNIT     CODE           ?PR?COUNTER_ENC_READSTATUSREGISTER?COUNTER_ENC
00C7A1H   00C7A6H   000006H   BYTE   UNIT     CODE           ?PR?_COUNTER_ENC_WRITECOUNTER?COUNTER_ENC
00C7A7H   00C7ACH   000006H   BYTE   UNIT     CODE           ?PR?COUNTER_ENC_READCAPTURE?COUNTER_ENC
00C7ADH   00C7B2H   000006H   BYTE   UNIT     CODE           ?PR?_COUNTER_ENC_WRITEPERIOD?COUNTER_ENC
00C7B3H   00C7B8H   000006H   BYTE   UNIT     CODE           ?PR?_COUNTER_ENC_WRITECOMPARE?COUNTER_ENC
00C7B9H   00C7BEH   000006H   BYTE   UNIT     CODE           ?PR?SHIFTREG_ENC_1_INIT?SHIFTREG_ENC_1
00C7BFH   00C7C4H   000006H   BYTE   UNIT     CODE           ?PR?SHIFTREG_ENC_2_INIT?SHIFTREG_ENC_2
00C7C5H   00C7CAH   000006H   BYTE   UNIT     CODE           ?PR?_RS485_CTS_WRITE?RS485_CTS
00C7CBH   00C7D0H   000006H   BYTE   UNIT     CODE           ?PR?_MOTOR_ON_OFF_WRITE?MOTOR_ON_OFF
00C7D1H   00C7D6H   000006H   BYTE   UNIT     CODE           ?PR?_MY_TIMER_SETINTERRUPTMODE?MY_TIMER
00C7D7H   00C7DCH   000006H   BYTE   UNIT     CODE           ?PR?MY_TIMER_READSTATUSREGISTER?MY_TIMER
00C7DDH   00C7E2H   000006H   BYTE   UNIT     CODE           ?PR?_FTDI_ENABLE_REG_WRITE?FTDI_ENABLE_REG
00C7E3H   00C7E8H   000006H   BYTE   UNIT     CODE           ?PR?_PACER_TIMER_SETINTERRUPTMODE?PACER_TIMER
00C7E9H   00C7EEH   000006H   BYTE   UNIT     CODE           ?PR?FF_STATUS_READ?FF_STATUS
00C7EFH   00C7F4H   000006H   BYTE   UNIT     CODE           ?PR?_RESET_FF_WRITE?RESET_FF
00C7F5H   00C7FAH   000006H   BYTE   UNIT     CODE           ?PR?_MOTOR_DIR_WRITE?MOTOR_DIR
00C7FBH   00C800H   000006H   BYTE   UNIT     CODE           ?PR?ADC_STATUS_READ?ADC_STATUS
00C801H   00C806H   000006H   BYTE   UNIT     CODE           ?PR?_ADC_SOC_WRITE?ADC_SOC
00C807H   00C80CH   000006H   BYTE   UNIT     CODE           ?PR?_WATCHDOG_COUNTER_SETINTERRUPTMODE?WATCHDOG_COUNTER
00C80DH   00C812H   000006H   BYTE   UNIT     CODE           ?PR?_WATCHDOG_ENABLER_WRITE?WATCHDOG_ENABLER
00C813H   00C818H   000006H   BYTE   UNIT     CODE           ?PR?_WATCHDOG_REFRESH_WRITE?WATCHDOG_REFRESH
00C819H   00C81CH   000004H   BYTE   UNIT     CODE           ?PR?EEPROM_START?EEPROM
00C81DH   00C820H   000004H   BYTE   UNIT     CODE           ?PR?EEPROM_UPDATETEMPERATURE?EEPROM
00C821H   00C823H   000003H   BYTE   UNIT     CODE           ?PR?ISR_WATCHDOG_HANDLER?INTERRUPTIONS
00C824H   00C826H   000003H   BYTE   UNIT     CODE           ?PR?ISR_RS485_RX_EXINTERRUPT?INTERRUPTIONS
00C827H   00C829H   000003H   BYTE   UNIT     CODE           ?PR?_CYCLOCKSTARTUPERROR?CYFITTER_CFG
00C82AH   00C82AH   000001H   BYTE   UNIT     CODE           ?PR?ADC_ISR1?ADC_INT
00C82BH   00C82BH   000001H   BYTE   UNIT     CODE           ?PR?ADC_ISR2?ADC_INT
00C82CH   00C82CH   000001H   BYTE   UNIT     CODE           ?PR?ADC_ISR3?ADC_INT
00C82DH   00C82DH   000001H   BYTE   UNIT     CODE           ?PR?ADC_ISR4?ADC_INT
00C82EH   00D384H   000B57H   BYTE   UNIT     CONST          ?CO?CYFITTER_CFG
LX51 LINKER/LOCATER V4.64.0.0                                                         03/27/2019  09:25:09  PAGE 8


00D385H   00D3E5H   000061H   BYTE   UNIT     CONST          ?CO?INTERRUPTIONS

* * * * * * * * * * *  X D A T A   M E M O R Y  * * * * * * * * * * * * *
000000H   000B0EH   000B0FH   BYTE   UNIT     XDATA          _XDATA_GROUP_
000B0FH   000D26H   000218H   BYTE   UNIT     XDATA          ?XD?GLOBALS
000D27H   000DD6H   0000B0H   BYTE   UNIT     XDATA          ?XD?INTERRUPTIONS
000DD7H   000E19H   000043H   BYTE   UNIT     XDATA          ?XD?CYPM
000E1AH   000E41H   000028H   BYTE   UNIT     XDATA          ?XD?UTILS
000E42H   000E68H   000027H   BYTE   UNIT     XDATA          ?XD?UART_RS485
000E69H   000E78H   000010H   BYTE   UNIT     XDATA          ?XD?ADC
000E79H   000E87H   00000FH   BYTE   UNIT     XDATA          ?XD?CYLIB
000E88H   000E8DH   000006H   BYTE   UNIT     XDATA          ?XD?CYDMAC
000E8EH   000E92H   000005H   BYTE   UNIT     XDATA          ?XD?CYFLASH
000E93H   000E96H   000004H   BYTE   UNIT     XDATA          ?XD?CYFITTER_CFG
000E97H   000E98H   000002H   BYTE   UNIT     XDATA          ?XD?COMMAND_PROCESSING
000E99H   000E99H   000001H   BYTE   UNIT     XDATA          ?XD?PWM_MOTORS
000E9AH   000E9AH   000001H   BYTE   UNIT     XDATA          ?XD?COUNTER_ENC
000E9BH   000E9BH   000001H   BYTE   UNIT     XDATA          ?XD?SHIFTREG_ENC_1
000E9CH   000E9CH   000001H   BYTE   UNIT     XDATA          ?XD?SHIFTREG_ENC_2
000E9DH   000E9DH   000001H   BYTE   UNIT     XDATA          ?XD?SHIFTREG_ENC_3
000E9EH   000E9EH   000001H   BYTE   UNIT     XDATA          ?XD?SHIFTREG_ENC_4
000E9FH   000E9FH   000001H   BYTE   UNIT     XDATA          ?XD?MY_TIMER
000EA0H   000EA0H   000001H   BYTE   UNIT     XDATA          ?XD?PACER_TIMER
000EA1H   000EA1H   000001H   BYTE   UNIT     XDATA          ?XD?DMA_DMA
000EA2H   000EA2H   000001H   BYTE   UNIT     XDATA          ?XD?WATCHDOG_COUNTER
000EA3H   000EA3H   000001H   BYTE   UNIT     XDATA          ?XD?ADC_AMUX
000EA4H   000EA4H   000001H   BYTE   UNIT     XDATA          ?XD?CYSPC

* * * * * * * * *   R E M O V E D     S E G M E N T S   * * * * * * * *
   *DEL*:           00007AH   BYTE   UNIT     CODE           ?PR?_FILTER_VEL_1?UTILS
   *DEL*:           00007AH   BYTE   UNIT     CODE           ?PR?_FILTER_VEL_2?UTILS
   *DEL*:           00007AH   BYTE   UNIT     CODE           ?PR?_FILTER_VEL_3?UTILS
   *DEL*:           00001AH   BYTE   UNIT     CODE           ?PR?_SETANALOGROUTINGPUMPS?CYFITTER_CFG
   *DEL*:           000003H   BYTE   UNIT     CODE           ?PR?UART_RS485_READCONTROLREGISTER?UART_RS485
   *DEL*:           000006H   BYTE   UNIT     CODE           ?PR?_UART_RS485_WRITECONTROLREGISTER?UART_RS485
   *DEL*:           000001H   BYTE   UNIT     XDATA          ?XD?_UART_RS485_WRITECONTROLREGISTER?UART_RS485
   *DEL*:           000006H   BYTE   UNIT     CODE           ?PR?_UART_RS485_SETRXINTERRUPTMODE?UART_RS485
   *DEL*:           00004AH   BYTE   UNIT     CODE           ?PR?UART_RS485_READRXDATA?UART_RS485
   *DEL*:           00001FH   BYTE   UNIT     CODE           ?PR?UART_RS485_GETBYTE?UART_RS485
   *DEL*:           000006H   BYTE   UNIT     CODE           ?PR?_UART_RS485_SETRXADDRESSMODE?UART_RS485
   *DEL*:           000001H   BYTE   UNIT     XDATA          ?XD?_UART_RS485_SETRXADDRESSMODE?UART_RS485
   *DEL*:           000006H   BYTE   UNIT     CODE           ?PR?_UART_RS485_SETRXADDRESS1?UART_RS485
   *DEL*:           000006H   BYTE   UNIT     CODE           ?PR?_UART_RS485_SETRXADDRESS2?UART_RS485
   *DEL*:           000006H   BYTE   UNIT     CODE           ?PR?_UART_RS485_SETTXINTERRUPTMODE?UART_RS485
   *DEL*:           00000CH   BYTE   UNIT     CODE           ?PR?_UART_RS485_WRITETXDATA?UART_RS485
   *DEL*:           000032H   BYTE   UNIT     CODE           ?PR?_UART_RS485_PUTARRAY?UART_RS485
   *DEL*:           000003H   BYTE   UNIT     XDATA          ?XD?_UART_RS485_PUTARRAY?UART_RS485
   *DEL*:           000014H   BYTE   UNIT     CODE           ?PR?_UART_RS485_PUTCRLF?UART_RS485
   *DEL*:           000017H   BYTE   UNIT     CODE           ?PR?UART_RS485_GETTXBUFFERSIZE?UART_RS485
   *DEL*:           000059H   BYTE   UNIT     CODE           ?PR?_UART_RS485_SENDBREAK?UART_RS485
   *DEL*:           000001H   BYTE   UNIT     XDATA          ?XD?_UART_RS485_SENDBREAK?UART_RS485
   *DEL*:           000006H   BYTE   UNIT     CODE           ?PR?_UART_RS485_SETTXADDRESSMODE?UART_RS485
   *DEL*:           000001H   BYTE   UNIT     XDATA          ?XD?_UART_RS485_SETTXADDRESSMODE?UART_RS485
   *DEL*:           000008H   BYTE   UNIT     CODE           ?PR?PWM_MOTORS_STOP?PWM_MOTORS
   *DEL*:           00000BH   BYTE   UNIT     CODE           ?PR?PWM_MOTORS_READCOUNTER?PWM_MOTORS
   *DEL*:           000006H   BYTE   UNIT     CODE           ?PR?PWM_MOTORS_READCONTROLREGISTER?PWM_MOTORS
   *DEL*:           000006H   BYTE   UNIT     CODE           ?PR?_PWM_MOTORS_WRITECONTROLREGISTER?PWM_MOTORS
   *DEL*:           000006H   BYTE   UNIT     CODE           ?PR?PWM_MOTORS_READCAPTURE?PWM_MOTORS
   *DEL*:           000006H   BYTE   UNIT     CODE           ?PR?PWM_MOTORS_READCOMPARE1?PWM_MOTORS
   *DEL*:           000006H   BYTE   UNIT     CODE           ?PR?PWM_MOTORS_READCOMPARE2?PWM_MOTORS
   *DEL*:           000006H   BYTE   UNIT     CODE           ?PR?PWM_MOTORS_READPERIOD?PWM_MOTORS
   *DEL*:           000013H   BYTE   UNIT     CODE           ?PR?ISR_RS485_RX_START?ISR_RS485_RX
   *DEL*:           000004H   BYTE   UNIT     CODE           ?PR?ISR_RS485_RX_STOP?ISR_RS485_RX
   *DEL*:           00000AH   BYTE   UNIT     CODE           ?PR?ISR_RS485_RX_GETVECTOR?ISR_RS485_RX
   *DEL*:           00000BH   BYTE   UNIT     CODE           ?PR?ISR_RS485_RX_GETPRIORITY?ISR_RS485_RX
LX51 LINKER/LOCATER V4.64.0.0                                                         03/27/2019  09:25:09  PAGE 9


   *DEL*:           00000EH   BYTE   UNIT     CODE           ?PR?ISR_RS485_RX_GETSTATE?ISR_RS485_RX
   *DEL*:           000007H   BYTE   UNIT     CODE           ?PR?ISR_RS485_RX_SETPENDING?ISR_RS485_RX
   *DEL*:           000007H   BYTE   UNIT     CODE           ?PR?ISR_RS485_RX_CLEARPENDING?ISR_RS485_RX
   *DEL*:           00000FH   BYTE   UNIT     CODE           ?PR?CLOCK_UART_START?CLOCK_UART
   *DEL*:           00000FH   BYTE   UNIT     CODE           ?PR?CLOCK_UART_STOP?CLOCK_UART
   *DEL*:           00006DH   BYTE   UNIT     CODE           ?PR?CLOCK_UART_STOPBLOCK?CLOCK_UART
   *DEL*:           000002H   BYTE   UNIT     XDATA          ?XD?CLOCK_UART_STOPBLOCK?CLOCK_UART
   *DEL*:           000013H   BYTE   UNIT     CODE           ?PR?_CLOCK_UART_STANDBYPOWER?CLOCK_UART
   *DEL*:           00000DH   BYTE   UNIT     CODE           ?PR?_CLOCK_UART_SETMODEREGISTER?CLOCK_UART
   *DEL*:           00000EH   BYTE   UNIT     CODE           ?PR?_CLOCK_UART_CLEARMODEREGISTER?CLOCK_UART
   *DEL*:           000008H   BYTE   UNIT     CODE           ?PR?CLOCK_UART_GETMODEREGISTER?CLOCK_UART
   *DEL*:           000062H   BYTE   UNIT     CODE           ?PR?_CLOCK_UART_SETSOURCEREGISTER?CLOCK_UART
   *DEL*:           000003H   BYTE   UNIT     XDATA          ?XD?_CLOCK_UART_SETSOURCEREGISTER?CLOCK_UART
   *DEL*:           000008H   BYTE   UNIT     CODE           ?PR?COUNTER_ENC_STOP?COUNTER_ENC
   *DEL*:           000006H   BYTE   UNIT     CODE           ?PR?COUNTER_ENC_READCONTROLREGISTER?COUNTER_ENC
   *DEL*:           000006H   BYTE   UNIT     CODE           ?PR?_COUNTER_ENC_WRITECONTROLREGISTER?COUNTER_ENC
   *DEL*:           00000BH   BYTE   UNIT     CODE           ?PR?COUNTER_ENC_READCOUNTER?COUNTER_ENC
   *DEL*:           000006H   BYTE   UNIT     CODE           ?PR?COUNTER_ENC_READPERIOD?COUNTER_ENC
   *DEL*:           000006H   BYTE   UNIT     CODE           ?PR?COUNTER_ENC_READCOMPARE?COUNTER_ENC
   *DEL*:           00000BH   BYTE   UNIT     CODE           ?PR?SHIFTREG_ENC_1_STOP?SHIFTREG_ENC_1
   *DEL*:           00000EH   BYTE   UNIT     CODE           ?PR?SHIFTREG_ENC_1_DISABLEINT?SHIFTREG_ENC_1
   *DEL*:           000036H   BYTE   UNIT     CODE           ?PR?_SHIFTREG_ENC_1_GETFIFOSTATUS?SHIFTREG_ENC_1
   *DEL*:           000008H   BYTE   UNIT     CODE           ?PR?SHIFTREG_ENC_1_GETINTSTATUS?SHIFTREG_ENC_1
   *DEL*:           00000AH   BYTE   UNIT     CODE           ?PR?_SHIFTREG_ENC_1_WRITEREGVALUE?SHIFTREG_ENC_1
   *DEL*:           000053H   BYTE   UNIT     CODE           ?PR?SHIFTREG_ENC_1_READREGVALUE?SHIFTREG_ENC_1
   *DEL*:           000004H   BYTE   UNIT     XDATA          ?XD?SHIFTREG_ENC_1_READREGVALUE?SHIFTREG_ENC_1
   *DEL*:           00000BH   BYTE   UNIT     CODE           ?PR?SHIFTREG_ENC_2_STOP?SHIFTREG_ENC_2
   *DEL*:           00000EH   BYTE   UNIT     CODE           ?PR?SHIFTREG_ENC_2_DISABLEINT?SHIFTREG_ENC_2
   *DEL*:           000036H   BYTE   UNIT     CODE           ?PR?_SHIFTREG_ENC_2_GETFIFOSTATUS?SHIFTREG_ENC_2
   *DEL*:           000008H   BYTE   UNIT     CODE           ?PR?SHIFTREG_ENC_2_GETINTSTATUS?SHIFTREG_ENC_2
   *DEL*:           00000AH   BYTE   UNIT     CODE           ?PR?_SHIFTREG_ENC_2_WRITEREGVALUE?SHIFTREG_ENC_2
   *DEL*:           000053H   BYTE   UNIT     CODE           ?PR?SHIFTREG_ENC_2_READREGVALUE?SHIFTREG_ENC_2
   *DEL*:           000004H   BYTE   UNIT     XDATA          ?XD?SHIFTREG_ENC_2_READREGVALUE?SHIFTREG_ENC_2
   *DEL*:           000013H   BYTE   UNIT     CODE           ?PR?SHIFTREG_ENC_3_START?SHIFTREG_ENC_3
   *DEL*:           00000BH   BYTE   UNIT     CODE           ?PR?SHIFTREG_ENC_3_ENABLE?SHIFTREG_ENC_3
   *DEL*:           000006H   BYTE   UNIT     CODE           ?PR?SHIFTREG_ENC_3_INIT?SHIFTREG_ENC_3
   *DEL*:           00000BH   BYTE   UNIT     CODE           ?PR?SHIFTREG_ENC_3_STOP?SHIFTREG_ENC_3
   *DEL*:           00000EH   BYTE   UNIT     CODE           ?PR?SHIFTREG_ENC_3_ENABLEINT?SHIFTREG_ENC_3
   *DEL*:           00000EH   BYTE   UNIT     CODE           ?PR?SHIFTREG_ENC_3_DISABLEINT?SHIFTREG_ENC_3
   *DEL*:           000036H   BYTE   UNIT     CODE           ?PR?_SHIFTREG_ENC_3_GETFIFOSTATUS?SHIFTREG_ENC_3
   *DEL*:           000011H   BYTE   UNIT     CODE           ?PR?_SHIFTREG_ENC_3_SETINTMODE?SHIFTREG_ENC_3
   *DEL*:           000008H   BYTE   UNIT     CODE           ?PR?SHIFTREG_ENC_3_GETINTSTATUS?SHIFTREG_ENC_3
   *DEL*:           00000AH   BYTE   UNIT     CODE           ?PR?_SHIFTREG_ENC_3_WRITEREGVALUE?SHIFTREG_ENC_3
   *DEL*:           000053H   BYTE   UNIT     CODE           ?PR?SHIFTREG_ENC_3_READREGVALUE?SHIFTREG_ENC_3
   *DEL*:           000004H   BYTE   UNIT     XDATA          ?XD?SHIFTREG_ENC_3_READREGVALUE?SHIFTREG_ENC_3
   *DEL*:           000004H   BYTE   UNIT     CODE           ?PR?EEPROM_STOP?EEPROM
   *DEL*:           000124H   BYTE   UNIT     CODE           ?PR?_EEPROM_WRITEBYTE?EEPROM
   *DEL*:           000008H   BYTE   UNIT     XDATA          ?XD?_EEPROM_WRITEBYTE?EEPROM
   *DEL*:           00003AH   BYTE   UNIT     CODE           ?PR?_EEPROM_READBYTE?EEPROM
   *DEL*:           000004H   BYTE   UNIT     XDATA          ?XD?_EEPROM_READBYTE?EEPROM
   *DEL*:           00006FH   BYTE   UNIT     CODE           ?PR?_EEPROM_ERASESECTOR?EEPROM
   *DEL*:           000002H   BYTE   UNIT     XDATA          ?XD?_EEPROM_ERASESECTOR?EEPROM
   *DEL*:           0000B9H   BYTE   UNIT     CODE           ?PR?_EEPROM_STARTWRITE?EEPROM
   *DEL*:           000005H   BYTE   UNIT     XDATA          ?XD?_EEPROM_STARTWRITE?EEPROM
   *DEL*:           000046H   BYTE   UNIT     CODE           ?PR?_EEPROM_STARTERASE?EEPROM
   *DEL*:           000002H   BYTE   UNIT     XDATA          ?XD?_EEPROM_STARTERASE?EEPROM
   *DEL*:           00003BH   BYTE   UNIT     CODE           ?PR?EEPROM_QUERY?EEPROM
   *DEL*:           000001H   BYTE   UNIT     XDATA          ?XD?EEPROM_QUERY?EEPROM
   *DEL*:           0000E5H   BYTE   UNIT     CODE           ?PR?_EEPROM_BYTEWRITEPOS?EEPROM
   *DEL*:           000004H   BYTE   UNIT     XDATA          ?XD?_EEPROM_BYTEWRITEPOS?EEPROM
   *DEL*:           000013H   BYTE   UNIT     CODE           ?PR?SHIFTREG_ENC_4_START?SHIFTREG_ENC_4
   *DEL*:           00000BH   BYTE   UNIT     CODE           ?PR?SHIFTREG_ENC_4_ENABLE?SHIFTREG_ENC_4
   *DEL*:           000006H   BYTE   UNIT     CODE           ?PR?SHIFTREG_ENC_4_INIT?SHIFTREG_ENC_4
   *DEL*:           00000BH   BYTE   UNIT     CODE           ?PR?SHIFTREG_ENC_4_STOP?SHIFTREG_ENC_4
   *DEL*:           00000EH   BYTE   UNIT     CODE           ?PR?SHIFTREG_ENC_4_ENABLEINT?SHIFTREG_ENC_4
LX51 LINKER/LOCATER V4.64.0.0                                                         03/27/2019  09:25:09  PAGE 10


   *DEL*:           00000EH   BYTE   UNIT     CODE           ?PR?SHIFTREG_ENC_4_DISABLEINT?SHIFTREG_ENC_4
   *DEL*:           000036H   BYTE   UNIT     CODE           ?PR?_SHIFTREG_ENC_4_GETFIFOSTATUS?SHIFTREG_ENC_4
   *DEL*:           000011H   BYTE   UNIT     CODE           ?PR?_SHIFTREG_ENC_4_SETINTMODE?SHIFTREG_ENC_4
   *DEL*:           000008H   BYTE   UNIT     CODE           ?PR?SHIFTREG_ENC_4_GETINTSTATUS?SHIFTREG_ENC_4
   *DEL*:           00000AH   BYTE   UNIT     CODE           ?PR?_SHIFTREG_ENC_4_WRITEREGVALUE?SHIFTREG_ENC_4
   *DEL*:           000053H   BYTE   UNIT     CODE           ?PR?SHIFTREG_ENC_4_READREGVALUE?SHIFTREG_ENC_4
   *DEL*:           000004H   BYTE   UNIT     XDATA          ?XD?SHIFTREG_ENC_4_READREGVALUE?SHIFTREG_ENC_4
   *DEL*:           000006H   BYTE   UNIT     CODE           ?PR?RS485_CTS_READ?RS485_CTS
   *DEL*:           000006H   BYTE   UNIT     CODE           ?PR?MOTOR_ON_OFF_READ?MOTOR_ON_OFF
   *DEL*:           0000FBH   BYTE   UNIT     CODE           ?PR?_BOOTLOADABLE_SETFLASHBYTE?BOOTLOADABLE
   *DEL*:           000110H   BYTE   UNIT     XDATA          ?XD?_BOOTLOADABLE_SETFLASHBYTE?BOOTLOADABLE
   *DEL*:           000008H   BYTE   UNIT     CODE           ?PR?MY_TIMER_STOP?MY_TIMER
   *DEL*:           000006H   BYTE   UNIT     CODE           ?PR?MY_TIMER_SOFTWARECAPTURE?MY_TIMER
   *DEL*:           000006H   BYTE   UNIT     CODE           ?PR?MY_TIMER_READCONTROLREGISTER?MY_TIMER
   *DEL*:           000006H   BYTE   UNIT     CODE           ?PR?_MY_TIMER_WRITECONTROLREGISTER?MY_TIMER
   *DEL*:           00000AH   BYTE   UNIT     CODE           ?PR?MY_TIMER_READPERIOD?MY_TIMER
   *DEL*:           000006H   BYTE   UNIT     CODE           ?PR?FTDI_ENABLE_REG_READ?FTDI_ENABLE_REG
   *DEL*:           000016H   BYTE   UNIT     CODE           ?PR?PACER_TIMER_STOP?PACER_TIMER
   *DEL*:           00000AH   BYTE   UNIT     CODE           ?PR?PACER_TIMER_SOFTWARECAPTURE?PACER_TIMER
   *DEL*:           000006H   BYTE   UNIT     CODE           ?PR?PACER_TIMER_READSTATUSREGISTER?PACER_TIMER
   *DEL*:           000006H   BYTE   UNIT     CODE           ?PR?PACER_TIMER_READCONTROLREGISTER?PACER_TIMER
   *DEL*:           000006H   BYTE   UNIT     CODE           ?PR?_PACER_TIMER_WRITECONTROLREGISTER?PACER_TIMER
   *DEL*:           00000AH   BYTE   UNIT     CODE           ?PR?PACER_TIMER_READPERIOD?PACER_TIMER
   *DEL*:           00000AH   BYTE   UNIT     CODE           ?PR?PACER_TIMER_READCAPTURE?PACER_TIMER
   *DEL*:           000013H   BYTE   UNIT     CODE           ?PR?PACER_TIMER_READCOUNTER?PACER_TIMER
   *DEL*:           00000EH   BYTE   UNIT     CODE           ?PR?FF_STATUS_INTERRUPTENABLE?FF_STATUS
   *DEL*:           00000EH   BYTE   UNIT     CODE           ?PR?FF_STATUS_INTERRUPTDISABLE?FF_STATUS
   *DEL*:           000009H   BYTE   UNIT     CODE           ?PR?_FF_STATUS_WRITEMASK?FF_STATUS
   *DEL*:           000006H   BYTE   UNIT     CODE           ?PR?FF_STATUS_READMASK?FF_STATUS
   *DEL*:           000006H   BYTE   UNIT     CODE           ?PR?RESET_FF_READ?RESET_FF
   *DEL*:           000006H   BYTE   UNIT     CODE           ?PR?MOTOR_DIR_READ?MOTOR_DIR
   *DEL*:           00000EH   BYTE   UNIT     CODE           ?PR?ADC_STATUS_INTERRUPTENABLE?ADC_STATUS
   *DEL*:           00000EH   BYTE   UNIT     CODE           ?PR?ADC_STATUS_INTERRUPTDISABLE?ADC_STATUS
   *DEL*:           000009H   BYTE   UNIT     CODE           ?PR?_ADC_STATUS_WRITEMASK?ADC_STATUS
   *DEL*:           000006H   BYTE   UNIT     CODE           ?PR?ADC_STATUS_READMASK?ADC_STATUS
   *DEL*:           000088H   BYTE   UNIT     CODE           ?PR?ADC_STOP?ADC
   *DEL*:           000001H   BYTE   UNIT     XDATA          ?XD?ADC_STOP?ADC
   *DEL*:           000012H   BYTE   UNIT     CODE           ?PR?_ADC_SETBUFFERGAIN?ADC
   *DEL*:           00000EH   BYTE   UNIT     CODE           ?PR?_ADC_SETCOHERENCY?ADC
   *DEL*:           0000F2H   BYTE   UNIT     CODE           ?PR?_ADC_SETGCOR?ADC
   *DEL*:           00000BH   BYTE   UNIT     XDATA          ?XD?_ADC_SETGCOR?ADC
   *DEL*:           000039H   BYTE   UNIT     CODE           ?PR?ADC_READGCOR?ADC
   *DEL*:           000001H   BYTE   UNIT     XDATA          ?XD?ADC_READGCOR?ADC
   *DEL*:           000008H   BYTE   UNIT     CODE           ?PR?ADC_STARTCONVERT?ADC
   *DEL*:           000008H   BYTE   UNIT     CODE           ?PR?ADC_STOPCONVERT?ADC
   *DEL*:           00001FH   BYTE   UNIT     CODE           ?PR?_ADC_ISENDCONVERSION?ADC
   *DEL*:           00002CH   BYTE   UNIT     CODE           ?PR?ADC_GETRESULT8?ADC
   *DEL*:           000060H   BYTE   UNIT     CODE           ?PR?ADC_GETRESULT16?ADC
   *DEL*:           000003H   BYTE   UNIT     XDATA          ?XD?ADC_GETRESULT16?ADC
   *DEL*:           0001B4H   BYTE   UNIT     CODE           ?PR?ADC_GETRESULT32?ADC
   *DEL*:           000007H   BYTE   UNIT     XDATA          ?XD?ADC_GETRESULT32?ADC
   *DEL*:           000007H   BYTE   UNIT     CODE           ?PR?_ADC_SETOFFSET?ADC
   *DEL*:           000007H   BYTE   UNIT     CODE           ?PR?_ADC_SETGAIN?ADC
   *DEL*:           00005FH   BYTE   UNIT     CODE           ?PR?_ADC_COUNTSTO_MVOLTS?ADC
   *DEL*:           000004H   BYTE   UNIT     XDATA          ?XD?_ADC_COUNTSTO_MVOLTS?ADC
   *DEL*:           00006DH   BYTE   UNIT     CODE           ?PR?_ADC_COUNTSTO_VOLTS?ADC
   *DEL*:           000004H   BYTE   UNIT     XDATA          ?XD?_ADC_COUNTSTO_VOLTS?ADC
   *DEL*:           000137H   BYTE   UNIT     CODE           ?PR?_ADC_COUNTSTO_UVOLTS?ADC
   *DEL*:           00000DH   BYTE   UNIT     XDATA          ?XD?_ADC_COUNTSTO_UVOLTS?ADC
   *DEL*:           000072H   BYTE   UNIT     CODE           ?PR?_ADC_SELECTCONFIGURATION?ADC
   *DEL*:           000002H   BYTE   UNIT     XDATA          ?XD?_ADC_SELECTCONFIGURATION?ADC
   *DEL*:           000016H   BYTE   UNIT     CODE           ?PR?ADC_READ8?ADC
   *DEL*:           000016H   BYTE   UNIT     CODE           ?PR?ADC_READ16?ADC
   *DEL*:           000016H   BYTE   UNIT     CODE           ?PR?ADC_READ32?ADC
   *DEL*:           000009H   BYTE   UNIT     CODE           ?PR?DMA_DMARELEASE?DMA_DMA
LX51 LINKER/LOCATER V4.64.0.0                                                         03/27/2019  09:25:09  PAGE 11


   *DEL*:           000006H   BYTE   UNIT     CODE           ?PR?ADC_SOC_READ?ADC_SOC
   *DEL*:           000013H   BYTE   UNIT     CODE           ?PR?ISR_WATCHDOG_START?ISR_WATCHDOG
   *DEL*:           000004H   BYTE   UNIT     CODE           ?PR?ISR_WATCHDOG_STOP?ISR_WATCHDOG
   *DEL*:           00000AH   BYTE   UNIT     CODE           ?PR?ISR_WATCHDOG_GETVECTOR?ISR_WATCHDOG
   *DEL*:           00000BH   BYTE   UNIT     CODE           ?PR?ISR_WATCHDOG_GETPRIORITY?ISR_WATCHDOG
   *DEL*:           00000EH   BYTE   UNIT     CODE           ?PR?ISR_WATCHDOG_GETSTATE?ISR_WATCHDOG
   *DEL*:           000007H   BYTE   UNIT     CODE           ?PR?ISR_WATCHDOG_SETPENDING?ISR_WATCHDOG
   *DEL*:           000007H   BYTE   UNIT     CODE           ?PR?ISR_WATCHDOG_CLEARPENDING?ISR_WATCHDOG
   *DEL*:           000016H   BYTE   UNIT     CODE           ?PR?WATCHDOG_COUNTER_STOP?WATCHDOG_COUNTER
   *DEL*:           000006H   BYTE   UNIT     CODE           ?PR?WATCHDOG_COUNTER_READSTATUSREGISTER?WATCHDOG_COUNTER
   *DEL*:           000006H   BYTE   UNIT     CODE           ?PR?WATCHDOG_COUNTER_READCONTROLREGISTER?WATCHDOG_COUNTER
   *DEL*:           000006H   BYTE   UNIT     CODE           ?PR?_WATCHDOG_COUNTER_WRITECONTROLREGISTER?WATCHDOG_COUNTE
                                                             -R
   *DEL*:           000013H   BYTE   UNIT     CODE           ?PR?WATCHDOG_COUNTER_READCOUNTER?WATCHDOG_COUNTER
   *DEL*:           00000AH   BYTE   UNIT     CODE           ?PR?WATCHDOG_COUNTER_READCAPTURE?WATCHDOG_COUNTER
   *DEL*:           00000AH   BYTE   UNIT     CODE           ?PR?WATCHDOG_COUNTER_READPERIOD?WATCHDOG_COUNTER
   *DEL*:           000006H   BYTE   UNIT     CODE           ?PR?WATCHDOG_ENABLER_READ?WATCHDOG_ENABLER
   *DEL*:           000006H   BYTE   UNIT     CODE           ?PR?WATCHDOG_REFRESH_READ?WATCHDOG_REFRESH
   *DEL*:           000012H   BYTE   UNIT     CODE           ?PR?CYDMACERROR?CYDMAC
   *DEL*:           000010H   BYTE   UNIT     CODE           ?PR?_CYDMACCLEARERROR?CYDMAC
   *DEL*:           00000AH   BYTE   UNIT     CODE           ?PR?CYDMACERRORADDRESS?CYDMAC
   *DEL*:           0000BEH   BYTE   UNIT     CODE           ?PR?CYDMACHALLOC?CYDMAC
   *DEL*:           000006H   BYTE   UNIT     XDATA          ?XD?CYDMACHALLOC?CYDMAC
   *DEL*:           000064H   BYTE   UNIT     CODE           ?PR?_CYDMACHFREE?CYDMAC
   *DEL*:           000003H   BYTE   UNIT     XDATA          ?XD?_CYDMACHFREE?CYDMAC
   *DEL*:           000033H   BYTE   UNIT     CODE           ?PR?_CYDMACHDISABLE?CYDMAC
   *DEL*:           000033H   BYTE   UNIT     CODE           ?PR?_CYDMACLEARPENDINGDRQ?CYDMAC
   *DEL*:           000025H   BYTE   UNIT     CODE           ?PR?_CYDMACHSETREQUEST?CYDMAC
   *DEL*:           000024H   BYTE   UNIT     CODE           ?PR?_CYDMACHGETREQUEST?CYDMAC
   *DEL*:           000072H   BYTE   UNIT     CODE           ?PR?_CYDMACHSTATUS?CYDMAC
   *DEL*:           000007H   BYTE   UNIT     XDATA          ?XD?_CYDMACHSTATUS?CYDMAC
   *DEL*:           00003EH   BYTE   UNIT     CODE           ?PR?_CYDMATDFREE?CYDMAC
   *DEL*:           000002H   BYTE   UNIT     XDATA          ?XD?_CYDMATDFREE?CYDMAC
   *DEL*:           000009H   BYTE   UNIT     CODE           ?PR?CYDMATDFREECOUNT?CYDMAC
   *DEL*:           0000C9H   BYTE   UNIT     CODE           ?PR?_CYDMATDGETCONFIGURATION?CYDMAC
   *DEL*:           00000DH   BYTE   UNIT     XDATA          ?XD?_CYDMATDGETCONFIGURATION?CYDMAC
   *DEL*:           0000A6H   BYTE   UNIT     CODE           ?PR?_CYDMATDGETADDRESS?CYDMAC
   *DEL*:           00000AH   BYTE   UNIT     XDATA          ?XD?_CYDMATDGETADDRESS?CYDMAC
   *DEL*:           000038H   BYTE   UNIT     CODE           ?PR?_CYDMACHROUNDROBIN?CYDMAC
   *DEL*:           00006EH   BYTE   UNIT     CODE           ?PR?_CYPLL_OUT_START?CYLIB
   *DEL*:           000004H   BYTE   UNIT     XDATA          ?XD?_CYPLL_OUT_START?CYLIB
   *DEL*:           000008H   BYTE   UNIT     CODE           ?PR?CYPLL_OUT_STOP?CYLIB
   *DEL*:           000036H   BYTE   UNIT     CODE           ?PR?_CYPLL_OUT_SETPQ?CYLIB
   *DEL*:           000010H   BYTE   UNIT     CODE           ?PR?_CYPLL_OUT_SETSOURCE?CYLIB
   *DEL*:           000053H   BYTE   UNIT     CODE           ?PR?_CYIMO_START?CYLIB
   *DEL*:           000003H   BYTE   UNIT     XDATA          ?XD?_CYIMO_START?CYLIB
   *DEL*:           00000FH   BYTE   UNIT     CODE           ?PR?CYIMO_STOP?CYLIB
   *DEL*:           000027H   BYTE   UNIT     CODE           ?PR?CYUSB_POWERONCHECK?CYLIB
   *DEL*:           0000B6H   BYTE   UNIT     CODE           ?PR?_CYIMO_SETTRIMVALUE?CYLIB
   *DEL*:           000001H   BYTE   UNIT     XDATA          ?XD?_CYIMO_SETTRIMVALUE?CYLIB
   *DEL*:           000118H   BYTE   UNIT     CODE           ?PR?_CYIMO_SETFREQ?CYLIB
   *DEL*:           000003H   BYTE   UNIT     XDATA          ?XD?_CYIMO_SETFREQ?CYLIB
   *DEL*:           00002FH   BYTE   UNIT     CODE           ?PR?_CYIMO_SETSOURCE?CYLIB
   *DEL*:           000008H   BYTE   UNIT     CODE           ?PR?CYIMO_ENABLEDOUBLER?CYLIB
   *DEL*:           000008H   BYTE   UNIT     CODE           ?PR?CYIMO_DISABLEDOUBLER?CYLIB
   *DEL*:           00000DH   BYTE   UNIT     CODE           ?PR?_CYMASTERCLK_SETSOURCE?CYLIB
   *DEL*:           000006H   BYTE   UNIT     CODE           ?PR?_CYMASTERCLK_SETDIVIDER?CYLIB
   *DEL*:           000023H   BYTE   UNIT     CODE           ?PR?_CYBUSCLK_INTERNAL_SETDIVIDER?CYLIB
   *DEL*:           00007AH   BYTE   UNIT     CODE           ?PR?_CYBUSCLK_SETDIVIDER?CYLIB
   *DEL*:           000002H   BYTE   UNIT     XDATA          ?XD?_CYBUSCLK_SETDIVIDER?CYLIB
   *DEL*:           00000EH   BYTE   UNIT     CODE           ?PR?_CYCPUCLK_SETDIVIDER?CYLIB
   *DEL*:           00000DH   BYTE   UNIT     CODE           ?PR?_CYUSBCLK_SETSOURCE?CYLIB
   *DEL*:           000008H   BYTE   UNIT     CODE           ?PR?CYILO_START1K?CYLIB
   *DEL*:           000008H   BYTE   UNIT     CODE           ?PR?CYILO_STOP1K?CYLIB
   *DEL*:           000008H   BYTE   UNIT     CODE           ?PR?CYILO_START100K?CYLIB
LX51 LINKER/LOCATER V4.64.0.0                                                         03/27/2019  09:25:09  PAGE 12


   *DEL*:           000008H   BYTE   UNIT     CODE           ?PR?CYILO_STOP100K?CYLIB
   *DEL*:           000008H   BYTE   UNIT     CODE           ?PR?CYILO_ENABLE33K?CYLIB
   *DEL*:           000008H   BYTE   UNIT     CODE           ?PR?CYILO_DISABLE33K?CYLIB
   *DEL*:           000011H   BYTE   UNIT     CODE           ?PR?_CYILO_SETSOURCE?CYLIB
   *DEL*:           000029H   BYTE   UNIT     CODE           ?PR?_CYILO_SETPOWERMODE?CYLIB
   *DEL*:           00005EH   BYTE   UNIT     CODE           ?PR?CYXTAL_32KHZ_START?CYLIB
   *DEL*:           000002H   BYTE   UNIT     XDATA          ?XD?CYXTAL_32KHZ_START?CYLIB
   *DEL*:           000020H   BYTE   UNIT     CODE           ?PR?CYXTAL_32KHZ_STOP?CYLIB
   *DEL*:           000008H   BYTE   UNIT     CODE           ?PR?CYXTAL_32KHZ_READSTATUS?CYLIB
   *DEL*:           000066H   BYTE   UNIT     CODE           ?PR?_CYXTAL_32KHZ_SETPOWERMODE?CYLIB
   *DEL*:           000001H   BYTE   UNIT     XDATA          ?XD?_CYXTAL_32KHZ_SETPOWERMODE?CYLIB
   *DEL*:           0000A0H   BYTE   UNIT     CODE           ?PR?_CYXTAL_START?CYLIB
   *DEL*:           000006H   BYTE   UNIT     XDATA          ?XD?_CYXTAL_START?CYLIB
   *DEL*:           000008H   BYTE   UNIT     CODE           ?PR?CYXTAL_STOP?CYLIB
   *DEL*:           000008H   BYTE   UNIT     CODE           ?PR?CYXTAL_ENABLEERRSTATUS?CYLIB
   *DEL*:           000008H   BYTE   UNIT     CODE           ?PR?CYXTAL_DISABLEERRSTATUS?CYLIB
   *DEL*:           00000FH   BYTE   UNIT     CODE           ?PR?CYXTAL_READSTATUS?CYLIB
   *DEL*:           000008H   BYTE   UNIT     CODE           ?PR?CYXTAL_ENABLEFAULTRECOVERY?CYLIB
   *DEL*:           000008H   BYTE   UNIT     CODE           ?PR?CYXTAL_DISABLEFAULTRECOVERY?CYLIB
   *DEL*:           00000DH   BYTE   UNIT     CODE           ?PR?_CYXTAL_SETSTARTUP?CYLIB
   *DEL*:           00000DH   BYTE   UNIT     CODE           ?PR?_CYXTAL_SETFBVOLTAGE?CYLIB
   *DEL*:           00000EH   BYTE   UNIT     CODE           ?PR?_CYXTAL_SETWDVOLTAGE?CYLIB
   *DEL*:           000015H   BYTE   UNIT     CODE           ?PR?_?CYHALT?CYLIB
   *DEL*:           0000B8H   BYTE   UNIT     CODE           ?PR?_?CYDELAYFREQ?CYLIB
   *DEL*:           000026H   BYTE   UNIT     CODE           ?PR?_CYWDTSTART?CYLIB
   *DEL*:           000007H   BYTE   UNIT     CODE           ?PR?CYWDTCLEAR?CYLIB
   *DEL*:           000084H   BYTE   UNIT     CODE           ?PR?_CYVDLVDIGITENABLE?CYLIB
   *DEL*:           000007H   BYTE   UNIT     XDATA          ?XD?_CYVDLVDIGITENABLE?CYLIB
   *DEL*:           000083H   BYTE   UNIT     CODE           ?PR?_CYVDLVANALOGENABLE?CYLIB
   *DEL*:           000007H   BYTE   UNIT     XDATA          ?XD?_CYVDLVANALOGENABLE?CYLIB
   *DEL*:           00001DH   BYTE   UNIT     CODE           ?PR?CYVDLVDIGITDISABLE?CYLIB
   *DEL*:           000018H   BYTE   UNIT     CODE           ?PR?CYVDLVANALOGDISABLE?CYLIB
   *DEL*:           000056H   BYTE   UNIT     CODE           ?PR?CYVDHVANALOGENABLE?CYLIB
   *DEL*:           000005H   BYTE   UNIT     XDATA          ?XD?CYVDHVANALOGENABLE?CYLIB
   *DEL*:           000011H   BYTE   UNIT     CODE           ?PR?CYVDHVANALOGDISABLE?CYLIB
   *DEL*:           000039H   BYTE   UNIT     CODE           ?PR?_CYVDSTICKYSTATUS?CYLIB
   *DEL*:           000002H   BYTE   UNIT     XDATA          ?XD?_CYVDSTICKYSTATUS?CYLIB
   *DEL*:           000018H   BYTE   UNIT     CODE           ?PR?CYVDREALTIMESTATUS?CYLIB
   *DEL*:           000001H   BYTE   UNIT     XDATA          ?XD?CYVDREALTIMESTATUS?CYLIB
   *DEL*:           0000D0H   BYTE   UNIT     CODE           ?PR?CYDISABLEINTS?CYLIB
   *DEL*:           000005H   BYTE   UNIT     XDATA          ?XD?CYDISABLEINTS?CYLIB
   *DEL*:           000067H   BYTE   UNIT     CODE           ?PR?_CYENABLEINTS?CYLIB
   *DEL*:           000004H   BYTE   UNIT     XDATA          ?XD?_CYENABLEINTS?CYLIB
   *DEL*:           000018H   BYTE   UNIT     CODE           ?PR?_CYINTGETVECTOR?CYLIB
   *DEL*:           000014H   BYTE   UNIT     CODE           ?PR?_CYINTGETPRIORITY?CYLIB
   *DEL*:           000036H   BYTE   UNIT     CODE           ?PR?_CYINTGETSTATE?CYLIB
   *DEL*:           000248H   BYTE   UNIT     CODE           ?PR?_CYGETUNIQUEID?CYLIB
   *DEL*:           000003H   BYTE   UNIT     XDATA          ?XD?_CYGETUNIQUEID?CYLIB
   *DEL*:           000004H   BYTE   UNIT     CODE           ?PR?_CyDelay?CYBOOTASMKEIL
   *DEL*:           000019H   BYTE   UNIT     CODE           ?PR?CYMEMZERO?CYMEM
   *DEL*:           00002DH   BYTE   UNIT     CODE           ?PR?CFG_WRITE_BYTES?CYMEM
   *DEL*:           00002EH   BYTE   UNIT     CODE           ?PR?CY_WRITE_BYTES_CODE?CYMEM
   *DEL*:           000015H   BYTE   UNIT     CODE           ?PR?CYREAD32?CYMEM
   *DEL*:           000015H   BYTE   UNIT     CODE           ?PR?CYWRITE32?CYMEM
   *DEL*:           000021H   BYTE   UNIT     CODE           ?PR?_ADC_AMUX_FASTSELECT?ADC_AMUX
   *DEL*:           000001H   BYTE   UNIT     XDATA          ?XD?_ADC_AMUX_FASTSELECT?ADC_AMUX
   *DEL*:           00000FH   BYTE   UNIT     CODE           ?PR?ADC_EXT_CP_CLK_START?ADC_EXT_CP_CLK
   *DEL*:           00000FH   BYTE   UNIT     CODE           ?PR?ADC_EXT_CP_CLK_STOP?ADC_EXT_CP_CLK
   *DEL*:           00006EH   BYTE   UNIT     CODE           ?PR?ADC_EXT_CP_CLK_STOPBLOCK?ADC_EXT_CP_CLK
   *DEL*:           000002H   BYTE   UNIT     XDATA          ?XD?ADC_EXT_CP_CLK_STOPBLOCK?ADC_EXT_CP_CLK
   *DEL*:           000013H   BYTE   UNIT     CODE           ?PR?_ADC_EXT_CP_CLK_STANDBYPOWER?ADC_EXT_CP_CLK
   *DEL*:           00000EH   BYTE   UNIT     CODE           ?PR?_ADC_EXT_CP_CLK_CLEARMODEREGISTER?ADC_EXT_CP_CLK
   *DEL*:           000008H   BYTE   UNIT     CODE           ?PR?ADC_EXT_CP_CLK_GETMODEREGISTER?ADC_EXT_CP_CLK
   *DEL*:           000062H   BYTE   UNIT     CODE           ?PR?_ADC_EXT_CP_CLK_SETSOURCEREGISTER?ADC_EXT_CP_CLK
   *DEL*:           000003H   BYTE   UNIT     XDATA          ?XD?_ADC_EXT_CP_CLK_SETSOURCEREGISTER?ADC_EXT_CP_CLK
LX51 LINKER/LOCATER V4.64.0.0                                                         03/27/2019  09:25:09  PAGE 13


   *DEL*:           00000FH   BYTE   UNIT     CODE           ?PR?ADC_THEACLK_START?ADC_THEACLK
   *DEL*:           00000FH   BYTE   UNIT     CODE           ?PR?ADC_THEACLK_STOP?ADC_THEACLK
   *DEL*:           00006CH   BYTE   UNIT     CODE           ?PR?ADC_THEACLK_STOPBLOCK?ADC_THEACLK
   *DEL*:           000002H   BYTE   UNIT     XDATA          ?XD?ADC_THEACLK_STOPBLOCK?ADC_THEACLK
   *DEL*:           000013H   BYTE   UNIT     CODE           ?PR?_ADC_THEACLK_STANDBYPOWER?ADC_THEACLK
   *DEL*:           00000EH   BYTE   UNIT     CODE           ?PR?_ADC_THEACLK_CLEARMODEREGISTER?ADC_THEACLK
   *DEL*:           000008H   BYTE   UNIT     CODE           ?PR?ADC_THEACLK_GETMODEREGISTER?ADC_THEACLK
   *DEL*:           000062H   BYTE   UNIT     CODE           ?PR?_ADC_THEACLK_SETSOURCEREGISTER?ADC_THEACLK
   *DEL*:           000003H   BYTE   UNIT     XDATA          ?XD?_ADC_THEACLK_SETSOURCEREGISTER?ADC_THEACLK
   *DEL*:           000008H   BYTE   UNIT     CODE           ?PR?_ADC_THEACLK_SETPHASEREGISTER?ADC_THEACLK
   *DEL*:           000008H   BYTE   UNIT     CODE           ?PR?ADC_THEACLK_GETPHASEREGISTER?ADC_THEACLK
   *DEL*:           000031H   BYTE   UNIT     CODE           ?PR?CYFLASH_START?CYFLASH
   *DEL*:           000015H   BYTE   UNIT     CODE           ?PR?CYFLASH_STOP?CYFLASH
   *DEL*:           00007DH   BYTE   UNIT     CODE           ?PR?_CYSETFLASHEEBUFFER?CYFLASH
   *DEL*:           000004H   BYTE   UNIT     XDATA          ?XD?_CYSETFLASHEEBUFFER?CYFLASH
   *DEL*:           000034H   BYTE   UNIT     CODE           ?PR?_CYWRITEROWDATA?CYFLASH
   *DEL*:           000003H   BYTE   UNIT     XDATA          ?XD?_CYWRITEROWDATA?CYFLASH
   *DEL*:           000190H   BYTE   UNIT     CODE           ?PR?_CYWRITEROWFULL?CYFLASH
   *DEL*:           000009H   BYTE   UNIT     XDATA          ?XD?_CYWRITEROWFULL?CYFLASH
   *DEL*:           000044H   BYTE   UNIT     CODE           ?PR?_CYFLASH_SETWAITCYCLES?CYFLASH
   *DEL*:           000001H   BYTE   UNIT     XDATA          ?XD?_CYFLASH_SETWAITCYCLES?CYFLASH
   *DEL*:           000015H   BYTE   UNIT     CODE           ?PR?CYEEPROM_STOP?CYFLASH
   *DEL*:           000010H   BYTE   UNIT     CODE           ?PR?CYEEPROM_READRESERVE?CYFLASH
   *DEL*:           000008H   BYTE   UNIT     CODE           ?PR?CYEEPROM_READRELEASE?CYFLASH
   *DEL*:           0001A9H   BYTE   UNIT     CODE           ?PR?CYPMSAVECLOCKS?CYPM
   *DEL*:           00024CH   BYTE   UNIT     CODE           ?PR?CYPMRESTORECLOCKS?CYPM
   *DEL*:           000003H   BYTE   UNIT     XDATA          ?XD?CYPMRESTORECLOCKS?CYPM
   *DEL*:           0000E0H   BYTE   UNIT     CODE           ?PR?_CYPMALTACT?CYPM
   *DEL*:           000004H   BYTE   UNIT     XDATA          ?XD?_CYPMALTACT?CYPM
   *DEL*:           000160H   BYTE   UNIT     CODE           ?PR?_CYPMSLEEP?CYPM
   *DEL*:           000004H   BYTE   UNIT     XDATA          ?XD?_CYPMSLEEP?CYPM
   *DEL*:           000008H   BYTE   UNIT     CODE           ?PR?CYPMHIBERNATE?CYPM
   *DEL*:           0000D6H   BYTE   UNIT     CODE           ?PR?_CYPMHIBERNATEEX?CYPM
   *DEL*:           000003H   BYTE   UNIT     XDATA          ?XD?_CYPMHIBERNATEEX?CYPM
   *DEL*:           000039H   BYTE   UNIT     CODE           ?PR?_CYPMREADSTATUS?CYPM
   *DEL*:           000002H   BYTE   UNIT     XDATA          ?XD?_CYPMREADSTATUS?CYPM
   *DEL*:           000076H   BYTE   UNIT     CODE           ?PR?CYPMHIBSAVESET?CYPM
   *DEL*:           000040H   BYTE   UNIT     CODE           ?PR?CYPMHIBRESTORE?CYPM
   *DEL*:           000049H   BYTE   UNIT     CODE           ?PR?_CYPMCTWSETINTERVAL?CYPM
   *DEL*:           000001H   BYTE   UNIT     XDATA          ?XD?_CYPMCTWSETINTERVAL?CYPM
   *DEL*:           000017H   BYTE   UNIT     CODE           ?PR?CYPMOPPSSET?CYPM
   *DEL*:           00004DH   BYTE   UNIT     CODE           ?PR?_CYPMFTWSETINTERVAL?CYPM
   *DEL*:           000001H   BYTE   UNIT     XDATA          ?XD?_CYPMFTWSETINTERVAL?CYPM
   *DEL*:           00018CH   BYTE   UNIT     CODE           ?PR?CYPMHIBSLPSAVESET?CYPM
   *DEL*:           00010DH   BYTE   UNIT     CODE           ?PR?CYPMHIBSLPRESTORE?CYPM
   *DEL*:           000082H   BYTE   UNIT     CODE           ?PR?CYPMHVILVISAVEDISABLE?CYPM
   *DEL*:           000033H   BYTE   UNIT     CODE           ?PR?CYPMHVILVIRESTORE?CYPM
   *DEL*:           00000EH   BYTE   UNIT     CONST          ?CO?CYPM
   *DEL*:           000015H   BYTE   UNIT     CODE           ?PR?CYSPCSTOP?CYSPC
   *DEL*:           0000A7H   BYTE   UNIT     CODE           ?PR?_CYSPCLOADMULTIBYTE?CYSPC
   *DEL*:           000007H   BYTE   UNIT     XDATA          ?XD?_CYSPCLOADMULTIBYTE?CYSPC
   *DEL*:           000143H   BYTE   UNIT     CODE           ?PR?_CYSPCLOADROWFULL?CYSPC
   *DEL*:           00000FH   BYTE   UNIT     XDATA          ?XD?_CYSPCLOADROWFULL?CYSPC
   *DEL*:           000030H   BYTE   UNIT     CODE           ?PR?_CYSPCERASESECTOR?CYSPC



OVERLAY MAP OF MODULE:   .\DP8051_Keil_951\Release\cuff_mod_firmware.omf (COMMAND_PROCESSING)


FUNCTION/MODULE                                BIT_GROUP   DATA_GROUP   IDATA_GROUP  XDATA_GROUP
--> CALLED FUNCTION/MODULE                    START  STOP  START  STOP  START  STOP  START  STOP
================================================================================================
ISR_WATCHDOG_HANDLER/INTERRUPTIONS            ----- -----  ----- -----  ----- -----  ----- -----

LX51 LINKER/LOCATER V4.64.0.0                                                         03/27/2019  09:25:09  PAGE 14


*** NEW ROOT ********************************

ISR_RS485_RX_EXINTERRUPT/INTERRUPTIONS        ----- -----  ----- -----  ----- -----  ----- -----

*** NEW ROOT ********************************

ISR_RS485_RX_INTERRUPT/ISR_RS485_RX           ----- -----  ----- -----  ----- -----  ----- -----

*** NEW ROOT ********************************

ISR_WATCHDOG_INTERRUPT/ISR_WATCHDOG           ----- -----  ----- -----  ----- -----  ----- -----

*** NEW ROOT ********************************

?C_C51STARTUP                                 ----- -----  ----- -----  ----- -----  ----- -----
  +--> ?CO?KEILSTART?3
  +--> CYFITTER_CFG/CYFITTER_CFG
  +--> CYDMACCONFIGURE/CYDMAC
  +--> MAIN/MAIN
  +--> ?C_INITSEG

?CO?KEILSTART?3                               ----- -----  ----- -----  ----- -----  ----- -----

CYFITTER_CFG/CYFITTER_CFG                     ----- -----  ----- -----  ----- -----  ----- -----
  +--> CYREAD8/CYMEM
  +--> CYWRITE8/CYMEM
  +--> CFG_DMA_INIT/CYFITTER_CFG
  +--> ?CO?CYFITTER_CFG
  +--> CYCONFIGCPYCODE/CYMEM
  +--> _CYCONFIGCPY/CYMEM
  +--> CLOCKSETUP/CYFITTER_CFG
  +--> ANALOGSETDEFAULT/CYFITTER_CFG

CYREAD8/CYMEM                                 ----- -----  ----- -----  ----- -----  ----- -----

CYWRITE8/CYMEM                                ----- -----  ----- -----  ----- -----  ----- -----

CFG_DMA_INIT/CYFITTER_CFG                     ----- -----  ----- -----  ----- -----  ----- -----
  +--> CYWRITE16/CYMEM
  +--> ?CO?CYFITTER_CFG
  +--> _CYCONFIGCPY/CYMEM

CYWRITE16/CYMEM                               ----- -----  ----- -----  ----- -----  ----- -----

?CO?CYFITTER_CFG                              ----- -----  ----- -----  ----- -----  ----- -----

_CYCONFIGCPY/CYMEM                            ----- -----  ----- -----  ----- -----  0000H 0007H

CYCONFIGCPYCODE/CYMEM                         ----- -----  ----- -----  ----- -----  ----- -----

CLOCKSETUP/CYFITTER_CFG                       ----- -----  ----- -----  ----- -----  0000H 0004H
  +--> CYWRITE16/CYMEM
  +--> ?CO?CYFITTER_CFG
  +--> CYCONFIGCPYCODE/CYMEM
  +--> CYREAD8/CYMEM
  +--> CYDELAYCYCLES/CYBOOTASMKEIL
  +--> _CYCLOCKSTARTUPERROR/CYFITTER_CFG

CYDELAYCYCLES/CYBOOTASMKEIL                   ----- -----  ----- -----  ----- -----  ----- -----

_CYCLOCKSTARTUPERROR/CYFITTER_CFG             ----- -----  ----- -----  ----- -----  ----- -----

ANALOGSETDEFAULT/CYFITTER_CFG                 ----- -----  ----- -----  ----- -----  ----- -----
  +--> CYREAD8/CYMEM

LX51 LINKER/LOCATER V4.64.0.0                                                         03/27/2019  09:25:09  PAGE 15


CYDMACCONFIGURE/CYDMAC                        ----- -----  ----- -----  ----- -----  ----- -----

MAIN/MAIN                                     ----- -----  ----- -----  ----- -----  0000H 0002H
  +--> EEPROM_START/EEPROM
  +--> MEMRECALL/COMMAND_PROCESSING
  +--> _?CYDELAY/CYLIB
  +--> _FTDI_ENABLE_REG_WRITE/FTDI_ENABLE_REG
  +--> UART_RS485_STOP/UART_RS485
  +--> UART_RS485_START/UART_RS485
  +--> UART_RS485_INIT/UART_RS485
  +--> UART_RS485_CLEARRXBUFFER/UART_RS485
  +--> UART_RS485_CLEARTXBUFFER/UART_RS485
  +--> _ISR_RS485_RX_STARTEX/ISR_RS485_RX
  +--> WATCHDOG_COUNTER_START/WATCHDOG_COUNTER
  +--> _ISR_WATCHDOG_STARTEX/ISR_WATCHDOG
  +--> PWM_MOTORS_START/PWM_MOTORS
  +--> _PWM_MOTORS_WRITECOMPARE1/PWM_MOTORS
  +--> _PWM_MOTORS_WRITECOMPARE2/PWM_MOTORS
  +--> _MOTOR_DIR_WRITE/MOTOR_DIR
  +--> _MOTOR_ON_OFF_WRITE/MOTOR_ON_OFF
  +--> COUNTER_ENC_START/COUNTER_ENC
  +--> SHIFTREG_ENC_1_START/SHIFTREG_ENC_1
  +--> SHIFTREG_ENC_2_START/SHIFTREG_ENC_2
  +--> ADC_START/ADC
  +--> _ADC_SOC_WRITE/ADC_SOC
  +--> _DMA_DMAINITIALIZE/DMA_DMA
  +--> CYDMATDALLOCATE/CYDMAC
  +--> _CYDMATDSETCONFIGURATION/CYDMAC
  +--> _CYDMATDSETADDRESS/CYDMAC
  +--> _CYDMACHSETINITIALTD/CYDMAC
  +--> _CYDMACHENABLE/CYDMAC
  +--> _RS485_CTS_WRITE/RS485_CTS
  +--> MY_TIMER_START/MY_TIMER
  +--> PACER_TIMER_START/PACER_TIMER
  +--> _MEMSTORE/COMMAND_PROCESSING
  +--> _SENDACKNOWLEDGMENT/COMMAND_PROCESSING
  +--> _ENCODER_READING/INTERRUPTIONS
  +--> _WATCHDOG_ENABLER_WRITE/WATCHDOG_ENABLER
  +--> _RESET_FF_WRITE/RESET_FF
  +--> FUNCTION_SCHEDULER/INTERRUPTIONS
  +--> FF_STATUS_READ/FF_STATUS
  +--> _WATCHDOG_REFRESH_WRITE/WATCHDOG_REFRESH
  +--> INTERRUPT_MANAGER/INTERRUPTIONS
  +--> UART_RS485_READRXSTATUS/UART_RS485

EEPROM_START/EEPROM                           ----- -----  ----- -----  ----- -----  ----- -----
  +--> EEPROM_ENABLE/EEPROM

EEPROM_ENABLE/EEPROM                          ----- -----  ----- -----  ----- -----  ----- -----
  +--> CYSETTEMP/CYFLASH
  +--> CYEEPROM_START/CYFLASH

CYSETTEMP/CYFLASH                             ----- -----  ----- -----  ----- -----  0036H 0036H
  +--> CYFLASHGETSPCALGORITHM/CYFLASH
  +--> CYSETTEMPINT/CYFLASH

CYFLASHGETSPCALGORITHM/CYFLASH                ----- -----  ----- -----  ----- -----  0037H 0037H
  +--> CYSPCSTART/CYSPC
  +--> CYSPCLOCK/CYSPC
  +--> CYSPCGETALGORITHM/CYSPC
  +--> CYDELAYUS/CYBOOTASMKEIL
  +--> CYSPCUNLOCK/CYSPC

CYSPCSTART/CYSPC                              ----- -----  ----- -----  ----- -----  ----- -----
  +--> CYENTERCRITICALSECTION/CYBOOTASMKEIL
LX51 LINKER/LOCATER V4.64.0.0                                                         03/27/2019  09:25:09  PAGE 16


  +--> CYEXITCRITICALSECTION/CYBOOTASMKEIL

CYENTERCRITICALSECTION/CYBOOTASMKEIL          ----- -----  ----- -----  ----- -----  ----- -----

CYEXITCRITICALSECTION/CYBOOTASMKEIL           ----- -----  ----- -----  ----- -----  ----- -----

CYSPCLOCK/CYSPC                               ----- -----  ----- -----  ----- -----  003BH 003BH
  +--> CYENTERCRITICALSECTION/CYBOOTASMKEIL
  +--> CYEXITCRITICALSECTION/CYBOOTASMKEIL

CYSPCGETALGORITHM/CYSPC                       ----- -----  ----- -----  ----- -----  ----- -----

CYDELAYUS/CYBOOTASMKEIL                       ----- -----  ----- -----  ----- -----  ----- -----
  +--> CYDELAYCYCLES/CYBOOTASMKEIL

CYSPCUNLOCK/CYSPC                             ----- -----  ----- -----  ----- -----  ----- -----
  +--> CYENTERCRITICALSECTION/CYBOOTASMKEIL
  +--> CYEXITCRITICALSECTION/CYBOOTASMKEIL

CYSETTEMPINT/CYFLASH                          ----- -----  ----- -----  ----- -----  0037H 0037H
  +--> CYSPCSTART/CYSPC
  +--> CYSPCLOCK/CYSPC
  +--> _CYSPCGETTEMP/CYSPC
  +--> _CYSPCREADDATA/CYSPC
  +--> CYDELAYUS/CYBOOTASMKEIL
  +--> CYSPCUNLOCK/CYSPC

_CYSPCGETTEMP/CYSPC                           ----- -----  ----- -----  ----- -----  ----- -----

_CYSPCREADDATA/CYSPC                          ----- -----  ----- -----  ----- -----  0038H 003CH
  +--> CYDELAYUS/CYBOOTASMKEIL

CYEEPROM_START/CYFLASH                        ----- -----  ----- -----  ----- -----  ----- -----
  +--> CYENTERCRITICALSECTION/CYBOOTASMKEIL
  +--> CYEXITCRITICALSECTION/CYBOOTASMKEIL

MEMRECALL/COMMAND_PROCESSING                  ----- -----  ----- -----  ----- -----  ----- -----
  +--> MEMRESTORE/COMMAND_PROCESSING

MEMRESTORE/COMMAND_PROCESSING                 ----- -----  ----- -----  ----- -----  ----- -----
  +--> MEMINIT/COMMAND_PROCESSING
  +--> _MEMSTORE/COMMAND_PROCESSING

MEMINIT/COMMAND_PROCESSING                    ----- -----  0067H 0067H  ----- -----  ----- -----
  +--> _MEMSTORE/COMMAND_PROCESSING

_MEMSTORE/COMMAND_PROCESSING                  ----- -----  ----- -----  ----- -----  002FH 0035H
  +--> _PWM_MOTORS_WRITECOMPARE1/PWM_MOTORS
  +--> _PWM_MOTORS_WRITECOMPARE2/PWM_MOTORS
  +--> EEPROM_UPDATETEMPERATURE/EEPROM
  +--> _EEPROM_WRITE/EEPROM

_PWM_MOTORS_WRITECOMPARE1/PWM_MOTORS          ----- -----  ----- -----  ----- -----  ----- -----

_PWM_MOTORS_WRITECOMPARE2/PWM_MOTORS          ----- -----  ----- -----  ----- -----  ----- -----

EEPROM_UPDATETEMPERATURE/EEPROM               ----- -----  ----- -----  ----- -----  ----- -----
  +--> CYSETTEMP/CYFLASH

_EEPROM_WRITE/EEPROM                          ----- -----  ----- -----  ----- -----  0036H 003AH
  +--> CYSPCSTART/CYSPC
  +--> CYSPCLOCK/CYSPC
  +--> _CYSPCLOADROW/CYSPC
  +--> _CYSPCWRITEROW/CYSPC
  +--> CYSPCUNLOCK/CYSPC
LX51 LINKER/LOCATER V4.64.0.0                                                         03/27/2019  09:25:09  PAGE 17



_CYSPCLOADROW/CYSPC                           ----- -----  ----- -----  ----- -----  003BH 0041H

_CYSPCWRITEROW/CYSPC                          ----- -----  ----- -----  ----- -----  003BH 003FH

_?CYDELAY/CYLIB                               ----- -----  ----- -----  ----- -----  ----- -----
  +--> CYDELAYCYCLES/CYBOOTASMKEIL

_FTDI_ENABLE_REG_WRITE/FTDI_ENABLE_REG        ----- -----  ----- -----  ----- -----  ----- -----

UART_RS485_STOP/UART_RS485                    ----- -----  ----- -----  ----- -----  ----- -----
  +--> CYENTERCRITICALSECTION/CYBOOTASMKEIL
  +--> CYEXITCRITICALSECTION/CYBOOTASMKEIL

UART_RS485_START/UART_RS485                   ----- -----  ----- -----  ----- -----  ----- -----
  +--> UART_RS485_INIT/UART_RS485
  +--> UART_RS485_ENABLE/UART_RS485

UART_RS485_INIT/UART_RS485                    ----- -----  ----- -----  ----- -----  ----- -----
  +--> _CYINTSETVECTOR/CYLIB
  +--> _CYINTSETPRIORITY/CYLIB

_CYINTSETVECTOR/CYLIB                         ----- -----  ----- -----  ----- -----  0003H 0007H
  +--> CYREAD16/CYMEM
  +--> CYWRITE16/CYMEM

CYREAD16/CYMEM                                ----- -----  ----- -----  ----- -----  ----- -----

_CYINTSETPRIORITY/CYLIB                       ----- -----  ----- -----  ----- -----  ----- -----

UART_RS485_ENABLE/UART_RS485                  ----- -----  ----- -----  ----- -----  ----- -----
  +--> CYENTERCRITICALSECTION/CYBOOTASMKEIL
  +--> CYEXITCRITICALSECTION/CYBOOTASMKEIL

UART_RS485_CLEARRXBUFFER/UART_RS485           ----- -----  ----- -----  ----- -----  ----- -----
  +--> CYENTERCRITICALSECTION/CYBOOTASMKEIL
  +--> CYEXITCRITICALSECTION/CYBOOTASMKEIL

UART_RS485_CLEARTXBUFFER/UART_RS485           ----- -----  ----- -----  ----- -----  ----- -----
  +--> CYENTERCRITICALSECTION/CYBOOTASMKEIL
  +--> CYEXITCRITICALSECTION/CYBOOTASMKEIL

_ISR_RS485_RX_STARTEX/ISR_RS485_RX            ----- -----  ----- -----  ----- -----  0003H 0004H
  +--> ISR_RS485_RX_DISABLE/ISR_RS485_RX
  +--> _ISR_RS485_RX_SETVECTOR/ISR_RS485_RX
  +--> _ISR_RS485_RX_SETPRIORITY/ISR_RS485_RX
  +--> ISR_RS485_RX_ENABLE/ISR_RS485_RX

ISR_RS485_RX_DISABLE/ISR_RS485_RX             ----- -----  ----- -----  ----- -----  ----- -----

_ISR_RS485_RX_SETVECTOR/ISR_RS485_RX          ----- -----  ----- -----  ----- -----  ----- -----
  +--> CYWRITE16/CYMEM

_ISR_RS485_RX_SETPRIORITY/ISR_RS485_RX        ----- -----  ----- -----  ----- -----  ----- -----

ISR_RS485_RX_ENABLE/ISR_RS485_RX              ----- -----  ----- -----  ----- -----  ----- -----

WATCHDOG_COUNTER_START/WATCHDOG_COUNTER       ----- -----  ----- -----  ----- -----  ----- -----
  +--> WATCHDOG_COUNTER_INIT/WATCHDOG_COUNTER
  +--> WATCHDOG_COUNTER_ENABLE/WATCHDOG_COUNTER

WATCHDOG_COUNTER_INIT/WATCHDOG_COUNTER        ----- -----  ----- -----  ----- -----  ----- -----
  +--> _WATCHDOG_COUNTER_WRITEPERIOD/WATCHDOG_COUNTER
  +--> _WATCHDOG_COUNTER_WRITECOUNTER/WATCHDOG_COUNTER
  +--> _WATCHDOG_COUNTER_SETINTERRUPTMODE/WATCHDOG_COUNTER
LX51 LINKER/LOCATER V4.64.0.0                                                         03/27/2019  09:25:09  PAGE 18



_WATCHDOG_COUNTER_WRITEPERIOD/WATCHDOG_C+     ----- -----  ----- -----  ----- -----  ----- -----
... OUNTER
  +--> CYWRITE16/CYMEM

_WATCHDOG_COUNTER_WRITECOUNTER/WATCHDOG_+     ----- -----  ----- -----  ----- -----  ----- -----
... COUNTER
  +--> CYWRITE16/CYMEM

_WATCHDOG_COUNTER_SETINTERRUPTMODE/WATCH+     ----- -----  ----- -----  ----- -----  ----- -----
... DOG_COUNTER

WATCHDOG_COUNTER_ENABLE/WATCHDOG_COUNTER      ----- -----  ----- -----  ----- -----  ----- -----

_ISR_WATCHDOG_STARTEX/ISR_WATCHDOG            ----- -----  ----- -----  ----- -----  0003H 0004H
  +--> ISR_WATCHDOG_DISABLE/ISR_WATCHDOG
  +--> _ISR_WATCHDOG_SETVECTOR/ISR_WATCHDOG
  +--> _ISR_WATCHDOG_SETPRIORITY/ISR_WATCHDOG
  +--> ISR_WATCHDOG_ENABLE/ISR_WATCHDOG

ISR_WATCHDOG_DISABLE/ISR_WATCHDOG             ----- -----  ----- -----  ----- -----  ----- -----

_ISR_WATCHDOG_SETVECTOR/ISR_WATCHDOG          ----- -----  ----- -----  ----- -----  ----- -----
  +--> CYWRITE16/CYMEM

_ISR_WATCHDOG_SETPRIORITY/ISR_WATCHDOG        ----- -----  ----- -----  ----- -----  ----- -----

ISR_WATCHDOG_ENABLE/ISR_WATCHDOG              ----- -----  ----- -----  ----- -----  ----- -----

PWM_MOTORS_START/PWM_MOTORS                   ----- -----  ----- -----  ----- -----  ----- -----
  +--> PWM_MOTORS_INIT/PWM_MOTORS
  +--> PWM_MOTORS_ENABLE/PWM_MOTORS

PWM_MOTORS_INIT/PWM_MOTORS                    ----- -----  ----- -----  ----- -----  ----- -----
  +--> _PWM_MOTORS_WRITECOUNTER/PWM_MOTORS
  +--> _PWM_MOTORS_WRITEPERIOD/PWM_MOTORS
  +--> _PWM_MOTORS_WRITECOMPARE1/PWM_MOTORS
  +--> _PWM_MOTORS_WRITECOMPARE2/PWM_MOTORS

_PWM_MOTORS_WRITECOUNTER/PWM_MOTORS           ----- -----  ----- -----  ----- -----  ----- -----

_PWM_MOTORS_WRITEPERIOD/PWM_MOTORS            ----- -----  ----- -----  ----- -----  ----- -----

PWM_MOTORS_ENABLE/PWM_MOTORS                  ----- -----  ----- -----  ----- -----  ----- -----

_MOTOR_DIR_WRITE/MOTOR_DIR                    ----- -----  ----- -----  ----- -----  ----- -----

_MOTOR_ON_OFF_WRITE/MOTOR_ON_OFF              ----- -----  ----- -----  ----- -----  ----- -----

COUNTER_ENC_START/COUNTER_ENC                 ----- -----  ----- -----  ----- -----  ----- -----
  +--> COUNTER_ENC_INIT/COUNTER_ENC
  +--> COUNTER_ENC_ENABLE/COUNTER_ENC

COUNTER_ENC_INIT/COUNTER_ENC                  ----- -----  ----- -----  ----- -----  ----- -----
  +--> COUNTER_ENC_CLEARFIFO/COUNTER_ENC
  +--> _COUNTER_ENC_WRITEPERIOD/COUNTER_ENC
  +--> _COUNTER_ENC_WRITECOUNTER/COUNTER_ENC
  +--> _COUNTER_ENC_SETINTERRUPTMODE/COUNTER_ENC
  +--> COUNTER_ENC_READSTATUSREGISTER/COUNTER_ENC
  +--> _COUNTER_ENC_WRITECOMPARE/COUNTER_ENC
  +--> CYENTERCRITICALSECTION/CYBOOTASMKEIL
  +--> CYEXITCRITICALSECTION/CYBOOTASMKEIL

COUNTER_ENC_CLEARFIFO/COUNTER_ENC             ----- -----  ----- -----  ----- -----  ----- -----
  +--> COUNTER_ENC_READSTATUSREGISTER/COUNTER_ENC
LX51 LINKER/LOCATER V4.64.0.0                                                         03/27/2019  09:25:09  PAGE 19


  +--> COUNTER_ENC_READCAPTURE/COUNTER_ENC

COUNTER_ENC_READSTATUSREGISTER/COUNTER_E+     ----- -----  ----- -----  ----- -----  ----- -----
... NC

COUNTER_ENC_READCAPTURE/COUNTER_ENC           ----- -----  ----- -----  ----- -----  ----- -----

_COUNTER_ENC_WRITEPERIOD/COUNTER_ENC          ----- -----  ----- -----  ----- -----  ----- -----

_COUNTER_ENC_WRITECOUNTER/COUNTER_ENC         ----- -----  ----- -----  ----- -----  ----- -----

_COUNTER_ENC_SETINTERRUPTMODE/COUNTER_EN+     ----- -----  ----- -----  ----- -----  ----- -----
... C

_COUNTER_ENC_WRITECOMPARE/COUNTER_ENC         ----- -----  ----- -----  ----- -----  ----- -----

COUNTER_ENC_ENABLE/COUNTER_ENC                ----- -----  ----- -----  ----- -----  ----- -----

SHIFTREG_ENC_1_START/SHIFTREG_ENC_1           ----- -----  ----- -----  ----- -----  ----- -----
  +--> SHIFTREG_ENC_1_INIT/SHIFTREG_ENC_1
  +--> SHIFTREG_ENC_1_ENABLE/SHIFTREG_ENC_1

SHIFTREG_ENC_1_INIT/SHIFTREG_ENC_1            ----- -----  ----- -----  ----- -----  ----- -----
  +--> _SHIFTREG_ENC_1_SETINTMODE/SHIFTREG_ENC_1

_SHIFTREG_ENC_1_SETINTMODE/SHIFTREG_ENC_+     ----- -----  ----- -----  ----- -----  ----- -----
... 1

SHIFTREG_ENC_1_ENABLE/SHIFTREG_ENC_1          ----- -----  ----- -----  ----- -----  ----- -----
  +--> SHIFTREG_ENC_1_ENABLEINT/SHIFTREG_ENC_1

SHIFTREG_ENC_1_ENABLEINT/SHIFTREG_ENC_1       ----- -----  ----- -----  ----- -----  ----- -----
  +--> CYENTERCRITICALSECTION/CYBOOTASMKEIL
  +--> CYEXITCRITICALSECTION/CYBOOTASMKEIL

SHIFTREG_ENC_2_START/SHIFTREG_ENC_2           ----- -----  ----- -----  ----- -----  ----- -----
  +--> SHIFTREG_ENC_2_INIT/SHIFTREG_ENC_2
  +--> SHIFTREG_ENC_2_ENABLE/SHIFTREG_ENC_2

SHIFTREG_ENC_2_INIT/SHIFTREG_ENC_2            ----- -----  ----- -----  ----- -----  ----- -----
  +--> _SHIFTREG_ENC_2_SETINTMODE/SHIFTREG_ENC_2

_SHIFTREG_ENC_2_SETINTMODE/SHIFTREG_ENC_+     ----- -----  ----- -----  ----- -----  ----- -----
... 2

SHIFTREG_ENC_2_ENABLE/SHIFTREG_ENC_2          ----- -----  ----- -----  ----- -----  ----- -----
  +--> SHIFTREG_ENC_2_ENABLEINT/SHIFTREG_ENC_2

SHIFTREG_ENC_2_ENABLEINT/SHIFTREG_ENC_2       ----- -----  ----- -----  ----- -----  ----- -----
  +--> CYENTERCRITICALSECTION/CYBOOTASMKEIL
  +--> CYEXITCRITICALSECTION/CYBOOTASMKEIL

ADC_START/ADC                                 ----- -----  ----- -----  ----- -----  ----- -----
  +--> ADC_INIT/ADC
  +--> ADC_ENABLE/ADC

ADC_INIT/ADC                                  ----- -----  ----- -----  ----- -----  ----- -----
  +--> _ADC_EXT_CP_CLK_SETMODEREGISTER/ADC_EXT_CP_CLK
  +--> _ADC_THEACLK_SETMODEREGISTER/ADC_THEACLK
  +--> _CYINTSETPRIORITY/CYLIB
  +--> _ADC_GAINCOMPENSATION/ADC
  +--> CYWRITE16/CYMEM
  +--> _ADC_INITCONFIG/ADC

_ADC_EXT_CP_CLK_SETMODEREGISTER/ADC_EXT_+     ----- -----  ----- -----  ----- -----  ----- -----
LX51 LINKER/LOCATER V4.64.0.0                                                         03/27/2019  09:25:09  PAGE 20


... CP_CLK

_ADC_THEACLK_SETMODEREGISTER/ADC_THEACLK      ----- -----  ----- -----  ----- -----  ----- -----

_ADC_GAINCOMPENSATION/ADC                     ----- -----  ----- -----  ----- -----  0003H 000AH
  +--> CYREAD8/CYMEM

_ADC_INITCONFIG/ADC                           ----- -----  ----- -----  ----- -----  ----- -----
  +--> _ADC_SETDSMREF0REG/ADC
  +--> _ADC_AMUX_SELECT/ADC_AMUX
  +--> _ADC_EXT_CP_CLK_SETDIVIDERREGISTER/ADC_EXT_CP_CLK
  +--> _ADC_THEACLK_SETDIVIDERREGISTER/ADC_THEACLK
  +--> _CYINTSETVECTOR/CYLIB

_ADC_SETDSMREF0REG/ADC                        ----- -----  ----- -----  ----- -----  0003H 0004H
  +--> CYENTERCRITICALSECTION/CYBOOTASMKEIL
  +--> CYDELAYUS/CYBOOTASMKEIL
  +--> CYEXITCRITICALSECTION/CYBOOTASMKEIL

_ADC_AMUX_SELECT/ADC_AMUX                     ----- -----  ----- -----  ----- -----  0003H 0003H
  +--> ADC_AMUX_START/ADC_AMUX
  +--> _ADC_AMUX_SET/CYFITTER_CFG

ADC_AMUX_START/ADC_AMUX                       ----- -----  ----- -----  ----- -----  0004H 0004H
  +--> _ADC_AMUX_UNSET/CYFITTER_CFG

_ADC_AMUX_UNSET/CYFITTER_CFG                  ----- -----  ----- -----  ----- -----  ----- -----
  +--> ?CO?CYFITTER_CFG

_ADC_AMUX_SET/CYFITTER_CFG                    ----- -----  ----- -----  ----- -----  ----- -----
  +--> ?CO?CYFITTER_CFG

_ADC_EXT_CP_CLK_SETDIVIDERREGISTER/ADC_E+     ----- -----  ----- -----  ----- -----  0003H 0009H
... XT_CP_CLK
  +--> ADC_EXT_CP_CLK_GETSOURCEREGISTER/ADC_EXT_CP_CLK
  +--> ADC_EXT_CP_CLK_GETDIVIDERREGISTER/ADC_EXT_CP_CLK
  +--> CYWRITE16/CYMEM

ADC_EXT_CP_CLK_GETSOURCEREGISTER/ADC_EXT+     ----- -----  ----- -----  ----- -----  ----- -----
... _CP_CLK

ADC_EXT_CP_CLK_GETDIVIDERREGISTER/ADC_EX+     ----- -----  ----- -----  ----- -----  ----- -----
... T_CP_CLK
  +--> CYREAD16/CYMEM

_ADC_THEACLK_SETDIVIDERREGISTER/ADC_THEA+     ----- -----  ----- -----  ----- -----  0003H 0009H
... CLK
  +--> ADC_THEACLK_GETSOURCEREGISTER/ADC_THEACLK
  +--> ADC_THEACLK_GETDIVIDERREGISTER/ADC_THEACLK
  +--> CYWRITE16/CYMEM

ADC_THEACLK_GETSOURCEREGISTER/ADC_THEACL+     ----- -----  ----- -----  ----- -----  ----- -----
... K

ADC_THEACLK_GETDIVIDERREGISTER/ADC_THEAC+     ----- -----  ----- -----  ----- -----  ----- -----
... LK
  +--> CYREAD16/CYMEM

ADC_ENABLE/ADC                                ----- -----  ----- -----  ----- -----  0003H 0004H
  +--> CYENTERCRITICALSECTION/CYBOOTASMKEIL
  +--> CYDELAYUS/CYBOOTASMKEIL
  +--> CYEXITCRITICALSECTION/CYBOOTASMKEIL

_ADC_SOC_WRITE/ADC_SOC                        ----- -----  ----- -----  ----- -----  ----- -----

LX51 LINKER/LOCATER V4.64.0.0                                                         03/27/2019  09:25:09  PAGE 21


_DMA_DMAINITIALIZE/DMA_DMA                    ----- -----  ----- -----  ----- -----  0003H 0008H
  +--> _CYDMACHSETCONFIGURATION/CYDMAC
  +--> _CYDMACHSETEXTENDEDADDRESS/CYDMAC
  +--> _CYDMACHPRIORITY/CYDMAC

_CYDMACHSETCONFIGURATION/CYDMAC               ----- -----  ----- -----  ----- -----  0009H 000EH

_CYDMACHSETEXTENDEDADDRESS/CYDMAC             ----- -----  ----- -----  ----- -----  0009H 0010H
  +--> CYWRITE16/CYMEM

_CYDMACHPRIORITY/CYDMAC                       ----- -----  ----- -----  ----- -----  ----- -----

CYDMATDALLOCATE/CYDMAC                        ----- -----  ----- -----  ----- -----  0003H 0003H
  +--> CYENTERCRITICALSECTION/CYBOOTASMKEIL
  +--> CYEXITCRITICALSECTION/CYBOOTASMKEIL

_CYDMATDSETCONFIGURATION/CYDMAC               ----- -----  ----- -----  ----- -----  0003H 000AH
  +--> CYWRITE16/CYMEM

_CYDMATDSETADDRESS/CYDMAC                     ----- -----  ----- -----  ----- -----  0003H 000AH
  +--> CYWRITE16/CYMEM

_CYDMACHSETINITIALTD/CYDMAC                   ----- -----  ----- -----  ----- -----  ----- -----

_CYDMACHENABLE/CYDMAC                         ----- -----  ----- -----  ----- -----  ----- -----

_RS485_CTS_WRITE/RS485_CTS                    ----- -----  ----- -----  ----- -----  ----- -----

MY_TIMER_START/MY_TIMER                       ----- -----  ----- -----  ----- -----  ----- -----
  +--> MY_TIMER_INIT/MY_TIMER
  +--> MY_TIMER_ENABLE/MY_TIMER

MY_TIMER_INIT/MY_TIMER                        ----- -----  ----- -----  ----- -----  ----- -----
  +--> _MY_TIMER_WRITEPERIOD/MY_TIMER
  +--> _MY_TIMER_WRITECOUNTER/MY_TIMER
  +--> CYENTERCRITICALSECTION/CYBOOTASMKEIL
  +--> CYEXITCRITICALSECTION/CYBOOTASMKEIL
  +--> MY_TIMER_CLEARFIFO/MY_TIMER
  +--> _MY_TIMER_SETINTERRUPTMODE/MY_TIMER

_MY_TIMER_WRITEPERIOD/MY_TIMER                ----- -----  ----- -----  ----- -----  ----- -----
  +--> CYWRITE24/CYMEM

CYWRITE24/CYMEM                               ----- -----  ----- -----  ----- -----  ----- -----

_MY_TIMER_WRITECOUNTER/MY_TIMER               ----- -----  ----- -----  ----- -----  ----- -----
  +--> CYWRITE24/CYMEM

MY_TIMER_CLEARFIFO/MY_TIMER                   ----- -----  ----- -----  ----- -----  ----- -----
  +--> MY_TIMER_READSTATUSREGISTER/MY_TIMER
  +--> MY_TIMER_READCAPTURE/MY_TIMER

MY_TIMER_READSTATUSREGISTER/MY_TIMER          ----- -----  ----- -----  ----- -----  ----- -----

MY_TIMER_READCAPTURE/MY_TIMER                 ----- -----  ----- -----  ----- -----  ----- -----
  +--> CYREAD24/CYMEM

CYREAD24/CYMEM                                ----- -----  ----- -----  ----- -----  ----- -----

_MY_TIMER_SETINTERRUPTMODE/MY_TIMER           ----- -----  ----- -----  ----- -----  ----- -----

MY_TIMER_ENABLE/MY_TIMER                      ----- -----  ----- -----  ----- -----  ----- -----

PACER_TIMER_START/PACER_TIMER                 ----- -----  ----- -----  ----- -----  ----- -----
  +--> PACER_TIMER_INIT/PACER_TIMER
LX51 LINKER/LOCATER V4.64.0.0                                                         03/27/2019  09:25:09  PAGE 22


  +--> PACER_TIMER_ENABLE/PACER_TIMER

PACER_TIMER_INIT/PACER_TIMER                  ----- -----  ----- -----  ----- -----  ----- -----
  +--> _PACER_TIMER_WRITEPERIOD/PACER_TIMER
  +--> _PACER_TIMER_WRITECOUNTER/PACER_TIMER
  +--> _PACER_TIMER_SETINTERRUPTMODE/PACER_TIMER

_PACER_TIMER_WRITEPERIOD/PACER_TIMER          ----- -----  ----- -----  ----- -----  ----- -----
  +--> CYWRITE16/CYMEM

_PACER_TIMER_WRITECOUNTER/PACER_TIMER         ----- -----  ----- -----  ----- -----  ----- -----
  +--> CYWRITE16/CYMEM

_PACER_TIMER_SETINTERRUPTMODE/PACER_TIME+     ----- -----  ----- -----  ----- -----  ----- -----
... R

PACER_TIMER_ENABLE/PACER_TIMER                ----- -----  ----- -----  ----- -----  ----- -----

_SENDACKNOWLEDGMENT/COMMAND_PROCESSING        ----- -----  006BH 006CH  ----- -----  ----- -----
  +--> _COMMWRITE/COMMAND_PROCESSING

_COMMWRITE/COMMAND_PROCESSING                 ----- -----  007CH 007DH  ----- -----  0B06H 0B0BH
  +--> _UART_RS485_PUTCHAR/UART_RS485
  +--> UART_RS485_READTXSTATUS/UART_RS485
  +--> _RS485_CTS_WRITE/RS485_CTS

_UART_RS485_PUTCHAR/UART_RS485                ----- -----  ----- -----  ----- -----  ----- -----

UART_RS485_READTXSTATUS/UART_RS485            ----- -----  ----- -----  ----- -----  ----- -----

_ENCODER_READING/INTERRUPTIONS                ----- -----  0023H 0023H  ----- -----  0003H 000FH
  +--> SHIFTREG_ENC_1_READDATA/SHIFTREG_ENC_1
  +--> SHIFTREG_ENC_2_READDATA/SHIFTREG_ENC_2
  +--> SHIFTREG_ENC_3_READDATA/SHIFTREG_ENC_3
  +--> SHIFTREG_ENC_4_READDATA/SHIFTREG_ENC_4
  +--> _CHECK_ENC_DATA/UTILS
  +--> _ABS/ABS

SHIFTREG_ENC_1_READDATA/SHIFTREG_ENC_1        ----- -----  ----- -----  ----- -----  ----- -----
  +--> CYREAD24/CYMEM

SHIFTREG_ENC_2_READDATA/SHIFTREG_ENC_2        ----- -----  ----- -----  ----- -----  ----- -----
  +--> CYREAD24/CYMEM

SHIFTREG_ENC_3_READDATA/SHIFTREG_ENC_3        ----- -----  ----- -----  ----- -----  ----- -----
  +--> CYREAD24/CYMEM

SHIFTREG_ENC_4_READDATA/SHIFTREG_ENC_4        ----- -----  ----- -----  ----- -----  ----- -----
  +--> CYREAD24/CYMEM

_CHECK_ENC_DATA/UTILS                         ----- -----  0024H 0024H  0010H 0012H  ----- -----

_ABS/ABS                                      ----- -----  ----- -----  ----- -----  ----- -----

_WATCHDOG_ENABLER_WRITE/WATCHDOG_ENABLER      ----- -----  ----- -----  ----- -----  ----- -----

_RESET_FF_WRITE/RESET_FF                      ----- -----  ----- -----  ----- -----  ----- -----

FUNCTION_SCHEDULER/INTERRUPTIONS              ----- -----  ----- -----  ----- -----  ----- -----
  +--> MY_TIMER_READCOUNTER/MY_TIMER
  +--> _ADC_SOC_WRITE/ADC_SOC
  +--> INTERRUPT_MANAGER/INTERRUPTIONS
  +--> _ENCODER_READING/INTERRUPTIONS
  +--> _MOTOR_CONTROL/INTERRUPTIONS
  +--> ANALOG_READ_END/INTERRUPTIONS
LX51 LINKER/LOCATER V4.64.0.0                                                         03/27/2019  09:25:09  PAGE 23


  +--> PRETENSIONING_PROCESS/INTERRUPTIONS
  +--> DRIVE_CUFF/COMMAND_PROCESSING
  +--> SLIDE_CUFF/COMMAND_PROCESSING
  +--> FORCE_AND_SLIDE_CUFF/COMMAND_PROCESSING
  +--> _MY_TIMER_WRITECOUNTER/MY_TIMER

MY_TIMER_READCOUNTER/MY_TIMER                 ----- -----  ----- -----  ----- -----  ----- -----
  +--> CYREAD24/CYMEM

INTERRUPT_MANAGER/INTERRUPTIONS               20H.0 20H.0  0064H 0065H  ----- -----  ----- -----
  +--> UART_RS485_GETRXBUFFERSIZE/UART_RS485
  +--> UART_RS485_GETCHAR/UART_RS485
  +--> _INFOGET/COMMAND_PROCESSING
  +--> COMMPROCESS/COMMAND_PROCESSING
  +--> _RS485_CTS_WRITE/RS485_CTS

UART_RS485_GETRXBUFFERSIZE/UART_RS485         ----- -----  ----- -----  ----- -----  ----- -----

UART_RS485_GETCHAR/UART_RS485                 ----- -----  ----- -----  ----- -----  ----- -----

_INFOGET/COMMAND_PROCESSING                   ----- -----  ----- -----  ----- -----  002FH 060AH
  +--> _INFOPREPARE/COMMAND_PROCESSING
  +--> _UART_RS485_PUTSTRING/UART_RS485

_INFOPREPARE/COMMAND_PROCESSING               ----- -----  0067H 0068H  ----- -----  060BH 063FH
  +--> ?CO?COMMAND_PROCESSING
  +--> _STRCAT/STRCAT
  +--> PRINTF/PRINTF

?CO?COMMAND_PROCESSING                        ----- -----  ----- -----  ----- -----  ----- -----

_STRCAT/STRCAT                                ----- -----  ----- -----  ----- -----  0B06H 0B0EH

PRINTF/PRINTF                                 20H.1 21H.1  0069H 006DH  ----- -----  0640H 066FH
  +--> PUTCHAR/PUTCHAR

PUTCHAR/PUTCHAR                               ----- -----  ----- -----  ----- -----  ----- -----

_UART_RS485_PUTSTRING/UART_RS485              ----- -----  ----- -----  ----- -----  060BH 060DH
  +--> _UART_RS485_PUTCHAR/UART_RS485

COMMPROCESS/COMMAND_PROCESSING                ----- -----  0066H 0066H  ----- -----  ----- -----
  +--> _LCRCHECKSUM/UTILS
  +--> CMD_GET_MEASUREMENTS/COMMAND_PROCESSING
  +--> CMD_GET_INPUTS/COMMAND_PROCESSING
  +--> CMD_GET_CURRENTS/COMMAND_PROCESSING
  +--> CMD_GET_CURR_AND_MEAS/COMMAND_PROCESSING
  +--> CMD_SET_INPUTS/COMMAND_PROCESSING
  +--> CMD_SET_POS_STIFF/COMMAND_PROCESSING
  +--> CMD_GET_VELOCITIES/COMMAND_PROCESSING
  +--> CMD_ACTIVATE/COMMAND_PROCESSING
  +--> CMD_SET_WATCHDOG/COMMAND_PROCESSING
  +--> CMD_GET_ACTIVATE/COMMAND_PROCESSING
  +--> CMD_SET_BAUDRATE/COMMAND_PROCESSING
  +--> _INFOGET/COMMAND_PROCESSING
  +--> SETZEROS/COMMAND_PROCESSING
  +--> _GET_PARAM_LIST/COMMAND_PROCESSING
  +--> CMD_PING/COMMAND_PROCESSING
  +--> CMD_STORE_PARAMS/COMMAND_PROCESSING
  +--> _MEMSTORE/COMMAND_PROCESSING
  +--> _SENDACKNOWLEDGMENT/COMMAND_PROCESSING
  +--> MEMRESTORE/COMMAND_PROCESSING
  +--> MEMINIT/COMMAND_PROCESSING
  +--> _?CYDELAY/CYLIB
  +--> _FTDI_ENABLE_REG_WRITE/FTDI_ENABLE_REG
LX51 LINKER/LOCATER V4.64.0.0                                                         03/27/2019  09:25:09  PAGE 24


  +--> BOOTLOADABLE_LOAD/BOOTLOADABLE

_LCRCHECKSUM/UTILS                            ----- -----  007CH 007DH  ----- -----  0B06H 0B08H

CMD_GET_MEASUREMENTS/COMMAND_PROCESSING       ----- -----  0067H 0067H  ----- -----  002FH 0036H
  +--> _LCRCHECKSUM/UTILS
  +--> _COMMWRITE/COMMAND_PROCESSING

CMD_GET_INPUTS/COMMAND_PROCESSING             ----- -----  ----- -----  ----- -----  002FH 0034H
  +--> _LCRCHECKSUM/UTILS
  +--> _COMMWRITE/COMMAND_PROCESSING

CMD_GET_CURRENTS/COMMAND_PROCESSING           ----- -----  ----- -----  ----- -----  002FH 0034H
  +--> _LCRCHECKSUM/UTILS
  +--> _COMMWRITE/COMMAND_PROCESSING

CMD_GET_CURR_AND_MEAS/COMMAND_PROCESSING      ----- -----  0067H 0067H  ----- -----  002FH 003AH
  +--> _LCRCHECKSUM/UTILS
  +--> _COMMWRITE/COMMAND_PROCESSING

CMD_SET_INPUTS/COMMAND_PROCESSING             ----- -----  ----- -----  ----- -----  ----- -----

CMD_SET_POS_STIFF/COMMAND_PROCESSING          ----- -----  0067H 006EH  ----- -----  ----- -----

CMD_GET_VELOCITIES/COMMAND_PROCESSING         ----- -----  0067H 0067H  ----- -----  002FH 0036H
  +--> _LCRCHECKSUM/UTILS
  +--> _COMMWRITE/COMMAND_PROCESSING

CMD_ACTIVATE/COMMAND_PROCESSING               ----- -----  ----- -----  ----- -----  ----- -----
  +--> _MOTOR_ON_OFF_WRITE/MOTOR_ON_OFF

CMD_SET_WATCHDOG/COMMAND_PROCESSING           ----- -----  ----- -----  ----- -----  ----- -----
  +--> _WATCHDOG_ENABLER_WRITE/WATCHDOG_ENABLER
  +--> _WATCHDOG_COUNTER_WRITEPERIOD/WATCHDOG_COUNTER

CMD_GET_ACTIVATE/COMMAND_PROCESSING           ----- -----  ----- -----  ----- -----  002FH 0031H
  +--> _LCRCHECKSUM/UTILS
  +--> _COMMWRITE/COMMAND_PROCESSING

CMD_SET_BAUDRATE/COMMAND_PROCESSING           ----- -----  ----- -----  ----- -----  ----- -----
  +--> _CLOCK_UART_SETDIVIDERREGISTER/CLOCK_UART

_CLOCK_UART_SETDIVIDERREGISTER/CLOCK_UAR+     ----- -----  ----- -----  ----- -----  002FH 0035H
... T
  +--> CLOCK_UART_GETSOURCEREGISTER/CLOCK_UART
  +--> CLOCK_UART_GETDIVIDERREGISTER/CLOCK_UART
  +--> CYWRITE16/CYMEM

CLOCK_UART_GETSOURCEREGISTER/CLOCK_UART       ----- -----  ----- -----  ----- -----  ----- -----

CLOCK_UART_GETDIVIDERREGISTER/CLOCK_UART      ----- -----  ----- -----  ----- -----  ----- -----
  +--> CYREAD16/CYMEM

SETZEROS/COMMAND_PROCESSING                   ----- -----  0067H 0067H  ----- -----  ----- -----
  +--> _SENDACKNOWLEDGMENT/COMMAND_PROCESSING

_GET_PARAM_LIST/COMMAND_PROCESSING            ----- -----  0067H 007BH  ----- -----  002FH 0B05H
  +--> ?CO?COMMAND_PROCESSING
  +--> _STRLEN/STRLEN
  +--> _STRCAT/STRCAT
  +--> _LCRCHECKSUM/UTILS
  +--> _COMMWRITE/COMMAND_PROCESSING
  +--> UART_RS485_CLEARTXBUFFER/UART_RS485

_STRLEN/STRLEN                                ----- -----  ----- -----  ----- -----  ----- -----
LX51 LINKER/LOCATER V4.64.0.0                                                         03/27/2019  09:25:09  PAGE 25



CMD_PING/COMMAND_PROCESSING                   ----- -----  ----- -----  ----- -----  002FH 0030H
  +--> _COMMWRITE/COMMAND_PROCESSING

CMD_STORE_PARAMS/COMMAND_PROCESSING           ----- -----  0067H 006AH  ----- -----  ----- -----
  +--> _MEMSTORE/COMMAND_PROCESSING
  +--> _COMMWRITE_OLD_ID/COMMAND_PROCESSING
  +--> _SENDACKNOWLEDGMENT/COMMAND_PROCESSING

_COMMWRITE_OLD_ID/COMMAND_PROCESSING          ----- -----  006BH 006CH  ----- -----  002FH 0034H
  +--> _UART_RS485_PUTCHAR/UART_RS485
  +--> UART_RS485_READTXSTATUS/UART_RS485
  +--> _RS485_CTS_WRITE/RS485_CTS

BOOTLOADABLE_LOAD/BOOTLOADABLE                ----- -----  ----- -----  ----- -----  ----- -----
  +--> CYSOFTWARERESET/CYLIB

CYSOFTWARERESET/CYLIB                         ----- -----  ----- -----  ----- -----  ----- -----

_MOTOR_CONTROL/INTERRUPTIONS                  ----- -----  0023H 0063H  ----- -----  ----- -----
  +--> INTERRUPT_MANAGER/INTERRUPTIONS
  +--> _MOTOR_DIR_WRITE/MOTOR_DIR
  +--> _ABS/ABS
  +--> _PWM_MOTORS_WRITECOMPARE1/PWM_MOTORS
  +--> _PWM_MOTORS_WRITECOMPARE2/PWM_MOTORS

ANALOG_READ_END/INTERRUPTIONS                 ----- -----  ----- -----  ----- -----  ----- -----
  +--> ADC_STATUS_READ/ADC_STATUS
  +--> INTERRUPT_MANAGER/INTERRUPTIONS
  +--> PWM_LIMIT_SEARCH/INTERRUPTIONS
  +--> _FILTER_I1/UTILS
  +--> _FILTER_I2/UTILS

ADC_STATUS_READ/ADC_STATUS                    ----- -----  ----- -----  ----- -----  ----- -----

PWM_LIMIT_SEARCH/INTERRUPTIONS                ----- -----  0023H 0027H  ----- -----  ----- -----
  +--> ?CO?INTERRUPTIONS

?CO?INTERRUPTIONS                             ----- -----  ----- -----  ----- -----  ----- -----

_FILTER_I1/UTILS                              ----- -----  ----- -----  ----- -----  ----- -----

_FILTER_I2/UTILS                              ----- -----  ----- -----  ----- -----  ----- -----

PRETENSIONING_PROCESS/INTERRUPTIONS           ----- -----  ----- -----  ----- -----  0003H 0007H

DRIVE_CUFF/COMMAND_PROCESSING                 ----- -----  ----- -----  ----- -----  0003H 0020H
  +--> _COMMWRITE/COMMAND_PROCESSING
  +--> MY_TIMER_READCOUNTER/MY_TIMER
  +--> INTERRUPT_MANAGER/INTERRUPTIONS

SLIDE_CUFF/COMMAND_PROCESSING                 ----- -----  ----- -----  ----- -----  0003H 0024H
  +--> _COMMWRITE/COMMAND_PROCESSING
  +--> MY_TIMER_READCOUNTER/MY_TIMER
  +--> INTERRUPT_MANAGER/INTERRUPTIONS

FORCE_AND_SLIDE_CUFF/COMMAND_PROCESSING       ----- -----  ----- -----  ----- -----  0003H 002EH
  +--> _COMMWRITE/COMMAND_PROCESSING
  +--> MY_TIMER_READCOUNTER/MY_TIMER
  +--> INTERRUPT_MANAGER/INTERRUPTIONS

FF_STATUS_READ/FF_STATUS                      ----- -----  ----- -----  ----- -----  ----- -----

_WATCHDOG_REFRESH_WRITE/WATCHDOG_REFRESH      ----- -----  ----- -----  ----- -----  ----- -----

LX51 LINKER/LOCATER V4.64.0.0                                                         03/27/2019  09:25:09  PAGE 26


UART_RS485_READRXSTATUS/UART_RS485            ----- -----  ----- -----  ----- -----  ----- -----

?C_INITSEG                                    ----- -----  ----- -----  ----- -----  ----- -----

*** NEW ROOT ********************************

UART_RS485_RXISR/UART_RS485_INT               ----- -----  ----- -----  ----- -----  ----- -----

*** NEW ROOT ********************************

ADC_ISR1/ADC_INT                              ----- -----  ----- -----  ----- -----  ----- -----

*** NEW ROOT ********************************

ADC_ISR2/ADC_INT                              ----- -----  ----- -----  ----- -----  ----- -----

*** NEW ROOT ********************************

ADC_ISR3/ADC_INT                              ----- -----  ----- -----  ----- -----  ----- -----

*** NEW ROOT ********************************

ADC_ISR4/ADC_INT                              ----- -----  ----- -----  ----- -----  ----- -----



PUBLIC SYMBOLS OF MODULE:  .\DP8051_Keil_951\Release\cuff_mod_firmware.omf (COMMAND_PROCESSING)


      VALUE       CLASS    TYPE      PUBLIC SYMBOL NAME
      =================================================
*DEL*:00000000H   XDATA    BYTE      ?_Bootloadable_SetFlashByte?BYTE
      02000B06H   XDATA    BYTE      ?_commWrite?BYTE
      0200002FH   XDATA    BYTE      ?_commWrite_old_id?BYTE
      02000000H   XDATA    BYTE      ?_cyconfigcpy?BYTE
      02000009H   XDATA    BYTE      ?_CyDmaChSetConfiguration?BYTE
*DEL*:00000000H   XDATA    BYTE      ?_CyDmaChStatus?BYTE
*DEL*:00000000H   XDATA    BYTE      ?_CyDmaTdGetAddress?BYTE
*DEL*:00000000H   XDATA    BYTE      ?_CyDmaTdGetConfiguration?BYTE
      02000003H   XDATA    BYTE      ?_CyDmaTdSetConfiguration?BYTE
*DEL*:00000000H   XDATA    BYTE      ?_CySpcLoadMultiByte?BYTE
      0200003BH   XDATA    BYTE      ?_CySpcLoadRow?BYTE
*DEL*:00000000H   XDATA    BYTE      ?_CySpcLoadRowFull?BYTE
      0200003BH   XDATA    BYTE      ?_CySpcWriteRow?BYTE
*DEL*:00000000H   XDATA    BYTE      ?_CyWriteRowFull?BYTE
      02000003H   XDATA    BYTE      ?_DMA_DmaInitialize?BYTE
      02000640H   XDATA    ---       ?_PRINTF?BYTE
      02000640H   XDATA    ---       ?_SPRINTF?BYTE
      02000B06H   XDATA    ---       ?_strcat?BYTE
      01007783H   CODE     ---       ?C?ADDXBP
      010072A2H   CODE     ---       ?C?CASTF
      0100775DH   CODE     ---       ?C?CCASE
      010074EEH   CODE     ---       ?C?CLDOPTR
      010074D5H   CODE     ---       ?C?CLDPTR
      00000000H   NUMBER   ---       ?C?CODESEG
      01007890H   CODE     ---       ?C?COPYAMD
      0100751BH   CODE     ---       ?C?CSTPTR
      0100726EH   CODE     ---       ?C?FCASTC
      01007269H   CODE     ---       ?C?FCASTI
      01007264H   CODE     ---       ?C?FCASTL
      01006F54H   CODE     ---       ?C?FPADD
      010071EDH   CODE     ---       ?C?FPCMP
      010071EBH   CODE     ---       ?C?FPCMP3
      01007360H   CODE     ---       ?C?FPCONVERT
      0100714EH   CODE     ---       ?C?FPDIV
LX51 LINKER/LOCATER V4.64.0.0                                                         03/27/2019  09:25:09  PAGE 27


      010072D9H   CODE     ---       ?C?FPGETOPN2
      01007045H   CODE     ---       ?C?FPMUL
      0100730EH   CODE     ---       ?C?FPNANRESULT
      01007318H   CODE     ---       ?C?FPOVERFLOW
      010072F0H   CODE     ---       ?C?FPRESULT
      01007304H   CODE     ---       ?C?FPRESULT2
      01007323H   CODE     ---       ?C?FPROUND
      01006F50H   CODE     ---       ?C?FPSUB
      01007315H   CODE     ---       ?C?FPUNDERFLOW
      01007495H   CODE     ---       ?C?FTNPWR
      0100798BH   CODE     ---       ?C?IILDX
      010079A1H   CODE     ---       ?C?ILDIX
      0100752DH   CODE     ---       ?C?IMUL
      0100753FH   CODE     ---       ?C?ISTPTR
      010077A7H   CODE     ---       ?C?LIMUL
      010079DBH   CODE     ---       ?C?LLDCODE
      010079B7H   CODE     ---       ?C?LLDIDATA
      010079CFH   CODE     ---       ?C?LLDPDATA
      010076F7H   CODE     ---       ?C?LLDPTR
      010079C3H   CODE     ---       ?C?LLDXDATA
      0100755EH   CODE     ---       ?C?LMUL
      01007688H   CODE     ---       ?C?LNEG
      0100767BH   CODE     ---       ?C?LNOT
      010076E4H   CODE     ---       ?C?LSHL
      010079EBH   CODE     ---       ?C?LSTIDATA
      010079F7H   CODE     ---       ?C?LSTPDATA
      01007717H   CODE     ---       ?C?LSTPTR
      01007731H   CODE     ---       ?C?LSTXDATA
      0100773DH   CODE     ---       ?C?PLDIXDATA
      01007754H   CODE     ---       ?C?PSTXDATA
      01007696H   CODE     ---       ?C?SLCMP
      0100BC9DH   CODE     ---       ?C?SLDIV
      010076D0H   CODE     ---       ?C?SLSHR
      0100796EH   CODE     ---       ?C?STRCPYAMD
      010076ACH   CODE     ---       ?C?ULCMP
      010075E9H   CODE     ---       ?C?ULDIV
      010076BDH   CODE     ---       ?C?ULSHR
      00000000H   NUMBER   ---       ?C?XDATASEG
      00000000H   NUMBER   ---       ?C?XPAGE1RST
      00000093H   DATA     BYTE      ?C?XPAGE1SFR
      0100A7B3H   CODE     ---       ?C_START
      01002600H   CODE     NEAR LAB  ?C_STARTUP
      0000000EH   DATA     ---       ?C_XBP
      0100B277H   CODE     ---       _?CyDelay
*DEL*:00000000H   CODE     ---       _?CyDelayFreq
*DEL*:00000000H   CODE     ---       _?CyHalt
      0100C678H   CODE     ---       _ABS
*DEL*:00000000H   CODE     ---       _ADC_AMux_FastSelect
      0100C39DH   CODE     ---       _ADC_AMux_Select
      0100C09AH   CODE     ---       _ADC_AMux_Set
      0100C008H   CODE     ---       _ADC_AMux_Unset
*DEL*:00000000H   CODE     ---       _ADC_CountsTo_mVolts
*DEL*:00000000H   CODE     ---       _ADC_CountsTo_uVolts
*DEL*:00000000H   CODE     ---       _ADC_CountsTo_Volts
*DEL*:00000000H   CODE     ---       _ADC_Ext_CP_Clk_ClearModeRegister
      0100A0F8H   CODE     ---       _ADC_Ext_CP_Clk_SetDividerRegister
      0100C63AH   CODE     ---       _ADC_Ext_CP_Clk_SetModeRegister
*DEL*:00000000H   CODE     ---       _ADC_Ext_CP_Clk_SetSourceRegister
*DEL*:00000000H   CODE     ---       _ADC_Ext_CP_Clk_StandbyPower
*DEL*:00000000H   CODE     ---       _ADC_IsEndConversion
*DEL*:00000000H   CODE     ---       _ADC_SelectConfiguration
*DEL*:00000000H   CODE     ---       _ADC_SetBufferGain
*DEL*:00000000H   CODE     ---       _ADC_SetCoherency
*DEL*:00000000H   CODE     ---       _ADC_SetGain
*DEL*:00000000H   CODE     ---       _ADC_SetGCOR
LX51 LINKER/LOCATER V4.64.0.0                                                         03/27/2019  09:25:09  PAGE 28


*DEL*:00000000H   CODE     ---       _ADC_SetOffset
      0100C801H   CODE     ---       _ADC_SOC_Write
*DEL*:00000000H   CODE     ---       _ADC_STATUS_WriteMask
*DEL*:00000000H   CODE     ---       _ADC_theACLK_ClearModeRegister
      0100A359H   CODE     ---       _ADC_theACLK_SetDividerRegister
      0100C647H   CODE     ---       _ADC_theACLK_SetModeRegister
*DEL*:00000000H   CODE     ---       _ADC_theACLK_SetPhaseRegister
*DEL*:00000000H   CODE     ---       _ADC_theACLK_SetSourceRegister
*DEL*:00000000H   CODE     ---       _ADC_theACLK_StandbyPower
*DEL*:00000000H   CODE     ---       _Bootloadable_SetFlashByte
*DEL*:00000000H   CODE     NEAR LAB  _cfg_write_bytes
*DEL*:00000000H   CODE     NEAR LAB  _cfg_write_bytes_code
      0100B740H   CODE     ---       _check_enc_data
*DEL*:00000000H   CODE     ---       _CLOCK_UART_ClearModeRegister
      0100A229H   CODE     ---       _CLOCK_UART_SetDividerRegister
*DEL*:00000000H   CODE     ---       _CLOCK_UART_SetModeRegister
*DEL*:00000000H   CODE     ---       _CLOCK_UART_SetSourceRegister
*DEL*:00000000H   CODE     ---       _CLOCK_UART_StandbyPower
      0100B02EH   CODE     ---       _commWrite
      0100B162H   CODE     ---       _commWrite_old_id
      0100C795H   CODE     ---       _COUNTER_ENC_SetInterruptMode
      0100C7B3H   CODE     ---       _COUNTER_ENC_WriteCompare
*DEL*:00000000H   CODE     ---       _COUNTER_ENC_WriteControlRegister
      0100C7A1H   CODE     ---       _COUNTER_ENC_WriteCounter
      0100C7ADH   CODE     ---       _COUNTER_ENC_WritePeriod
*DEL*:00000000H   CODE     ---       _CyBusClk_SetDivider
      0100BF6FH   CODE     NEAR LAB  _cyconfigcpy
      0100C1F5H   CODE     NEAR LAB  _cyconfigcpycode
*DEL*:00000000H   CODE     ---       _CyCpuClk_SetDivider
*DEL*:00000000H   CODE     NEAR LAB  _CyDelay
      0100BF00H   CODE     NEAR LAB  _CyDelayCycles
      0100C128H   CODE     NEAR LAB  _CyDelayUs
*DEL*:00000000H   CODE     ---       _CyDmacClearError
*DEL*:00000000H   CODE     ---       _CyDmaChDisable
      0100BB7BH   CODE     ---       _CyDmaChEnable
*DEL*:00000000H   CODE     ---       _CyDmaChFree
*DEL*:00000000H   CODE     ---       _CyDmaChGetRequest
      0100BD65H   CODE     ---       _CyDmaChPriority
*DEL*:00000000H   CODE     ---       _CyDmaChRoundRobin
      0100B409H   CODE     ---       _CyDmaChSetConfiguration
      0100B482H   CODE     ---       _CyDmaChSetExtendedAddress
      0100C2FDH   CODE     ---       _CyDmaChSetInitialTd
*DEL*:00000000H   CODE     ---       _CyDmaChSetRequest
*DEL*:00000000H   CODE     ---       _CyDmaChStatus
*DEL*:00000000H   CODE     ---       _CyDmaClearPendingDrq
*DEL*:00000000H   CODE     ---       _CyDmaTdFree
*DEL*:00000000H   CODE     ---       _CyDmaTdGetAddress
*DEL*:00000000H   CODE     ---       _CyDmaTdGetConfiguration
      0100B4FAH   CODE     ---       _CyDmaTdSetAddress
      0100B2FFH   CODE     ---       _CyDmaTdSetConfiguration
*DEL*:00000000H   CODE     ---       _CyEnableInts
      0100C3CEH   CODE     NEAR LAB  _CyExitCriticalSection
*DEL*:00000000H   CODE     ---       _CyFlash_SetWaitCycles
*DEL*:00000000H   CODE     ---       _CyGetUniqueId
*DEL*:00000000H   CODE     ---       _CyILO_SetPowerMode
*DEL*:00000000H   CODE     ---       _CyILO_SetSource
*DEL*:00000000H   CODE     ---       _CyIMO_SetFreq
*DEL*:00000000H   CODE     ---       _CyIMO_SetSource
*DEL*:00000000H   CODE     ---       _CyIMO_Start
*DEL*:00000000H   CODE     ---       _CyIntGetPriority
*DEL*:00000000H   CODE     ---       _CyIntGetState
*DEL*:00000000H   CODE     ---       _CyIntGetVector
      0100C384H   CODE     ---       _CyIntSetPriority
      0100B9E7H   CODE     ---       _CyIntSetVector
*DEL*:00000000H   CODE     ---       _CyMasterClk_SetDivider
LX51 LINKER/LOCATER V4.64.0.0                                                         03/27/2019  09:25:09  PAGE 29


*DEL*:00000000H   CODE     ---       _CyMasterClk_SetSource
*DEL*:00000000H   CODE     NEAR LAB  _cymemzero
*DEL*:00000000H   CODE     ---       _CyPLL_OUT_SetPQ
*DEL*:00000000H   CODE     ---       _CyPLL_OUT_SetSource
*DEL*:00000000H   CODE     ---       _CyPLL_OUT_Start
*DEL*:00000000H   CODE     ---       _CyPmAltAct
*DEL*:00000000H   CODE     ---       _CyPmCtwSetInterval
*DEL*:00000000H   CODE     ---       _CyPmFtwSetInterval
*DEL*:00000000H   CODE     ---       _CyPmHibernateEx
*DEL*:00000000H   CODE     ---       _CyPmReadStatus
*DEL*:00000000H   CODE     ---       _CyPmSleep
      0100C593H   CODE     NEAR LAB  _cyread16
      0100C595H   CODE     NEAR LAB  _cyread16_nodpx
      0100C52BH   CODE     NEAR LAB  _cyread24
      0100C52DH   CODE     NEAR LAB  _cyread24_nodpx
*DEL*:00000000H   CODE     NEAR LAB  _cyread32
*DEL*:00000002H   CODE     NEAR LAB  _cyread32_nodpx
      0100C654H   CODE     NEAR LAB  _cyread8
      0100C656H   CODE     NEAR LAB  _cyread8_nodpx
*DEL*:00000000H   CODE     ---       _CySetFlashEEBuffer
*DEL*:00000000H   CODE     ---       _CySpcEraseSector
      0100C0F9H   CODE     ---       _CySpcGetTemp
*DEL*:00000000H   CODE     ---       _CySpcLoadMultiByte
      0100B65CH   CODE     ---       _CySpcLoadRow
*DEL*:00000000H   CODE     ---       _CySpcLoadRowFull
      0100B87CH   CODE     ---       _CySpcReadData
      0100BA3BH   CODE     ---       _CySpcWriteRow
*DEL*:00000000H   CODE     ---       _CyUsbClk_SetSource
*DEL*:00000000H   CODE     ---       _CyVdLvAnalogEnable
*DEL*:00000000H   CODE     ---       _CyVdLvDigitEnable
*DEL*:00000000H   CODE     ---       _CyVdStickyStatus
*DEL*:00000000H   CODE     ---       _CyWdtStart
      0100C5A2H   CODE     NEAR LAB  _cywrite16
      0100C5A4H   CODE     NEAR LAB  _cywrite16_nodpx
      0100C550H   CODE     NEAR LAB  _cywrite24
      0100C552H   CODE     NEAR LAB  _cywrite24_nodpx
*DEL*:00000000H   CODE     NEAR LAB  _cywrite32
*DEL*:00000002H   CODE     NEAR LAB  _cywrite32_nodpx
      0100C660H   CODE     NEAR LAB  _cywrite8
      0100C662H   CODE     NEAR LAB  _cywrite8_nodpx
*DEL*:00000000H   CODE     ---       _CyWriteRowData
*DEL*:00000000H   CODE     ---       _CyWriteRowFull
*DEL*:00000000H   CODE     ---       _CyXTAL_32KHZ_SetPowerMode
*DEL*:00000000H   CODE     ---       _CyXTAL_SetFbVoltage
*DEL*:00000000H   CODE     ---       _CyXTAL_SetStartup
*DEL*:00000000H   CODE     ---       _CyXTAL_SetWdVoltage
*DEL*:00000000H   CODE     ---       _CyXTAL_Start
      0100BBC6H   CODE     ---       _DMA_DmaInitialize
      01002604H   CODE     NEAR LAB  _dma_wait
*DEL*:00000000H   CODE     ---       _EEPROM_ByteWritePos
*DEL*:00000000H   CODE     ---       _EEPROM_EraseSector
*DEL*:00000000H   CODE     ---       _EEPROM_ReadByte
*DEL*:00000000H   CODE     ---       _EEPROM_StartErase
*DEL*:00000000H   CODE     ---       _EEPROM_StartWrite
      0100ABE3H   CODE     ---       _EEPROM_Write
*DEL*:00000000H   CODE     ---       _EEPROM_WriteByte
      01008FD8H   CODE     ---       _encoder_reading
*DEL*:00000000H   CODE     ---       _FF_STATUS_WriteMask
      0100B572H   CODE     ---       _filter_i1
      0100B5E7H   CODE     ---       _filter_i2
*DEL*:00000000H   CODE     ---       _filter_vel_1
*DEL*:00000000H   CODE     ---       _filter_vel_2
*DEL*:00000000H   CODE     ---       _filter_vel_3
      0100C7DDH   CODE     ---       _FTDI_ENABLE_REG_Write
      0100261AH   CODE     ---       _get_param_list
LX51 LINKER/LOCATER V4.64.0.0                                                         03/27/2019  09:25:09  PAGE 30


      0100C352H   CODE     ---       _infoGet
      01003E71H   CODE     ---       _infoPrepare
      0100C69AH   CODE     ---       _ISR_RS485_RX_SetPriority
      0100C5B1H   CODE     ---       _ISR_RS485_RX_SetVector
      0100C2A0H   CODE     ---       _ISR_RS485_RX_StartEx
      0100C6FEH   CODE     ---       _ISR_WATCHDOG_SetPriority
      0100C5F7H   CODE     ---       _ISR_WATCHDOG_SetVector
      0100C2BFH   CODE     ---       _ISR_WATCHDOG_StartEx
      0100BFD6H   CODE     ---       _LCRChecksum
      0100ACC2H   CODE     ---       _memStore
      010061E4H   CODE     ---       _motor_control
      0100C7F5H   CODE     ---       _MOTOR_DIR_Write
      0100C7CBH   CODE     ---       _MOTOR_ON_OFF_Write
      0100C7D1H   CODE     ---       _MY_TIMER_SetInterruptMode
*DEL*:00000000H   CODE     ---       _MY_TIMER_WriteControlRegister
      0100C6F4H   CODE     ---       _MY_TIMER_WriteCounter
      0100C6E0H   CODE     ---       _MY_TIMER_WritePeriod
      0100C7E3H   CODE     ---       _PACER_TIMER_SetInterruptMode
*DEL*:00000000H   CODE     ---       _PACER_TIMER_WriteControlRegister
      0100C5E9H   CODE     ---       _PACER_TIMER_WriteCounter
      0100C5DBH   CODE     ---       _PACER_TIMER_WritePeriod
      01008112H   CODE     ---       _PRINTF
      0100C1A8H   CODE     ---       _PUTCHAR
      0100C789H   CODE     ---       _PWM_MOTORS_WriteCompare1
      0100C78FH   CODE     ---       _PWM_MOTORS_WriteCompare2
*DEL*:00000000H   CODE     ---       _PWM_MOTORS_WriteControlRegister
      0100C77DH   CODE     ---       _PWM_MOTORS_WriteCounter
      0100C783H   CODE     ---       _PWM_MOTORS_WritePeriod
      0100C7EFH   CODE     ---       _RESET_FF_Write
      0100C7C5H   CODE     ---       _RS485_CTS_Write
      0100C3FEH   CODE     ---       _sendAcknowledgment
*DEL*:00000000H   CODE     ---       _SetAnalogRoutingPumps
*DEL*:00000000H   CODE     ---       _SHIFTREG_ENC_1_GetFIFOStatus
      0100C562H   CODE     ---       _SHIFTREG_ENC_1_SetIntMode
*DEL*:00000000H   CODE     ---       _SHIFTREG_ENC_1_WriteRegValue
*DEL*:00000000H   CODE     ---       _SHIFTREG_ENC_2_GetFIFOStatus
      0100C573H   CODE     ---       _SHIFTREG_ENC_2_SetIntMode
*DEL*:00000000H   CODE     ---       _SHIFTREG_ENC_2_WriteRegValue
*DEL*:00000000H   CODE     ---       _SHIFTREG_ENC_3_GetFIFOStatus
*DEL*:00000000H   CODE     ---       _SHIFTREG_ENC_3_SetIntMode
*DEL*:00000000H   CODE     ---       _SHIFTREG_ENC_3_WriteRegValue
*DEL*:00000000H   CODE     ---       _SHIFTREG_ENC_4_GetFIFOStatus
*DEL*:00000000H   CODE     ---       _SHIFTREG_ENC_4_SetIntMode
*DEL*:00000000H   CODE     ---       _SHIFTREG_ENC_4_WriteRegValue
      0100810CH   CODE     ---       _SPRINTF
      0100B7ABH   CODE     ---       _strcat
      0100C46AH   CODE     ---       _STRLEN
*DEL*:00000000H   CODE     ---       _UART_RS485_PutArray
      0100C613H   CODE     ---       _UART_RS485_PutChar
*DEL*:00000000H   CODE     ---       _UART_RS485_PutCRLF
      0100BF3BH   CODE     ---       _UART_RS485_PutString
*DEL*:00000000H   CODE     ---       _UART_RS485_SendBreak
*DEL*:00000000H   CODE     ---       _UART_RS485_SetRxAddress1
*DEL*:00000000H   CODE     ---       _UART_RS485_SetRxAddress2
*DEL*:00000000H   CODE     ---       _UART_RS485_SetRxAddressMode
*DEL*:00000000H   CODE     ---       _UART_RS485_SetRxInterruptMode
*DEL*:00000000H   CODE     ---       _UART_RS485_SetTxAddressMode
*DEL*:00000000H   CODE     ---       _UART_RS485_SetTxInterruptMode
*DEL*:00000000H   CODE     ---       _UART_RS485_WriteControlRegister
*DEL*:00000000H   CODE     ---       _UART_RS485_WriteTxData
      0100C807H   CODE     ---       _WATCHDOG_COUNTER_SetInterruptMode
*DEL*:00000000H   CODE     ---       _WATCHDOG_COUNTER_WriteControlRegister
      0100C31BH   CODE     ---       _WATCHDOG_COUNTER_WriteCounter
      0100C605H   CODE     ---       _WATCHDOG_COUNTER_WritePeriod
      0100C80DH   CODE     ---       _WATCHDOG_ENABLER_Write
LX51 LINKER/LOCATER V4.64.0.0                                                         03/27/2019  09:25:09  PAGE 31


      0100C813H   CODE     ---       _WATCHDOG_REFRESH_Write
*SFR* 000000D0H.6 DATA     BIT       AC
*SFR* 000000E0H   DATA     BYTE      ACC
      0100D357H   CONST    ---       ADC_AMux__addrTable
      0100D35BH   CONST    ---       ADC_AMux__maskTable
      0100C25FH   CODE     ---       ADC_AMux_Start
      02000CFFH   XDATA    ---       ADC_buf
      02000E69H   XDATA    BYTE      ADC_Config
      02000E74H   XDATA    BYTE      ADC_convDone
      02000E75H   XDATA    LONG      ADC_CountsPerVolt
      0100B1EFH   CODE     ---       ADC_Enable
      0100C708H   CODE     ---       ADC_Ext_CP_Clk_GetDividerRegister
*DEL*:00000000H   CODE     ---       ADC_Ext_CP_Clk_GetModeRegister
      0100C744H   CODE     ---       ADC_Ext_CP_Clk_GetSourceRegister
*DEL*:00000000H   CODE     ---       ADC_Ext_CP_Clk_Start
*DEL*:00000000H   CODE     ---       ADC_Ext_CP_Clk_Stop
*DEL*:00000000H   CODE     ---       ADC_Ext_CP_Clk_StopBlock
*DEL*:00000000H   CODE     ---       ADC_GetResult16
*DEL*:00000000H   CODE     ---       ADC_GetResult32
*DEL*:00000000H   CODE     ---       ADC_GetResult8
      0100AD74H   CODE     ---       ADC_Init
      02000E6AH   XDATA    BYTE      ADC_initVar
      0100C82AH   CODE     ---       ADC_ISR1
      0100C82BH   CODE     ---       ADC_ISR2
      0100C82CH   CODE     ---       ADC_ISR3
      0100C82DH   CODE     ---       ADC_ISR4
      02000E6BH   XDATA    LONG      ADC_Offset
*DEL*:00000000H   CODE     ---       ADC_Read16
*DEL*:00000000H   CODE     ---       ADC_Read32
*DEL*:00000000H   CODE     ---       ADC_Read8
*DEL*:00000000H   CODE     ---       ADC_ReadGCOR
*DEL*:00000000H   CODE     ---       ADC_SOC_Read
      0100C36BH   CODE     ---       ADC_Start
*DEL*:00000000H   CODE     ---       ADC_StartConvert
      02000E70H   XDATA    BYTE      ADC_started
*DEL*:00000000H   CODE     ---       ADC_STATUS_InterruptDisable
*DEL*:00000000H   CODE     ---       ADC_STATUS_InterruptEnable
      0100C7FBH   CODE     ---       ADC_STATUS_Read
*DEL*:00000000H   CODE     ---       ADC_STATUS_ReadMask
*DEL*:00000000H   CODE     ---       ADC_Stop
      02000E6FH   XDATA    BYTE      ADC_stopConversion
*DEL*:00000000H   CODE     ---       ADC_StopConvert
      0100C712H   CODE     ---       ADC_theACLK_GetDividerRegister
*DEL*:00000000H   CODE     ---       ADC_theACLK_GetModeRegister
*DEL*:00000000H   CODE     ---       ADC_theACLK_GetPhaseRegister
      0100C74CH   CODE     ---       ADC_theACLK_GetSourceRegister
*DEL*:00000000H   CODE     ---       ADC_theACLK_Start
*DEL*:00000000H   CODE     ---       ADC_theACLK_Stop
*DEL*:00000000H   CODE     ---       ADC_theACLK_StopBlock
      0100A90FH   CODE     ---       analog_read_end
*SFR* 000000F0H   DATA     BYTE      B
      0100C6D6H   CODE     ---       Bootloadable_Load
      02000B0FH   XDATA    ---       c_mem
      02000C34H   XDATA    BYTE      calibration_flag
      0100C6A4H   CODE     ---       CLOCK_UART_GetDividerRegister
*DEL*:00000000H   CODE     ---       CLOCK_UART_GetModeRegister
      0100C724H   CODE     ---       CLOCK_UART_GetSourceRegister
*DEL*:00000000H   CODE     ---       CLOCK_UART_Start
*DEL*:00000000H   CODE     ---       CLOCK_UART_Stop
*DEL*:00000000H   CODE     ---       CLOCK_UART_StopBlock
      0100BCE1H   CODE     ---       cmd_activate
      0100C06AH   CODE     ---       cmd_get_activate
      0100B0D1H   CODE     ---       cmd_get_curr_and_meas
      0100BC57H   CODE     ---       cmd_get_currents
      0100B816H   CODE     ---       cmd_get_inputs
LX51 LINKER/LOCATER V4.64.0.0                                                         03/27/2019  09:25:09  PAGE 32


      0100B6CFH   CODE     ---       cmd_get_measurements
      0100B937H   CODE     ---       cmd_get_velocities
      0100C3B6H   CODE     ---       cmd_ping
      0100C280H   CODE     ---       cmd_set_baudrate
      01009FB6H   CODE     ---       cmd_set_inputs
      01009D05H   CODE     ---       cmd_set_pos_stiff
      0100BD24H   CODE     ---       cmd_set_watchdog
      01008CA8H   CODE     ---       cmd_store_params
      0100A488H   CODE     ---       commProcess
      0100C620H   CODE     ---       COUNTER_ENC_ClearFIFO
      0100C72CH   CODE     ---       COUNTER_ENC_Enable
      0100BECAH   CODE     ---       COUNTER_ENC_Init
      02000E9AH   XDATA    BYTE      COUNTER_ENC_initVar
      0100C7A7H   CODE     ---       COUNTER_ENC_ReadCapture
*DEL*:00000000H   CODE     ---       COUNTER_ENC_ReadCompare
*DEL*:00000000H   CODE     ---       COUNTER_ENC_ReadControlRegister
*DEL*:00000000H   CODE     ---       COUNTER_ENC_ReadCounter
*DEL*:00000000H   CODE     ---       COUNTER_ENC_ReadPeriod
      0100C79BH   CODE     ---       COUNTER_ENC_ReadStatusRegister
      0100C4B9H   CODE     ---       COUNTER_ENC_Start
*DEL*:00000000H   CODE     ---       COUNTER_ENC_Stop
      00000021H.5 BIT      BIT       cuff_flag_force
      00000021H.2 BIT      BIT       cuff_flag_force_proprio
      00000021H.4 BIT      BIT       cuff_flag_proprio
*SFR* 000000D0H.7 DATA     BIT       CY
      02000E84H   XDATA    DWORD     cydelay_32k_ms
      02000E7FH   XDATA    DWORD     cydelay_freq_hz
      02000E7AH   XDATA    DWORD     cydelay_freq_khz
      02000E7EH   XDATA    BYTE      cydelay_freq_mhz
*DEL*:00000000H   CODE     ---       CyDisableInts
      0100BE94H   CODE     ---       CyDmacConfigure
*DEL*:00000000H   CODE     ---       CyDmacError
*DEL*:00000000H   CODE     ---       CyDmacErrorAddress
*DEL*:00000000H   CODE     ---       CyDmaChAlloc
      0100BDA5H   CODE     ---       CyDmaTdAllocate
*DEL*:00000000H   CODE     ---       CyDmaTdFreeCount
*DEL*:00000000H   CODE     ---       CyEEPROM_ReadRelease
*DEL*:00000000H   CODE     ---       CyEEPROM_ReadReserve
      0100C039H   CODE     ---       CyEEPROM_Start
*DEL*:00000000H   CODE     ---       CyEEPROM_Stop
      0100C440H   CODE     NEAR LAB  CyEnterCriticalSection
      0100A7F8H   CODE     ---       cyfitter_cfg
*DEL*:00000000H   CODE     ---       CyFlash_Start
*DEL*:00000000H   CODE     ---       CyFlash_Stop
*DEL*:00000000H   CODE     ---       CyILO_Disable33K
*DEL*:00000000H   CODE     ---       CyILO_Enable33K
*DEL*:00000000H   CODE     ---       CyILO_Start100K
*DEL*:00000000H   CODE     ---       CyILO_Start1K
*DEL*:00000000H   CODE     ---       CyILO_Stop100K
*DEL*:00000000H   CODE     ---       CyILO_Stop1K
*DEL*:00000000H   CODE     ---       CyIMO_DisableDoubler
*DEL*:00000000H   CODE     ---       CyIMO_EnableDoubler
*DEL*:00000000H   CODE     ---       CyIMO_Stop
*DEL*:00000000H   CODE     ---       CyPLL_OUT_Stop
*DEL*:00000000H   CODE     ---       CyPmHibernate
*DEL*:00000000H   CODE     ---       CyPmOppsSet
*DEL*:00000000H   CODE     ---       CyPmRestoreClocks
*DEL*:00000000H   CODE     ---       CyPmSaveClocks
      02000E83H   XDATA    BYTE      CyResetStatus
      0100C3E6H   CODE     ---       CySetTemp
      0100C73CH   CODE     ---       CySoftwareReset
      0100C337H   CODE     ---       CySpcGetAlgorithm
      0100C2DEH   CODE     ---       CySpcLock
      0100C455H   CODE     ---       CySpcStart
*DEL*:00000000H   CODE     ---       CySpcStop
LX51 LINKER/LOCATER V4.64.0.0                                                         03/27/2019  09:25:09  PAGE 33


      0100C66CH   CODE     ---       CySpcUnlock
*DEL*:00000000H   CODE     ---       CyVdHvAnalogDisable
*DEL*:00000000H   CODE     ---       CyVdHvAnalogEnable
*DEL*:00000000H   CODE     ---       CyVdLvAnalogDisable
*DEL*:00000000H   CODE     ---       CyVdLvDigitDisable
*DEL*:00000000H   CODE     ---       CyVdRealTimeStatus
*DEL*:00000000H   CODE     ---       CyWdtClear
*DEL*:00000000H   CODE     ---       CyXTAL_32KHZ_ReadStatus
*DEL*:00000000H   CODE     ---       CyXTAL_32KHZ_Start
*DEL*:00000000H   CODE     ---       CyXTAL_32KHZ_Stop
*DEL*:00000000H   CODE     ---       CyXTAL_DisableErrStatus
*DEL*:00000000H   CODE     ---       CyXTAL_DisableFaultRecovery
*DEL*:00000000H   CODE     ---       CyXTAL_EnableErrStatus
*DEL*:00000000H   CODE     ---       CyXTAL_EnableFaultRecovery
*DEL*:00000000H   CODE     ---       CyXTAL_ReadStatus
*DEL*:00000000H   CODE     ---       CyXTAL_Stop
      02000D26H   XDATA    BYTE      dev_pwm_limit
      02000C58H   XDATA    LONG      dev_tension
      02000E91H   XDATA    ---       dieTemperature
      02000EA1H   XDATA    BYTE      DMA_DmaHandle
*DEL*:00000000H   CODE     ---       DMA_DmaRelease
*SFR* 00000083H   DATA     BYTE      DPH
*SFR* 00000085H   DATA     BYTE      DPH1
*SFR* 00000082H   DATA     BYTE      DPL
*SFR* 00000084H   DATA     BYTE      DPL1
*SFR* 00000086H   DATA     BYTE      DPS
*SFR* 00000093H   DATA     BYTE      DPX
*SFR* 00000095H   DATA     BYTE      DPX1
      0100893AH   CODE     ---       drive_cuff
*SFR* 000000A8H.7 DATA     BIT       EA
      02000E97H   XDATA    ---       EEPROM_ADDR
      0100C762H   CODE     ---       EEPROM_Enable
*DEL*:00000000H   CODE     ---       EEPROM_Query
      0100C819H   CODE     ---       EEPROM_Start
*DEL*:00000000H   CODE     ---       EEPROM_Stop
      0100C81DH   CODE     ---       EEPROM_UpdateTemperature
*SFR* 000000D0H.5 DATA     BIT       F0
*SFR* 000000D0H.1 DATA     BIT       F1
*DEL*:00000000H   CODE     ---       FF_STATUS_InterruptDisable
*DEL*:00000000H   CODE     ---       FF_STATUS_InterruptEnable
      0100C7E9H   CODE     ---       FF_STATUS_Read
*DEL*:00000000H   CODE     ---       FF_STATUS_ReadMask
      01007A03H   CODE     ---       force_and_slide_cuff
*DEL*:00000000H   CODE     ---       FTDI_ENABLE_REG_Read
      0100AA11H   CODE     ---       function_scheduler
      02000D07H   XDATA    ---       g_meas
      02000C35H   XDATA    ---       g_measOld
      02000BA6H   XDATA    ---       g_mem
      02000B9DH   XDATA    ---       g_ref
      02000CEAH   XDATA    ---       g_refNew
      02000C5CH   XDATA    ---       g_refOld
      02000C65H   XDATA    ---       g_rx
      0100D3A2H   CONST    ---       hitech_pwm_preload_values
      0100D3C6H   CONST    ---       hitech_pwm_preload_values_6v
*SFR* 000000A8H   DATA     BYTE      IE
      00000022H.1 BIT      BIT       interrupt_flag
      01009E70H   CODE     ---       interrupt_manager
*DEL*:00000000H   CODE     ---       ISR_RS485_RX_ClearPending
      0100C75BH   CODE     ---       ISR_RS485_RX_Disable
      0100C754H   CODE     ---       ISR_RS485_RX_Enable
      0100C824H   CODE     ---       ISR_RS485_RX_ExInterrupt
*DEL*:00000000H   CODE     ---       ISR_RS485_RX_GetPriority
*DEL*:00000000H   CODE     ---       ISR_RS485_RX_GetState
*DEL*:00000000H   CODE     ---       ISR_RS485_RX_GetVector
      0100BEFFH   CODE     ---       ISR_RS485_RX_Interrupt
LX51 LINKER/LOCATER V4.64.0.0                                                         03/27/2019  09:25:09  PAGE 34


*DEL*:00000000H   CODE     ---       ISR_RS485_RX_SetPending
*DEL*:00000000H   CODE     ---       ISR_RS485_RX_Start
*DEL*:00000000H   CODE     ---       ISR_RS485_RX_Stop
*DEL*:00000000H   CODE     ---       ISR_WATCHDOG_ClearPending
      0100C770H   CODE     ---       ISR_WATCHDOG_Disable
      0100C769H   CODE     ---       ISR_WATCHDOG_Enable
*DEL*:00000000H   CODE     ---       ISR_WATCHDOG_GetPriority
*DEL*:00000000H   CODE     ---       ISR_WATCHDOG_GetState
*DEL*:00000000H   CODE     ---       ISR_WATCHDOG_GetVector
      0100C821H   CODE     ---       ISR_WATCHDOG_Handler
      0100C127H   CODE     ---       ISR_WATCHDOG_Interrupt
*DEL*:00000000H   CODE     ---       ISR_WATCHDOG_SetPending
*DEL*:00000000H   CODE     ---       ISR_WATCHDOG_Start
*DEL*:00000000H   CODE     ---       ISR_WATCHDOG_Stop
      01009585H   CODE     ---       main
      010097F1H   CODE     ---       memInit
      0100BB2EH   CODE     ---       memRecall
      0100BC10H   CODE     ---       memRestore
*DEL*:00000000H   CODE     ---       MOTOR_DIR_Read
*DEL*:00000000H   CODE     ---       MOTOR_ON_OFF_Read
*SFR* 000000EAH   DATA     BYTE      MXAX
      0100C62DH   CODE     ---       MY_TIMER_ClearFIFO
      0100C734H   CODE     ---       MY_TIMER_Enable
      0100C155H   CODE     ---       MY_TIMER_Init
      02000E9FH   XDATA    BYTE      MY_TIMER_initVar
      0100C6EAH   CODE     ---       MY_TIMER_ReadCapture
*DEL*:00000000H   CODE     ---       MY_TIMER_ReadControlRegister
      0100C584H   CODE     ---       MY_TIMER_ReadCounter
*DEL*:00000000H   CODE     ---       MY_TIMER_ReadPeriod
      0100C7D7H   CODE     ---       MY_TIMER_ReadStatusRegister
*DEL*:00000000H   CODE     ---       MY_TIMER_SoftwareCapture
      0100C4F2H   CODE     ---       MY_TIMER_Start
*DEL*:00000000H   CODE     ---       MY_TIMER_Stop
*SFR* 000000D0H.2 DATA     BIT       OV
*SFR* 000000D0H   DATA     BIT       P
*SFR* 000000A0H   DATA     BYTE      P2AX
      0100C414H   CODE     ---       PACER_TIMER_Enable
      0100BE20H   CODE     ---       PACER_TIMER_Init
      02000EA0H   XDATA    BYTE      PACER_TIMER_initVar
*DEL*:00000000H   CODE     ---       PACER_TIMER_ReadCapture
*DEL*:00000000H   CODE     ---       PACER_TIMER_ReadControlRegister
*DEL*:00000000H   CODE     ---       PACER_TIMER_ReadCounter
*DEL*:00000000H   CODE     ---       PACER_TIMER_ReadPeriod
*DEL*:00000000H   CODE     ---       PACER_TIMER_ReadStatusRegister
*DEL*:00000000H   CODE     ---       PACER_TIMER_SoftwareCapture
      0100C505H   CODE     ---       PACER_TIMER_Start
*DEL*:00000000H   CODE     ---       PACER_TIMER_Stop
      00000021H.7 BIT      BIT       pret_done
      02000CF7H   XDATA    ---       pret_offset_pos
      00000021H.3 BIT      BIT       pretensioning_flag
      010092CDH   CODE     ---       pretensioning_process
*SFR* 000000D0H   DATA     BYTE      PSW
      0100A5B4H   CODE     ---       pwm_limit_search
      0100C71CH   CODE     ---       PWM_MOTORS_Enable
      0100C1CFH   CODE     ---       PWM_MOTORS_Init
      02000E99H   XDATA    BYTE      PWM_MOTORS_initVar
*DEL*:00000000H   CODE     ---       PWM_MOTORS_ReadCapture
*DEL*:00000000H   CODE     ---       PWM_MOTORS_ReadCompare1
*DEL*:00000000H   CODE     ---       PWM_MOTORS_ReadCompare2
*DEL*:00000000H   CODE     ---       PWM_MOTORS_ReadControlRegister
*DEL*:00000000H   CODE     ---       PWM_MOTORS_ReadCounter
*DEL*:00000000H   CODE     ---       PWM_MOTORS_ReadPeriod
      0100C4A6H   CODE     ---       PWM_MOTORS_Start
*DEL*:00000000H   CODE     ---       PWM_MOTORS_Stop
      0100D385H   CONST    ---       pwm_preload_values
LX51 LINKER/LOCATER V4.64.0.0                                                         03/27/2019  09:25:09  PAGE 35


      02000D05H   XDATA    ---       pwm_sign
*DEL*:00000000H   CODE     ---       RESET_FF_Read
      00000021H.6 BIT      BIT       reset_last_value_flag
*SFR* 000000D0H.3 DATA     BIT       RS0
*SFR* 000000D0H.4 DATA     BIT       RS1
*DEL*:00000000H   CODE     ---       RS485_CTS_Read
      0100B386H   CODE     ---       setZeros
*SFR* 00000080H   DATA     BYTE      SFRPRT0DR
*SFR* 00000089H   DATA     BYTE      SFRPRT0PS
*SFR* 0000008AH   DATA     BYTE      SFRPRT0SEL
*SFR* 000000E8H   DATA     BYTE      SFRPRT12DR
*SFR* 000000E9H   DATA     BYTE      SFRPRT12PS
*SFR* 000000F2H   DATA     BYTE      SFRPRT12SEL
*SFR* 000000F8H   DATA     BYTE      SFRPRT15DR
*SFR* 000000F9H   DATA     BYTE      SFRPRT15PS
*SFR* 000000FAH   DATA     BYTE      SFRPRT15SEL
*SFR* 00000090H   DATA     BYTE      SFRPRT1DR
*SFR* 00000091H   DATA     BYTE      SFRPRT1PS
*SFR* 000000A2H   DATA     BYTE      SFRPRT1SEL
*SFR* 00000098H   DATA     BYTE      SFRPRT2DR
*SFR* 00000099H   DATA     BYTE      SFRPRT2PS
*SFR* 0000009AH   DATA     BYTE      SFRPRT2SEL
*SFR* 000000B0H   DATA     BYTE      SFRPRT3DR
*SFR* 000000B1H   DATA     BYTE      SFRPRT3PS
*SFR* 000000B2H   DATA     BYTE      SFRPRT3SEL
*SFR* 000000C0H   DATA     BYTE      SFRPRT4DR
*SFR* 000000C1H   DATA     BYTE      SFRPRT4PS
*SFR* 000000C2H   DATA     BYTE      SFRPRT4SEL
*SFR* 000000C8H   DATA     BYTE      SFRPRT5DR
*SFR* 000000C9H   DATA     BYTE      SFRPRT5PS
*SFR* 000000CAH   DATA     BYTE      SFRPRT5SEL
*SFR* 000000D8H   DATA     BYTE      SFRPRT6DR
*SFR* 000000D9H   DATA     BYTE      SFRPRT6PS
*SFR* 000000DAH   DATA     BYTE      SFRPRT6SEL
*DEL*:00000000H   CODE     ---       SHIFTREG_ENC_1_DisableInt
      0100C684H   CODE     ---       SHIFTREG_ENC_1_Enable
      0100C5BFH   CODE     ---       SHIFTREG_ENC_1_EnableInt
*DEL*:00000000H   CODE     ---       SHIFTREG_ENC_1_GetIntStatus
      0100C7B9H   CODE     ---       SHIFTREG_ENC_1_Init
      02000E9BH   XDATA    BYTE      SHIFTREG_ENC_1_initVar
      0100C6AEH   CODE     ---       SHIFTREG_ENC_1_ReadData
*DEL*:00000000H   CODE     ---       SHIFTREG_ENC_1_ReadRegValue
      0100C4CCH   CODE     ---       SHIFTREG_ENC_1_Start
*DEL*:00000000H   CODE     ---       SHIFTREG_ENC_1_Stop
*DEL*:00000000H   CODE     ---       SHIFTREG_ENC_2_DisableInt
      0100C68FH   CODE     ---       SHIFTREG_ENC_2_Enable
      0100C5CDH   CODE     ---       SHIFTREG_ENC_2_EnableInt
*DEL*:00000000H   CODE     ---       SHIFTREG_ENC_2_GetIntStatus
      0100C7BFH   CODE     ---       SHIFTREG_ENC_2_Init
      02000E9CH   XDATA    BYTE      SHIFTREG_ENC_2_initVar
      0100C6B8H   CODE     ---       SHIFTREG_ENC_2_ReadData
*DEL*:00000000H   CODE     ---       SHIFTREG_ENC_2_ReadRegValue
      0100C4DFH   CODE     ---       SHIFTREG_ENC_2_Start
*DEL*:00000000H   CODE     ---       SHIFTREG_ENC_2_Stop
*DEL*:00000000H   CODE     ---       SHIFTREG_ENC_3_DisableInt
*DEL*:00000000H   CODE     ---       SHIFTREG_ENC_3_Enable
*DEL*:00000000H   CODE     ---       SHIFTREG_ENC_3_EnableInt
*DEL*:00000000H   CODE     ---       SHIFTREG_ENC_3_GetIntStatus
*DEL*:00000000H   CODE     ---       SHIFTREG_ENC_3_Init
      02000E9DH   XDATA    BYTE      SHIFTREG_ENC_3_initVar
      0100C6C2H   CODE     ---       SHIFTREG_ENC_3_ReadData
*DEL*:00000000H   CODE     ---       SHIFTREG_ENC_3_ReadRegValue
*DEL*:00000000H   CODE     ---       SHIFTREG_ENC_3_Start
*DEL*:00000000H   CODE     ---       SHIFTREG_ENC_3_Stop
*DEL*:00000000H   CODE     ---       SHIFTREG_ENC_4_DisableInt
LX51 LINKER/LOCATER V4.64.0.0                                                         03/27/2019  09:25:09  PAGE 36


*DEL*:00000000H   CODE     ---       SHIFTREG_ENC_4_Enable
*DEL*:00000000H   CODE     ---       SHIFTREG_ENC_4_EnableInt
*DEL*:00000000H   CODE     ---       SHIFTREG_ENC_4_GetIntStatus
*DEL*:00000000H   CODE     ---       SHIFTREG_ENC_4_Init
      02000E9EH   XDATA    BYTE      SHIFTREG_ENC_4_initVar
      0100C6CCH   CODE     ---       SHIFTREG_ENC_4_ReadData
*DEL*:00000000H   CODE     ---       SHIFTREG_ENC_4_ReadRegValue
*DEL*:00000000H   CODE     ---       SHIFTREG_ENC_4_Start
*DEL*:00000000H   CODE     ---       SHIFTREG_ENC_4_Stop
      0100852AH   CODE     ---       slide_cuff
*SFR* 00000081H   DATA     BYTE      SP
      02000EA4H   XDATA    BYTE      SpcLockState
      0100A6DBH   CODE     NEAR LAB  STARTUP1
      00000022H.2 BIT      BIT       tension_valid
      02000C54H   XDATA    DWORD     timer_value
      02000CF3H   XDATA    DWORD     timer_value0
      0100C0CAH   CODE     ---       UART_RS485_ClearRxBuffer
      0100C53EH   CODE     ---       UART_RS485_ClearTxBuffer
      0100C21BH   CODE     ---       UART_RS485_Enable
      02000E68H   XDATA    BYTE      UART_RS485_errorStatus
*DEL*:00000000H   CODE     ---       UART_RS485_GetByte
      0100B8DCH   CODE     ---       UART_RS485_GetChar
      0100BADFH   CODE     ---       UART_RS485_GetRxBufferSize
*DEL*:00000000H   CODE     ---       UART_RS485_GetTxBufferSize
      0100BFA3H   CODE     ---       UART_RS485_Init
      02000E66H   XDATA    BYTE      UART_RS485_initVar
*DEL*:00000000H   CODE     ---       UART_RS485_ReadControlRegister
*DEL*:00000000H   CODE     ---       UART_RS485_ReadRxData
      0100C47FH   CODE     ---       UART_RS485_ReadRxStatus
      0100C777H   CODE     ---       UART_RS485_ReadTxStatus
      02000E45H   XDATA    ---       UART_RS485_rxBuffer
      02000E43H   XDATA    BYTE      UART_RS485_rxBufferLoopDetect
      02000E67H   XDATA    BYTE      UART_RS485_rxBufferOverflow
      02000E44H   XDATA    BYTE      UART_RS485_rxBufferRead
      02000E65H   XDATA    BYTE      UART_RS485_rxBufferWrite
      0100AE25H   CODE     ---       UART_RS485_RXISR
      0100C493H   CODE     ---       UART_RS485_Start
      0100C23DH   CODE     ---       UART_RS485_Stop
      0100C42AH   CODE     ---       WATCHDOG_COUNTER_Enable
      0100BE5CH   CODE     ---       WATCHDOG_COUNTER_Init
      02000EA2H   XDATA    BYTE      WATCHDOG_COUNTER_initVar
*DEL*:00000000H   CODE     ---       WATCHDOG_COUNTER_ReadCapture
*DEL*:00000000H   CODE     ---       WATCHDOG_COUNTER_ReadControlRegister
*DEL*:00000000H   CODE     ---       WATCHDOG_COUNTER_ReadCounter
*DEL*:00000000H   CODE     ---       WATCHDOG_COUNTER_ReadPeriod
*DEL*:00000000H   CODE     ---       WATCHDOG_COUNTER_ReadStatusRegister
      0100C518H   CODE     ---       WATCHDOG_COUNTER_Start
*DEL*:00000000H   CODE     ---       WATCHDOG_COUNTER_Stop
*DEL*:00000000H   CODE     ---       WATCHDOG_ENABLER_Read
      00000022H.0 BIT      BIT       watchdog_flag
*DEL*:00000000H   CODE     ---       WATCHDOG_REFRESH_Read



SYMBOL TABLE OF MODULE:  .\DP8051_Keil_951\Release\cuff_mod_firmware.omf (COMMAND_PROCESSING)

      VALUE       REP       CLASS    TYPE      SYMBOL NAME
      ====================================================
      ---         MODULE    ---      ---       COMMAND_PROCESSING
      02000E97H   PUBLIC    XDATA    ---       EEPROM_ADDR
      0100C280H   PUBLIC    CODE     ---       cmd_set_baudrate
      01008CA8H   PUBLIC    CODE     ---       cmd_store_params
      0100C3B6H   PUBLIC    CODE     ---       cmd_ping
      0100C06AH   PUBLIC    CODE     ---       cmd_get_activate
      0100BD24H   PUBLIC    CODE     ---       cmd_set_watchdog
LX51 LINKER/LOCATER V4.64.0.0                                                         03/27/2019  09:25:09  PAGE 37


      0100BCE1H   PUBLIC    CODE     ---       cmd_activate
      0100B937H   PUBLIC    CODE     ---       cmd_get_velocities
      01009D05H   PUBLIC    CODE     ---       cmd_set_pos_stiff
      01009FB6H   PUBLIC    CODE     ---       cmd_set_inputs
      0100B0D1H   PUBLIC    CODE     ---       cmd_get_curr_and_meas
      0100BC57H   PUBLIC    CODE     ---       cmd_get_currents
      0100B816H   PUBLIC    CODE     ---       cmd_get_inputs
      0100B6CFH   PUBLIC    CODE     ---       cmd_get_measurements
      010097F1H   PUBLIC    CODE     ---       memInit
      0100BC10H   PUBLIC    CODE     ---       memRestore
      0100BB2EH   PUBLIC    CODE     ---       memRecall
      0100ACC2H   PUBLIC    CODE     ---       _memStore
      0100C3FEH   PUBLIC    CODE     ---       _sendAcknowledgment
      02000B06H   PUBLIC    XDATA    BYTE      ?_commWrite?BYTE
      0100B02EH   PUBLIC    CODE     ---       _commWrite
      0200002FH   PUBLIC    XDATA    BYTE      ?_commWrite_old_id?BYTE
      0100B162H   PUBLIC    CODE     ---       _commWrite_old_id
      01003E71H   PUBLIC    CODE     ---       _infoPrepare
      0100261AH   PUBLIC    CODE     ---       _get_param_list
      0100B386H   PUBLIC    CODE     ---       setZeros
      0100C352H   PUBLIC    CODE     ---       _infoGet
      01007A03H   PUBLIC    CODE     ---       force_and_slide_cuff
      0100852AH   PUBLIC    CODE     ---       slide_cuff
      0100893AH   PUBLIC    CODE     ---       drive_cuff
      0100A488H   PUBLIC    CODE     ---       commProcess
      000000CAH   SFRSYM    DATA     BYTE      SFRPRT5SEL
      000000DAH   SFRSYM    DATA     BYTE      SFRPRT6SEL
      000000D0H.6 SFRSYM    DATA     BIT       AC
      000000A8H.7 SFRSYM    DATA     BIT       EA
      000000A8H   SFRSYM    DATA     BYTE      IE
      00000085H   SFRSYM    DATA     BYTE      DPH1
      00000084H   SFRSYM    DATA     BYTE      DPL1
      000000D0H.7 SFRSYM    DATA     BIT       CY
      000000A0H   SFRSYM    DATA     BYTE      P2AX
      00000095H   SFRSYM    DATA     BYTE      DPX1
      00000081H   SFRSYM    DATA     BYTE      SP
      000000D0H.2 SFRSYM    DATA     BIT       OV
      00000080H   SFRSYM    DATA     BYTE      SFRPRT0DR
      00000090H   SFRSYM    DATA     BYTE      SFRPRT1DR
      000000F2H   SFRSYM    DATA     BYTE      SFRPRT12SEL
      00000098H   SFRSYM    DATA     BYTE      SFRPRT2DR
      000000B0H   SFRSYM    DATA     BYTE      SFRPRT3DR
      000000C0H   SFRSYM    DATA     BYTE      SFRPRT4DR
      000000FAH   SFRSYM    DATA     BYTE      SFRPRT15SEL
      000000C8H   SFRSYM    DATA     BYTE      SFRPRT5DR
      000000D8H   SFRSYM    DATA     BYTE      SFRPRT6DR
      00000089H   SFRSYM    DATA     BYTE      SFRPRT0PS
      00000091H   SFRSYM    DATA     BYTE      SFRPRT1PS
      00000099H   SFRSYM    DATA     BYTE      SFRPRT2PS
      000000B1H   SFRSYM    DATA     BYTE      SFRPRT3PS
      000000C1H   SFRSYM    DATA     BYTE      SFRPRT4PS
      000000C9H   SFRSYM    DATA     BYTE      SFRPRT5PS
      000000D9H   SFRSYM    DATA     BYTE      SFRPRT6PS
      000000EAH   SFRSYM    DATA     BYTE      MXAX
      000000F0H   SFRSYM    DATA     BYTE      B
      000000E0H   SFRSYM    DATA     BYTE      ACC
      000000D0H   SFRSYM    DATA     BIT       P
      000000D0H.3 SFRSYM    DATA     BIT       RS0
      000000D0H.4 SFRSYM    DATA     BIT       RS1
      00000083H   SFRSYM    DATA     BYTE      DPH
      000000E8H   SFRSYM    DATA     BYTE      SFRPRT12DR
      00000082H   SFRSYM    DATA     BYTE      DPL
      000000F8H   SFRSYM    DATA     BYTE      SFRPRT15DR
      00000086H   SFRSYM    DATA     BYTE      DPS
      000000E9H   SFRSYM    DATA     BYTE      SFRPRT12PS
LX51 LINKER/LOCATER V4.64.0.0                                                         03/27/2019  09:25:09  PAGE 38


      00000093H   SFRSYM    DATA     BYTE      DPX
      000000F9H   SFRSYM    DATA     BYTE      SFRPRT15PS
      000000D0H.5 SFRSYM    DATA     BIT       F0
      000000D0H.1 SFRSYM    DATA     BIT       F1
      0000008AH   SFRSYM    DATA     BYTE      SFRPRT0SEL
      000000D0H   SFRSYM    DATA     BYTE      PSW
      000000A2H   SFRSYM    DATA     BYTE      SFRPRT1SEL
      0000009AH   SFRSYM    DATA     BYTE      SFRPRT2SEL
      000000B2H   SFRSYM    DATA     BYTE      SFRPRT3SEL
      000000C2H   SFRSYM    DATA     BYTE      SFRPRT4SEL
      01005717H   SYMBOL    CODE     ---       _?ix1000
      01005F67H   SYMBOL    CODE     ---       _?ix1010
      01005E84H   SYMBOL    CODE     ---       _?ix1001
      0100608DH   SYMBOL    CODE     ---       _?ix1020
      01005F83H   SYMBOL    CODE     ---       _?ix1011
      01005E93H   SYMBOL    CODE     ---       _?ix1002
      010060B0H   SYMBOL    CODE     ---       _?ix1021
      01005FA0H   SYMBOL    CODE     ---       _?ix1012
      01005EAFH   SYMBOL    CODE     ---       _?ix1003
      010060CFH   SYMBOL    CODE     ---       _?ix1022
      01005FBBH   SYMBOL    CODE     ---       _?ix1013
      01005ECAH   SYMBOL    CODE     ---       _?ix1004
      010060DDH   SYMBOL    CODE     ---       _?ix1023
      01005FCFH   SYMBOL    CODE     ---       _?ix1014
      01005EE6H   SYMBOL    CODE     ---       _?ix1005
      010060FFH   SYMBOL    CODE     ---       _?ix1024
      01005FEFH   SYMBOL    CODE     ---       _?ix1015
      01005F01H   SYMBOL    CODE     ---       _?ix1006
      01006120H   SYMBOL    CODE     ---       _?ix1025
      01006013H   SYMBOL    CODE     ---       _?ix1016
      01005F28H   SYMBOL    CODE     ---       _?ix1007
      01006135H   SYMBOL    CODE     ---       _?ix1026
      0100602BH   SYMBOL    CODE     ---       _?ix1017
      01005F3DH   SYMBOL    CODE     ---       _?ix1008
      01006169H   SYMBOL    CODE     ---       _?ix1027
      01006050H   SYMBOL    CODE     ---       _?ix1018
      01005F56H   SYMBOL    CODE     ---       _?ix1009
      010061A4H   SYMBOL    CODE     ---       _?ix1028
      01006066H   SYMBOL    CODE     ---       _?ix1019
      010061CEH   SYMBOL    CODE     ---       _?ix1029

      0100A488H   BLOCK     CODE     ---       LVL=0
      0100A488H   BLOCK     CODE     NEAR LAB  LVL=1
      00000066H   SYMBOL    DATA     BYTE      rx_cmd
      ---         BLOCKEND  ---      ---       LVL=1
      0100A488H   LINE      CODE     ---       #67
      0100A488H   LINE      CODE     ---       #71
      0100A48EH   LINE      CODE     ---       #75
      0100A4B9H   LINE      CODE     ---       #77
      0100A4BFH   LINE      CODE     ---       #79
      0100A4BFH   LINE      CODE     ---       #81
      0100A504H   LINE      CODE     ---       #84
      0100A504H   LINE      CODE     ---       #85
      0100A507H   LINE      CODE     ---       #86
      0100A508H   LINE      CODE     ---       #90
      0100A508H   LINE      CODE     ---       #91
      0100A50BH   LINE      CODE     ---       #92
      0100A50CH   LINE      CODE     ---       #96
      0100A50CH   LINE      CODE     ---       #97
      0100A50FH   LINE      CODE     ---       #98
      0100A510H   LINE      CODE     ---       #102
      0100A510H   LINE      CODE     ---       #103
      0100A513H   LINE      CODE     ---       #104
      0100A514H   LINE      CODE     ---       #108
      0100A514H   LINE      CODE     ---       #109
LX51 LINKER/LOCATER V4.64.0.0                                                         03/27/2019  09:25:09  PAGE 39


      0100A517H   LINE      CODE     ---       #110
      0100A518H   LINE      CODE     ---       #114
      0100A518H   LINE      CODE     ---       #115
      0100A51BH   LINE      CODE     ---       #116
      0100A51CH   LINE      CODE     ---       #120
      0100A51CH   LINE      CODE     ---       #121
      0100A51FH   LINE      CODE     ---       #122
      0100A520H   LINE      CODE     ---       #125
      0100A520H   LINE      CODE     ---       #126
      0100A523H   LINE      CODE     ---       #127
      0100A524H   LINE      CODE     ---       #131
      0100A524H   LINE      CODE     ---       #132
      0100A527H   LINE      CODE     ---       #133
      0100A528H   LINE      CODE     ---       #137
      0100A528H   LINE      CODE     ---       #138
      0100A52BH   LINE      CODE     ---       #139
      0100A52CH   LINE      CODE     ---       #143
      0100A52CH   LINE      CODE     ---       #144
      0100A52FH   LINE      CODE     ---       #145
      0100A530H   LINE      CODE     ---       #149
      0100A530H   LINE      CODE     ---       #150
      0100A532H   LINE      CODE     ---       #151
      0100A534H   LINE      CODE     ---       #152
      0100A53FH   LINE      CODE     ---       #153
      0100A540H   LINE      CODE     ---       #157
      0100A540H   LINE      CODE     ---       #158
      0100A543H   LINE      CODE     ---       #159
      0100A544H   LINE      CODE     ---       #163
      0100A544H   LINE      CODE     ---       #164
      0100A54FH   LINE      CODE     ---       #165
      0100A550H   LINE      CODE     ---       #169
      0100A550H   LINE      CODE     ---       #170
      0100A553H   LINE      CODE     ---       #171
      0100A554H   LINE      CODE     ---       #175
      0100A554H   LINE      CODE     ---       #176
      0100A557H   LINE      CODE     ---       #177
      0100A558H   LINE      CODE     ---       #181
      0100A558H   LINE      CODE     ---       #182
      0100A562H   LINE      CODE     ---       #183
      0100A567H   LINE      CODE     ---       #184
      0100A568H   LINE      CODE     ---       #185
      0100A56DH   LINE      CODE     ---       #186
      0100A56DH   LINE      CODE     ---       #187
      0100A56EH   LINE      CODE     ---       #191
      0100A56EH   LINE      CODE     ---       #192
      0100A574H   LINE      CODE     ---       #193
      0100A579H   LINE      CODE     ---       #194
      0100A57AH   LINE      CODE     ---       #195
      0100A57FH   LINE      CODE     ---       #196
      0100A57FH   LINE      CODE     ---       #197
      0100A580H   LINE      CODE     ---       #201
      0100A580H   LINE      CODE     ---       #202
      0100A586H   LINE      CODE     ---       #203
      0100A58BH   LINE      CODE     ---       #204
      0100A58CH   LINE      CODE     ---       #205
      0100A591H   LINE      CODE     ---       #206
      0100A591H   LINE      CODE     ---       #207
      0100A592H   LINE      CODE     ---       #210
      0100A592H   LINE      CODE     ---       #211
      0100A597H   LINE      CODE     ---       #212
      0100A5A1H   LINE      CODE     ---       #213
      0100A5A6H   LINE      CODE     ---       #214
      0100A5B0H   LINE      CODE     ---       #215
      0100A5B3H   LINE      CODE     ---       #216
      0100A5B3H   LINE      CODE     ---       #225
LX51 LINKER/LOCATER V4.64.0.0                                                         03/27/2019  09:25:09  PAGE 40


      0100A5B3H   LINE      CODE     ---       #226
      0100A5B3H   LINE      CODE     ---       #228
      0100A5B3H   LINE      CODE     ---       #229
      ---         BLOCKEND  ---      ---       LVL=0

      0100893AH   BLOCK     CODE     ---       LVL=0
      0100893AH   BLOCK     CODE     NEAR LAB  LVL=1
      02000003H   SYMBOL    XDATA    ---       packet_data
      00000007H   SYMBOL    DATA     BYTE      packet_lenght
      02000013H   SYMBOL    XDATA    INT       curr_diff
      02000015H   SYMBOL    XDATA    LONG      aux_val
      02000019H   SYMBOL    XDATA    DWORD     t_start
      0200001DH   SYMBOL    XDATA    DWORD     t_end
      ---         BLOCKEND  ---      ---       LVL=1
      0100893AH   LINE      CODE     ---       #238
      0100893AH   LINE      CODE     ---       #245
      0100893CH   LINE      CODE     ---       #246
      01008942H   LINE      CODE     ---       #247
      01008944H   LINE      CODE     ---       #248
      01008956H   LINE      CODE     ---       #250
      0100895FH   LINE      CODE     ---       #251
      01008967H   LINE      CODE     ---       #252
      0100896AH   LINE      CODE     ---       #253
      0100896CH   LINE      CODE     ---       #254
      0100896FH   LINE      CODE     ---       #255
      0100896FH   LINE      CODE     ---       #256
      01008978H   LINE      CODE     ---       #257
      010089ADH   LINE      CODE     ---       #258
      010089AFH   LINE      CODE     ---       #259
      010089AFH   LINE      CODE     ---       #260
      010089AFH   LINE      CODE     ---       #261
      010089AFH   LINE      CODE     ---       #263
      010089B5H   LINE      CODE     ---       #264
      010089C5H   LINE      CODE     ---       #266
      010089D9H   LINE      CODE     ---       #267
      010089E1H   LINE      CODE     ---       #269
      010089FDH   LINE      CODE     ---       #270
      01008A06H   LINE      CODE     ---       #272
      01008A1BH   LINE      CODE     ---       #277
      01008A28H   LINE      CODE     ---       #278
      01008A64H   LINE      CODE     ---       #279
      01008A9EH   LINE      CODE     ---       #280
      01008ADAH   LINE      CODE     ---       #281
      01008B14H   LINE      CODE     ---       #282
      01008B50H   LINE      CODE     ---       #284
      01008B8EH   LINE      CODE     ---       #285
      01008BC3H   LINE      CODE     ---       #290
      01008BCCH   LINE      CODE     ---       #291
      01008C00H   LINE      CODE     ---       #292
      01008C36H   LINE      CODE     ---       #294
      01008C6CH   LINE      CODE     ---       #295
      01008CA2H   LINE      CODE     ---       #296
      01008CA2H   LINE      CODE     ---       #297
      01008CA2H   LINE      CODE     ---       #298
      01008CA5H   LINE      CODE     ---       #299
      01008CA7H   LINE      CODE     ---       #300
      ---         BLOCKEND  ---      ---       LVL=0

      0100852AH   BLOCK     CODE     ---       LVL=0
      0100852AH   BLOCK     CODE     NEAR LAB  LVL=1
      02000003H   SYMBOL    XDATA    ---       packet_data
      00000007H   SYMBOL    DATA     BYTE      packet_lenght
      02000013H   SYMBOL    XDATA    INT       SH_pos
      02000015H   SYMBOL    XDATA    LONG      aux_val
      02000019H   SYMBOL    XDATA    DWORD     t_start
LX51 LINKER/LOCATER V4.64.0.0                                                         03/27/2019  09:25:09  PAGE 41


      0200001DH   SYMBOL    XDATA    DWORD     t_end
      02000021H   SYMBOL    XDATA    FLOAT     var
      ---         BLOCKEND  ---      ---       LVL=1
      0100852AH   LINE      CODE     ---       #302
      0100852AH   LINE      CODE     ---       #311
      0100852CH   LINE      CODE     ---       #312
      01008532H   LINE      CODE     ---       #313
      01008534H   LINE      CODE     ---       #314
      01008546H   LINE      CODE     ---       #316
      0100854FH   LINE      CODE     ---       #317
      01008557H   LINE      CODE     ---       #318
      0100855AH   LINE      CODE     ---       #319
      0100855CH   LINE      CODE     ---       #320
      0100855FH   LINE      CODE     ---       #321
      0100855FH   LINE      CODE     ---       #322
      01008568H   LINE      CODE     ---       #323
      0100859DH   LINE      CODE     ---       #324
      0100859FH   LINE      CODE     ---       #325
      0100859FH   LINE      CODE     ---       #326
      0100859FH   LINE      CODE     ---       #327
      0100859FH   LINE      CODE     ---       #329
      010085A5H   LINE      CODE     ---       #330
      010085B5H   LINE      CODE     ---       #332
      010085DCH   LINE      CODE     ---       #334
      01008678H   LINE      CODE     ---       #336
      01008693H   LINE      CODE     ---       #338
      0100869EH   LINE      CODE     ---       #339
      010086B5H   LINE      CODE     ---       #340
      010086B8H   LINE      CODE     ---       #341
      010086B8H   LINE      CODE     ---       #342
      010086CFH   LINE      CODE     ---       #343
      01008767H   LINE      CODE     ---       #345
      01008767H   LINE      CODE     ---       #347
      0100876DH   LINE      CODE     ---       #349
      010087ABH   LINE      CODE     ---       #350
      010087E9H   LINE      CODE     ---       #352
      010087EBH   LINE      CODE     ---       #353
      010087EBH   LINE      CODE     ---       #355
      01008820H   LINE      CODE     ---       #356
      01008855H   LINE      CODE     ---       #358
      01008855H   LINE      CODE     ---       #363
      0100885EH   LINE      CODE     ---       #364
      01008892H   LINE      CODE     ---       #365
      010088C8H   LINE      CODE     ---       #367
      010088FEH   LINE      CODE     ---       #368
      01008934H   LINE      CODE     ---       #369
      01008934H   LINE      CODE     ---       #372
      01008934H   LINE      CODE     ---       #373
      01008937H   LINE      CODE     ---       #374
      01008939H   LINE      CODE     ---       #375
      ---         BLOCKEND  ---      ---       LVL=0

      01007A03H   BLOCK     CODE     ---       LVL=0
      01007A03H   BLOCK     CODE     NEAR LAB  LVL=1
      02000003H   SYMBOL    XDATA    ---       packet_data
      00000007H   SYMBOL    DATA     BYTE      packet_lenght
      02000013H   SYMBOL    XDATA    INT       curr_diff
      02000015H   SYMBOL    XDATA    INT       SH_pos
      02000017H   SYMBOL    XDATA    LONG      aux_val
      0200001BH   SYMBOL    XDATA    DWORD     t_start
      0200001FH   SYMBOL    XDATA    DWORD     t_end
      02000023H   SYMBOL    XDATA    ---       ref_slide
      0200002BH   SYMBOL    XDATA    FLOAT     var
      ---         BLOCKEND  ---      ---       LVL=1
      01007A03H   LINE      CODE     ---       #377
LX51 LINKER/LOCATER V4.64.0.0                                                         03/27/2019  09:25:09  PAGE 42


      01007A03H   LINE      CODE     ---       #387
      01007A05H   LINE      CODE     ---       #388
      01007A0BH   LINE      CODE     ---       #389
      01007A0DH   LINE      CODE     ---       #390
      01007A1FH   LINE      CODE     ---       #392
      01007A28H   LINE      CODE     ---       #393
      01007A30H   LINE      CODE     ---       #394
      01007A33H   LINE      CODE     ---       #395
      01007A35H   LINE      CODE     ---       #396
      01007A38H   LINE      CODE     ---       #397
      01007A38H   LINE      CODE     ---       #398
      01007A41H   LINE      CODE     ---       #399
      01007A76H   LINE      CODE     ---       #400
      01007A78H   LINE      CODE     ---       #401
      01007A78H   LINE      CODE     ---       #402
      01007A78H   LINE      CODE     ---       #403
      01007A78H   LINE      CODE     ---       #405
      01007A7EH   LINE      CODE     ---       #406
      01007A8EH   LINE      CODE     ---       #407
      01007A9DH   LINE      CODE     ---       #410
      01007AB1H   LINE      CODE     ---       #411
      01007AB9H   LINE      CODE     ---       #413
      01007AD5H   LINE      CODE     ---       #414
      01007ADEH   LINE      CODE     ---       #416
      01007AF3H   LINE      CODE     ---       #419
      01007B22H   LINE      CODE     ---       #421
      01007BBEH   LINE      CODE     ---       #423
      01007BD9H   LINE      CODE     ---       #425
      01007BE4H   LINE      CODE     ---       #426
      01007BFBH   LINE      CODE     ---       #427
      01007BFEH   LINE      CODE     ---       #428
      01007BFEH   LINE      CODE     ---       #429
      01007C15H   LINE      CODE     ---       #430
      01007CADH   LINE      CODE     ---       #432
      01007CADH   LINE      CODE     ---       #434
      01007CCAH   LINE      CODE     ---       #435
      01007CE7H   LINE      CODE     ---       #439
      01007CF4H   LINE      CODE     ---       #440
      01007D32H   LINE      CODE     ---       #441
      01007D6EH   LINE      CODE     ---       #442
      01007DACH   LINE      CODE     ---       #443
      01007DE8H   LINE      CODE     ---       #444
      01007E26H   LINE      CODE     ---       #446
      01007E2FH   LINE      CODE     ---       #448
      01007E98H   LINE      CODE     ---       #449
      01007EF8H   LINE      CODE     ---       #450
      01007EFBH   LINE      CODE     ---       #451
      01007EFBH   LINE      CODE     ---       #453
      01007F63H   LINE      CODE     ---       #454
      01007FC2H   LINE      CODE     ---       #455
      01007FC2H   LINE      CODE     ---       #461
      01007FCBH   LINE      CODE     ---       #462
      01007FFFH   LINE      CODE     ---       #463
      01008035H   LINE      CODE     ---       #465
      0100806BH   LINE      CODE     ---       #466
      010080A1H   LINE      CODE     ---       #467
      010080A1H   LINE      CODE     ---       #472
      010080A1H   LINE      CODE     ---       #473
      010080A4H   LINE      CODE     ---       #474
      010080A6H   LINE      CODE     ---       #475
      ---         BLOCKEND  ---      ---       LVL=0

      0100C352H   BLOCK     CODE     ---       LVL=0
      00000006H   SYMBOL    DATA     WORD      info_type
      0100C352H   BLOCK     CODE     NEAR LAB  LVL=1
LX51 LINKER/LOCATER V4.64.0.0                                                         03/27/2019  09:25:09  PAGE 43


      0200002FH   SYMBOL    XDATA    ---       packet_string
      ---         BLOCKEND  ---      ---       LVL=1
      0100C352H   LINE      CODE     ---       #481
      0100C352H   LINE      CODE     ---       #486
      0100C358H   LINE      CODE     ---       #487
      0100C358H   LINE      CODE     ---       #488
      0100C361H   LINE      CODE     ---       #489
      0100C36AH   LINE      CODE     ---       #490
      0100C36AH   LINE      CODE     ---       #491
      0100C36AH   LINE      CODE     ---       #492
      0100C36AH   LINE      CODE     ---       #493
      0100C36AH   LINE      CODE     ---       #494
      ---         BLOCKEND  ---      ---       LVL=0

      0100B386H   BLOCK     CODE     ---       LVL=0
      0100B386H   BLOCK     CODE     NEAR LAB  LVL=1
      00000067H   SYMBOL    DATA     BYTE      i
      ---         BLOCKEND  ---      ---       LVL=1
      0100B386H   LINE      CODE     ---       #500
      0100B386H   LINE      CODE     ---       #501
      0100B386H   LINE      CODE     ---       #504
      0100B390H   LINE      CODE     ---       #505
      0100B3BAH   LINE      CODE     ---       #506
      0100B3F0H   LINE      CODE     ---       #508
      0100B3FDH   LINE      CODE     ---       #509
      0100B401H   LINE      CODE     ---       #510
      0100B403H   LINE      CODE     ---       #512
      0100B408H   LINE      CODE     ---       #513
      ---         BLOCKEND  ---      ---       LVL=0

      0100261AH   BLOCK     CODE     ---       LVL=0
      0200002FH   SYMBOL    XDATA    WORD      index
      01002622H   BLOCK     CODE     NEAR LAB  LVL=1
      02000031H   SYMBOL    XDATA    ---       packet_data
      0200079EH   SYMBOL    XDATA    WORD      packet_lenght
      00000067H   SYMBOL    DATA     WORD      i
      020007A0H   SYMBOL    XDATA    BYTE      string_lenght
      020007A1H   SYMBOL    XDATA    LONG      aux_int
      020007A5H   SYMBOL    XDATA    ---       id_str
      020007B4H   SYMBOL    XDATA    ---       pos_pid_str
      020007D0H   SYMBOL    XDATA    ---       curr_pid_str
      020007EBH   SYMBOL    XDATA    ---       startup_str
      02000807H   SYMBOL    XDATA    ---       input_str
      02000822H   SYMBOL    XDATA    ---       contr_str
      02000849H   SYMBOL    XDATA    ---       res_str
      0200085EH   SYMBOL    XDATA    ---       m_off_str
      02000877H   SYMBOL    XDATA    ---       mult_str
      02000888H   SYMBOL    XDATA    ---       pos_lim_flag_str
      020008A4H   SYMBOL    XDATA    ---       pos_lim_str
      020008C1H   SYMBOL    XDATA    ---       max_step_str
      020008DCH   SYMBOL    XDATA    ---       curr_limit_str
      020008F0H   SYMBOL    XDATA    ---       curr_prop_gain_str
      02000910H   SYMBOL    XDATA    ---       curr_sat_str
      02000934H   SYMBOL    XDATA    ---       curr_dead_zone_str
      0200094CH   SYMBOL    XDATA    ---       cuff_activ_force_str
      02000971H   SYMBOL    XDATA    ---       pow_tension_str
      02000987H   SYMBOL    XDATA    ---       cuff_activ_proprio_str
      020009AEH   SYMBOL    XDATA    ---       max_slide_str
      020009D1H   SYMBOL    XDATA    ---       max_SH_pos_str
      020009F0H   SYMBOL    XDATA    ---       hand_ID_str
      020009FEH   SYMBOL    XDATA    ---       cuff_activ_force_proprio_str
      02000A20H   SYMBOL    XDATA    ---       SH_rest_pos_str
      02000A41H   SYMBOL    XDATA    ---       right_left_par_str
      02000A56H   SYMBOL    XDATA    ---       input_mode_menu
      02000A8AH   SYMBOL    XDATA    ---       control_mode_menu
LX51 LINKER/LOCATER V4.64.0.0                                                         03/27/2019  09:25:09  PAGE 44


      02000AC5H   SYMBOL    XDATA    ---       yes_no_menu
      02000AEFH   SYMBOL    XDATA    ---       right_left_menu
      00000069H   SYMBOL    DATA     BYTE      id_str_len
      0000006AH   SYMBOL    DATA     BYTE      pos_pid_str_len
      0000006BH   SYMBOL    DATA     BYTE      curr_pid_str_len
      0000006CH   SYMBOL    DATA     BYTE      res_str_len
      0000006DH   SYMBOL    DATA     BYTE      m_off_str_len
      0000006EH   SYMBOL    DATA     BYTE      mult_str_len
      0000006FH   SYMBOL    DATA     BYTE      pos_lim_str_len
      00000070H   SYMBOL    DATA     BYTE      curr_limit_str_len
      00000071H   SYMBOL    DATA     BYTE      curr_prop_gain_str_len
      00000072H   SYMBOL    DATA     BYTE      curr_sat_str_len
      00000073H   SYMBOL    DATA     BYTE      curr_dead_zone_str_len
      00000074H   SYMBOL    DATA     BYTE      pow_tension_str_len
      00000075H   SYMBOL    DATA     BYTE      input_mode_menu_len
      00000076H   SYMBOL    DATA     BYTE      control_mode_menu_len
      00000077H   SYMBOL    DATA     BYTE      yes_no_menu_len
      00000078H   SYMBOL    DATA     BYTE      right_left_menu_len
      00000079H   SYMBOL    DATA     BYTE      max_slide_str_len
      0000007AH   SYMBOL    DATA     BYTE      max_SH_pos_str_len
      0000007BH   SYMBOL    DATA     BYTE      hand_ID_str_len
      02000B05H   SYMBOL    XDATA    BYTE      SH_rest_pos_str_len
      ---         BLOCKEND  ---      ---       LVL=1
      0100261AH   LINE      CODE     ---       #519
      01002622H   LINE      CODE     ---       #520
      01002622H   LINE      CODE     ---       #522
      01002635H   LINE      CODE     ---       #523
      0100263FH   LINE      CODE     ---       #532
      01002652H   LINE      CODE     ---       #533
      01002665H   LINE      CODE     ---       #534
      01002678H   LINE      CODE     ---       #535
      0100268BH   LINE      CODE     ---       #536
      0100269EH   LINE      CODE     ---       #537
      010026B1H   LINE      CODE     ---       #538
      010026C4H   LINE      CODE     ---       #539
      010026D7H   LINE      CODE     ---       #540
      010026EAH   LINE      CODE     ---       #541
      010026FDH   LINE      CODE     ---       #542
      01002710H   LINE      CODE     ---       #543
      01002723H   LINE      CODE     ---       #544
      01002736H   LINE      CODE     ---       #545
      01002749H   LINE      CODE     ---       #546
      0100275CH   LINE      CODE     ---       #547
      0100276FH   LINE      CODE     ---       #548
      01002782H   LINE      CODE     ---       #549
      01002795H   LINE      CODE     ---       #550
      010027A8H   LINE      CODE     ---       #551
      010027BBH   LINE      CODE     ---       #552
      010027CEH   LINE      CODE     ---       #553
      010027E1H   LINE      CODE     ---       #554
      010027F4H   LINE      CODE     ---       #555
      01002807H   LINE      CODE     ---       #556
      0100281AH   LINE      CODE     ---       #559
      0100282DH   LINE      CODE     ---       #560
      01002840H   LINE      CODE     ---       #561
      01002853H   LINE      CODE     ---       #562
      01002866H   LINE      CODE     ---       #565
      01002871H   LINE      CODE     ---       #566
      0100287CH   LINE      CODE     ---       #567
      01002887H   LINE      CODE     ---       #569
      01002892H   LINE      CODE     ---       #570
      0100289DH   LINE      CODE     ---       #571
      010028A8H   LINE      CODE     ---       #573
      010028B3H   LINE      CODE     ---       #574
      010028BEH   LINE      CODE     ---       #576
LX51 LINKER/LOCATER V4.64.0.0                                                         03/27/2019  09:25:09  PAGE 45


      010028C9H   LINE      CODE     ---       #577
      010028D4H   LINE      CODE     ---       #578
      010028DFH   LINE      CODE     ---       #579
      010028EAH   LINE      CODE     ---       #581
      010028F5H   LINE      CODE     ---       #582
      01002900H   LINE      CODE     ---       #583
      0100290BH   LINE      CODE     ---       #584
      01002916H   LINE      CODE     ---       #586
      01002921H   LINE      CODE     ---       #587
      0100292CH   LINE      CODE     ---       #588
      01002937H   LINE      CODE     ---       #589
      01002945H   LINE      CODE     ---       #591
      0100294BH   LINE      CODE     ---       #592
      0100294FH   LINE      CODE     ---       #594
      010029BBH   LINE      CODE     ---       #595
      010029BBH   LINE      CODE     ---       #598
      010029C1H   LINE      CODE     ---       #599
      010029C4H   LINE      CODE     ---       #600
      010029CCH   LINE      CODE     ---       #601
      010029D8H   LINE      CODE     ---       #602
      01002A04H   LINE      CODE     ---       #606
      01002A0AH   LINE      CODE     ---       #607
      01002A0EH   LINE      CODE     ---       #608
      01002A16H   LINE      CODE     ---       #609
      01002A38H   LINE      CODE     ---       #610
      01002A5AH   LINE      CODE     ---       #611
      01002A7CH   LINE      CODE     ---       #612
      01002A7EH   LINE      CODE     ---       #613
      01002A7EH   LINE      CODE     ---       #614
      01002AA0H   LINE      CODE     ---       #615
      01002AC2H   LINE      CODE     ---       #616
      01002AE4H   LINE      CODE     ---       #617
      01002AE4H   LINE      CODE     ---       #618
      01002AF0H   LINE      CODE     ---       #619
      01002B1CH   LINE      CODE     ---       #623
      01002B22H   LINE      CODE     ---       #624
      01002B26H   LINE      CODE     ---       #625
      01002B2EH   LINE      CODE     ---       #626
      01002B50H   LINE      CODE     ---       #627
      01002B72H   LINE      CODE     ---       #628
      01002B94H   LINE      CODE     ---       #629
      01002B96H   LINE      CODE     ---       #630
      01002B96H   LINE      CODE     ---       #631
      01002BB8H   LINE      CODE     ---       #632
      01002BDAH   LINE      CODE     ---       #633
      01002BFCH   LINE      CODE     ---       #634
      01002BFCH   LINE      CODE     ---       #635
      01002C08H   LINE      CODE     ---       #636
      01002C34H   LINE      CODE     ---       #640
      01002C39H   LINE      CODE     ---       #641
      01002C3CH   LINE      CODE     ---       #642
      01002C44H   LINE      CODE     ---       #643
      01002C49H   LINE      CODE     ---       #644
      01002C60H   LINE      CODE     ---       #645
      01002C66H   LINE      CODE     ---       #646
      01002C68H   LINE      CODE     ---       #647
      01002C68H   LINE      CODE     ---       #648
      01002C7FH   LINE      CODE     ---       #649
      01002C85H   LINE      CODE     ---       #650
      01002C85H   LINE      CODE     ---       #651
      01002C94H   LINE      CODE     ---       #652
      01002CC2H   LINE      CODE     ---       #654
      01002CD2H   LINE      CODE     ---       #658
      01002CD7H   LINE      CODE     ---       #659
      01002CDAH   LINE      CODE     ---       #660
LX51 LINKER/LOCATER V4.64.0.0                                                         03/27/2019  09:25:09  PAGE 46


      01002CE2H   LINE      CODE     ---       #661
      01002CEBH   LINE      CODE     ---       #662
      01002CEBH   LINE      CODE     ---       #663
      01002D02H   LINE      CODE     ---       #664
      01002D08H   LINE      CODE     ---       #665
      01002D0AH   LINE      CODE     ---       #666
      01002D0AH   LINE      CODE     ---       #667
      01002D21H   LINE      CODE     ---       #668
      01002D27H   LINE      CODE     ---       #669
      01002D27H   LINE      CODE     ---       #670
      01002D27H   LINE      CODE     ---       #671
      01002D36H   LINE      CODE     ---       #672
      01002D64H   LINE      CODE     ---       #674
      01002D74H   LINE      CODE     ---       #678
      01002D79H   LINE      CODE     ---       #679
      01002D7CH   LINE      CODE     ---       #680
      01002D84H   LINE      CODE     ---       #681
      01002D94H   LINE      CODE     ---       #682
      01002D94H   LINE      CODE     ---       #683
      01002DABH   LINE      CODE     ---       #684
      01002DB1H   LINE      CODE     ---       #685
      01002DB3H   LINE      CODE     ---       #686
      01002DB3H   LINE      CODE     ---       #687
      01002DCAH   LINE      CODE     ---       #688
      01002DD0H   LINE      CODE     ---       #689
      01002DD2H   LINE      CODE     ---       #690
      01002DD2H   LINE      CODE     ---       #691
      01002DE9H   LINE      CODE     ---       #692
      01002DEFH   LINE      CODE     ---       #693
      01002DF1H   LINE      CODE     ---       #694
      01002DF1H   LINE      CODE     ---       #695
      01002E08H   LINE      CODE     ---       #696
      01002E0EH   LINE      CODE     ---       #697
      01002E0EH   LINE      CODE     ---       #706
      01002E0EH   LINE      CODE     ---       #707
      01002E1DH   LINE      CODE     ---       #708
      01002E4BH   LINE      CODE     ---       #710
      01002E5BH   LINE      CODE     ---       #721
      01002E5FH   LINE      CODE     ---       #722
      01002E62H   LINE      CODE     ---       #723
      01002E72H   LINE      CODE     ---       #724
      01002E98H   LINE      CODE     ---       #725
      01002EA4H   LINE      CODE     ---       #726
      01002ED0H   LINE      CODE     ---       #730
      01002ED6H   LINE      CODE     ---       #731
      01002ED8H   LINE      CODE     ---       #732
      01002EE8H   LINE      CODE     ---       #733
      01002F41H   LINE      CODE     ---       #734
      01002F4DH   LINE      CODE     ---       #735
      01002F79H   LINE      CODE     ---       #739
      01002F7FH   LINE      CODE     ---       #740
      01002F83H   LINE      CODE     ---       #741
      01002F93H   LINE      CODE     ---       #742
      01002FE7H   LINE      CODE     ---       #743
      01002FFEH   LINE      CODE     ---       #744
      01003024H   LINE      CODE     ---       #748
      01003029H   LINE      CODE     ---       #749
      0100302CH   LINE      CODE     ---       #750
      01003034H   LINE      CODE     ---       #751
      01003039H   LINE      CODE     ---       #752
      01003050H   LINE      CODE     ---       #753
      01003056H   LINE      CODE     ---       #754
      01003058H   LINE      CODE     ---       #755
      01003058H   LINE      CODE     ---       #756
      0100306FH   LINE      CODE     ---       #757
LX51 LINKER/LOCATER V4.64.0.0                                                         03/27/2019  09:25:09  PAGE 47


      01003075H   LINE      CODE     ---       #758
      01003075H   LINE      CODE     ---       #759
      01003084H   LINE      CODE     ---       #760
      010030B2H   LINE      CODE     ---       #762
      010030C2H   LINE      CODE     ---       #766
      010030C8H   LINE      CODE     ---       #767
      010030CBH   LINE      CODE     ---       #768
      010030DEH   LINE      CODE     ---       #769
      0100313AH   LINE      CODE     ---       #770
      01003196H   LINE      CODE     ---       #771
      010031A1H   LINE      CODE     ---       #772
      010031ADH   LINE      CODE     ---       #773
      010031D9H   LINE      CODE     ---       #777
      010031DFH   LINE      CODE     ---       #778
      010031E3H   LINE      CODE     ---       #779
      010031F7H   LINE      CODE     ---       #780
      0100320BH   LINE      CODE     ---       #781
      01003222H   LINE      CODE     ---       #782
      01003248H   LINE      CODE     ---       #786
      0100324EH   LINE      CODE     ---       #787
      01003252H   LINE      CODE     ---       #788
      01003261H   LINE      CODE     ---       #789
      0100326DH   LINE      CODE     ---       #790
      01003299H   LINE      CODE     ---       #794
      0100329FH   LINE      CODE     ---       #795
      010032A3H   LINE      CODE     ---       #796
      010032B7H   LINE      CODE     ---       #797
      010032C3H   LINE      CODE     ---       #798
      010032EFH   LINE      CODE     ---       #802
      010032F5H   LINE      CODE     ---       #803
      010032F9H   LINE      CODE     ---       #804
      01003308H   LINE      CODE     ---       #805
      01003314H   LINE      CODE     ---       #806
      01003340H   LINE      CODE     ---       #810
      01003346H   LINE      CODE     ---       #811
      0100334AH   LINE      CODE     ---       #812
      01003359H   LINE      CODE     ---       #813
      01003365H   LINE      CODE     ---       #814
      01003391H   LINE      CODE     ---       #818
      01003396H   LINE      CODE     ---       #819
      01003399H   LINE      CODE     ---       #820
      010033A1H   LINE      CODE     ---       #821
      010033A6H   LINE      CODE     ---       #822
      010033BDH   LINE      CODE     ---       #823
      010033C3H   LINE      CODE     ---       #824
      010033C5H   LINE      CODE     ---       #825
      010033C5H   LINE      CODE     ---       #826
      010033DCH   LINE      CODE     ---       #827
      010033E2H   LINE      CODE     ---       #828
      010033E2H   LINE      CODE     ---       #829
      010033F1H   LINE      CODE     ---       #830
      0100341FH   LINE      CODE     ---       #832
      0100342FH   LINE      CODE     ---       #836
      01003434H   LINE      CODE     ---       #837
      01003438H   LINE      CODE     ---       #838
      01003447H   LINE      CODE     ---       #839
      01003453H   LINE      CODE     ---       #840
      0100347FH   LINE      CODE     ---       #844
      01003484H   LINE      CODE     ---       #845
      01003487H   LINE      CODE     ---       #846
      0100348FH   LINE      CODE     ---       #847
      01003494H   LINE      CODE     ---       #848
      010034ABH   LINE      CODE     ---       #849
      010034B1H   LINE      CODE     ---       #850
      010034B3H   LINE      CODE     ---       #851
LX51 LINKER/LOCATER V4.64.0.0                                                         03/27/2019  09:25:09  PAGE 48


      010034B3H   LINE      CODE     ---       #852
      010034CAH   LINE      CODE     ---       #853
      010034D0H   LINE      CODE     ---       #854
      010034D0H   LINE      CODE     ---       #855
      010034DFH   LINE      CODE     ---       #856
      0100350DH   LINE      CODE     ---       #858
      0100351DH   LINE      CODE     ---       #862
      01003523H   LINE      CODE     ---       #863
      01003527H   LINE      CODE     ---       #864
      0100353BH   LINE      CODE     ---       #865
      01003547H   LINE      CODE     ---       #866
      01003573H   LINE      CODE     ---       #870
      01003579H   LINE      CODE     ---       #871
      0100357DH   LINE      CODE     ---       #872
      01003591H   LINE      CODE     ---       #873
      0100359DH   LINE      CODE     ---       #874
      010035C9H   LINE      CODE     ---       #878
      010035CFH   LINE      CODE     ---       #879
      010035D2H   LINE      CODE     ---       #880
      010035DAH   LINE      CODE     ---       #881
      010035E6H   LINE      CODE     ---       #882
      01003612H   LINE      CODE     ---       #886
      01003617H   LINE      CODE     ---       #887
      0100361AH   LINE      CODE     ---       #888
      01003622H   LINE      CODE     ---       #889
      01003627H   LINE      CODE     ---       #890
      0100363EH   LINE      CODE     ---       #891
      01003644H   LINE      CODE     ---       #892
      01003646H   LINE      CODE     ---       #893
      01003646H   LINE      CODE     ---       #894
      0100365DH   LINE      CODE     ---       #895
      01003663H   LINE      CODE     ---       #896
      01003663H   LINE      CODE     ---       #897
      01003672H   LINE      CODE     ---       #898
      010036A0H   LINE      CODE     ---       #900
      010036B0H   LINE      CODE     ---       #905
      010036B6H   LINE      CODE     ---       #906
      010036BAH   LINE      CODE     ---       #907
      010036CEH   LINE      CODE     ---       #908
      010036DDH   LINE      CODE     ---       #909
      0100370BH   LINE      CODE     ---       #913
      01003710H   LINE      CODE     ---       #914
      01003713H   LINE      CODE     ---       #915
      0100371BH   LINE      CODE     ---       #916
      01003720H   LINE      CODE     ---       #917
      01003737H   LINE      CODE     ---       #918
      0100373DH   LINE      CODE     ---       #919
      0100373FH   LINE      CODE     ---       #920
      0100373FH   LINE      CODE     ---       #921
      01003756H   LINE      CODE     ---       #922
      0100375CH   LINE      CODE     ---       #923
      0100375CH   LINE      CODE     ---       #924
      0100376BH   LINE      CODE     ---       #925
      01003799H   LINE      CODE     ---       #927
      010037A9H   LINE      CODE     ---       #931
      010037B5H   LINE      CODE     ---       #932
      010037E1H   LINE      CODE     ---       #934
      010037EDH   LINE      CODE     ---       #935
      01003819H   LINE      CODE     ---       #937
      01003825H   LINE      CODE     ---       #938
      01003851H   LINE      CODE     ---       #940
      0100385DH   LINE      CODE     ---       #941
      01003889H   LINE      CODE     ---       #943
      010038ADH   LINE      CODE     ---       #944
      010038BBH   LINE      CODE     ---       #945
LX51 LINKER/LOCATER V4.64.0.0                                                         03/27/2019  09:25:09  PAGE 49


      010038BEH   LINE      CODE     ---       #946
      010038BFH   LINE      CODE     ---       #949
      010038BFH   LINE      CODE     ---       #950
      010038C7H   LINE      CODE     ---       #951
      010038C8H   LINE      CODE     ---       #954
      010038C8H   LINE      CODE     ---       #955
      010038D0H   LINE      CODE     ---       #956
      010038F1H   LINE      CODE     ---       #957
      01003912H   LINE      CODE     ---       #958
      01003933H   LINE      CODE     ---       #959
      01003934H   LINE      CODE     ---       #960
      01003934H   LINE      CODE     ---       #961
      01003955H   LINE      CODE     ---       #962
      01003976H   LINE      CODE     ---       #963
      01003997H   LINE      CODE     ---       #964
      01003997H   LINE      CODE     ---       #965
      01003998H   LINE      CODE     ---       #968
      01003998H   LINE      CODE     ---       #969
      010039A0H   LINE      CODE     ---       #970
      010039C1H   LINE      CODE     ---       #971
      010039E2H   LINE      CODE     ---       #972
      01003A03H   LINE      CODE     ---       #973
      01003A04H   LINE      CODE     ---       #974
      01003A04H   LINE      CODE     ---       #975
      01003A25H   LINE      CODE     ---       #976
      01003A46H   LINE      CODE     ---       #977
      01003A67H   LINE      CODE     ---       #978
      01003A67H   LINE      CODE     ---       #979
      01003A68H   LINE      CODE     ---       #982
      01003A68H   LINE      CODE     ---       #983
      01003A6EH   LINE      CODE     ---       #984
      01003A75H   LINE      CODE     ---       #986
      01003A7AH   LINE      CODE     ---       #987
      01003A7BH   LINE      CODE     ---       #990
      01003A7BH   LINE      CODE     ---       #991
      01003A83H   LINE      CODE     ---       #992
      01003A84H   LINE      CODE     ---       #995
      01003A84H   LINE      CODE     ---       #996
      01003A8CH   LINE      CODE     ---       #997
      01003A8DH   LINE      CODE     ---       #1000
      01003A8DH   LINE      CODE     ---       #1001
      01003AA0H   LINE      CODE     ---       #1002
      01003AC6H   LINE      CODE     ---       #1003
      01003AC6H   LINE      CODE     ---       #1006
      01003AC6H   LINE      CODE     ---       #1007
      01003AD9H   LINE      CODE     ---       #1008
      01003B23H   LINE      CODE     ---       #1009
      01003B55H   LINE      CODE     ---       #1011
      01003B63H   LINE      CODE     ---       #1012
      01003B6EH   LINE      CODE     ---       #1013
      01003B70H   LINE      CODE     ---       #1014
      01003B71H   LINE      CODE     ---       #1017
      01003B71H   LINE      CODE     ---       #1018
      01003B84H   LINE      CODE     ---       #1019
      01003BD8H   LINE      CODE     ---       #1020
      01003BD8H   LINE      CODE     ---       #1023
      01003BD8H   LINE      CODE     ---       #1024
      01003BE0H   LINE      CODE     ---       #1025
      01003BE1H   LINE      CODE     ---       #1028
      01003BE1H   LINE      CODE     ---       #1029
      01003BF4H   LINE      CODE     ---       #1030
      01003C3EH   LINE      CODE     ---       #1031
      01003C8BH   LINE      CODE     ---       #1033
      01003CBDH   LINE      CODE     ---       #1034
      01003CFBH   LINE      CODE     ---       #1035
LX51 LINKER/LOCATER V4.64.0.0                                                         03/27/2019  09:25:09  PAGE 50


      01003D06H   LINE      CODE     ---       #1036
      01003D06H   LINE      CODE     ---       #1039
      01003D06H   LINE      CODE     ---       #1040
      01003D1AH   LINE      CODE     ---       #1041
      01003D33H   LINE      CODE     ---       #1042
      01003D47H   LINE      CODE     ---       #1044
      01003D5BH   LINE      CODE     ---       #1045
      01003D77H   LINE      CODE     ---       #1046
      01003D8BH   LINE      CODE     ---       #1047
      01003D8CH   LINE      CODE     ---       #1050
      01003D8CH   LINE      CODE     ---       #1051
      01003D9BH   LINE      CODE     ---       #1052
      01003D9CH   LINE      CODE     ---       #1055
      01003D9CH   LINE      CODE     ---       #1056
      01003DB0H   LINE      CODE     ---       #1057
      01003DB1H   LINE      CODE     ---       #1060
      01003DB1H   LINE      CODE     ---       #1061
      01003DC0H   LINE      CODE     ---       #1062
      01003DC1H   LINE      CODE     ---       #1065
      01003DC1H   LINE      CODE     ---       #1066
      01003DD0H   LINE      CODE     ---       #1067
      01003DD1H   LINE      CODE     ---       #1070
      01003DD1H   LINE      CODE     ---       #1071
      01003DD9H   LINE      CODE     ---       #1072
      01003DDEH   LINE      CODE     ---       #1073
      01003DE3H   LINE      CODE     ---       #1074
      01003DE7H   LINE      CODE     ---       #1075
      01003DE7H   LINE      CODE     ---       #1076
      01003DE8H   LINE      CODE     ---       #1079
      01003DE8H   LINE      CODE     ---       #1080
      01003DF7H   LINE      CODE     ---       #1081
      01003DF8H   LINE      CODE     ---       #1084
      01003DF8H   LINE      CODE     ---       #1085
      01003E00H   LINE      CODE     ---       #1086
      01003E02H   LINE      CODE     ---       #1087
      01003E07H   LINE      CODE     ---       #1088
      01003E0BH   LINE      CODE     ---       #1089
      01003E0BH   LINE      CODE     ---       #1090
      01003E0CH   LINE      CODE     ---       #1093
      01003E0CH   LINE      CODE     ---       #1094
      01003E20H   LINE      CODE     ---       #1095
      01003E21H   LINE      CODE     ---       #1098
      01003E21H   LINE      CODE     ---       #1099
      01003E35H   LINE      CODE     ---       #1100
      01003E36H   LINE      CODE     ---       #1102
      01003E36H   LINE      CODE     ---       #1103
      01003E3EH   LINE      CODE     ---       #1104
      01003E3FH   LINE      CODE     ---       #1106
      01003E3FH   LINE      CODE     ---       #1107
      01003E47H   LINE      CODE     ---       #1108
      01003E49H   LINE      CODE     ---       #1109
      01003E4EH   LINE      CODE     ---       #1110
      01003E52H   LINE      CODE     ---       #1111
      01003E52H   LINE      CODE     ---       #1112
      01003E53H   LINE      CODE     ---       #1114
      01003E53H   LINE      CODE     ---       #1115
      01003E67H   LINE      CODE     ---       #1116
      01003E68H   LINE      CODE     ---       #1118
      01003E68H   LINE      CODE     ---       #1119
      01003E70H   LINE      CODE     ---       #1120
      01003E70H   LINE      CODE     ---       #1121
      01003E70H   LINE      CODE     ---       #1122
      ---         BLOCKEND  ---      ---       LVL=0

      01003E71H   BLOCK     CODE     ---       LVL=0
LX51 LINKER/LOCATER V4.64.0.0                                                         03/27/2019  09:25:09  PAGE 51


      0200060BH   SYMBOL    XDATA    ---       info_string
      01003E7CH   BLOCK     CODE     NEAR LAB  LVL=1
      00000067H   SYMBOL    DATA     INT       i
      0200060EH   SYMBOL    XDATA    ---       str
      ---         BLOCKEND  ---      ---       LVL=1
      01003E71H   LINE      CODE     ---       #1128
      01003E7CH   LINE      CODE     ---       #1129
      01003E7CH   LINE      CODE     ---       #1134
      01003E94H   LINE      CODE     ---       #1135
      01003EB0H   LINE      CODE     ---       #1136
      01003ECCH   LINE      CODE     ---       #1137
      01003EE8H   LINE      CODE     ---       #1138
      01003F04H   LINE      CODE     ---       #1140
      01003F20H   LINE      CODE     ---       #1141
      01003F44H   LINE      CODE     ---       #1142
      01003F60H   LINE      CODE     ---       #1143
      01003F7EH   LINE      CODE     ---       #1144
      01003F9AH   LINE      CODE     ---       #1145
      01003FC0H   LINE      CODE     ---       #1146
      01003FDCH   LINE      CODE     ---       #1147
      01004000H   LINE      CODE     ---       #1148
      0100401CH   LINE      CODE     ---       #1149
      01004038H   LINE      CODE     ---       #1151
      01004054H   LINE      CODE     ---       #1152
      01004070H   LINE      CODE     ---       #1154
      01004082H   LINE      CODE     ---       #1155
      010040D4H   LINE      CODE     ---       #1156
      010040F0H   LINE      CODE     ---       #1157
      010040FBH   LINE      CODE     ---       #1158
      01004117H   LINE      CODE     ---       #1160
      0100412EH   LINE      CODE     ---       #1162
      01004136H   LINE      CODE     ---       #1163
      0100414DH   LINE      CODE     ---       #1164
      0100414FH   LINE      CODE     ---       #1165
      01004166H   LINE      CODE     ---       #1166
      01004166H   LINE      CODE     ---       #1167
      01004182H   LINE      CODE     ---       #1170
      0100419EH   LINE      CODE     ---       #1171
      010041BAH   LINE      CODE     ---       #1172
      010041CFH   LINE      CODE     ---       #1174
      01004230H   LINE      CODE     ---       #1175
      0100424CH   LINE      CODE     ---       #1176
      01004268H   LINE      CODE     ---       #1177
      01004273H   LINE      CODE     ---       #1178
      0100429EH   LINE      CODE     ---       #1179
      010042BAH   LINE      CODE     ---       #1180
      010042D6H   LINE      CODE     ---       #1182
      01004301H   LINE      CODE     ---       #1183
      0100431DH   LINE      CODE     ---       #1184
      01004339H   LINE      CODE     ---       #1186
      01004364H   LINE      CODE     ---       #1187
      01004380H   LINE      CODE     ---       #1188
      0100439CH   LINE      CODE     ---       #1191
      010043B8H   LINE      CODE     ---       #1193
      010043D4H   LINE      CODE     ---       #1194
      010043DFH   LINE      CODE     ---       #1195
      01004418H   LINE      CODE     ---       #1196
      01004434H   LINE      CODE     ---       #1197
      0100446DH   LINE      CODE     ---       #1198
      01004489H   LINE      CODE     ---       #1199
      010044C2H   LINE      CODE     ---       #1200
      010044DEH   LINE      CODE     ---       #1201
      010044E1H   LINE      CODE     ---       #1202
      010044E1H   LINE      CODE     ---       #1203
      0100451AH   LINE      CODE     ---       #1204
LX51 LINKER/LOCATER V4.64.0.0                                                         03/27/2019  09:25:09  PAGE 52


      01004536H   LINE      CODE     ---       #1205
      0100456FH   LINE      CODE     ---       #1206
      0100458BH   LINE      CODE     ---       #1207
      010045C4H   LINE      CODE     ---       #1208
      010045E0H   LINE      CODE     ---       #1209
      010045E0H   LINE      CODE     ---       #1211
      010045FCH   LINE      CODE     ---       #1212
      01004607H   LINE      CODE     ---       #1213
      01004640H   LINE      CODE     ---       #1214
      0100465CH   LINE      CODE     ---       #1215
      01004695H   LINE      CODE     ---       #1216
      010046B1H   LINE      CODE     ---       #1217
      010046EAH   LINE      CODE     ---       #1218
      01004706H   LINE      CODE     ---       #1219
      01004709H   LINE      CODE     ---       #1220
      01004709H   LINE      CODE     ---       #1221
      01004742H   LINE      CODE     ---       #1222
      0100475EH   LINE      CODE     ---       #1223
      01004797H   LINE      CODE     ---       #1224
      010047B3H   LINE      CODE     ---       #1225
      010047ECH   LINE      CODE     ---       #1226
      01004808H   LINE      CODE     ---       #1227
      01004808H   LINE      CODE     ---       #1229
      01004824H   LINE      CODE     ---       #1231
      0100482BH   LINE      CODE     ---       #1232
      01004847H   LINE      CODE     ---       #1233
      01004849H   LINE      CODE     ---       #1234
      01004865H   LINE      CODE     ---       #1235
      01004865H   LINE      CODE     ---       #1237
      0100486FH   LINE      CODE     ---       #1238
      0100486FH   LINE      CODE     ---       #1239
      0100488BH   LINE      CODE     ---       #1240
      0100488DH   LINE      CODE     ---       #1241
      0100488DH   LINE      CODE     ---       #1242
      010048A9H   LINE      CODE     ---       #1243
      010048A9H   LINE      CODE     ---       #1244
      010048A9H   LINE      CODE     ---       #1246
      010048C5H   LINE      CODE     ---       #1247
      010048D6H   LINE      CODE     ---       #1248
      010048D6H   LINE      CODE     ---       #1249
      010048F2H   LINE      CODE     ---       #1250
      010048F4H   LINE      CODE     ---       #1251
      010048F4H   LINE      CODE     ---       #1252
      01004910H   LINE      CODE     ---       #1253
      01004912H   LINE      CODE     ---       #1254
      01004912H   LINE      CODE     ---       #1255
      0100492EH   LINE      CODE     ---       #1256
      01004930H   LINE      CODE     ---       #1257
      01004930H   LINE      CODE     ---       #1258
      0100494CH   LINE      CODE     ---       #1259
      0100494CH   LINE      CODE     ---       #1266
      0100494CH   LINE      CODE     ---       #1268
      01004968H   LINE      CODE     ---       #1269
      0100497AH   LINE      CODE     ---       #1270
      0100497AH   LINE      CODE     ---       #1272
      010049B6H   LINE      CODE     ---       #1273
      010049D2H   LINE      CODE     ---       #1274
      010049EEH   LINE      CODE     ---       #1275
      010049F9H   LINE      CODE     ---       #1278
      01004A15H   LINE      CODE     ---       #1279
      01004A2AH   LINE      CODE     ---       #1280
      01004A2AH   LINE      CODE     ---       #1282
      01004A89H   LINE      CODE     ---       #1283
      01004AA5H   LINE      CODE     ---       #1284
      01004AC1H   LINE      CODE     ---       #1285
LX51 LINKER/LOCATER V4.64.0.0                                                         03/27/2019  09:25:09  PAGE 53


      01004ACCH   LINE      CODE     ---       #1287
      01004AE8H   LINE      CODE     ---       #1288
      01004AFDH   LINE      CODE     ---       #1289
      01004AFDH   LINE      CODE     ---       #1291
      01004B4AH   LINE      CODE     ---       #1292
      01004B66H   LINE      CODE     ---       #1293
      01004B82H   LINE      CODE     ---       #1294
      01004B8DH   LINE      CODE     ---       #1296
      01004BA9H   LINE      CODE     ---       #1297
      01004BD4H   LINE      CODE     ---       #1298
      01004BF0H   LINE      CODE     ---       #1299
      01004C0CH   LINE      CODE     ---       #1301
      01004C28H   LINE      CODE     ---       #1302
      01004C4EH   LINE      CODE     ---       #1303
      01004C6AH   LINE      CODE     ---       #1304
      01004C86H   LINE      CODE     ---       #1306
      01004CA2H   LINE      CODE     ---       #1307
      01004CC8H   LINE      CODE     ---       #1308
      01004CE4H   LINE      CODE     ---       #1309
      01004D00H   LINE      CODE     ---       #1311
      01004D24H   LINE      CODE     ---       #1312
      01004D40H   LINE      CODE     ---       #1313
      01004D5CH   LINE      CODE     ---       #1315
      01004D71H   LINE      CODE     ---       #1317
      01004DD0H   LINE      CODE     ---       #1318
      01004DECH   LINE      CODE     ---       #1321
      01004E3CH   LINE      CODE     ---       #1322
      01004E58H   LINE      CODE     ---       #1323
      01004E63H   LINE      CODE     ---       #1325
      01004E9EH   LINE      CODE     ---       #1326
      01004EBAH   LINE      CODE     ---       #1327
      01004ED6H   LINE      CODE     ---       #1329
      01004EFCH   LINE      CODE     ---       #1330
      01004F18H   LINE      CODE     ---       #1331
      01004F34H   LINE      CODE     ---       #1333
      01004F3AH   LINE      CODE     ---       #1334
      01004F58H   LINE      CODE     ---       #1336
      01004F74H   LINE      CODE     ---       #1338
      01004F7AH   LINE      CODE     ---       #1339
      01004F98H   LINE      CODE     ---       #1341
      01004FB4H   LINE      CODE     ---       #1343
      01004FBAH   LINE      CODE     ---       #1344
      01004FD8H   LINE      CODE     ---       #1346
      01004FF4H   LINE      CODE     ---       #1348
      01004FF7H   LINE      CODE     ---       #1349
      01005015H   LINE      CODE     ---       #1351
      01005031H   LINE      CODE     ---       #1353
      01005034H   LINE      CODE     ---       #1354
      01005052H   LINE      CODE     ---       #1356
      0100506EH   LINE      CODE     ---       #1358
      01005071H   LINE      CODE     ---       #1359
      0100508FH   LINE      CODE     ---       #1361
      010050ABH   LINE      CODE     ---       #1363
      010050B1H   LINE      CODE     ---       #1364
      010050CFH   LINE      CODE     ---       #1366
      010050EBH   LINE      CODE     ---       #1368
      0100512FH   LINE      CODE     ---       #1369
      0100514BH   LINE      CODE     ---       #1370
      01005167H   LINE      CODE     ---       #1372
      ---         BLOCKEND  ---      ---       LVL=0

      0100B162H   BLOCK     CODE     ---       LVL=0
      0200002FH   SYMBOL    XDATA    ---       packet_data
      02000032H   SYMBOL    XDATA    WORD      packet_lenght
      02000034H   SYMBOL    XDATA    BYTE      old_id
LX51 LINKER/LOCATER V4.64.0.0                                                         03/27/2019  09:25:09  PAGE 54


      0100B173H   BLOCK     CODE     NEAR LAB  LVL=1
      0000006BH   SYMBOL    DATA     WORD      index
      ---         BLOCKEND  ---      ---       LVL=1
      0100B162H   LINE      CODE     ---       #1378
      0100B173H   LINE      CODE     ---       #1379
      0100B173H   LINE      CODE     ---       #1383
      0100B178H   LINE      CODE     ---       #1384
      0100B17DH   LINE      CODE     ---       #1387
      0100B185H   LINE      CODE     ---       #1392
      0100B18FH   LINE      CODE     ---       #1394
      0100B1A3H   LINE      CODE     ---       #1395
      0100B1BBH   LINE      CODE     ---       #1396
      0100B1C5H   LINE      CODE     ---       #1398
      0100B1CAH   LINE      CODE     ---       #1400
      0100B1E4H   LINE      CODE     ---       #1402
      0100B1E9H   LINE      CODE     ---       #1403
      0100B1EEH   LINE      CODE     ---       #1404
      ---         BLOCKEND  ---      ---       LVL=0

      0100B02EH   BLOCK     CODE     ---       LVL=0
      02000B06H   SYMBOL    XDATA    ---       packet_data
      02000B09H   SYMBOL    XDATA    WORD      packet_lenght
      02000B0BH   SYMBOL    XDATA    BYTE      next
      0100B03FH   BLOCK     CODE     NEAR LAB  LVL=1
      0000007CH   SYMBOL    DATA     WORD      index
      ---         BLOCKEND  ---      ---       LVL=1
      0100B02EH   LINE      CODE     ---       #1406
      0100B03FH   LINE      CODE     ---       #1407
      0100B03FH   LINE      CODE     ---       #1411
      0100B044H   LINE      CODE     ---       #1412
      0100B049H   LINE      CODE     ---       #1415
      0100B04FH   LINE      CODE     ---       #1418
      0100B059H   LINE      CODE     ---       #1420
      0100B061H   LINE      CODE     ---       #1423
      0100B06BH   LINE      CODE     ---       #1426
      0100B07FH   LINE      CODE     ---       #1427
      0100B0A1H   LINE      CODE     ---       #1429
      0100B0A6H   LINE      CODE     ---       #1431
      0100B0C0H   LINE      CODE     ---       #1433
      0100B0C6H   LINE      CODE     ---       #1434
      0100B0CBH   LINE      CODE     ---       #1435
      0100B0D0H   LINE      CODE     ---       #1436
      0100B0D0H   LINE      CODE     ---       #1437
      ---         BLOCKEND  ---      ---       LVL=0

      0100C3FEH   BLOCK     CODE     ---       LVL=0
      00000007H   SYMBOL    DATA     BYTE      value
      0100C3FEH   BLOCK     CODE     NEAR LAB  LVL=1
      0000006BH   SYMBOL    DATA     ---       packet_data
      ---         BLOCKEND  ---      ---       LVL=1
      0100C3FEH   LINE      CODE     ---       #1443
      0100C3FEH   LINE      CODE     ---       #1450
      0100C400H   LINE      CODE     ---       #1453
      0100C402H   LINE      CODE     ---       #1455
      0100C413H   LINE      CODE     ---       #1456
      ---         BLOCKEND  ---      ---       LVL=0

      0100ACC2H   BLOCK     CODE     ---       LVL=0
      0200002FH   SYMBOL    XDATA    INT       displacement
      0100ACCAH   BLOCK     CODE     NEAR LAB  LVL=1
      00000007H   SYMBOL    DATA     BYTE      writeStatus
      02000031H   SYMBOL    XDATA    INT       i
      02000033H   SYMBOL    XDATA    INT       pages
      02000035H   SYMBOL    XDATA    BYTE      ret_val
      ---         BLOCKEND  ---      ---       LVL=1
LX51 LINKER/LOCATER V4.64.0.0                                                         03/27/2019  09:25:09  PAGE 55


      0100ACC2H   LINE      CODE     ---       #1466
      0100ACCAH   LINE      CODE     ---       #1471
      0100ACD0H   LINE      CODE     ---       #1473
      0100ACD5H   LINE      CODE     ---       #1474
      0100ACDAH   LINE      CODE     ---       #1477
      0100ACDDH   LINE      CODE     ---       #1479
      0100ACF0H   LINE      CODE     ---       #1481
      0100ACF9H   LINE      CODE     ---       #1483
      0100AD1CH   LINE      CODE     ---       #1484
      0100AD41H   LINE      CODE     ---       #1485
      0100AD44H   LINE      CODE     ---       #1486
      0100AD49H   LINE      CODE     ---       #1487
      0100AD4BH   LINE      CODE     ---       #1488
      0100AD4BH   LINE      CODE     ---       #1489
      0100AD5BH   LINE      CODE     ---       #1491
      0100AD6EH   LINE      CODE     ---       #1493
      0100AD73H   LINE      CODE     ---       #1494
      ---         BLOCKEND  ---      ---       LVL=0

      0100BB2EH   BLOCK     CODE     ---       LVL=0
      0100BB2EH   BLOCK     CODE     NEAR LAB  LVL=1
      00000006H   SYMBOL    DATA     WORD      i
      ---         BLOCKEND  ---      ---       LVL=1
      0100BB2EH   LINE      CODE     ---       #1504
      0100BB2EH   LINE      CODE     ---       #1508
      0100BB3AH   LINE      CODE     ---       #1509
      0100BB5DH   LINE      CODE     ---       #1513
      0100BB63H   LINE      CODE     ---       #1514
      0100BB67H   LINE      CODE     ---       #1516
      0100BB7AH   LINE      CODE     ---       #1518
      ---         BLOCKEND  ---      ---       LVL=0

      0100BC10H   BLOCK     CODE     ---       LVL=0
      0100BC10H   BLOCK     CODE     NEAR LAB  LVL=1
      00000006H   SYMBOL    DATA     WORD      i
      ---         BLOCKEND  ---      ---       LVL=1
      0100BC10H   LINE      CODE     ---       #1528
      0100BC10H   LINE      CODE     ---       #1532
      0100BC1CH   LINE      CODE     ---       #1533
      0100BC46H   LINE      CODE     ---       #1537
      0100BC4CH   LINE      CODE     ---       #1538
      0100BC50H   LINE      CODE     ---       #1540
      0100BC56H   LINE      CODE     ---       #1542
      ---         BLOCKEND  ---      ---       LVL=0

      010097F1H   BLOCK     CODE     ---       LVL=0
      010097F1H   BLOCK     CODE     NEAR LAB  LVL=1
      00000067H   SYMBOL    DATA     BYTE      i
      ---         BLOCKEND  ---      ---       LVL=1
      010097F1H   LINE      CODE     ---       #1551
      010097F1H   LINE      CODE     ---       #1555
      010097F7H   LINE      CODE     ---       #1556
      01009802H   LINE      CODE     ---       #1557
      0100980DH   LINE      CODE     ---       #1558
      0100981AH   LINE      CODE     ---       #1559
      01009826H   LINE      CODE     ---       #1560
      01009831H   LINE      CODE     ---       #1561
      0100983CH   LINE      CODE     ---       #1563
      0100984AH   LINE      CODE     ---       #1564
      01009855H   LINE      CODE     ---       #1565
      01009860H   LINE      CODE     ---       #1566
      0100986DH   LINE      CODE     ---       #1567
      01009879H   LINE      CODE     ---       #1568
      01009884H   LINE      CODE     ---       #1570
      0100988AH   LINE      CODE     ---       #1571
LX51 LINKER/LOCATER V4.64.0.0                                                         03/27/2019  09:25:09  PAGE 56


      0100988DH   LINE      CODE     ---       #1572
      01009891H   LINE      CODE     ---       #1573
      01009896H   LINE      CODE     ---       #1575
      0100989AH   LINE      CODE     ---       #1577
      010098A3H   LINE      CODE     ---       #1578
      010098BDH   LINE      CODE     ---       #1579
      010098D6H   LINE      CODE     ---       #1580
      010098DAH   LINE      CODE     ---       #1582
      010098E4H   LINE      CODE     ---       #1583
      010098E4H   LINE      CODE     ---       #1584
      010098FDH   LINE      CODE     ---       #1585
      0100990BH   LINE      CODE     ---       #1586
      01009933H   LINE      CODE     ---       #1587
      01009937H   LINE      CODE     ---       #1589
      01009945H   LINE      CODE     ---       #1590
      0100994FH   LINE      CODE     ---       #1591
      01009956H   LINE      CODE     ---       #1592
      0100995BH   LINE      CODE     ---       #1593
      0100995FH   LINE      CODE     ---       #1594
      01009963H   LINE      CODE     ---       #1595
      0100996BH   LINE      CODE     ---       #1596
      01009971H   LINE      CODE     ---       #1598
      0100997CH   LINE      CODE     ---       #1599
      01009987H   LINE      CODE     ---       #1601
      01009994H   LINE      CODE     ---       #1602
      010099A1H   LINE      CODE     ---       #1604
      010099A7H   LINE      CODE     ---       #1608
      010099AEH   LINE      CODE     ---       #1610
      010099B8H   LINE      CODE     ---       #1613
      010099BEH   LINE      CODE     ---       #1615
      010099CBH   LINE      CODE     ---       #1618
      010099E4H   LINE      CODE     ---       #1619
      ---         BLOCKEND  ---      ---       LVL=0

      0100B6CFH   BLOCK     CODE     ---       LVL=0
      0100B6CFH   BLOCK     CODE     NEAR LAB  LVL=1
      00000067H   SYMBOL    DATA     BYTE      index
      0200002FH   SYMBOL    XDATA    ---       packet_data
      ---         BLOCKEND  ---      ---       LVL=1
      0100B6CFH   LINE      CODE     ---       #1628
      0100B6CFH   LINE      CODE     ---       #1646
      0100B6D5H   LINE      CODE     ---       #1648
      0100B6DFH   LINE      CODE     ---       #1649
      0100B71EH   LINE      CODE     ---       #1658
      0100B72EH   LINE      CODE     ---       #1659
      0100B73FH   LINE      CODE     ---       #1662
      ---         BLOCKEND  ---      ---       LVL=0

      0100B816H   BLOCK     CODE     ---       LVL=0
      0100B816H   BLOCK     CODE     NEAR LAB  LVL=1
      0200002FH   SYMBOL    XDATA    ---       packet_data
      ---         BLOCKEND  ---      ---       LVL=1
      0100B816H   LINE      CODE     ---       #1664
      0100B816H   LINE      CODE     ---       #1672
      0100B81CH   LINE      CODE     ---       #1674
      0100B83BH   LINE      CODE     ---       #1675
      0100B85AH   LINE      CODE     ---       #1679
      0100B86AH   LINE      CODE     ---       #1681
      0100B87BH   LINE      CODE     ---       #1683
      ---         BLOCKEND  ---      ---       LVL=0

      0100BC57H   BLOCK     CODE     ---       LVL=0
      0100BC57H   BLOCK     CODE     NEAR LAB  LVL=1
      0200002FH   SYMBOL    XDATA    ---       packet_data
      ---         BLOCKEND  ---      ---       LVL=1
LX51 LINKER/LOCATER V4.64.0.0                                                         03/27/2019  09:25:09  PAGE 57


      0100BC57H   LINE      CODE     ---       #1685
      0100BC57H   LINE      CODE     ---       #1693
      0100BC5DH   LINE      CODE     ---       #1695
      0100BC6CH   LINE      CODE     ---       #1696
      0100BC7BH   LINE      CODE     ---       #1700
      0100BC8BH   LINE      CODE     ---       #1702
      0100BC9CH   LINE      CODE     ---       #1703
      ---         BLOCKEND  ---      ---       LVL=0

      0100B0D1H   BLOCK     CODE     ---       LVL=0
      0100B0D1H   BLOCK     CODE     NEAR LAB  LVL=1
      00000067H   SYMBOL    DATA     BYTE      index
      0200002FH   SYMBOL    XDATA    ---       packet_data
      ---         BLOCKEND  ---      ---       LVL=1
      0100B0D1H   LINE      CODE     ---       #1705
      0100B0D1H   LINE      CODE     ---       #1722
      0100B0D7H   LINE      CODE     ---       #1725
      0100B0E6H   LINE      CODE     ---       #1726
      0100B0F5H   LINE      CODE     ---       #1729
      0100B0FFH   LINE      CODE     ---       #1730
      0100B140H   LINE      CODE     ---       #1739
      0100B150H   LINE      CODE     ---       #1740
      0100B161H   LINE      CODE     ---       #1742
      ---         BLOCKEND  ---      ---       LVL=0

      01009FB6H   BLOCK     CODE     ---       LVL=0
      01009FB6H   LINE      CODE     ---       #1744
      01009FB6H   LINE      CODE     ---       #1747
      01009FCAH   LINE      CODE     ---       #1748
      01009FE7H   LINE      CODE     ---       #1750
      01009FFBH   LINE      CODE     ---       #1751
      0100A018H   LINE      CODE     ---       #1754
      0100A021H   LINE      CODE     ---       #1756
      0100A041H   LINE      CODE     ---       #1757
      0100A055H   LINE      CODE     ---       #1758
      0100A077H   LINE      CODE     ---       #1759
      0100A08BH   LINE      CODE     ---       #1761
      0100A0ADH   LINE      CODE     ---       #1762
      0100A0C1H   LINE      CODE     ---       #1763
      0100A0E3H   LINE      CODE     ---       #1764
      0100A0F7H   LINE      CODE     ---       #1765
      0100A0F7H   LINE      CODE     ---       #1766
      ---         BLOCKEND  ---      ---       LVL=0

      01009D05H   BLOCK     CODE     ---       LVL=0
      01009D05H   BLOCK     CODE     NEAR LAB  LVL=1
      00000067H   SYMBOL    DATA     LONG      pos
      0000006BH   SYMBOL    DATA     LONG      stiff
      ---         BLOCKEND  ---      ---       LVL=1
      01009D05H   LINE      CODE     ---       #1768
      01009D05H   LINE      CODE     ---       #1774
      01009D19H   LINE      CODE     ---       #1775
      01009D2BH   LINE      CODE     ---       #1778
      01009D44H   LINE      CODE     ---       #1781
      01009D79H   LINE      CODE     ---       #1782
      01009DA3H   LINE      CODE     ---       #1784
      01009DD4H   LINE      CODE     ---       #1785
      01009DFBH   LINE      CODE     ---       #1790
      01009E3AH   LINE      CODE     ---       #1793
      01009E54H   LINE      CODE     ---       #1794
      01009E6FH   LINE      CODE     ---       #1795
      ---         BLOCKEND  ---      ---       LVL=0

      0100B937H   BLOCK     CODE     ---       LVL=0
      0100B937H   BLOCK     CODE     NEAR LAB  LVL=1
LX51 LINKER/LOCATER V4.64.0.0                                                         03/27/2019  09:25:09  PAGE 58


      00000067H   SYMBOL    DATA     BYTE      index
      0200002FH   SYMBOL    XDATA    ---       packet_data
      ---         BLOCKEND  ---      ---       LVL=1
      0100B937H   LINE      CODE     ---       #1797
      0100B937H   LINE      CODE     ---       #1815
      0100B93DH   LINE      CODE     ---       #1817
      0100B947H   LINE      CODE     ---       #1818
      0100B96FH   LINE      CODE     ---       #1827
      0100B97FH   LINE      CODE     ---       #1828
      0100B990H   LINE      CODE     ---       #1830
      ---         BLOCKEND  ---      ---       LVL=0

      0100BCE1H   BLOCK     CODE     ---       LVL=0
      0100BCE1H   LINE      CODE     ---       #1832
      0100BCE1H   LINE      CODE     ---       #1835
      0100BCE9H   LINE      CODE     ---       #1838
      0100BCF3H   LINE      CODE     ---       #1839
      0100BCF3H   LINE      CODE     ---       #1840
      0100BD07H   LINE      CODE     ---       #1841
      0100BD1BH   LINE      CODE     ---       #1842
      0100BD1BH   LINE      CODE     ---       #1851
      0100BD23H   LINE      CODE     ---       #1853
      ---         BLOCKEND  ---      ---       LVL=0

      0100BD24H   BLOCK     CODE     ---       LVL=0
      0100BD24H   LINE      CODE     ---       #1855
      0100BD24H   LINE      CODE     ---       #1857
      0100BD2DH   LINE      CODE     ---       #1859
      0100BD32H   LINE      CODE     ---       #1860
      0100BD37H   LINE      CODE     ---       #1861
      0100BD38H   LINE      CODE     ---       #1862
      0100BD38H   LINE      CODE     ---       #1864
      0100BD41H   LINE      CODE     ---       #1865
      0100BD44H   LINE      CODE     ---       #1870
      0100BD5CH   LINE      CODE     ---       #1871
      0100BD5FH   LINE      CODE     ---       #1872
      0100BD64H   LINE      CODE     ---       #1873
      0100BD64H   LINE      CODE     ---       #1874
      ---         BLOCKEND  ---      ---       LVL=0

      0100C06AH   BLOCK     CODE     ---       LVL=0
      0100C06AH   BLOCK     CODE     NEAR LAB  LVL=1
      0200002FH   SYMBOL    XDATA    ---       packet_data
      ---         BLOCKEND  ---      ---       LVL=1
      0100C06AH   LINE      CODE     ---       #1876
      0100C06AH   LINE      CODE     ---       #1881
      0100C070H   LINE      CODE     ---       #1884
      0100C078H   LINE      CODE     ---       #1887
      0100C088H   LINE      CODE     ---       #1890
      0100C099H   LINE      CODE     ---       #1892
      ---         BLOCKEND  ---      ---       LVL=0

      0100C3B6H   BLOCK     CODE     ---       LVL=0
      0100C3B6H   BLOCK     CODE     NEAR LAB  LVL=1
      0200002FH   SYMBOL    XDATA    ---       packet_data
      ---         BLOCKEND  ---      ---       LVL=1
      0100C3B6H   LINE      CODE     ---       #1894
      0100C3B6H   LINE      CODE     ---       #1899
      0100C3BBH   LINE      CODE     ---       #1902
      0100C3BDH   LINE      CODE     ---       #1905
      0100C3CDH   LINE      CODE     ---       #1906
      ---         BLOCKEND  ---      ---       LVL=0

      01008CA8H   BLOCK     CODE     ---       LVL=0
      01008CA8H   BLOCK     CODE     NEAR LAB  LVL=1
LX51 LINKER/LOCATER V4.64.0.0                                                         03/27/2019  09:25:09  PAGE 59


      00000067H   SYMBOL    DATA     BYTE      packet_lenght
      00000068H   SYMBOL    DATA     ---       packet_data
      0000006AH   SYMBOL    DATA     BYTE      old_id
      ---         BLOCKEND  ---      ---       LVL=1
      01008CA8H   LINE      CODE     ---       #1908
      01008CA8H   LINE      CODE     ---       #1910
      01008CABH   LINE      CODE     ---       #1915
      01008CB4H   LINE      CODE     ---       #1917
      01008CD5H   LINE      CODE     ---       #1919
      01008D01H   LINE      CODE     ---       #1921
      01008D2DH   LINE      CODE     ---       #1922
      01008D2DH   LINE      CODE     ---       #1924
      01008D4EH   LINE      CODE     ---       #1926
      01008D7AH   LINE      CODE     ---       #1928
      01008DA6H   LINE      CODE     ---       #1929
      01008DA6H   LINE      CODE     ---       #1931
      01008DC8H   LINE      CODE     ---       #1932
      01008E1FH   LINE      CODE     ---       #1934
      01008E41H   LINE      CODE     ---       #1935
      01008E98H   LINE      CODE     ---       #1938
      01008EA1H   LINE      CODE     ---       #1939
      01008ED5H   LINE      CODE     ---       #1940
      01008F0BH   LINE      CODE     ---       #1942
      01008F41H   LINE      CODE     ---       #1943
      01008F77H   LINE      CODE     ---       #1944
      01008F77H   LINE      CODE     ---       #1945
      01008F77H   LINE      CODE     ---       #1948
      01008F84H   LINE      CODE     ---       #1949
      01008F86H   LINE      CODE     ---       #1950
      01008F8FH   LINE      CODE     ---       #1951
      01008F92H   LINE      CODE     ---       #1952
      01008F95H   LINE      CODE     ---       #1953
      01008FA9H   LINE      CODE     ---       #1954
      01008FAAH   LINE      CODE     ---       #1955
      01008FAAH   LINE      CODE     ---       #1956
      01008FADH   LINE      CODE     ---       #1957
      01008FAFH   LINE      CODE     ---       #1958
      01008FC2H   LINE      CODE     ---       #1959
      01008FC2H   LINE      CODE     ---       #1960
      01008FC3H   LINE      CODE     ---       #1961
      01008FC3H   LINE      CODE     ---       #1962
      01008FCCH   LINE      CODE     ---       #1963
      01008FD1H   LINE      CODE     ---       #1964
      01008FD2H   LINE      CODE     ---       #1965
      01008FD7H   LINE      CODE     ---       #1966
      01008FD7H   LINE      CODE     ---       #1967
      01008FD7H   LINE      CODE     ---       #1968
      ---         BLOCKEND  ---      ---       LVL=0

      0100C280H   BLOCK     CODE     ---       LVL=0
      0100C280H   LINE      CODE     ---       #1970
      0100C280H   LINE      CODE     ---       #1973
      0100C288H   LINE      CODE     ---       #1975
      0100C28CH   LINE      CODE     ---       #1976
      0100C28CH   LINE      CODE     ---       #1977
      0100C295H   LINE      CODE     ---       #1978
      0100C296H   LINE      CODE     ---       #1979
      0100C296H   LINE      CODE     ---       #1980
      0100C29FH   LINE      CODE     ---       #1981
      0100C29FH   LINE      CODE     ---       #1982
      ---         BLOCKEND  ---      ---       LVL=0

      ---         MODULE    ---      ---       GLOBALS
      02000D26H   PUBLIC    XDATA    BYTE      dev_pwm_limit
      00000022H.2 PUBLIC    BIT      BIT       tension_valid
LX51 LINKER/LOCATER V4.64.0.0                                                         03/27/2019  09:25:09  PAGE 60


      00000022H.1 PUBLIC    BIT      BIT       interrupt_flag
      02000D07H   PUBLIC    XDATA    ---       g_meas
      02000D05H   PUBLIC    XDATA    ---       pwm_sign
      02000CFFH   PUBLIC    XDATA    ---       ADC_buf
      02000CF7H   PUBLIC    XDATA    ---       pret_offset_pos
      02000CF3H   PUBLIC    XDATA    DWORD     timer_value0
      00000022H.0 PUBLIC    BIT      BIT       watchdog_flag
      00000021H.7 PUBLIC    BIT      BIT       pret_done
      00000021H.6 PUBLIC    BIT      BIT       reset_last_value_flag
      02000CEAH   PUBLIC    XDATA    ---       g_refNew
      02000C65H   PUBLIC    XDATA    ---       g_rx
      02000C5CH   PUBLIC    XDATA    ---       g_refOld
      02000C58H   PUBLIC    XDATA    LONG      dev_tension
      02000C54H   PUBLIC    XDATA    DWORD     timer_value
      00000021H.5 PUBLIC    BIT      BIT       cuff_flag_force
      00000021H.4 PUBLIC    BIT      BIT       cuff_flag_proprio
      02000C35H   PUBLIC    XDATA    ---       g_measOld
      02000C34H   PUBLIC    XDATA    BYTE      calibration_flag
      00000021H.3 PUBLIC    BIT      BIT       pretensioning_flag
      02000BA6H   PUBLIC    XDATA    ---       g_mem
      00000021H.2 PUBLIC    BIT      BIT       cuff_flag_force_proprio
      02000B9DH   PUBLIC    XDATA    ---       g_ref
      02000B0FH   PUBLIC    XDATA    ---       c_mem
      000000CAH   SFRSYM    DATA     BYTE      SFRPRT5SEL
      000000DAH   SFRSYM    DATA     BYTE      SFRPRT6SEL
      000000D0H.6 SFRSYM    DATA     BIT       AC
      000000A8H.7 SFRSYM    DATA     BIT       EA
      000000A8H   SFRSYM    DATA     BYTE      IE
      00000085H   SFRSYM    DATA     BYTE      DPH1
      00000084H   SFRSYM    DATA     BYTE      DPL1
      000000D0H.7 SFRSYM    DATA     BIT       CY
      000000A0H   SFRSYM    DATA     BYTE      P2AX
      00000095H   SFRSYM    DATA     BYTE      DPX1
      00000081H   SFRSYM    DATA     BYTE      SP
      000000D0H.2 SFRSYM    DATA     BIT       OV
      00000080H   SFRSYM    DATA     BYTE      SFRPRT0DR
      00000090H   SFRSYM    DATA     BYTE      SFRPRT1DR
      000000F2H   SFRSYM    DATA     BYTE      SFRPRT12SEL
      00000098H   SFRSYM    DATA     BYTE      SFRPRT2DR
      000000B0H   SFRSYM    DATA     BYTE      SFRPRT3DR
      000000C0H   SFRSYM    DATA     BYTE      SFRPRT4DR
      000000FAH   SFRSYM    DATA     BYTE      SFRPRT15SEL
      000000C8H   SFRSYM    DATA     BYTE      SFRPRT5DR
      000000D8H   SFRSYM    DATA     BYTE      SFRPRT6DR
      00000089H   SFRSYM    DATA     BYTE      SFRPRT0PS
      00000091H   SFRSYM    DATA     BYTE      SFRPRT1PS
      00000099H   SFRSYM    DATA     BYTE      SFRPRT2PS
      000000B1H   SFRSYM    DATA     BYTE      SFRPRT3PS
      000000C1H   SFRSYM    DATA     BYTE      SFRPRT4PS
      000000C9H   SFRSYM    DATA     BYTE      SFRPRT5PS
      000000D9H   SFRSYM    DATA     BYTE      SFRPRT6PS
      000000EAH   SFRSYM    DATA     BYTE      MXAX
      000000F0H   SFRSYM    DATA     BYTE      B
      000000E0H   SFRSYM    DATA     BYTE      ACC
      000000D0H   SFRSYM    DATA     BIT       P
      000000D0H.3 SFRSYM    DATA     BIT       RS0
      000000D0H.4 SFRSYM    DATA     BIT       RS1
      00000083H   SFRSYM    DATA     BYTE      DPH
      000000E8H   SFRSYM    DATA     BYTE      SFRPRT12DR
      00000082H   SFRSYM    DATA     BYTE      DPL
      000000F8H   SFRSYM    DATA     BYTE      SFRPRT15DR
      00000086H   SFRSYM    DATA     BYTE      DPS
      000000E9H   SFRSYM    DATA     BYTE      SFRPRT12PS
      00000093H   SFRSYM    DATA     BYTE      DPX
      000000F9H   SFRSYM    DATA     BYTE      SFRPRT15PS
LX51 LINKER/LOCATER V4.64.0.0                                                         03/27/2019  09:25:09  PAGE 61


      000000D0H.5 SFRSYM    DATA     BIT       F0
      000000D0H.1 SFRSYM    DATA     BIT       F1
      0000008AH   SFRSYM    DATA     BYTE      SFRPRT0SEL
      000000D0H   SFRSYM    DATA     BYTE      PSW
      000000A2H   SFRSYM    DATA     BYTE      SFRPRT1SEL
      0000009AH   SFRSYM    DATA     BYTE      SFRPRT2SEL
      000000B2H   SFRSYM    DATA     BYTE      SFRPRT3SEL
      000000C2H   SFRSYM    DATA     BYTE      SFRPRT4SEL

      ---         MODULE    ---      ---       MAIN
      01009585H   PUBLIC    CODE     ---       main
      000000CAH   SFRSYM    DATA     BYTE      SFRPRT5SEL
      000000DAH   SFRSYM    DATA     BYTE      SFRPRT6SEL
      000000D0H.6 SFRSYM    DATA     BIT       AC
      000000A8H.7 SFRSYM    DATA     BIT       EA
      000000A8H   SFRSYM    DATA     BYTE      IE
      00000085H   SFRSYM    DATA     BYTE      DPH1
      00000084H   SFRSYM    DATA     BYTE      DPL1
      000000D0H.7 SFRSYM    DATA     BIT       CY
      000000A0H   SFRSYM    DATA     BYTE      P2AX
      00000095H   SFRSYM    DATA     BYTE      DPX1
      00000081H   SFRSYM    DATA     BYTE      SP
      000000D0H.2 SFRSYM    DATA     BIT       OV
      00000080H   SFRSYM    DATA     BYTE      SFRPRT0DR
      00000090H   SFRSYM    DATA     BYTE      SFRPRT1DR
      000000F2H   SFRSYM    DATA     BYTE      SFRPRT12SEL
      00000098H   SFRSYM    DATA     BYTE      SFRPRT2DR
      000000B0H   SFRSYM    DATA     BYTE      SFRPRT3DR
      000000C0H   SFRSYM    DATA     BYTE      SFRPRT4DR
      000000FAH   SFRSYM    DATA     BYTE      SFRPRT15SEL
      000000C8H   SFRSYM    DATA     BYTE      SFRPRT5DR
      000000D8H   SFRSYM    DATA     BYTE      SFRPRT6DR
      00000089H   SFRSYM    DATA     BYTE      SFRPRT0PS
      00000091H   SFRSYM    DATA     BYTE      SFRPRT1PS
      00000099H   SFRSYM    DATA     BYTE      SFRPRT2PS
      000000B1H   SFRSYM    DATA     BYTE      SFRPRT3PS
      000000C1H   SFRSYM    DATA     BYTE      SFRPRT4PS
      000000C9H   SFRSYM    DATA     BYTE      SFRPRT5PS
      000000D9H   SFRSYM    DATA     BYTE      SFRPRT6PS
      000000EAH   SFRSYM    DATA     BYTE      MXAX
      000000F0H   SFRSYM    DATA     BYTE      B
      000000E0H   SFRSYM    DATA     BYTE      ACC
      000000D0H   SFRSYM    DATA     BIT       P
      000000D0H.3 SFRSYM    DATA     BIT       RS0
      000000D0H.4 SFRSYM    DATA     BIT       RS1
      00000083H   SFRSYM    DATA     BYTE      DPH
      000000E8H   SFRSYM    DATA     BYTE      SFRPRT12DR
      00000082H   SFRSYM    DATA     BYTE      DPL
      000000F8H   SFRSYM    DATA     BYTE      SFRPRT15DR
      00000086H   SFRSYM    DATA     BYTE      DPS
      000000E9H   SFRSYM    DATA     BYTE      SFRPRT12PS
      00000093H   SFRSYM    DATA     BYTE      DPX
      000000F9H   SFRSYM    DATA     BYTE      SFRPRT15PS
      000000D0H.5 SFRSYM    DATA     BIT       F0
      000000D0H.1 SFRSYM    DATA     BIT       F1
      0000008AH   SFRSYM    DATA     BYTE      SFRPRT0SEL
      000000D0H   SFRSYM    DATA     BYTE      PSW
      000000A2H   SFRSYM    DATA     BYTE      SFRPRT1SEL
      0000009AH   SFRSYM    DATA     BYTE      SFRPRT2SEL
      000000B2H   SFRSYM    DATA     BYTE      SFRPRT3SEL
      000000C2H   SFRSYM    DATA     BYTE      SFRPRT4SEL

      01009585H   BLOCK     CODE     ---       LVL=0
      01009585H   BLOCK     CODE     NEAR LAB  LVL=1
      02000000H   SYMBOL    XDATA    BYTE      i
LX51 LINKER/LOCATER V4.64.0.0                                                         03/27/2019  09:25:09  PAGE 62


      02000001H   SYMBOL    XDATA    BYTE      DMA_Chan
      02000002H   SYMBOL    XDATA    ---       DMA_TD
      ---         BLOCKEND  ---      ---       LVL=1
      01009585H   LINE      CODE     ---       #69
      01009585H   LINE      CODE     ---       #83
      01009588H   LINE      CODE     ---       #84
      0100958BH   LINE      CODE     ---       #88
      01009594H   LINE      CODE     ---       #89
      01009599H   LINE      CODE     ---       #93
      0100959CH   LINE      CODE     ---       #94
      0100959FH   LINE      CODE     ---       #95
      010095A2H   LINE      CODE     ---       #97
      010095A5H   LINE      CODE     ---       #98
      010095A8H   LINE      CODE     ---       #100
      010095AFH   LINE      CODE     ---       #104
      010095B2H   LINE      CODE     ---       #106
      010095B9H   LINE      CODE     ---       #110
      010095BCH   LINE      CODE     ---       #111
      010095C1H   LINE      CODE     ---       #112
      010095C6H   LINE      CODE     ---       #113
      010095CBH   LINE      CODE     ---       #114
      010095D0H   LINE      CODE     ---       #119
      010095D3H   LINE      CODE     ---       #120
      010095D6H   LINE      CODE     ---       #121
      010095D9H   LINE      CODE     ---       #131
      010095DCH   LINE      CODE     ---       #132
      010095E1H   LINE      CODE     ---       #135
      010095F6H   LINE      CODE     ---       #136
      010095FEH   LINE      CODE     ---       #137
      0100960EH   LINE      CODE     ---       #138
      01009625H   LINE      CODE     ---       #139
      01009630H   LINE      CODE     ---       #141
      0100963AH   LINE      CODE     ---       #143
      0100963FH   LINE      CODE     ---       #147
      01009642H   LINE      CODE     ---       #148
      01009645H   LINE      CODE     ---       #150
      0100964DH   LINE      CODE     ---       #154
      01009656H   LINE      CODE     ---       #157
      01009666H   LINE      CODE     ---       #158
      0100967EH   LINE      CODE     ---       #161
      0100968EH   LINE      CODE     ---       #162
      010096A5H   LINE      CODE     ---       #163
      010096B1H   LINE      CODE     ---       #164
      010096B3H   LINE      CODE     ---       #168
      010096BBH   LINE      CODE     ---       #171
      010096C2H   LINE      CODE     ---       #172
      010096C6H   LINE      CODE     ---       #175
      010096DBH   LINE      CODE     ---       #176
      010096E4H   LINE      CODE     ---       #177
      010096EBH   LINE      CODE     ---       #179
      010096F0H   LINE      CODE     ---       #181
      010096FFH   LINE      CODE     ---       #182
      01009704H   LINE      CODE     ---       #183
      01009735H   LINE      CODE     ---       #184
      0100973DH   LINE      CODE     ---       #186
      01009746H   LINE      CODE     ---       #187
      0100974DH   LINE      CODE     ---       #189
      01009752H   LINE      CODE     ---       #191
      01009765H   LINE      CODE     ---       #193
      0100976DH   LINE      CODE     ---       #195
      01009772H   LINE      CODE     ---       #196
      01009774H   LINE      CODE     ---       #198
      0100977CH   LINE      CODE     ---       #199
      01009784H   LINE      CODE     ---       #200
      0100978CH   LINE      CODE     ---       #201
LX51 LINKER/LOCATER V4.64.0.0                                                         03/27/2019  09:25:09  PAGE 63


      01009791H   LINE      CODE     ---       #202
      01009793H   LINE      CODE     ---       #204
      01009795H   LINE      CODE     ---       #205
      01009797H   LINE      CODE     ---       #209
      0100979DH   LINE      CODE     ---       #210
      010097A4H   LINE      CODE     ---       #212
      010097A9H   LINE      CODE     ---       #216
      010097A9H   LINE      CODE     ---       #217
      010097A9H   LINE      CODE     ---       #219
      010097AEH   LINE      CODE     ---       #222
      010097B1H   LINE      CODE     ---       #225
      010097B7H   LINE      CODE     ---       #227
      010097BAH   LINE      CODE     ---       #229
      010097BFH   LINE      CODE     ---       #231
      010097C1H   LINE      CODE     ---       #232
      010097C3H   LINE      CODE     ---       #234
      010097C6H   LINE      CODE     ---       #235
      010097C8H   LINE      CODE     ---       #237
      010097C8H   LINE      CODE     ---       #238
      010097CBH   LINE      CODE     ---       #240
      010097D0H   LINE      CODE     ---       #242
      010097D5H   LINE      CODE     ---       #243
      010097D5H   LINE      CODE     ---       #244
      010097D5H   LINE      CODE     ---       #245
      010097D7H   LINE      CODE     ---       #248
      010097DCH   LINE      CODE     ---       #251
      010097E4H   LINE      CODE     ---       #253
      010097EBH   LINE      CODE     ---       #254
      010097EEH   LINE      CODE     ---       #255
      010097F0H   LINE      CODE     ---       #256
      010097F0H   LINE      CODE     ---       #257
      ---         BLOCKEND  ---      ---       LVL=0

      ---         MODULE    ---      ---       UTILS
      0100BFD6H   PUBLIC    CODE     ---       _LCRChecksum
      0100B740H   PUBLIC    CODE     ---       _check_enc_data
      0100B5E7H   PUBLIC    CODE     ---       _filter_i2
      0100B572H   PUBLIC    CODE     ---       _filter_i1
      000000CAH   SFRSYM    DATA     BYTE      SFRPRT5SEL
      000000DAH   SFRSYM    DATA     BYTE      SFRPRT6SEL
      000000D0H.6 SFRSYM    DATA     BIT       AC
      000000A8H.7 SFRSYM    DATA     BIT       EA
      000000A8H   SFRSYM    DATA     BYTE      IE
      00000085H   SFRSYM    DATA     BYTE      DPH1
      00000084H   SFRSYM    DATA     BYTE      DPL1
      000000D0H.7 SFRSYM    DATA     BIT       CY
      000000A0H   SFRSYM    DATA     BYTE      P2AX
      00000095H   SFRSYM    DATA     BYTE      DPX1
      00000081H   SFRSYM    DATA     BYTE      SP
      000000D0H.2 SFRSYM    DATA     BIT       OV
      00000080H   SFRSYM    DATA     BYTE      SFRPRT0DR
      00000090H   SFRSYM    DATA     BYTE      SFRPRT1DR
      000000F2H   SFRSYM    DATA     BYTE      SFRPRT12SEL
      00000098H   SFRSYM    DATA     BYTE      SFRPRT2DR
      000000B0H   SFRSYM    DATA     BYTE      SFRPRT3DR
      000000C0H   SFRSYM    DATA     BYTE      SFRPRT4DR
      000000FAH   SFRSYM    DATA     BYTE      SFRPRT15SEL
      000000C8H   SFRSYM    DATA     BYTE      SFRPRT5DR
      000000D8H   SFRSYM    DATA     BYTE      SFRPRT6DR
      00000089H   SFRSYM    DATA     BYTE      SFRPRT0PS
      00000091H   SFRSYM    DATA     BYTE      SFRPRT1PS
      00000099H   SFRSYM    DATA     BYTE      SFRPRT2PS
      000000B1H   SFRSYM    DATA     BYTE      SFRPRT3PS
      000000C1H   SFRSYM    DATA     BYTE      SFRPRT4PS
      000000C9H   SFRSYM    DATA     BYTE      SFRPRT5PS
LX51 LINKER/LOCATER V4.64.0.0                                                         03/27/2019  09:25:09  PAGE 64


      000000D9H   SFRSYM    DATA     BYTE      SFRPRT6PS
      000000EAH   SFRSYM    DATA     BYTE      MXAX
      000000F0H   SFRSYM    DATA     BYTE      B
      000000E0H   SFRSYM    DATA     BYTE      ACC
      000000D0H   SFRSYM    DATA     BIT       P
      000000D0H.3 SFRSYM    DATA     BIT       RS0
      000000D0H.4 SFRSYM    DATA     BIT       RS1
      00000083H   SFRSYM    DATA     BYTE      DPH
      000000E8H   SFRSYM    DATA     BYTE      SFRPRT12DR
      00000082H   SFRSYM    DATA     BYTE      DPL
      000000F8H   SFRSYM    DATA     BYTE      SFRPRT15DR
      00000086H   SFRSYM    DATA     BYTE      DPS
      000000E9H   SFRSYM    DATA     BYTE      SFRPRT12PS
      00000093H   SFRSYM    DATA     BYTE      DPX
      000000F9H   SFRSYM    DATA     BYTE      SFRPRT15PS
      000000D0H.5 SFRSYM    DATA     BIT       F0
      000000D0H.1 SFRSYM    DATA     BIT       F1
      0000008AH   SFRSYM    DATA     BYTE      SFRPRT0SEL
      000000D0H   SFRSYM    DATA     BYTE      PSW
      000000A2H   SFRSYM    DATA     BYTE      SFRPRT1SEL
      0000009AH   SFRSYM    DATA     BYTE      SFRPRT2SEL
      000000B2H   SFRSYM    DATA     BYTE      SFRPRT3SEL
      000000C2H   SFRSYM    DATA     BYTE      SFRPRT4SEL

      0100B572H   BLOCK     CODE     ---       LVL=0
      00000004H   SYMBOL    DATA     LONG      new_value
      0100B572H   BLOCK     CODE     NEAR LAB  LVL=1
      02000E1AH   SYMBOL    XDATA    LONG      old_value
      02000E1EH   SYMBOL    XDATA    LONG      aux
      ---         BLOCKEND  ---      ---       LVL=1
      0100B572H   LINE      CODE     ---       #56
      0100B572H   LINE      CODE     ---       #60
      0100B5BFH   LINE      CODE     ---       #62
      0100B5D3H   LINE      CODE     ---       #64
      0100B5E6H   LINE      CODE     ---       #65
      ---         BLOCKEND  ---      ---       LVL=0

      0100B5E7H   BLOCK     CODE     ---       LVL=0
      00000004H   SYMBOL    DATA     LONG      new_value
      0100B5E7H   BLOCK     CODE     NEAR LAB  LVL=1
      02000E22H   SYMBOL    XDATA    LONG      old_value
      02000E26H   SYMBOL    XDATA    LONG      aux
      ---         BLOCKEND  ---      ---       LVL=1
      0100B5E7H   LINE      CODE     ---       #67
      0100B5E7H   LINE      CODE     ---       #71
      0100B634H   LINE      CODE     ---       #73
      0100B648H   LINE      CODE     ---       #75
      0100B65BH   LINE      CODE     ---       #76
      ---         BLOCKEND  ---      ---       LVL=0
      00000004H   SYMBOL    DATA     LONG      new_value
      02000E2AH   SYMBOL    XDATA    LONG      old_value
      02000E2EH   SYMBOL    XDATA    LONG      aux
      00000004H   SYMBOL    DATA     LONG      new_value
      02000E32H   SYMBOL    XDATA    LONG      old_value
      02000E36H   SYMBOL    XDATA    LONG      aux
      00000004H   SYMBOL    DATA     LONG      new_value
      02000E3AH   SYMBOL    XDATA    LONG      old_value
      02000E3EH   SYMBOL    XDATA    LONG      aux

      0100B740H   BLOCK     CODE     ---       LVL=0
      00000001H   SYMBOL    DATA     ---       value
      0100B740H   BLOCK     CODE     NEAR LAB  LVL=1
      00000010H   SYMBOL    IDATA    ---       p
      00000024H   SYMBOL    DATA     BYTE      a
      ---         BLOCKEND  ---      ---       LVL=1
LX51 LINKER/LOCATER V4.64.0.0                                                         03/27/2019  09:25:09  PAGE 65


      0100B740H   LINE      CODE     ---       #122
      0100B740H   LINE      CODE     ---       #124
      0100B74AH   LINE      CODE     ---       #125
      0100B74FH   LINE      CODE     ---       #127
      0100B763H   LINE      CODE     ---       #128
      0100B777H   LINE      CODE     ---       #129
      0100B78BH   LINE      CODE     ---       #130
      0100B798H   LINE      CODE     ---       #132
      0100B7AAH   LINE      CODE     ---       #134
      ---         BLOCKEND  ---      ---       LVL=0

      0100BFD6H   BLOCK     CODE     ---       LVL=0
      02000B06H   SYMBOL    XDATA    ---       data_array
      00000005H   SYMBOL    DATA     BYTE      data_length
      0100BFE1H   BLOCK     CODE     NEAR LAB  LVL=1
      0000007CH   SYMBOL    DATA     BYTE      i
      0000007DH   SYMBOL    DATA     BYTE      checksum
      ---         BLOCKEND  ---      ---       LVL=1
      0100BFD6H   LINE      CODE     ---       #143
      0100BFE1H   LINE      CODE     ---       #146
      0100BFE4H   LINE      CODE     ---       #148
      0100BFECH   LINE      CODE     ---       #149
      0100C005H   LINE      CODE     ---       #151
      0100C007H   LINE      CODE     ---       #152
      ---         BLOCKEND  ---      ---       LVL=0

      ---         MODULE    ---      ---       INTERRUPTIONS
      0100D3C6H   PUBLIC    CONST    ---       hitech_pwm_preload_values_6v
      0100D3A2H   PUBLIC    CONST    ---       hitech_pwm_preload_values
      0100D385H   PUBLIC    CONST    ---       pwm_preload_values
      010092CDH   PUBLIC    CODE     ---       pretensioning_process
      0100A5B4H   PUBLIC    CODE     ---       pwm_limit_search
      01008FD8H   PUBLIC    CODE     ---       _encoder_reading
      0100A90FH   PUBLIC    CODE     ---       analog_read_end
      010061E4H   PUBLIC    CODE     ---       _motor_control
      0100AA11H   PUBLIC    CODE     ---       function_scheduler
      01009E70H   PUBLIC    CODE     ---       interrupt_manager
      0100C824H   PUBLIC    CODE     ---       ISR_RS485_RX_ExInterrupt
      0100C821H   PUBLIC    CODE     ---       ISR_WATCHDOG_Handler
      000000CAH   SFRSYM    DATA     BYTE      SFRPRT5SEL
      000000DAH   SFRSYM    DATA     BYTE      SFRPRT6SEL
      000000D0H.6 SFRSYM    DATA     BIT       AC
      000000A8H.7 SFRSYM    DATA     BIT       EA
      000000A8H   SFRSYM    DATA     BYTE      IE
      00000085H   SFRSYM    DATA     BYTE      DPH1
      00000084H   SFRSYM    DATA     BYTE      DPL1
      000000D0H.7 SFRSYM    DATA     BIT       CY
      000000A0H   SFRSYM    DATA     BYTE      P2AX
      00000095H   SFRSYM    DATA     BYTE      DPX1
      00000081H   SFRSYM    DATA     BYTE      SP
      000000D0H.2 SFRSYM    DATA     BIT       OV
      00000080H   SFRSYM    DATA     BYTE      SFRPRT0DR
      00000090H   SFRSYM    DATA     BYTE      SFRPRT1DR
      000000F2H   SFRSYM    DATA     BYTE      SFRPRT12SEL
      00000098H   SFRSYM    DATA     BYTE      SFRPRT2DR
      000000B0H   SFRSYM    DATA     BYTE      SFRPRT3DR
      000000C0H   SFRSYM    DATA     BYTE      SFRPRT4DR
      000000FAH   SFRSYM    DATA     BYTE      SFRPRT15SEL
      000000C8H   SFRSYM    DATA     BYTE      SFRPRT5DR
      000000D8H   SFRSYM    DATA     BYTE      SFRPRT6DR
      00000089H   SFRSYM    DATA     BYTE      SFRPRT0PS
      00000091H   SFRSYM    DATA     BYTE      SFRPRT1PS
      00000099H   SFRSYM    DATA     BYTE      SFRPRT2PS
      000000B1H   SFRSYM    DATA     BYTE      SFRPRT3PS
      000000C1H   SFRSYM    DATA     BYTE      SFRPRT4PS
LX51 LINKER/LOCATER V4.64.0.0                                                         03/27/2019  09:25:09  PAGE 66


      000000C9H   SFRSYM    DATA     BYTE      SFRPRT5PS
      000000D9H   SFRSYM    DATA     BYTE      SFRPRT6PS
      000000EAH   SFRSYM    DATA     BYTE      MXAX
      000000F0H   SFRSYM    DATA     BYTE      B
      000000E0H   SFRSYM    DATA     BYTE      ACC
      000000D0H   SFRSYM    DATA     BIT       P
      000000D0H.3 SFRSYM    DATA     BIT       RS0
      000000D0H.4 SFRSYM    DATA     BIT       RS1
      00000083H   SFRSYM    DATA     BYTE      DPH
      000000E8H   SFRSYM    DATA     BYTE      SFRPRT12DR
      00000082H   SFRSYM    DATA     BYTE      DPL
      000000F8H   SFRSYM    DATA     BYTE      SFRPRT15DR
      00000086H   SFRSYM    DATA     BYTE      DPS
      000000E9H   SFRSYM    DATA     BYTE      SFRPRT12PS
      00000093H   SFRSYM    DATA     BYTE      DPX
      000000F9H   SFRSYM    DATA     BYTE      SFRPRT15PS
      000000D0H.5 SFRSYM    DATA     BIT       F0
      000000D0H.1 SFRSYM    DATA     BIT       F1
      0000008AH   SFRSYM    DATA     BYTE      SFRPRT0SEL
      000000D0H   SFRSYM    DATA     BYTE      PSW
      000000A2H   SFRSYM    DATA     BYTE      SFRPRT1SEL
      0000009AH   SFRSYM    DATA     BYTE      SFRPRT2SEL
      000000B2H   SFRSYM    DATA     BYTE      SFRPRT3SEL
      000000C2H   SFRSYM    DATA     BYTE      SFRPRT4SEL

      0100C821H   BLOCK     CODE     ---       LVL=0
      0100C821H   LINE      CODE     ---       #161
      0100C821H   LINE      CODE     ---       #165
      0100C823H   LINE      CODE     ---       #167
      ---         BLOCKEND  ---      ---       LVL=0

      0100C824H   BLOCK     CODE     ---       LVL=0
      0100C824H   LINE      CODE     ---       #173
      0100C824H   LINE      CODE     ---       #177
      0100C826H   LINE      CODE     ---       #179
      ---         BLOCKEND  ---      ---       LVL=0

      01009E70H   BLOCK     CODE     ---       LVL=0
      01009E70H   BLOCK     CODE     NEAR LAB  LVL=1
      00000008H   SYMBOL    DATA     BYTE      state
      00000009H   SYMBOL    DATA     BYTE      data_packet_index
      0000000AH   SYMBOL    DATA     BYTE      data_packet_length
      02000D27H   SYMBOL    XDATA    ---       data_packet_buffer
      0000000BH   SYMBOL    DATA     ---       rx_queue
      00000064H   SYMBOL    DATA     BYTE      rx_data
      00000020H.0 SYMBOL    BIT      BIT       rx_data_type
      00000065H   SYMBOL    DATA     BYTE      package_count
      ---         BLOCKEND  ---      ---       LVL=1
      01009E70H   LINE      CODE     ---       #196
      01009E70H   LINE      CODE     ---       #212
      01009E73H   LINE      CODE     ---       #218
      01009E86H   LINE      CODE     ---       #222
      01009E8BH   LINE      CODE     ---       #224
      01009EA3H   LINE      CODE     ---       #226
      01009EA3H   LINE      CODE     ---       #228
      01009EA6H   LINE      CODE     ---       #229
      01009EA9H   LINE      CODE     ---       #230
      01009EACH   LINE      CODE     ---       #233
      01009EB6H   LINE      CODE     ---       #234
      01009EB9H   LINE      CODE     ---       #235
      01009EBBH   LINE      CODE     ---       #236
      01009EBDH   LINE      CODE     ---       #237
      01009EC0H   LINE      CODE     ---       #238
      01009EC2H   LINE      CODE     ---       #239
      01009ED2H   LINE      CODE     ---       #242
LX51 LINKER/LOCATER V4.64.0.0                                                         03/27/2019  09:25:09  PAGE 67


      01009ED7H   LINE      CODE     ---       #243
      01009ED9H   LINE      CODE     ---       #246
      01009ED9H   LINE      CODE     ---       #249
      01009F03H   LINE      CODE     ---       #250
      01009F07H   LINE      CODE     ---       #252
      01009F09H   LINE      CODE     ---       #254
      01009F0CH   LINE      CODE     ---       #255
      01009F0FH   LINE      CODE     ---       #256
      01009F12H   LINE      CODE     ---       #259
      01009F12H   LINE      CODE     ---       #262
      01009F15H   LINE      CODE     ---       #264
      01009F1CH   LINE      CODE     ---       #265
      01009F1FH   LINE      CODE     ---       #266
      01009F21H   LINE      CODE     ---       #267
      01009F2BH   LINE      CODE     ---       #268
      01009F2EH   LINE      CODE     ---       #269
      01009F30H   LINE      CODE     ---       #270
      01009F33H   LINE      CODE     ---       #271
      01009F36H   LINE      CODE     ---       #273
      01009F39H   LINE      CODE     ---       #274
      01009F3FH   LINE      CODE     ---       #276
      01009F42H   LINE      CODE     ---       #277
      01009F42H   LINE      CODE     ---       #278
      01009F45H   LINE      CODE     ---       #281
      01009F45H   LINE      CODE     ---       #283
      01009F53H   LINE      CODE     ---       #284
      01009F55H   LINE      CODE     ---       #287
      01009F5FH   LINE      CODE     ---       #289
      01009F62H   LINE      CODE     ---       #291
      01009F75H   LINE      CODE     ---       #292
      01009F7EH   LINE      CODE     ---       #293
      01009F84H   LINE      CODE     ---       #294
      01009F87H   LINE      CODE     ---       #295
      01009F87H   LINE      CODE     ---       #297
      01009F8AH   LINE      CODE     ---       #298
      01009F8CH   LINE      CODE     ---       #299
      01009F8EH   LINE      CODE     ---       #300
      01009F90H   LINE      CODE     ---       #302
      01009F90H   LINE      CODE     ---       #303
      01009F93H   LINE      CODE     ---       #306
      01009F93H   LINE      CODE     ---       #307
      01009F9CH   LINE      CODE     ---       #308
      01009F9EH   LINE      CODE     ---       #309
      01009FA0H   LINE      CODE     ---       #310
      01009FA5H   LINE      CODE     ---       #311
      01009FAAH   LINE      CODE     ---       #312
      01009FADH   LINE      CODE     ---       #313
      01009FAFH   LINE      CODE     ---       #314
      01009FAFH   LINE      CODE     ---       #315
      01009FB2H   LINE      CODE     ---       #316
      01009FB2H   LINE      CODE     ---       #317
      01009FB5H   LINE      CODE     ---       #318
      ---         BLOCKEND  ---      ---       LVL=0

      0100AA11H   BLOCK     CODE     ---       LVL=0
      0100AA11H   BLOCK     CODE     NEAR LAB  LVL=1
      02000DA7H   SYMBOL    XDATA    WORD      counter_calibration
      ---         BLOCKEND  ---      ---       LVL=1
      0100AA11H   LINE      CODE     ---       #328
      0100AA11H   LINE      CODE     ---       #334
      0100AA1AH   LINE      CODE     ---       #336
      0100AA1FH   LINE      CODE     ---       #340
      0100AA22H   LINE      CODE     ---       #341
      0100AA24H   LINE      CODE     ---       #342
      0100AA27H   LINE      CODE     ---       #343
LX51 LINKER/LOCATER V4.64.0.0                                                         03/27/2019  09:25:09  PAGE 68


      0100AA27H   LINE      CODE     ---       #347
      0100AA2DH   LINE      CODE     ---       #351
      0100AA30H   LINE      CODE     ---       #352
      0100AA32H   LINE      CODE     ---       #353
      0100AA35H   LINE      CODE     ---       #354
      0100AA35H   LINE      CODE     ---       #356
      0100AA3CH   LINE      CODE     ---       #360
      0100AA3FH   LINE      CODE     ---       #361
      0100AA41H   LINE      CODE     ---       #362
      0100AA44H   LINE      CODE     ---       #363
      0100AA44H   LINE      CODE     ---       #376
      0100AA49H   LINE      CODE     ---       #380
      0100AA4CH   LINE      CODE     ---       #381
      0100AA4EH   LINE      CODE     ---       #382
      0100AA51H   LINE      CODE     ---       #383
      0100AA51H   LINE      CODE     ---       #385
      0100AA56H   LINE      CODE     ---       #389
      0100AA59H   LINE      CODE     ---       #390
      0100AA5BH   LINE      CODE     ---       #391
      0100AA5EH   LINE      CODE     ---       #392
      0100AA5EH   LINE      CODE     ---       #396
      0100AA61H   LINE      CODE     ---       #416
      0100AA64H   LINE      CODE     ---       #417
      0100AA70H   LINE      CODE     ---       #418
      0100AA73H   LINE      CODE     ---       #419
      0100AA7AH   LINE      CODE     ---       #420
      0100AA7AH   LINE      CODE     ---       #421
      0100AA88H   LINE      CODE     ---       #422
      0100AA8AH   LINE      CODE     ---       #423
      0100AA8DH   LINE      CODE     ---       #424
      0100AA90H   LINE      CODE     ---       #426
      0100AA93H   LINE      CODE     ---       #427
      0100AA96H   LINE      CODE     ---       #429
      0100AA99H   LINE      CODE     ---       #430
      0100AA9CH   LINE      CODE     ---       #431
      0100AA9CH   LINE      CODE     ---       #433
      0100AA9FH   LINE      CODE     ---       #434
      0100AAA1H   LINE      CODE     ---       #435
      0100AAA4H   LINE      CODE     ---       #436
      0100AAA4H   LINE      CODE     ---       #442
      0100AAB7H   LINE      CODE     ---       #443
      0100AACAH   LINE      CODE     ---       #446
      0100AADDH   LINE      CODE     ---       #448
      0100AAE0H   LINE      CODE     ---       #449
      0100AAE2H   LINE      CODE     ---       #450
      0100AAE5H   LINE      CODE     ---       #451
      0100AAE5H   LINE      CODE     ---       #455
      0100AAEEH   LINE      CODE     ---       #456
      0100AAF9H   LINE      CODE     ---       #458
      ---         BLOCKEND  ---      ---       LVL=0

      010061E4H   BLOCK     CODE     ---       LVL=0
      00000007H   SYMBOL    DATA     BYTE      idx
      010061E4H   BLOCK     CODE     NEAR LAB  LVL=1
      00000023H   SYMBOL    DATA     BYTE      index
      00000024H   SYMBOL    DATA     LONG      curr_ref
      00000028H   SYMBOL    DATA     LONG      pwm_input
      0000002CH   SYMBOL    DATA     LONG      pos_error
      00000030H   SYMBOL    DATA     LONG      curr_error
      00000034H   SYMBOL    DATA     LONG      k_p
      00000038H   SYMBOL    DATA     LONG      k_i
      0000003CH   SYMBOL    DATA     LONG      k_d
      00000040H   SYMBOL    DATA     LONG      k_p_c
      00000044H   SYMBOL    DATA     LONG      k_i_c
      00000048H   SYMBOL    DATA     LONG      k_d_c
LX51 LINKER/LOCATER V4.64.0.0                                                         03/27/2019  09:25:09  PAGE 69


      0000004CH   SYMBOL    DATA     LONG      k_p_dl
      00000050H   SYMBOL    DATA     LONG      k_i_dl
      00000054H   SYMBOL    DATA     LONG      k_d_dl
      00000058H   SYMBOL    DATA     LONG      k_p_c_dl
      0000005CH   SYMBOL    DATA     LONG      k_i_c_dl
      00000060H   SYMBOL    DATA     LONG      k_d_c_dl
      00000022H.3 SYMBOL    BIT      BIT       dirM0
      00000022H.4 SYMBOL    BIT      BIT       dirM1
      02000DA9H   SYMBOL    XDATA    ---       prev_curr
      02000DB1H   SYMBOL    XDATA    ---       pos_error_sum
      02000DB9H   SYMBOL    XDATA    ---       curr_error_sum
      ---         BLOCKEND  ---      ---       LVL=1
      010061E4H   LINE      CODE     ---       #465
      010061E4H   LINE      CODE     ---       #467
      010061E6H   LINE      CODE     ---       #471
      010061EFH   LINE      CODE     ---       #477
      01006204H   LINE      CODE     ---       #478
      01006217H   LINE      CODE     ---       #479
      0100622AH   LINE      CODE     ---       #481
      0100623DH   LINE      CODE     ---       #482
      01006250H   LINE      CODE     ---       #483
      01006263H   LINE      CODE     ---       #485
      01006276H   LINE      CODE     ---       #486
      01006289H   LINE      CODE     ---       #487
      0100629CH   LINE      CODE     ---       #489
      010062AFH   LINE      CODE     ---       #490
      010062C2H   LINE      CODE     ---       #491
      010062D5H   LINE      CODE     ---       #503
      010062DFH   LINE      CODE     ---       #506
      010062FCH   LINE      CODE     ---       #507
      010062FCH   LINE      CODE     ---       #518
      0100633FH   LINE      CODE     ---       #520
      01006342H   LINE      CODE     ---       #521
      01006344H   LINE      CODE     ---       #522
      01006347H   LINE      CODE     ---       #523
      01006347H   LINE      CODE     ---       #526
      0100637AH   LINE      CODE     ---       #529
      010063A2H   LINE      CODE     ---       #530
      010063BEH   LINE      CODE     ---       #531
      010063BEH   LINE      CODE     ---       #532
      010063E6H   LINE      CODE     ---       #533
      01006400H   LINE      CODE     ---       #534
      01006400H   LINE      CODE     ---       #536
      01006403H   LINE      CODE     ---       #537
      01006405H   LINE      CODE     ---       #538
      01006408H   LINE      CODE     ---       #539
      01006408H   LINE      CODE     ---       #541
      01006411H   LINE      CODE     ---       #543
      01006423H   LINE      CODE     ---       #545
      01006446H   LINE      CODE     ---       #546
      0100646DH   LINE      CODE     ---       #548
      0100648DH   LINE      CODE     ---       #549
      0100648DH   LINE      CODE     ---       #551
      01006490H   LINE      CODE     ---       #552
      01006492H   LINE      CODE     ---       #553
      01006495H   LINE      CODE     ---       #554
      01006495H   LINE      CODE     ---       #557
      010064A8H   LINE      CODE     ---       #558
      010064EBH   LINE      CODE     ---       #561
      010064FEH   LINE      CODE     ---       #562
      01006561H   LINE      CODE     ---       #565
      01006564H   LINE      CODE     ---       #566
      01006566H   LINE      CODE     ---       #567
      01006569H   LINE      CODE     ---       #568
      01006569H   LINE      CODE     ---       #573
LX51 LINKER/LOCATER V4.64.0.0                                                         03/27/2019  09:25:09  PAGE 70


      0100656DH   LINE      CODE     ---       #574
      0100657FH   LINE      CODE     ---       #575
      01006584H   LINE      CODE     ---       #578
      01006586H   LINE      CODE     ---       #580
      01006589H   LINE      CODE     ---       #581
      0100659CH   LINE      CODE     ---       #582
      010065A1H   LINE      CODE     ---       #585
      010065A3H   LINE      CODE     ---       #587
      010065A3H   LINE      CODE     ---       #589
      010065A6H   LINE      CODE     ---       #591
      010065A6H   LINE      CODE     ---       #601
      010065E9H   LINE      CODE     ---       #603
      0100661CH   LINE      CODE     ---       #605
      0100661FH   LINE      CODE     ---       #606
      01006621H   LINE      CODE     ---       #607
      01006624H   LINE      CODE     ---       #608
      01006624H   LINE      CODE     ---       #611
      0100664CH   LINE      CODE     ---       #612
      01006668H   LINE      CODE     ---       #613
      01006668H   LINE      CODE     ---       #614
      01006690H   LINE      CODE     ---       #615
      010066AAH   LINE      CODE     ---       #616
      010066AAH   LINE      CODE     ---       #619
      010066B3H   LINE      CODE     ---       #621
      010066B6H   LINE      CODE     ---       #622
      010066B8H   LINE      CODE     ---       #623
      010066BBH   LINE      CODE     ---       #624
      010066BBH   LINE      CODE     ---       #627
      010066CEH   LINE      CODE     ---       #628
      010066F4H   LINE      CODE     ---       #631
      01006707H   LINE      CODE     ---       #632
      0100673FH   LINE      CODE     ---       #635
      01006752H   LINE      CODE     ---       #636
      010067B5H   LINE      CODE     ---       #638
      010067B8H   LINE      CODE     ---       #639
      010067BAH   LINE      CODE     ---       #640
      010067BDH   LINE      CODE     ---       #641
      010067BDH   LINE      CODE     ---       #644
      010067D9H   LINE      CODE     ---       #645
      010067EFH   LINE      CODE     ---       #646
      010067EFH   LINE      CODE     ---       #647
      01006811H   LINE      CODE     ---       #648
      0100682BH   LINE      CODE     ---       #649
      0100682BH   LINE      CODE     ---       #651
      0100682EH   LINE      CODE     ---       #652
      01006830H   LINE      CODE     ---       #653
      01006833H   LINE      CODE     ---       #654
      01006833H   LINE      CODE     ---       #657
      01006863H   LINE      CODE     ---       #659
      01006896H   LINE      CODE     ---       #661
      010068BEH   LINE      CODE     ---       #662
      010068DAH   LINE      CODE     ---       #663
      010068DAH   LINE      CODE     ---       #664
      01006902H   LINE      CODE     ---       #665
      0100691CH   LINE      CODE     ---       #666
      0100691CH   LINE      CODE     ---       #668
      0100691FH   LINE      CODE     ---       #669
      01006921H   LINE      CODE     ---       #670
      01006924H   LINE      CODE     ---       #671
      01006924H   LINE      CODE     ---       #675
      0100692DH   LINE      CODE     ---       #678
      0100693FH   LINE      CODE     ---       #679
      01006965H   LINE      CODE     ---       #682
      01006978H   LINE      CODE     ---       #683
      010069B0H   LINE      CODE     ---       #686
LX51 LINKER/LOCATER V4.64.0.0                                                         03/27/2019  09:25:09  PAGE 71


      010069C3H   LINE      CODE     ---       #687
      01006A27H   LINE      CODE     ---       #690
      01006A51H   LINE      CODE     ---       #692
      01006A54H   LINE      CODE     ---       #693
      01006A56H   LINE      CODE     ---       #694
      01006A59H   LINE      CODE     ---       #695
      01006A59H   LINE      CODE     ---       #697
      01006A5DH   LINE      CODE     ---       #698
      01006A6FH   LINE      CODE     ---       #699
      01006A74H   LINE      CODE     ---       #702
      01006A76H   LINE      CODE     ---       #704
      01006A79H   LINE      CODE     ---       #705
      01006A8CH   LINE      CODE     ---       #706
      01006A91H   LINE      CODE     ---       #709
      01006A93H   LINE      CODE     ---       #711
      01006A93H   LINE      CODE     ---       #713
      01006A96H   LINE      CODE     ---       #715
      01006A96H   LINE      CODE     ---       #718
      01006AC9H   LINE      CODE     ---       #721
      01006AE5H   LINE      CODE     ---       #722
      01006AFBH   LINE      CODE     ---       #723
      01006AFBH   LINE      CODE     ---       #724
      01006B1DH   LINE      CODE     ---       #725
      01006B37H   LINE      CODE     ---       #726
      01006B37H   LINE      CODE     ---       #730
      01006B67H   LINE      CODE     ---       #733
      01006B9AH   LINE      CODE     ---       #736
      01006BC2H   LINE      CODE     ---       #737
      01006BDEH   LINE      CODE     ---       #738
      01006BDEH   LINE      CODE     ---       #739
      01006C06H   LINE      CODE     ---       #740
      01006C20H   LINE      CODE     ---       #741
      01006C20H   LINE      CODE     ---       #750
      01006C29H   LINE      CODE     ---       #753
      01006C3BH   LINE      CODE     ---       #754
      01006C67H   LINE      CODE     ---       #758
      01006C7AH   LINE      CODE     ---       #759
      01006CB7H   LINE      CODE     ---       #762
      01006CCAH   LINE      CODE     ---       #763
      01006D2EH   LINE      CODE     ---       #770
      01006D58H   LINE      CODE     ---       #772
      01006D5CH   LINE      CODE     ---       #773
      01006D6EH   LINE      CODE     ---       #774
      01006D73H   LINE      CODE     ---       #777
      01006D75H   LINE      CODE     ---       #779
      01006D78H   LINE      CODE     ---       #780
      01006D8BH   LINE      CODE     ---       #781
      01006D8FH   LINE      CODE     ---       #784
      01006D91H   LINE      CODE     ---       #786
      01006D91H   LINE      CODE     ---       #788
      01006D93H   LINE      CODE     ---       #790
      01006D93H   LINE      CODE     ---       #792
      01006DC6H   LINE      CODE     ---       #794
      01006DCAH   LINE      CODE     ---       #795
      01006DDCH   LINE      CODE     ---       #796
      01006DE0H   LINE      CODE     ---       #799
      01006DE2H   LINE      CODE     ---       #801
      01006DE4H   LINE      CODE     ---       #802
      01006DF7H   LINE      CODE     ---       #803
      01006DFBH   LINE      CODE     ---       #806
      01006DFDH   LINE      CODE     ---       #808
      01006DFDH   LINE      CODE     ---       #810
      01006DFDH   LINE      CODE     ---       #812
      01006DFDH   LINE      CODE     ---       #813
      01006DFDH   LINE      CODE     ---       #814
LX51 LINKER/LOCATER V4.64.0.0                                                         03/27/2019  09:25:09  PAGE 72


      01006DFDH   LINE      CODE     ---       #816
      01006E00H   LINE      CODE     ---       #817
      01006E02H   LINE      CODE     ---       #818
      01006E05H   LINE      CODE     ---       #819
      01006E05H   LINE      CODE     ---       #822
      01006E19H   LINE      CODE     ---       #823
      01006E23H   LINE      CODE     ---       #824
      01006E38H   LINE      CODE     ---       #825
      01006E43H   LINE      CODE     ---       #827
      01006E46H   LINE      CODE     ---       #828
      01006E48H   LINE      CODE     ---       #829
      01006E4BH   LINE      CODE     ---       #830
      01006E4BH   LINE      CODE     ---       #833
      01006E53H   LINE      CODE     ---       #834
      01006E8AH   LINE      CODE     ---       #838
      01006E8DH   LINE      CODE     ---       #839
      01006E90H   LINE      CODE     ---       #840
      01006E97H   LINE      CODE     ---       #842
      01006E9CH   LINE      CODE     ---       #843
      01006E9EH   LINE      CODE     ---       #844
      01006E9EH   LINE      CODE     ---       #845
      01006EA1H   LINE      CODE     ---       #846
      01006EA8H   LINE      CODE     ---       #848
      01006EADH   LINE      CODE     ---       #849
      01006EADH   LINE      CODE     ---       #851
      01006EB0H   LINE      CODE     ---       #852
      01006EB2H   LINE      CODE     ---       #853
      01006EB5H   LINE      CODE     ---       #854
      01006EB5H   LINE      CODE     ---       #856
      01006EB9H   LINE      CODE     ---       #857
      01006EF3H   LINE      CODE     ---       #858
      01006EFDH   LINE      CODE     ---       #859
      01006EFFH   LINE      CODE     ---       #860
      01006EFFH   LINE      CODE     ---       #861
      01006F3AH   LINE      CODE     ---       #862
      01006F44H   LINE      CODE     ---       #863
      01006F44H   LINE      CODE     ---       #865
      01006F47H   LINE      CODE     ---       #866
      01006F49H   LINE      CODE     ---       #867
      01006F4CH   LINE      CODE     ---       #868
      01006F4CH   LINE      CODE     ---       #869
      ---         BLOCKEND  ---      ---       LVL=0

      0100A90FH   BLOCK     CODE     ---       LVL=0
      0100A90FH   LINE      CODE     ---       #875
      0100A90FH   LINE      CODE     ---       #896
      0100A915H   LINE      CODE     ---       #897
      0100A918H   LINE      CODE     ---       #898
      0100A91AH   LINE      CODE     ---       #899
      0100A91DH   LINE      CODE     ---       #900
      0100A91DH   LINE      CODE     ---       #901
      0100A91FH   LINE      CODE     ---       #904
      0100A947H   LINE      CODE     ---       #906
      0100A94AH   LINE      CODE     ---       #907
      0100A94CH   LINE      CODE     ---       #908
      0100A94FH   LINE      CODE     ---       #909
      0100A94FH   LINE      CODE     ---       #913
      0100A96BH   LINE      CODE     ---       #916
      0100A96EH   LINE      CODE     ---       #920
      0100A971H   LINE      CODE     ---       #921
      0100A973H   LINE      CODE     ---       #922
      0100A976H   LINE      CODE     ---       #923
      0100A976H   LINE      CODE     ---       #926
      0100A9B5H   LINE      CODE     ---       #930
      0100A9B8H   LINE      CODE     ---       #931
LX51 LINKER/LOCATER V4.64.0.0                                                         03/27/2019  09:25:09  PAGE 73


      0100A9BAH   LINE      CODE     ---       #932
      0100A9BDH   LINE      CODE     ---       #933
      0100A9BDH   LINE      CODE     ---       #934
      0100A9FCH   LINE      CODE     ---       #938
      0100A9FFH   LINE      CODE     ---       #939
      0100AA01H   LINE      CODE     ---       #940
      0100AA04H   LINE      CODE     ---       #941
      0100AA04H   LINE      CODE     ---       #942
      0100AA05H   LINE      CODE     ---       #944
      0100AA05H   LINE      CODE     ---       #945
      0100AA0CH   LINE      CODE     ---       #946
      0100AA10H   LINE      CODE     ---       #947
      0100AA10H   LINE      CODE     ---       #948
      ---         BLOCKEND  ---      ---       LVL=0

      01008FD8H   BLOCK     CODE     ---       LVL=0
      00000007H   SYMBOL    DATA     BYTE      idx
      02000003H   SYMBOL    XDATA    BYTE      flag
      01008FDDH   BLOCK     CODE     NEAR LAB  LVL=1
      00000023H   SYMBOL    DATA     BYTE      index
      00000003H   SYMBOL    DATA     BYTE      jj
      02000004H   SYMBOL    XDATA    DWORD     data_encoder
      02000008H   SYMBOL    XDATA    LONG      value_encoder
      0200000CH   SYMBOL    XDATA    LONG      aux
      02000DC1H   SYMBOL    XDATA    ---       last_value_encoder
      02000DCDH   SYMBOL    XDATA    ---       error
      00000022H.5 SYMBOL    BIT      BIT       only_first_time
      ---         BLOCKEND  ---      ---       LVL=1
      01008FD8H   LINE      CODE     ---       #954
      01008FDDH   LINE      CODE     ---       #955
      01008FDDH   LINE      CODE     ---       #956
      01008FDFH   LINE      CODE     ---       #974
      01008FE9H   LINE      CODE     ---       #977
      01008FECH   LINE      CODE     ---       #978
      01008FF4H   LINE      CODE     ---       #979
      0100900AH   LINE      CODE     ---       #980
      0100900CH   LINE      CODE     ---       #981
      0100900EH   LINE      CODE     ---       #982
      0100900EH   LINE      CODE     ---       #985
      01009012H   LINE      CODE     ---       #986
      01009025H   LINE      CODE     ---       #987
      01009025H   LINE      CODE     ---       #988
      0100902AH   LINE      CODE     ---       #989
      0100903DH   LINE      CODE     ---       #990
      0100903DH   LINE      CODE     ---       #991
      01009042H   LINE      CODE     ---       #992
      01009055H   LINE      CODE     ---       #994
      01009066H   LINE      CODE     ---       #995
      01009066H   LINE      CODE     ---       #996
      01009066H   LINE      CODE     ---       #998
      01009074H   LINE      CODE     ---       #999
      0100907AH   LINE      CODE     ---       #1000
      010090A7H   LINE      CODE     ---       #1002
      010090F2H   LINE      CODE     ---       #1005
      010090F5H   LINE      CODE     ---       #1006
      01009115H   LINE      CODE     ---       #1008
      0100911AH   LINE      CODE     ---       #1009
      0100911CH   LINE      CODE     ---       #1010
      0100911CH   LINE      CODE     ---       #1013
      01009153H   LINE      CODE     ---       #1033
      0100916DH   LINE      CODE     ---       #1034
      0100917DH   LINE      CODE     ---       #1035
      0100917DH   LINE      CODE     ---       #1036
      01009199H   LINE      CODE     ---       #1037
      010091A9H   LINE      CODE     ---       #1038
LX51 LINKER/LOCATER V4.64.0.0                                                         03/27/2019  09:25:09  PAGE 74


      010091A9H   LINE      CODE     ---       #1039
      010091C3H   LINE      CODE     ---       #1040
      010091D1H   LINE      CODE     ---       #1041
      010091E5H   LINE      CODE     ---       #1044
      010091E5H   LINE      CODE     ---       #1045
      010091E5H   LINE      CODE     ---       #1046
      010091E5H   LINE      CODE     ---       #1048
      010091F2H   LINE      CODE     ---       #1050
      01009212H   LINE      CODE     ---       #1052
      0100924EH   LINE      CODE     ---       #1054
      01009274H   LINE      CODE     ---       #1055
      010092ACH   LINE      CODE     ---       #1057
      010092CCH   LINE      CODE     ---       #1058
      010092CCH   LINE      CODE     ---       #1080
      ---         BLOCKEND  ---      ---       LVL=0

      0100A5B4H   BLOCK     CODE     ---       LVL=0
      0100A5B4H   BLOCK     CODE     NEAR LAB  LVL=1
      00000023H   SYMBOL    DATA     BYTE      index
      00000024H   SYMBOL    DATA     WORD      max_tension
      00000026H   SYMBOL    DATA     WORD      max_tension_6v_mod
      ---         BLOCKEND  ---      ---       LVL=1
      0100A5B4H   LINE      CODE     ---       #1085
      0100A5B4H   LINE      CODE     ---       #1088
      0100A5BAH   LINE      CODE     ---       #1089
      0100A5C0H   LINE      CODE     ---       #1091
      0100A5CFH   LINE      CODE     ---       #1093
      0100A5E9H   LINE      CODE     ---       #1094
      0100A5EFH   LINE      CODE     ---       #1096
      0100A5EFH   LINE      CODE     ---       #1097
      0100A60EH   LINE      CODE     ---       #1098
      0100A615H   LINE      CODE     ---       #1099
      0100A615H   LINE      CODE     ---       #1100
      0100A643H   LINE      CODE     ---       #1101
      0100A64CH   LINE      CODE     ---       #1102
      0100A64CH   LINE      CODE     ---       #1103
      0100A64CH   LINE      CODE     ---       #1104
      0100A64DH   LINE      CODE     ---       #1105
      0100A64DH   LINE      CODE     ---       #1107
      0100A668H   LINE      CODE     ---       #1108
      0100A66EH   LINE      CODE     ---       #1109
      0100A66EH   LINE      CODE     ---       #1110
      0100A68DH   LINE      CODE     ---       #1111
      0100A694H   LINE      CODE     ---       #1112
      0100A694H   LINE      CODE     ---       #1113
      0100A6B7H   LINE      CODE     ---       #1114
      0100A6C6H   LINE      CODE     ---       #1115
      0100A6D0H   LINE      CODE     ---       #1117
      0100A6DAH   LINE      CODE     ---       #1118
      0100A6DAH   LINE      CODE     ---       #1119
      0100A6DAH   LINE      CODE     ---       #1120
      0100A6DAH   LINE      CODE     ---       #1121
      ---         BLOCKEND  ---      ---       LVL=0

      010092CDH   BLOCK     CODE     ---       LVL=0
      010092CDH   BLOCK     CODE     NEAR LAB  LVL=1
      02000DD0H   SYMBOL    XDATA    INT       epsilon
      02000DD2H   SYMBOL    XDATA    BYTE      phase
      02000DD3H   SYMBOL    XDATA    DWORD     phase_counter
      02000003H   SYMBOL    XDATA    LONG      aux
      02000007H   SYMBOL    XDATA    BYTE      i
      ---         BLOCKEND  ---      ---       LVL=1
      010092CDH   LINE      CODE     ---       #1127
      010092CDH   LINE      CODE     ---       #1133
      010092D2H   LINE      CODE     ---       #1135
LX51 LINKER/LOCATER V4.64.0.0                                                         03/27/2019  09:25:09  PAGE 75


      010092E2H   LINE      CODE     ---       #1136
      010092E2H   LINE      CODE     ---       #1137
      01009318H   LINE      CODE     ---       #1138
      01009345H   LINE      CODE     ---       #1140
      01009379H   LINE      CODE     ---       #1141
      010093A5H   LINE      CODE     ---       #1143
      010093D8H   LINE      CODE     ---       #1144
      010093DAH   LINE      CODE     ---       #1145
      010093E5H   LINE      CODE     ---       #1146
      010093F0H   LINE      CODE     ---       #1147
      010093F0H   LINE      CODE     ---       #1149
      0100940FH   LINE      CODE     ---       #1151
      01009453H   LINE      CODE     ---       #1152
      01009459H   LINE      CODE     ---       #1153
      01009462H   LINE      CODE     ---       #1156
      01009462H   LINE      CODE     ---       #1157
      01009463H   LINE      CODE     ---       #1158
      01009463H   LINE      CODE     ---       #1160
      01009485H   LINE      CODE     ---       #1161
      010094B1H   LINE      CODE     ---       #1163
      010094D3H   LINE      CODE     ---       #1164
      01009500H   LINE      CODE     ---       #1166
      0100951AH   LINE      CODE     ---       #1167
      0100951CH   LINE      CODE     ---       #1168
      0100951EH   LINE      CODE     ---       #1169
      01009523H   LINE      CODE     ---       #1170
      01009525H   LINE      CODE     ---       #1171
      01009533H   LINE      CODE     ---       #1172
      0100955DH   LINE      CODE     ---       #1179
      01009565H   LINE      CODE     ---       #1191
      01009565H   LINE      CODE     ---       #1193
      01009584H   LINE      CODE     ---       #1194
      01009584H   LINE      CODE     ---       #1195
      01009584H   LINE      CODE     ---       #1196
      01009584H   LINE      CODE     ---       #1197
      01009584H   LINE      CODE     ---       #1198
      ---         BLOCKEND  ---      ---       LVL=0

      ---         MODULE    ---      ---       CYFITTER_CFG
      0100D35BH   PUBLIC    CONST    ---       ADC_AMux__maskTable
      0100D357H   PUBLIC    CONST    ---       ADC_AMux__addrTable
      0100A7F8H   PUBLIC    CODE     ---       cyfitter_cfg
      0100C008H   PUBLIC    CODE     ---       _ADC_AMux_Unset
      0100C09AH   PUBLIC    CODE     ---       _ADC_AMux_Set
      000000CAH   SFRSYM    DATA     BYTE      SFRPRT5SEL
      000000DAH   SFRSYM    DATA     BYTE      SFRPRT6SEL
      000000D0H.6 SFRSYM    DATA     BIT       AC
      000000A8H.7 SFRSYM    DATA     BIT       EA
      000000A8H   SFRSYM    DATA     BYTE      IE
      00000085H   SFRSYM    DATA     BYTE      DPH1
      00000084H   SFRSYM    DATA     BYTE      DPL1
      000000D0H.7 SFRSYM    DATA     BIT       CY
      000000A0H   SFRSYM    DATA     BYTE      P2AX
      00000095H   SFRSYM    DATA     BYTE      DPX1
      00000081H   SFRSYM    DATA     BYTE      SP
      000000D0H.2 SFRSYM    DATA     BIT       OV
      00000080H   SFRSYM    DATA     BYTE      SFRPRT0DR
      00000090H   SFRSYM    DATA     BYTE      SFRPRT1DR
      000000F2H   SFRSYM    DATA     BYTE      SFRPRT12SEL
      00000098H   SFRSYM    DATA     BYTE      SFRPRT2DR
      000000B0H   SFRSYM    DATA     BYTE      SFRPRT3DR
      000000C0H   SFRSYM    DATA     BYTE      SFRPRT4DR
      000000FAH   SFRSYM    DATA     BYTE      SFRPRT15SEL
      000000C8H   SFRSYM    DATA     BYTE      SFRPRT5DR
      000000D8H   SFRSYM    DATA     BYTE      SFRPRT6DR
LX51 LINKER/LOCATER V4.64.0.0                                                         03/27/2019  09:25:09  PAGE 76


      00000089H   SFRSYM    DATA     BYTE      SFRPRT0PS
      00000091H   SFRSYM    DATA     BYTE      SFRPRT1PS
      00000099H   SFRSYM    DATA     BYTE      SFRPRT2PS
      000000B1H   SFRSYM    DATA     BYTE      SFRPRT3PS
      000000C1H   SFRSYM    DATA     BYTE      SFRPRT4PS
      000000C9H   SFRSYM    DATA     BYTE      SFRPRT5PS
      000000D9H   SFRSYM    DATA     BYTE      SFRPRT6PS
      000000EAH   SFRSYM    DATA     BYTE      MXAX
      000000F0H   SFRSYM    DATA     BYTE      B
      000000E0H   SFRSYM    DATA     BYTE      ACC
      000000D0H   SFRSYM    DATA     BIT       P
      000000D0H.3 SFRSYM    DATA     BIT       RS0
      000000D0H.4 SFRSYM    DATA     BIT       RS1
      00000083H   SFRSYM    DATA     BYTE      DPH
      000000E8H   SFRSYM    DATA     BYTE      SFRPRT12DR
      00000082H   SFRSYM    DATA     BYTE      DPL
      000000F8H   SFRSYM    DATA     BYTE      SFRPRT15DR
      00000086H   SFRSYM    DATA     BYTE      DPS
      000000E9H   SFRSYM    DATA     BYTE      SFRPRT12PS
      00000093H   SFRSYM    DATA     BYTE      DPX
      000000F9H   SFRSYM    DATA     BYTE      SFRPRT15PS
      000000D0H.5 SFRSYM    DATA     BIT       F0
      000000D0H.1 SFRSYM    DATA     BIT       F1
      0000008AH   SFRSYM    DATA     BYTE      SFRPRT0SEL
      000000D0H   SFRSYM    DATA     BYTE      PSW
      000000A2H   SFRSYM    DATA     BYTE      SFRPRT1SEL
      0000009AH   SFRSYM    DATA     BYTE      SFRPRT2SEL
      000000B2H   SFRSYM    DATA     BYTE      SFRPRT3SEL
      000000C2H   SFRSYM    DATA     BYTE      SFRPRT4SEL
      01009B86H   SYMBOL    CODE     ---       ClockSetup
      0100C827H   SYMBOL    CODE     ---       _CyClockStartupError
      0100C181H   SYMBOL    CODE     ---       AnalogSetDefault
      0100AAFAH   SYMBOL    CODE     ---       cfg_dma_init

      0100C827H   BLOCK     CODE     ---       LVL=0
      02000000H   SYMBOL    XDATA    BYTE      errorCode
      0100C827H   LINE      CODE     ---       #77
      0100C827H   LINE      CODE     ---       #78
      0100C827H   LINE      CODE     ---       #80
      0100C827H   LINE      CODE     ---       #98
      ---         BLOCKEND  ---      ---       LVL=0

      0100AAFAH   BLOCK     CODE     ---       LVL=0
      0100AAFAH   BLOCK     CODE     NEAR LAB  LVL=1
      0100C82EH   SYMBOL    CONST    ---       BS_UDB_2_4_HV_ROUTING_VAL
      0100C8AEH   SYMBOL    CONST    ---       BS_UDBSWITCH_0_5_VAL
      0100C92EH   SYMBOL    CONST    ---       BS_UDB_1_5_HV_ROUTING_VAL
      0100C9AEH   SYMBOL    CONST    ---       BS_UDBSWITCH_1_5_VAL
      0100CA2EH   SYMBOL    CONST    ---       BS_UDB_2_5_HV_ROUTING_VAL
      0100CAAEH   SYMBOL    CONST    ---       BS_DSI3_0_HV_ROUTING_VAL
      0100CB2EH   SYMBOL    CONST    ---       BS_DSISWITCH_1_1_VAL
      0100CBAEH   SYMBOL    CONST    ---       BS_DSI3_1_HV_ROUTING_VAL
      0100CC2EH   SYMBOL    CONST    ---       BS_DSISWITCH_1_2_VAL
      0100CCAEH   SYMBOL    CONST    ---       BS_DSI3_2_HV_ROUTING_VAL
      0100CD2EH   SYMBOL    CONST    ---       BS_DSISWITCH_1_3_VAL
      0100CDAEH   SYMBOL    CONST    ---       BS_DSI3_3_HV_ROUTING_VAL
      0100CE2EH   SYMBOL    CONST    ---       BS_DSISWITCH_1_4_VAL
      0100CEAEH   SYMBOL    CONST    ---       BS_DSI3_4_HV_ROUTING_VAL
      0100CF2EH   SYMBOL    CONST    ---       BS_DSISWITCH_1_5_VAL
      0100CFAEH   SYMBOL    CONST    ---       BS_DSI3_5_HV_ROUTING_VAL
      0100D02EH   SYMBOL    CONST    ---       CH1_ADDR_DATA0
      0100D036H   SYMBOL    CONST    ---       CH2_ADDR_DATA0
      0100D03EH   SYMBOL    CONST    ---       CH4_ADDR_DATA0
      0100D046H   SYMBOL    CONST    ---       CH5_ADDR_DATA0
      0100D04EH   SYMBOL    CONST    ---       CH6_ADDR_DATA0
LX51 LINKER/LOCATER V4.64.0.0                                                         03/27/2019  09:25:09  PAGE 77


      0100D056H   SYMBOL    CONST    ---       DMA_TD_START_CMD
      02000E93H   SYMBOL    XDATA    DWORD     DMA_ZERO_VAL
      0100D05BH   SYMBOL    CONST    ---       CFG_TD_LIST0
      ---         BLOCKEND  ---      ---       LVL=1
      0100AAFAH   LINE      CODE     ---       #321
      0100AAFAH   LINE      CODE     ---       #322
      0100AAFAH   LINE      CODE     ---       #629
      0100AB05H   LINE      CODE     ---       #630
      0100AB0BH   LINE      CODE     ---       #631
      0100AB11H   LINE      CODE     ---       #632
      0100AB16H   LINE      CODE     ---       #633
      0100AB22H   LINE      CODE     ---       #634
      0100AB28H   LINE      CODE     ---       #635
      0100AB2CH   LINE      CODE     ---       #636
      0100AB4EH   LINE      CODE     ---       #637
      0100AB5BH   LINE      CODE     ---       #638
      0100AB68H   LINE      CODE     ---       #639
      0100AB74H   LINE      CODE     ---       #640
      0100AB7AH   LINE      CODE     ---       #641
      0100AB7FH   LINE      CODE     ---       #642
      0100AB85H   LINE      CODE     ---       #643
      0100AB8BH   LINE      CODE     ---       #644
      0100AB91H   LINE      CODE     ---       #646
      0100AB91H   LINE      CODE     ---       #647
      0100AB97H   LINE      CODE     ---       #648
      0100AB97H   LINE      CODE     ---       #651
      0100AB9FH   LINE      CODE     ---       #652
      0100ABA7H   LINE      CODE     ---       #653
      0100ABAFH   LINE      CODE     ---       #654
      0100ABB7H   LINE      CODE     ---       #655
      0100ABBFH   LINE      CODE     ---       #656
      0100ABC7H   LINE      CODE     ---       #659
      0100ABE2H   LINE      CODE     ---       #661
      ---         BLOCKEND  ---      ---       LVL=0

      01009B86H   BLOCK     CODE     ---       LVL=0
      01009B86H   BLOCK     CODE     NEAR LAB  LVL=1
      0100D353H   SYMBOL    CONST    ---       BS_CYDEV_CLKDIST_ACFG0_CFG0_VAL
      02000000H   SYMBOL    XDATA    DWORD     timeout
      02000004H   SYMBOL    XDATA    BYTE      pllLock
      ---         BLOCKEND  ---      ---       LVL=1
      01009B86H   LINE      CODE     ---       #679
      01009B86H   LINE      CODE     ---       #680
      01009B86H   LINE      CODE     ---       #690
      01009B93H   LINE      CODE     ---       #691
      01009B99H   LINE      CODE     ---       #692
      01009BA5H   LINE      CODE     ---       #693
      01009BABH   LINE      CODE     ---       #694
      01009BB8H   LINE      CODE     ---       #695
      01009BBEH   LINE      CODE     ---       #696
      01009BCBH   LINE      CODE     ---       #697
      01009BD1H   LINE      CODE     ---       #698
      01009BDEH   LINE      CODE     ---       #699
      01009BE4H   LINE      CODE     ---       #700
      01009BF1H   LINE      CODE     ---       #701
      01009BF7H   LINE      CODE     ---       #704
      01009C08H   LINE      CODE     ---       #707
      01009C0EH   LINE      CODE     ---       #710
      01009C14H   LINE      CODE     ---       #711
      01009C22H   LINE      CODE     ---       #714
      01009C2FH   LINE      CODE     ---       #715
      01009C3CH   LINE      CODE     ---       #717
      01009C41H   LINE      CODE     ---       #718
      01009C66H   LINE      CODE     ---       #719
      01009C66H   LINE      CODE     ---       #720
LX51 LINKER/LOCATER V4.64.0.0                                                         03/27/2019  09:25:09  PAGE 78


      01009C77H   LINE      CODE     ---       #721
      01009C81H   LINE      CODE     ---       #722
      01009CA9H   LINE      CODE     ---       #724
      01009CB7H   LINE      CODE     ---       #725
      01009CB7H   LINE      CODE     ---       #726
      01009CBCH   LINE      CODE     ---       #727
      01009CBCH   LINE      CODE     ---       #730
      01009CC9H   LINE      CODE     ---       #731
      01009CCFH   LINE      CODE     ---       #732
      01009CD4H   LINE      CODE     ---       #733
      01009CDAH   LINE      CODE     ---       #734
      01009CDFH   LINE      CODE     ---       #737
      01009CE3H   LINE      CODE     ---       #738
      01009CE9H   LINE      CODE     ---       #739
      01009CEFH   LINE      CODE     ---       #741
      01009CF6H   LINE      CODE     ---       #742
      01009CFDH   LINE      CODE     ---       #743
      01009D04H   LINE      CODE     ---       #744
      ---         BLOCKEND  ---      ---       LVL=0

      0100C181H   BLOCK     CODE     ---       LVL=0
      0100C181H   BLOCK     CODE     NEAR LAB  LVL=1
      00000007H   SYMBOL    DATA     BYTE      bg_xover_inl_trim
      ---         BLOCKEND  ---      ---       LVL=1
      0100C181H   LINE      CODE     ---       #766
      0100C181H   LINE      CODE     ---       #767
      0100C181H   LINE      CODE     ---       #768
      0100C18AH   LINE      CODE     ---       #769
      0100C191H   LINE      CODE     ---       #770
      0100C197H   LINE      CODE     ---       #771
      0100C19DH   LINE      CODE     ---       #772
      0100C1A1H   LINE      CODE     ---       #773
      0100C1A7H   LINE      CODE     ---       #774
      ---         BLOCKEND  ---      ---       LVL=0
      00000007H   SYMBOL    DATA     BYTE      enabled
      00000006H   SYMBOL    DATA     BYTE      regValue

      0100C09AH   BLOCK     CODE     ---       LVL=0
      00000007H   SYMBOL    DATA     BYTE      channel
      0100C09AH   LINE      CODE     ---       #837
      0100C09AH   LINE      CODE     ---       #838
      0100C09AH   LINE      CODE     ---       #839
      0100C0A0H   LINE      CODE     ---       #840
      0100C0A0H   LINE      CODE     ---       #841
      0100C0C9H   LINE      CODE     ---       #842
      0100C0C9H   LINE      CODE     ---       #843
      ---         BLOCKEND  ---      ---       LVL=0

      0100C008H   BLOCK     CODE     ---       LVL=0
      00000007H   SYMBOL    DATA     BYTE      channel
      0100C008H   LINE      CODE     ---       #859
      0100C008H   LINE      CODE     ---       #860
      0100C008H   LINE      CODE     ---       #861
      0100C00EH   LINE      CODE     ---       #862
      0100C00EH   LINE      CODE     ---       #863
      0100C038H   LINE      CODE     ---       #864
      0100C038H   LINE      CODE     ---       #865
      ---         BLOCKEND  ---      ---       LVL=0

      0100A7F8H   BLOCK     CODE     ---       LVL=0
      0100A7F8H   BLOCK     CODE     NEAR LAB  LVL=1
      0100D35DH   SYMBOL    CONST    ---       BS_IOPINS0_7_VAL
      0100D365H   SYMBOL    CONST    ---       BS_IOPINS0_8_VAL
      0100D36FH   SYMBOL    CONST    ---       BS_IOPINS0_1_VAL
      0100D379H   SYMBOL    CONST    ---       BS_IOPINS0_2_VAL
LX51 LINKER/LOCATER V4.64.0.0                                                         03/27/2019  09:25:09  PAGE 79


      0100D381H   SYMBOL    CONST    ---       BS_PHUB_CFGMEM10_VAL
      ---         BLOCKEND  ---      ---       LVL=1
      0100A7F8H   LINE      CODE     ---       #886
      0100A7F8H   LINE      CODE     ---       #887
      0100A7F8H   LINE      CODE     ---       #909
      0100A80EH   LINE      CODE     ---       #911
      0100A80EH   LINE      CODE     ---       #912
      0100A811H   LINE      CODE     ---       #915
      0100A817H   LINE      CODE     ---       #916
      0100A828H   LINE      CODE     ---       #919
      0100A83EH   LINE      CODE     ---       #920
      0100A854H   LINE      CODE     ---       #923
      0100A85BH   LINE      CODE     ---       #924
      0100A862H   LINE      CODE     ---       #925
      0100A862H   LINE      CODE     ---       #929
      0100A87AH   LINE      CODE     ---       #930
      0100A88BH   LINE      CODE     ---       #931
      0100A89CH   LINE      CODE     ---       #932
      0100A8ADH   LINE      CODE     ---       #933
      0100A8BEH   LINE      CODE     ---       #934
      0100A8C4H   LINE      CODE     ---       #936
      0100A8CBH   LINE      CODE     ---       #937
      0100A8D4H   LINE      CODE     ---       #938
      0100A8D4H   LINE      CODE     ---       #939
      0100A8DAH   LINE      CODE     ---       #940
      0100A8DAH   LINE      CODE     ---       #944
      0100A8E0H   LINE      CODE     ---       #946
      0100A8E3H   LINE      CODE     ---       #949
      0100A8E6H   LINE      CODE     ---       #952
      0100A907H   LINE      CODE     ---       #953
      0100A90EH   LINE      CODE     ---       #954
      ---         BLOCKEND  ---      ---       LVL=0

      ---         MODULE    ---      ---       UART_RS485
      02000E68H   PUBLIC    XDATA    BYTE      UART_RS485_errorStatus
      02000E67H   PUBLIC    XDATA    BYTE      UART_RS485_rxBufferOverflow
      02000E66H   PUBLIC    XDATA    BYTE      UART_RS485_initVar
      02000E65H   PUBLIC    XDATA    BYTE      UART_RS485_rxBufferWrite
      02000E45H   PUBLIC    XDATA    ---       UART_RS485_rxBuffer
      02000E44H   PUBLIC    XDATA    BYTE      UART_RS485_rxBufferRead
      02000E43H   PUBLIC    XDATA    BYTE      UART_RS485_rxBufferLoopDetect
      0100C53EH   PUBLIC    CODE     ---       UART_RS485_ClearTxBuffer
      0100BF3BH   PUBLIC    CODE     ---       _UART_RS485_PutString
      0100C613H   PUBLIC    CODE     ---       _UART_RS485_PutChar
      0100C777H   PUBLIC    CODE     ---       UART_RS485_ReadTxStatus
      0100C0CAH   PUBLIC    CODE     ---       UART_RS485_ClearRxBuffer
      0100BADFH   PUBLIC    CODE     ---       UART_RS485_GetRxBufferSize
      0100B8DCH   PUBLIC    CODE     ---       UART_RS485_GetChar
      0100C47FH   PUBLIC    CODE     ---       UART_RS485_ReadRxStatus
      0100C23DH   PUBLIC    CODE     ---       UART_RS485_Stop
      0100C21BH   PUBLIC    CODE     ---       UART_RS485_Enable
      0100BFA3H   PUBLIC    CODE     ---       UART_RS485_Init
      0100C493H   PUBLIC    CODE     ---       UART_RS485_Start
      000000CAH   SFRSYM    DATA     BYTE      SFRPRT5SEL
      000000DAH   SFRSYM    DATA     BYTE      SFRPRT6SEL
      000000D0H.6 SFRSYM    DATA     BIT       AC
      000000A8H.7 SFRSYM    DATA     BIT       EA
      000000A8H   SFRSYM    DATA     BYTE      IE
      00000085H   SFRSYM    DATA     BYTE      DPH1
      00000084H   SFRSYM    DATA     BYTE      DPL1
      000000D0H.7 SFRSYM    DATA     BIT       CY
      000000A0H   SFRSYM    DATA     BYTE      P2AX
      00000095H   SFRSYM    DATA     BYTE      DPX1
      00000081H   SFRSYM    DATA     BYTE      SP
      000000D0H.2 SFRSYM    DATA     BIT       OV
LX51 LINKER/LOCATER V4.64.0.0                                                         03/27/2019  09:25:09  PAGE 80


      00000080H   SFRSYM    DATA     BYTE      SFRPRT0DR
      00000090H   SFRSYM    DATA     BYTE      SFRPRT1DR
      000000F2H   SFRSYM    DATA     BYTE      SFRPRT12SEL
      00000098H   SFRSYM    DATA     BYTE      SFRPRT2DR
      000000B0H   SFRSYM    DATA     BYTE      SFRPRT3DR
      000000C0H   SFRSYM    DATA     BYTE      SFRPRT4DR
      000000FAH   SFRSYM    DATA     BYTE      SFRPRT15SEL
      000000C8H   SFRSYM    DATA     BYTE      SFRPRT5DR
      000000D8H   SFRSYM    DATA     BYTE      SFRPRT6DR
      00000089H   SFRSYM    DATA     BYTE      SFRPRT0PS
      00000091H   SFRSYM    DATA     BYTE      SFRPRT1PS
      00000099H   SFRSYM    DATA     BYTE      SFRPRT2PS
      000000B1H   SFRSYM    DATA     BYTE      SFRPRT3PS
      000000C1H   SFRSYM    DATA     BYTE      SFRPRT4PS
      000000C9H   SFRSYM    DATA     BYTE      SFRPRT5PS
      000000D9H   SFRSYM    DATA     BYTE      SFRPRT6PS
      000000EAH   SFRSYM    DATA     BYTE      MXAX
      000000F0H   SFRSYM    DATA     BYTE      B
      000000E0H   SFRSYM    DATA     BYTE      ACC
      000000D0H   SFRSYM    DATA     BIT       P
      000000D0H.3 SFRSYM    DATA     BIT       RS0
      000000D0H.4 SFRSYM    DATA     BIT       RS1
      00000083H   SFRSYM    DATA     BYTE      DPH
      000000E8H   SFRSYM    DATA     BYTE      SFRPRT12DR
      00000082H   SFRSYM    DATA     BYTE      DPL
      000000F8H   SFRSYM    DATA     BYTE      SFRPRT15DR
      00000086H   SFRSYM    DATA     BYTE      DPS
      000000E9H   SFRSYM    DATA     BYTE      SFRPRT12PS
      00000093H   SFRSYM    DATA     BYTE      DPX
      000000F9H   SFRSYM    DATA     BYTE      SFRPRT15PS
      000000D0H.5 SFRSYM    DATA     BIT       F0
      000000D0H.1 SFRSYM    DATA     BIT       F1
      0000008AH   SFRSYM    DATA     BYTE      SFRPRT0SEL
      000000D0H   SFRSYM    DATA     BYTE      PSW
      000000A2H   SFRSYM    DATA     BYTE      SFRPRT1SEL
      0000009AH   SFRSYM    DATA     BYTE      SFRPRT2SEL
      000000B2H   SFRSYM    DATA     BYTE      SFRPRT3SEL
      000000C2H   SFRSYM    DATA     BYTE      SFRPRT4SEL

      0100C493H   BLOCK     CODE     ---       LVL=0
      0100C493H   LINE      CODE     ---       #76
      0100C493H   LINE      CODE     ---       #77
      0100C493H   LINE      CODE     ---       #79
      0100C499H   LINE      CODE     ---       #80
      0100C499H   LINE      CODE     ---       #81
      0100C49CH   LINE      CODE     ---       #82
      0100C4A2H   LINE      CODE     ---       #83
      0100C4A2H   LINE      CODE     ---       #85
      0100C4A5H   LINE      CODE     ---       #86
      ---         BLOCKEND  ---      ---       LVL=0

      0100BFA3H   BLOCK     CODE     ---       LVL=0
      0100BFA3H   LINE      CODE     ---       #106
      0100BFA3H   LINE      CODE     ---       #107
      0100BFA3H   LINE      CODE     ---       #112
      0100BFACH   LINE      CODE     ---       #113
      0100BFB3H   LINE      CODE     ---       #114
      0100BFB8H   LINE      CODE     ---       #124
      0100BFBEH   LINE      CODE     ---       #126
      0100BFC4H   LINE      CODE     ---       #138
      0100BFCAH   LINE      CODE     ---       #139
      0100BFD0H   LINE      CODE     ---       #150
      0100BFD5H   LINE      CODE     ---       #160
      ---         BLOCKEND  ---      ---       LVL=0

LX51 LINKER/LOCATER V4.64.0.0                                                         03/27/2019  09:25:09  PAGE 81


      0100C21BH   BLOCK     CODE     ---       LVL=0
      0100C21BH   BLOCK     CODE     NEAR LAB  LVL=1
      00000007H   SYMBOL    DATA     BYTE      enableInterrupts
      ---         BLOCKEND  ---      ---       LVL=1
      0100C21BH   LINE      CODE     ---       #183
      0100C21BH   LINE      CODE     ---       #184
      0100C21BH   LINE      CODE     ---       #186
      0100C21EH   LINE      CODE     ---       #190
      0100C225H   LINE      CODE     ---       #193
      0100C22CH   LINE      CODE     ---       #196
      0100C232H   LINE      CODE     ---       #211
      0100C239H   LINE      CODE     ---       #222
      0100C23CH   LINE      CODE     ---       #223
      ---         BLOCKEND  ---      ---       LVL=0

      0100C23DH   BLOCK     CODE     ---       LVL=0
      0100C23DH   BLOCK     CODE     NEAR LAB  LVL=1
      00000007H   SYMBOL    DATA     BYTE      enableInterrupts
      ---         BLOCKEND  ---      ---       LVL=1
      0100C23DH   LINE      CODE     ---       #240
      0100C23DH   LINE      CODE     ---       #241
      0100C23DH   LINE      CODE     ---       #243
      0100C240H   LINE      CODE     ---       #247
      0100C247H   LINE      CODE     ---       #262
      0100C24EH   LINE      CODE     ---       #265
      0100C254H   LINE      CODE     ---       #270
      0100C25BH   LINE      CODE     ---       #277
      0100C25EH   LINE      CODE     ---       #278
      ---         BLOCKEND  ---      ---       LVL=0
      00000007H   SYMBOL    DATA     BYTE      intSrc
      00000007H   SYMBOL    DATA     BYTE      rxData
      00000006H   SYMBOL    DATA     BYTE      locRxBufferRead
      00000005H   SYMBOL    DATA     BYTE      locRxBufferWrite

      0100C47FH   BLOCK     CODE     ---       LVL=0
      0100C47FH   BLOCK     CODE     NEAR LAB  LVL=1
      00000007H   SYMBOL    DATA     BYTE      status
      ---         BLOCKEND  ---      ---       LVL=1
      0100C47FH   LINE      CODE     ---       #485
      0100C47FH   LINE      CODE     ---       #486
      0100C47FH   LINE      CODE     ---       #489
      0100C486H   LINE      CODE     ---       #492
      0100C48CH   LINE      CODE     ---       #493
      0100C48CH   LINE      CODE     ---       #494
      0100C490H   LINE      CODE     ---       #495
      0100C492H   LINE      CODE     ---       #496
      0100C492H   LINE      CODE     ---       #499
      0100C492H   LINE      CODE     ---       #500
      ---         BLOCKEND  ---      ---       LVL=0

      0100B8DCH   BLOCK     CODE     ---       LVL=0
      0100B8DCH   BLOCK     CODE     NEAR LAB  LVL=1
      00000007H   SYMBOL    DATA     BYTE      rxData
      00000006H   SYMBOL    DATA     BYTE      rxStatus
      00000006H   SYMBOL    DATA     BYTE      locRxBufferRead
      00000005H   SYMBOL    DATA     BYTE      locRxBufferWrite
      ---         BLOCKEND  ---      ---       LVL=1
      0100B8DCH   LINE      CODE     ---       #532
      0100B8DCH   LINE      CODE     ---       #533
      0100B8DCH   LINE      CODE     ---       #534
      0100B8DEH   LINE      CODE     ---       #542
      0100B8E4H   LINE      CODE     ---       #544
      0100B8E9H   LINE      CODE     ---       #545
      0100B8EEH   LINE      CODE     ---       #547
      0100B8F8H   LINE      CODE     ---       #548
LX51 LINKER/LOCATER V4.64.0.0                                                         03/27/2019  09:25:09  PAGE 82


      0100B8F8H   LINE      CODE     ---       #549
      0100B904H   LINE      CODE     ---       #550
      0100B905H   LINE      CODE     ---       #551
      0100B90BH   LINE      CODE     ---       #552
      0100B90BH   LINE      CODE     ---       #553
      0100B90DH   LINE      CODE     ---       #554
      0100B90DH   LINE      CODE     ---       #556
      0100B912H   LINE      CODE     ---       #558
      0100B918H   LINE      CODE     ---       #559
      0100B918H   LINE      CODE     ---       #560
      0100B91AH   LINE      CODE     ---       #575
      0100B91AH   LINE      CODE     ---       #577
      0100B91CH   LINE      CODE     ---       #579
      0100B921H   LINE      CODE     ---       #580
      0100B924H   LINE      CODE     ---       #581
      0100B924H   LINE      CODE     ---       #582
      0100B929H   LINE      CODE     ---       #585
      0100B92EH   LINE      CODE     ---       #586
      0100B92EH   LINE      CODE     ---       #587
      0100B930H   LINE      CODE     ---       #588
      0100B930H   LINE      CODE     ---       #589
      0100B930H   LINE      CODE     ---       #590
      0100B930H   LINE      CODE     ---       #592
      0100B936H   LINE      CODE     ---       #611
      0100B936H   LINE      CODE     ---       #612
      ---         BLOCKEND  ---      ---       LVL=0
      00000002H   SYMBOL    DATA     WORD      locErrorStatus

      0100BADFH   BLOCK     CODE     ---       LVL=0
      0100BADFH   BLOCK     CODE     NEAR LAB  LVL=1
      00000007H   SYMBOL    DATA     BYTE      size
      ---         BLOCKEND  ---      ---       LVL=1
      0100BADFH   LINE      CODE     ---       #683
      0100BADFH   LINE      CODE     ---       #685
      0100BADFH   LINE      CODE     ---       #691
      0100BAE5H   LINE      CODE     ---       #693
      0100BAF1H   LINE      CODE     ---       #694
      0100BAF1H   LINE      CODE     ---       #695
      0100BAF7H   LINE      CODE     ---       #696
      0100BAF7H   LINE      CODE     ---       #697
      0100BAF9H   LINE      CODE     ---       #698
      0100BAFBH   LINE      CODE     ---       #700
      0100BAFBH   LINE      CODE     ---       #701
      0100BAFDH   LINE      CODE     ---       #702
      0100BAFDH   LINE      CODE     ---       #703
      0100BAFFH   LINE      CODE     ---       #704
      0100BB0CH   LINE      CODE     ---       #705
      0100BB0CH   LINE      CODE     ---       #706
      0100BB15H   LINE      CODE     ---       #707
      0100BB17H   LINE      CODE     ---       #709
      0100BB17H   LINE      CODE     ---       #710
      0100BB27H   LINE      CODE     ---       #711
      0100BB27H   LINE      CODE     ---       #713
      0100BB2DH   LINE      CODE     ---       #722
      0100BB2DH   LINE      CODE     ---       #723
      ---         BLOCKEND  ---      ---       LVL=0

      0100C0CAH   BLOCK     CODE     ---       LVL=0
      0100C0CAH   BLOCK     CODE     NEAR LAB  LVL=1
      00000007H   SYMBOL    DATA     BYTE      enableInterrupts
      ---         BLOCKEND  ---      ---       LVL=1
      0100C0CAH   LINE      CODE     ---       #757
      0100C0CAH   LINE      CODE     ---       #758
      0100C0CAH   LINE      CODE     ---       #762
      0100C0CDH   LINE      CODE     ---       #763
LX51 LINKER/LOCATER V4.64.0.0                                                         03/27/2019  09:25:09  PAGE 83


      0100C0D4H   LINE      CODE     ---       #764
      0100C0D8H   LINE      CODE     ---       #765
      0100C0DBH   LINE      CODE     ---       #770
      0100C0E1H   LINE      CODE     ---       #772
      0100C0E6H   LINE      CODE     ---       #773
      0100C0EAH   LINE      CODE     ---       #774
      0100C0EEH   LINE      CODE     ---       #775
      0100C0F2H   LINE      CODE     ---       #777
      0100C0F8H   LINE      CODE     ---       #781
      ---         BLOCKEND  ---      ---       LVL=0
      00000007H   SYMBOL    DATA     BYTE      address
      00000007H   SYMBOL    DATA     BYTE      address
      00000007H   SYMBOL    DATA     BYTE      intSrc
      00000007H   SYMBOL    DATA     BYTE      txDataByte

      0100C777H   BLOCK     CODE     ---       LVL=0
      0100C777H   LINE      CODE     ---       #1003
      0100C777H   LINE      CODE     ---       #1004
      0100C777H   LINE      CODE     ---       #1005
      0100C77CH   LINE      CODE     ---       #1006
      ---         BLOCKEND  ---      ---       LVL=0

      0100C613H   BLOCK     CODE     ---       LVL=0
      00000007H   SYMBOL    DATA     BYTE      txDataByte
      0100C613H   LINE      CODE     ---       #1041
      0100C613H   LINE      CODE     ---       #1042
      0100C613H   LINE      CODE     ---       #1107
      0100C61AH   LINE      CODE     ---       #1108
      0100C61AH   LINE      CODE     ---       #1110
      0100C61AH   LINE      CODE     ---       #1113
      0100C61FH   LINE      CODE     ---       #1116
      ---         BLOCKEND  ---      ---       LVL=0

      0100BF3BH   BLOCK     CODE     ---       LVL=0
      0200060BH   SYMBOL    XDATA    ---       string
      0100BF46H   BLOCK     CODE     NEAR LAB  LVL=1
      00000004H   SYMBOL    DATA     WORD      bufIndex
      ---         BLOCKEND  ---      ---       LVL=1
      0100BF3BH   LINE      CODE     ---       #1145
      0100BF46H   LINE      CODE     ---       #1146
      0100BF46H   LINE      CODE     ---       #1147
      0100BF49H   LINE      CODE     ---       #1150
      0100BF4FH   LINE      CODE     ---       #1151
      0100BF4FH   LINE      CODE     ---       #1153
      0100BF64H   LINE      CODE     ---       #1154
      0100BF64H   LINE      CODE     ---       #1155
      0100BF67H   LINE      CODE     ---       #1156
      0100BF6CH   LINE      CODE     ---       #1157
      0100BF6EH   LINE      CODE     ---       #1158
      0100BF6EH   LINE      CODE     ---       #1159
      ---         BLOCKEND  ---      ---       LVL=0
      00000005H   SYMBOL    DATA     BYTE      byteCount
      00000006H   SYMBOL    DATA     BYTE      bufIndex
      00000007H   SYMBOL    DATA     BYTE      txDataByte
      00000007H   SYMBOL    DATA     BYTE      size

      0100C53EH   BLOCK     CODE     ---       LVL=0
      0100C53EH   BLOCK     CODE     NEAR LAB  LVL=1
      00000007H   SYMBOL    DATA     BYTE      enableInterrupts
      ---         BLOCKEND  ---      ---       LVL=1
      0100C53EH   LINE      CODE     ---       #1354
      0100C53EH   LINE      CODE     ---       #1355
      0100C53EH   LINE      CODE     ---       #1358
      0100C541H   LINE      CODE     ---       #1360
      0100C548H   LINE      CODE     ---       #1361
LX51 LINKER/LOCATER V4.64.0.0                                                         03/27/2019  09:25:09  PAGE 84


      0100C54CH   LINE      CODE     ---       #1362
      0100C54FH   LINE      CODE     ---       #1376
      ---         BLOCKEND  ---      ---       LVL=0
      00000007H   SYMBOL    DATA     BYTE      retMode
      02000E42H   SYMBOL    XDATA    BYTE      txPeriod

      ---         MODULE    ---      ---       PWM_MOTORS
      02000E99H   PUBLIC    XDATA    BYTE      PWM_MOTORS_initVar
      0100C78FH   PUBLIC    CODE     ---       _PWM_MOTORS_WriteCompare2
      0100C789H   PUBLIC    CODE     ---       _PWM_MOTORS_WriteCompare1
      0100C783H   PUBLIC    CODE     ---       _PWM_MOTORS_WritePeriod
      0100C77DH   PUBLIC    CODE     ---       _PWM_MOTORS_WriteCounter
      0100C71CH   PUBLIC    CODE     ---       PWM_MOTORS_Enable
      0100C1CFH   PUBLIC    CODE     ---       PWM_MOTORS_Init
      0100C4A6H   PUBLIC    CODE     ---       PWM_MOTORS_Start
      000000CAH   SFRSYM    DATA     BYTE      SFRPRT5SEL
      000000DAH   SFRSYM    DATA     BYTE      SFRPRT6SEL
      000000D0H.6 SFRSYM    DATA     BIT       AC
      000000A8H.7 SFRSYM    DATA     BIT       EA
      000000A8H   SFRSYM    DATA     BYTE      IE
      00000085H   SFRSYM    DATA     BYTE      DPH1
      00000084H   SFRSYM    DATA     BYTE      DPL1
      000000D0H.7 SFRSYM    DATA     BIT       CY
      000000A0H   SFRSYM    DATA     BYTE      P2AX
      00000095H   SFRSYM    DATA     BYTE      DPX1
      00000081H   SFRSYM    DATA     BYTE      SP
      000000D0H.2 SFRSYM    DATA     BIT       OV
      00000080H   SFRSYM    DATA     BYTE      SFRPRT0DR
      00000090H   SFRSYM    DATA     BYTE      SFRPRT1DR
      000000F2H   SFRSYM    DATA     BYTE      SFRPRT12SEL
      00000098H   SFRSYM    DATA     BYTE      SFRPRT2DR
      000000B0H   SFRSYM    DATA     BYTE      SFRPRT3DR
      000000C0H   SFRSYM    DATA     BYTE      SFRPRT4DR
      000000FAH   SFRSYM    DATA     BYTE      SFRPRT15SEL
      000000C8H   SFRSYM    DATA     BYTE      SFRPRT5DR
      000000D8H   SFRSYM    DATA     BYTE      SFRPRT6DR
      00000089H   SFRSYM    DATA     BYTE      SFRPRT0PS
      00000091H   SFRSYM    DATA     BYTE      SFRPRT1PS
      00000099H   SFRSYM    DATA     BYTE      SFRPRT2PS
      000000B1H   SFRSYM    DATA     BYTE      SFRPRT3PS
      000000C1H   SFRSYM    DATA     BYTE      SFRPRT4PS
      000000C9H   SFRSYM    DATA     BYTE      SFRPRT5PS
      000000D9H   SFRSYM    DATA     BYTE      SFRPRT6PS
      000000EAH   SFRSYM    DATA     BYTE      MXAX
      000000F0H   SFRSYM    DATA     BYTE      B
      000000E0H   SFRSYM    DATA     BYTE      ACC
      000000D0H   SFRSYM    DATA     BIT       P
      000000D0H.3 SFRSYM    DATA     BIT       RS0
      000000D0H.4 SFRSYM    DATA     BIT       RS1
      00000083H   SFRSYM    DATA     BYTE      DPH
      000000E8H   SFRSYM    DATA     BYTE      SFRPRT12DR
      00000082H   SFRSYM    DATA     BYTE      DPL
      000000F8H   SFRSYM    DATA     BYTE      SFRPRT15DR
      00000086H   SFRSYM    DATA     BYTE      DPS
      000000E9H   SFRSYM    DATA     BYTE      SFRPRT12PS
      00000093H   SFRSYM    DATA     BYTE      DPX
      000000F9H   SFRSYM    DATA     BYTE      SFRPRT15PS
      000000D0H.5 SFRSYM    DATA     BIT       F0
      000000D0H.1 SFRSYM    DATA     BIT       F1
      0000008AH   SFRSYM    DATA     BYTE      SFRPRT0SEL
      000000D0H   SFRSYM    DATA     BYTE      PSW
      000000A2H   SFRSYM    DATA     BYTE      SFRPRT1SEL
      0000009AH   SFRSYM    DATA     BYTE      SFRPRT2SEL
      000000B2H   SFRSYM    DATA     BYTE      SFRPRT3SEL
      000000C2H   SFRSYM    DATA     BYTE      SFRPRT4SEL
LX51 LINKER/LOCATER V4.64.0.0                                                         03/27/2019  09:25:09  PAGE 85



      0100C4A6H   BLOCK     CODE     ---       LVL=0
      0100C4A6H   LINE      CODE     ---       #55
      0100C4A6H   LINE      CODE     ---       #56
      0100C4A6H   LINE      CODE     ---       #58
      0100C4ACH   LINE      CODE     ---       #59
      0100C4ACH   LINE      CODE     ---       #60
      0100C4AFH   LINE      CODE     ---       #61
      0100C4B5H   LINE      CODE     ---       #62
      0100C4B5H   LINE      CODE     ---       #63
      0100C4B8H   LINE      CODE     ---       #65
      ---         BLOCKEND  ---      ---       LVL=0

      0100C1CFH   BLOCK     CODE     ---       LVL=0
      0100C1CFH   BLOCK     CODE     NEAR LAB  LVL=1
      00000007H   SYMBOL    DATA     BYTE      ctrl
      ---         BLOCKEND  ---      ---       LVL=1
      0100C1CFH   LINE      CODE     ---       #84
      0100C1CFH   LINE      CODE     ---       #85
      0100C1CFH   LINE      CODE     ---       #118
      0100C1D6H   LINE      CODE     ---       #120
      0100C1D9H   LINE      CODE     ---       #126
      0100C1E0H   LINE      CODE     ---       #133
      0100C1E5H   LINE      CODE     ---       #136
      0100C1EAH   LINE      CODE     ---       #141
      0100C1EFH   LINE      CODE     ---       #142
      0100C1F4H   LINE      CODE     ---       #179
      ---         BLOCKEND  ---      ---       LVL=0

      0100C71CH   BLOCK     CODE     ---       LVL=0
      0100C71CH   LINE      CODE     ---       #199
      0100C71CH   LINE      CODE     ---       #200
      0100C71CH   LINE      CODE     ---       #209
      0100C723H   LINE      CODE     ---       #211
      ---         BLOCKEND  ---      ---       LVL=0

      0100C77DH   BLOCK     CODE     ---       LVL=0
      00000007H   SYMBOL    DATA     BYTE      counter
      0100C77DH   LINE      CODE     ---       #403
      0100C77DH   LINE      CODE     ---       #405
      0100C77DH   LINE      CODE     ---       #406
      0100C782H   LINE      CODE     ---       #407
      ---         BLOCKEND  ---      ---       LVL=0

      0100C783H   BLOCK     CODE     ---       LVL=0
      00000007H   SYMBOL    DATA     BYTE      period
      0100C783H   LINE      CODE     ---       #482
      0100C783H   LINE      CODE     ---       #483
      0100C783H   LINE      CODE     ---       #487
      0100C788H   LINE      CODE     ---       #489
      ---         BLOCKEND  ---      ---       LVL=0

      0100C789H   BLOCK     CODE     ---       LVL=0
      00000007H   SYMBOL    DATA     BYTE      compare
      0100C789H   LINE      CODE     ---       #555
      0100C789H   LINE      CODE     ---       #557
      0100C789H   LINE      CODE     ---       #561
      0100C78EH   LINE      CODE     ---       #563
      ---         BLOCKEND  ---      ---       LVL=0

      0100C78FH   BLOCK     CODE     ---       LVL=0
      00000007H   SYMBOL    DATA     BYTE      compare
      0100C78FH   LINE      CODE     ---       #584
      0100C78FH   LINE      CODE     ---       #586
      0100C78FH   LINE      CODE     ---       #590
LX51 LINKER/LOCATER V4.64.0.0                                                         03/27/2019  09:25:09  PAGE 86


      0100C794H   LINE      CODE     ---       #592
      ---         BLOCKEND  ---      ---       LVL=0
      00000007H   SYMBOL    DATA     BYTE      result
      00000007H   SYMBOL    DATA     BYTE      control

      ---         MODULE    ---      ---       ISR_RS485_RX
      0100C75BH   PUBLIC    CODE     ---       ISR_RS485_RX_Disable
      0100C754H   PUBLIC    CODE     ---       ISR_RS485_RX_Enable
      0100C69AH   PUBLIC    CODE     ---       _ISR_RS485_RX_SetPriority
      0100C5B1H   PUBLIC    CODE     ---       _ISR_RS485_RX_SetVector
      0100BEFFH   PUBLIC    CODE     ---       ISR_RS485_RX_Interrupt
      0100C2A0H   PUBLIC    CODE     ---       _ISR_RS485_RX_StartEx
      000000CAH   SFRSYM    DATA     BYTE      SFRPRT5SEL
      000000DAH   SFRSYM    DATA     BYTE      SFRPRT6SEL
      000000D0H.6 SFRSYM    DATA     BIT       AC
      000000A8H.7 SFRSYM    DATA     BIT       EA
      000000A8H   SFRSYM    DATA     BYTE      IE
      00000085H   SFRSYM    DATA     BYTE      DPH1
      00000084H   SFRSYM    DATA     BYTE      DPL1
      000000D0H.7 SFRSYM    DATA     BIT       CY
      000000A0H   SFRSYM    DATA     BYTE      P2AX
      00000095H   SFRSYM    DATA     BYTE      DPX1
      00000081H   SFRSYM    DATA     BYTE      SP
      000000D0H.2 SFRSYM    DATA     BIT       OV
      00000080H   SFRSYM    DATA     BYTE      SFRPRT0DR
      00000090H   SFRSYM    DATA     BYTE      SFRPRT1DR
      000000F2H   SFRSYM    DATA     BYTE      SFRPRT12SEL
      00000098H   SFRSYM    DATA     BYTE      SFRPRT2DR
      000000B0H   SFRSYM    DATA     BYTE      SFRPRT3DR
      000000C0H   SFRSYM    DATA     BYTE      SFRPRT4DR
      000000FAH   SFRSYM    DATA     BYTE      SFRPRT15SEL
      000000C8H   SFRSYM    DATA     BYTE      SFRPRT5DR
      000000D8H   SFRSYM    DATA     BYTE      SFRPRT6DR
      00000089H   SFRSYM    DATA     BYTE      SFRPRT0PS
      00000091H   SFRSYM    DATA     BYTE      SFRPRT1PS
      00000099H   SFRSYM    DATA     BYTE      SFRPRT2PS
      000000B1H   SFRSYM    DATA     BYTE      SFRPRT3PS
      000000C1H   SFRSYM    DATA     BYTE      SFRPRT4PS
      000000C9H   SFRSYM    DATA     BYTE      SFRPRT5PS
      000000D9H   SFRSYM    DATA     BYTE      SFRPRT6PS
      000000EAH   SFRSYM    DATA     BYTE      MXAX
      000000F0H   SFRSYM    DATA     BYTE      B
      000000E0H   SFRSYM    DATA     BYTE      ACC
      000000D0H   SFRSYM    DATA     BIT       P
      000000D0H.3 SFRSYM    DATA     BIT       RS0
      000000D0H.4 SFRSYM    DATA     BIT       RS1
      00000083H   SFRSYM    DATA     BYTE      DPH
      000000E8H   SFRSYM    DATA     BYTE      SFRPRT12DR
      00000082H   SFRSYM    DATA     BYTE      DPL
      000000F8H   SFRSYM    DATA     BYTE      SFRPRT15DR
      00000086H   SFRSYM    DATA     BYTE      DPS
      000000E9H   SFRSYM    DATA     BYTE      SFRPRT12PS
      00000093H   SFRSYM    DATA     BYTE      DPX
      000000F9H   SFRSYM    DATA     BYTE      SFRPRT15PS
      000000D0H.5 SFRSYM    DATA     BIT       F0
      000000D0H.1 SFRSYM    DATA     BIT       F1
      0000008AH   SFRSYM    DATA     BYTE      SFRPRT0SEL
      000000D0H   SFRSYM    DATA     BYTE      PSW
      000000A2H   SFRSYM    DATA     BYTE      SFRPRT1SEL
      0000009AH   SFRSYM    DATA     BYTE      SFRPRT2SEL
      000000B2H   SFRSYM    DATA     BYTE      SFRPRT3SEL
      000000C2H   SFRSYM    DATA     BYTE      SFRPRT4SEL

      0100C2A0H   BLOCK     CODE     ---       LVL=0
      02000003H   SYMBOL    XDATA    ---       address
LX51 LINKER/LOCATER V4.64.0.0                                                         03/27/2019  09:25:09  PAGE 87


      0100C2A0H   LINE      CODE     ---       #94
      0100C2A8H   LINE      CODE     ---       #95
      0100C2A8H   LINE      CODE     ---       #97
      0100C2ABH   LINE      CODE     ---       #100
      0100C2B6H   LINE      CODE     ---       #103
      0100C2BBH   LINE      CODE     ---       #106
      0100C2BEH   LINE      CODE     ---       #107
      ---         BLOCKEND  ---      ---       LVL=0

      0100BEFFH   BLOCK     CODE     ---       LVL=0
      0100BEFFH   LINE      CODE     ---       #151
      0100BEFFH   LINE      CODE     ---       #168
      ---         BLOCKEND  ---      ---       LVL=0

      0100C5B1H   BLOCK     CODE     ---       LVL=0
      00000006H   SYMBOL    DATA     ---       address
      0100C5B1H   LINE      CODE     ---       #198
      0100C5B1H   LINE      CODE     ---       #199
      0100C5B1H   LINE      CODE     ---       #200
      0100C5BEH   LINE      CODE     ---       #201
      ---         BLOCKEND  ---      ---       LVL=0

      0100C69AH   BLOCK     CODE     ---       LVL=0
      00000007H   SYMBOL    DATA     BYTE      priority
      0100C69AH   LINE      CODE     ---       #248
      0100C69AH   LINE      CODE     ---       #249
      0100C69AH   LINE      CODE     ---       #250
      0100C6A3H   LINE      CODE     ---       #251
      ---         BLOCKEND  ---      ---       LVL=0
      00000007H   SYMBOL    DATA     BYTE      priority

      0100C754H   BLOCK     CODE     ---       LVL=0
      0100C754H   LINE      CODE     ---       #297
      0100C754H   LINE      CODE     ---       #298
      0100C754H   LINE      CODE     ---       #300
      0100C75AH   LINE      CODE     ---       #301
      ---         BLOCKEND  ---      ---       LVL=0

      0100C75BH   BLOCK     CODE     ---       LVL=0
      0100C75BH   LINE      CODE     ---       #339
      0100C75BH   LINE      CODE     ---       #340
      0100C75BH   LINE      CODE     ---       #342
      0100C761H   LINE      CODE     ---       #343
      ---         BLOCKEND  ---      ---       LVL=0

      ---         MODULE    ---      ---       CLOCK_UART
      0100C724H   PUBLIC    CODE     ---       CLOCK_UART_GetSourceRegister
      0100C6A4H   PUBLIC    CODE     ---       CLOCK_UART_GetDividerRegister
      0100A229H   PUBLIC    CODE     ---       _CLOCK_UART_SetDividerRegister
      00000007H   SYMBOL    DATA     BYTE      state

      0100A229H   BLOCK     CODE     ---       LVL=0
      0200002FH   SYMBOL    XDATA    WORD      clkDivider
      02000031H   SYMBOL    XDATA    BYTE      restart
      0100A234H   BLOCK     CODE     NEAR LAB  LVL=1
      02000032H   SYMBOL    XDATA    BYTE      enabled
      02000033H   SYMBOL    XDATA    BYTE      currSrc
      02000034H   SYMBOL    XDATA    WORD      oldDivider
      ---         BLOCKEND  ---      ---       LVL=1
      0100A229H   LINE      CODE     ---       #193
      0100A234H   LINE      CODE     ---       #195
      0100A234H   LINE      CODE     ---       #198
      0100A23CH   LINE      CODE     ---       #199
      0100A247H   LINE      CODE     ---       #201
      0100A259H   LINE      CODE     ---       #202
LX51 LINKER/LOCATER V4.64.0.0                                                         03/27/2019  09:25:09  PAGE 88


      0100A259H   LINE      CODE     ---       #203
      0100A263H   LINE      CODE     ---       #205
      0100A274H   LINE      CODE     ---       #206
      0100A274H   LINE      CODE     ---       #208
      0100A278H   LINE      CODE     ---       #209
      0100A278H   LINE      CODE     ---       #213
      0100A281H   LINE      CODE     ---       #214
      0100A288H   LINE      CODE     ---       #215
      0100A289H   LINE      CODE     ---       #217
      0100A289H   LINE      CODE     ---       #220
      0100A290H   LINE      CODE     ---       #221
      0100A2A1H   LINE      CODE     ---       #222
      0100A2A1H   LINE      CODE     ---       #223
      0100A2A2H   LINE      CODE     ---       #225
      0100A2A2H   LINE      CODE     ---       #227
      0100A2A8H   LINE      CODE     ---       #228
      0100A2A8H   LINE      CODE     ---       #229
      0100A2ADH   LINE      CODE     ---       #236
      0100A2B2H   LINE      CODE     ---       #237
      0100A2B7H   LINE      CODE     ---       #240
      0100A2BEH   LINE      CODE     ---       #243
      0100A2D0H   LINE      CODE     ---       #244
      0100A2D0H   LINE      CODE     ---       #246
      0100A2E1H   LINE      CODE     ---       #247
      0100A2E7H   LINE      CODE     ---       #250
      0100A2EFH   LINE      CODE     ---       #253
      0100A2F6H   LINE      CODE     ---       #257
      0100A2FBH   LINE      CODE     ---       #259
      0100A2FBH   LINE      CODE     ---       #260
      0100A2FBH   LINE      CODE     ---       #263
      0100A303H   LINE      CODE     ---       #264
      0100A303H   LINE      CODE     ---       #266
      0100A314H   LINE      CODE     ---       #268
      0100A327H   LINE      CODE     ---       #269
      0100A331H   LINE      CODE     ---       #270
      0100A332H   LINE      CODE     ---       #272
      0100A332H   LINE      CODE     ---       #274
      0100A343H   LINE      CODE     ---       #275
      0100A358H   LINE      CODE     ---       #276
      0100A358H   LINE      CODE     ---       #277
      0100A358H   LINE      CODE     ---       #278
      0100A358H   LINE      CODE     ---       #279
      ---         BLOCKEND  ---      ---       LVL=0

      0100C6A4H   BLOCK     CODE     ---       LVL=0
      0100C6A4H   LINE      CODE     ---       #297
      0100C6A4H   LINE      CODE     ---       #298
      0100C6A4H   LINE      CODE     ---       #299
      0100C6ADH   LINE      CODE     ---       #300
      ---         BLOCKEND  ---      ---       LVL=0
      00000007H   SYMBOL    DATA     BYTE      modeBitMask
      00000007H   SYMBOL    DATA     BYTE      modeBitMask
      00000007H   SYMBOL    DATA     BYTE      oldSrc

      0100C724H   BLOCK     CODE     ---       LVL=0
      0100C724H   LINE      CODE     ---       #464
      0100C724H   LINE      CODE     ---       #465
      0100C724H   LINE      CODE     ---       #466
      0100C72BH   LINE      CODE     ---       #467
      ---         BLOCKEND  ---      ---       LVL=0

      ---         MODULE    ---      ---       COUNTER_ENC
      02000E9AH   PUBLIC    XDATA    BYTE      COUNTER_ENC_initVar
      0100C620H   PUBLIC    CODE     ---       COUNTER_ENC_ClearFIFO
      0100C7B3H   PUBLIC    CODE     ---       _COUNTER_ENC_WriteCompare
LX51 LINKER/LOCATER V4.64.0.0                                                         03/27/2019  09:25:09  PAGE 89


      0100C7ADH   PUBLIC    CODE     ---       _COUNTER_ENC_WritePeriod
      0100C7A7H   PUBLIC    CODE     ---       COUNTER_ENC_ReadCapture
      0100C7A1H   PUBLIC    CODE     ---       _COUNTER_ENC_WriteCounter
      0100C79BH   PUBLIC    CODE     ---       COUNTER_ENC_ReadStatusRegister
      0100C795H   PUBLIC    CODE     ---       _COUNTER_ENC_SetInterruptMode
      0100C4B9H   PUBLIC    CODE     ---       COUNTER_ENC_Start
      0100C72CH   PUBLIC    CODE     ---       COUNTER_ENC_Enable
      0100BECAH   PUBLIC    CODE     ---       COUNTER_ENC_Init
      000000CAH   SFRSYM    DATA     BYTE      SFRPRT5SEL
      000000DAH   SFRSYM    DATA     BYTE      SFRPRT6SEL
      000000D0H.6 SFRSYM    DATA     BIT       AC
      000000A8H.7 SFRSYM    DATA     BIT       EA
      000000A8H   SFRSYM    DATA     BYTE      IE
      00000085H   SFRSYM    DATA     BYTE      DPH1
      00000084H   SFRSYM    DATA     BYTE      DPL1
      000000D0H.7 SFRSYM    DATA     BIT       CY
      000000A0H   SFRSYM    DATA     BYTE      P2AX
      00000095H   SFRSYM    DATA     BYTE      DPX1
      00000081H   SFRSYM    DATA     BYTE      SP
      000000D0H.2 SFRSYM    DATA     BIT       OV
      00000080H   SFRSYM    DATA     BYTE      SFRPRT0DR
      00000090H   SFRSYM    DATA     BYTE      SFRPRT1DR
      000000F2H   SFRSYM    DATA     BYTE      SFRPRT12SEL
      00000098H   SFRSYM    DATA     BYTE      SFRPRT2DR
      000000B0H   SFRSYM    DATA     BYTE      SFRPRT3DR
      000000C0H   SFRSYM    DATA     BYTE      SFRPRT4DR
      000000FAH   SFRSYM    DATA     BYTE      SFRPRT15SEL
      000000C8H   SFRSYM    DATA     BYTE      SFRPRT5DR
      000000D8H   SFRSYM    DATA     BYTE      SFRPRT6DR
      00000089H   SFRSYM    DATA     BYTE      SFRPRT0PS
      00000091H   SFRSYM    DATA     BYTE      SFRPRT1PS
      00000099H   SFRSYM    DATA     BYTE      SFRPRT2PS
      000000B1H   SFRSYM    DATA     BYTE      SFRPRT3PS
      000000C1H   SFRSYM    DATA     BYTE      SFRPRT4PS
      000000C9H   SFRSYM    DATA     BYTE      SFRPRT5PS
      000000D9H   SFRSYM    DATA     BYTE      SFRPRT6PS
      000000EAH   SFRSYM    DATA     BYTE      MXAX
      000000F0H   SFRSYM    DATA     BYTE      B
      000000E0H   SFRSYM    DATA     BYTE      ACC
      000000D0H   SFRSYM    DATA     BIT       P
      000000D0H.3 SFRSYM    DATA     BIT       RS0
      000000D0H.4 SFRSYM    DATA     BIT       RS1
      00000083H   SFRSYM    DATA     BYTE      DPH
      000000E8H   SFRSYM    DATA     BYTE      SFRPRT12DR
      00000082H   SFRSYM    DATA     BYTE      DPL
      000000F8H   SFRSYM    DATA     BYTE      SFRPRT15DR
      00000086H   SFRSYM    DATA     BYTE      DPS
      000000E9H   SFRSYM    DATA     BYTE      SFRPRT12PS
      00000093H   SFRSYM    DATA     BYTE      DPX
      000000F9H   SFRSYM    DATA     BYTE      SFRPRT15PS
      000000D0H.5 SFRSYM    DATA     BIT       F0
      000000D0H.1 SFRSYM    DATA     BIT       F1
      0000008AH   SFRSYM    DATA     BYTE      SFRPRT0SEL
      000000D0H   SFRSYM    DATA     BYTE      PSW
      000000A2H   SFRSYM    DATA     BYTE      SFRPRT1SEL
      0000009AH   SFRSYM    DATA     BYTE      SFRPRT2SEL
      000000B2H   SFRSYM    DATA     BYTE      SFRPRT3SEL
      000000C2H   SFRSYM    DATA     BYTE      SFRPRT4SEL

      0100BECAH   BLOCK     CODE     ---       LVL=0
      0100BECAH   BLOCK     CODE     NEAR LAB  LVL=1
      00000007H   SYMBOL    DATA     BYTE      ctrl
      00000007H   SYMBOL    DATA     BYTE      COUNTER_ENC_interruptState
      ---         BLOCKEND  ---      ---       LVL=1
      0100BECAH   LINE      CODE     ---       #37
LX51 LINKER/LOCATER V4.64.0.0                                                         03/27/2019  09:25:09  PAGE 90


      0100BECAH   LINE      CODE     ---       #38
      0100BECAH   LINE      CODE     ---       #79
      0100BED1H   LINE      CODE     ---       #80
      0100BED2H   LINE      CODE     ---       #83
      0100BED6H   LINE      CODE     ---       #88
      0100BED7H   LINE      CODE     ---       #96
      0100BEDAH   LINE      CODE     ---       #100
      0100BEDFH   LINE      CODE     ---       #102
      0100BEE4H   LINE      CODE     ---       #104
      0100BEE9H   LINE      CODE     ---       #108
      0100BEECH   LINE      CODE     ---       #110
      0100BEF1H   LINE      CODE     ---       #115
      0100BEF4H   LINE      CODE     ---       #117
      0100BEFBH   LINE      CODE     ---       #120
      0100BEFEH   LINE      CODE     ---       #123
      ---         BLOCKEND  ---      ---       LVL=0

      0100C72CH   BLOCK     CODE     ---       LVL=0
      0100C72CH   LINE      CODE     ---       #143
      0100C72CH   LINE      CODE     ---       #144
      0100C72CH   LINE      CODE     ---       #155
      0100C733H   LINE      CODE     ---       #158
      ---         BLOCKEND  ---      ---       LVL=0

      0100C4B9H   BLOCK     CODE     ---       LVL=0
      0100C4B9H   LINE      CODE     ---       #178
      0100C4B9H   LINE      CODE     ---       #179
      0100C4B9H   LINE      CODE     ---       #180
      0100C4BFH   LINE      CODE     ---       #181
      0100C4BFH   LINE      CODE     ---       #182
      0100C4C2H   LINE      CODE     ---       #184
      0100C4C8H   LINE      CODE     ---       #185
      0100C4C8H   LINE      CODE     ---       #188
      0100C4CBH   LINE      CODE     ---       #189
      ---         BLOCKEND  ---      ---       LVL=0

      0100C795H   BLOCK     CODE     ---       LVL=0
      00000007H   SYMBOL    DATA     BYTE      interruptsMask
      0100C795H   LINE      CODE     ---       #237
      0100C795H   LINE      CODE     ---       #238
      0100C795H   LINE      CODE     ---       #239
      0100C79AH   LINE      CODE     ---       #240
      ---         BLOCKEND  ---      ---       LVL=0

      0100C79BH   BLOCK     CODE     ---       LVL=0
      0100C79BH   LINE      CODE     ---       #261
      0100C79BH   LINE      CODE     ---       #262
      0100C79BH   LINE      CODE     ---       #263
      0100C7A0H   LINE      CODE     ---       #264
      ---         BLOCKEND  ---      ---       LVL=0
      00000007H   SYMBOL    DATA     BYTE      control

      0100C7A1H   BLOCK     CODE     ---       LVL=0
      00000007H   SYMBOL    DATA     BYTE      counter
      0100C7A1H   LINE      CODE     ---       #326
      0100C7A1H   LINE      CODE     ---       #328
      0100C7A1H   LINE      CODE     ---       #337
      0100C7A6H   LINE      CODE     ---       #339
      ---         BLOCKEND  ---      ---       LVL=0

      0100C7A7H   BLOCK     CODE     ---       LVL=0
      0100C7A7H   LINE      CODE     ---       #390
      0100C7A7H   LINE      CODE     ---       #391
      0100C7A7H   LINE      CODE     ---       #395
      0100C7ACH   LINE      CODE     ---       #397
LX51 LINKER/LOCATER V4.64.0.0                                                         03/27/2019  09:25:09  PAGE 91


      ---         BLOCKEND  ---      ---       LVL=0

      0100C7ADH   BLOCK     CODE     ---       LVL=0
      00000007H   SYMBOL    DATA     BYTE      period
      0100C7ADH   LINE      CODE     ---       #415
      0100C7ADH   LINE      CODE     ---       #416
      0100C7ADH   LINE      CODE     ---       #420
      0100C7B2H   LINE      CODE     ---       #422
      ---         BLOCKEND  ---      ---       LVL=0

      0100C7B3H   BLOCK     CODE     ---       LVL=0
      00000007H   SYMBOL    DATA     BYTE      compare
      0100C7B3H   LINE      CODE     ---       #465
      0100C7B3H   LINE      CODE     ---       #467
      0100C7B3H   LINE      CODE     ---       #471
      0100C7B8H   LINE      CODE     ---       #473
      ---         BLOCKEND  ---      ---       LVL=0

      0100C620H   BLOCK     CODE     ---       LVL=0
      0100C620H   LINE      CODE     ---       #558
      0100C620H   LINE      CODE     ---       #559
      0100C620H   LINE      CODE     ---       #561
      0100C627H   LINE      CODE     ---       #562
      0100C627H   LINE      CODE     ---       #563
      0100C62AH   LINE      CODE     ---       #564
      0100C62CH   LINE      CODE     ---       #566
      ---         BLOCKEND  ---      ---       LVL=0

      ---         MODULE    ---      ---       SHIFTREG_ENC_1
      02000E9BH   PUBLIC    XDATA    BYTE      SHIFTREG_ENC_1_initVar
      0100C6AEH   PUBLIC    CODE     ---       SHIFTREG_ENC_1_ReadData
      0100C562H   PUBLIC    CODE     ---       _SHIFTREG_ENC_1_SetIntMode
      0100C5BFH   PUBLIC    CODE     ---       SHIFTREG_ENC_1_EnableInt
      0100C7B9H   PUBLIC    CODE     ---       SHIFTREG_ENC_1_Init
      0100C684H   PUBLIC    CODE     ---       SHIFTREG_ENC_1_Enable
      0100C4CCH   PUBLIC    CODE     ---       SHIFTREG_ENC_1_Start
      000000CAH   SFRSYM    DATA     BYTE      SFRPRT5SEL
      000000DAH   SFRSYM    DATA     BYTE      SFRPRT6SEL
      000000D0H.6 SFRSYM    DATA     BIT       AC
      000000A8H.7 SFRSYM    DATA     BIT       EA
      000000A8H   SFRSYM    DATA     BYTE      IE
      00000085H   SFRSYM    DATA     BYTE      DPH1
      00000084H   SFRSYM    DATA     BYTE      DPL1
      000000D0H.7 SFRSYM    DATA     BIT       CY
      000000A0H   SFRSYM    DATA     BYTE      P2AX
      00000095H   SFRSYM    DATA     BYTE      DPX1
      00000081H   SFRSYM    DATA     BYTE      SP
      000000D0H.2 SFRSYM    DATA     BIT       OV
      00000080H   SFRSYM    DATA     BYTE      SFRPRT0DR
      00000090H   SFRSYM    DATA     BYTE      SFRPRT1DR
      000000F2H   SFRSYM    DATA     BYTE      SFRPRT12SEL
      00000098H   SFRSYM    DATA     BYTE      SFRPRT2DR
      000000B0H   SFRSYM    DATA     BYTE      SFRPRT3DR
      000000C0H   SFRSYM    DATA     BYTE      SFRPRT4DR
      000000FAH   SFRSYM    DATA     BYTE      SFRPRT15SEL
      000000C8H   SFRSYM    DATA     BYTE      SFRPRT5DR
      000000D8H   SFRSYM    DATA     BYTE      SFRPRT6DR
      00000089H   SFRSYM    DATA     BYTE      SFRPRT0PS
      00000091H   SFRSYM    DATA     BYTE      SFRPRT1PS
      00000099H   SFRSYM    DATA     BYTE      SFRPRT2PS
      000000B1H   SFRSYM    DATA     BYTE      SFRPRT3PS
      000000C1H   SFRSYM    DATA     BYTE      SFRPRT4PS
      000000C9H   SFRSYM    DATA     BYTE      SFRPRT5PS
      000000D9H   SFRSYM    DATA     BYTE      SFRPRT6PS
      000000EAH   SFRSYM    DATA     BYTE      MXAX
LX51 LINKER/LOCATER V4.64.0.0                                                         03/27/2019  09:25:09  PAGE 92


      000000F0H   SFRSYM    DATA     BYTE      B
      000000E0H   SFRSYM    DATA     BYTE      ACC
      000000D0H   SFRSYM    DATA     BIT       P
      000000D0H.3 SFRSYM    DATA     BIT       RS0
      000000D0H.4 SFRSYM    DATA     BIT       RS1
      00000083H   SFRSYM    DATA     BYTE      DPH
      000000E8H   SFRSYM    DATA     BYTE      SFRPRT12DR
      00000082H   SFRSYM    DATA     BYTE      DPL
      000000F8H   SFRSYM    DATA     BYTE      SFRPRT15DR
      00000086H   SFRSYM    DATA     BYTE      DPS
      000000E9H   SFRSYM    DATA     BYTE      SFRPRT12PS
      00000093H   SFRSYM    DATA     BYTE      DPX
      000000F9H   SFRSYM    DATA     BYTE      SFRPRT15PS
      000000D0H.5 SFRSYM    DATA     BIT       F0
      000000D0H.1 SFRSYM    DATA     BIT       F1
      0000008AH   SFRSYM    DATA     BYTE      SFRPRT0SEL
      000000D0H   SFRSYM    DATA     BYTE      PSW
      000000A2H   SFRSYM    DATA     BYTE      SFRPRT1SEL
      0000009AH   SFRSYM    DATA     BYTE      SFRPRT2SEL
      000000B2H   SFRSYM    DATA     BYTE      SFRPRT3SEL
      000000C2H   SFRSYM    DATA     BYTE      SFRPRT4SEL

      0100C4CCH   BLOCK     CODE     ---       LVL=0
      0100C4CCH   LINE      CODE     ---       #43
      0100C4CCH   LINE      CODE     ---       #44
      0100C4CCH   LINE      CODE     ---       #45
      0100C4D2H   LINE      CODE     ---       #46
      0100C4D2H   LINE      CODE     ---       #47
      0100C4D5H   LINE      CODE     ---       #48
      0100C4DBH   LINE      CODE     ---       #49
      0100C4DBH   LINE      CODE     ---       #51
      0100C4DEH   LINE      CODE     ---       #52
      ---         BLOCKEND  ---      ---       LVL=0

      0100C684H   BLOCK     CODE     ---       LVL=0
      0100C684H   LINE      CODE     ---       #69
      0100C684H   LINE      CODE     ---       #70
      0100C684H   LINE      CODE     ---       #73
      0100C68BH   LINE      CODE     ---       #75
      0100C68EH   LINE      CODE     ---       #76
      ---         BLOCKEND  ---      ---       LVL=0

      0100C7B9H   BLOCK     CODE     ---       LVL=0
      0100C7B9H   LINE      CODE     ---       #93
      0100C7B9H   LINE      CODE     ---       #94
      0100C7B9H   LINE      CODE     ---       #95
      0100C7BEH   LINE      CODE     ---       #96
      ---         BLOCKEND  ---      ---       LVL=0

      0100C5BFH   BLOCK     CODE     ---       LVL=0
      0100C5BFH   BLOCK     CODE     NEAR LAB  LVL=1
      00000007H   SYMBOL    DATA     BYTE      interruptState
      ---         BLOCKEND  ---      ---       LVL=1
      0100C5BFH   LINE      CODE     ---       #135
      0100C5BFH   LINE      CODE     ---       #136
      0100C5BFH   LINE      CODE     ---       #139
      0100C5C2H   LINE      CODE     ---       #140
      0100C5C9H   LINE      CODE     ---       #141
      0100C5CCH   LINE      CODE     ---       #142
      ---         BLOCKEND  ---      ---       LVL=0
      00000007H   SYMBOL    DATA     BYTE      interruptState
      00000007H   SYMBOL    DATA     BYTE      fifoId
      00000005H   SYMBOL    DATA     BYTE      result

      0100C562H   BLOCK     CODE     ---       LVL=0
LX51 LINKER/LOCATER V4.64.0.0                                                         03/27/2019  09:25:09  PAGE 93


      00000007H   SYMBOL    DATA     BYTE      interruptSource
      0100C562H   LINE      CODE     ---       #261
      0100C562H   LINE      CODE     ---       #262
      0100C562H   LINE      CODE     ---       #263
      0100C569H   LINE      CODE     ---       #264
      0100C572H   LINE      CODE     ---       #265
      ---         BLOCKEND  ---      ---       LVL=0
      00000004H   SYMBOL    DATA     DWORD     shiftData

      0100C6AEH   BLOCK     CODE     ---       LVL=0
      0100C6AEH   LINE      CODE     ---       #366
      0100C6AEH   LINE      CODE     ---       #367
      0100C6AEH   LINE      CODE     ---       #368
      0100C6B7H   LINE      CODE     ---       #369
      ---         BLOCKEND  ---      ---       LVL=0

      ---         MODULE    ---      ---       SHIFTREG_ENC_2
      02000E9CH   PUBLIC    XDATA    BYTE      SHIFTREG_ENC_2_initVar
      0100C6B8H   PUBLIC    CODE     ---       SHIFTREG_ENC_2_ReadData
      0100C573H   PUBLIC    CODE     ---       _SHIFTREG_ENC_2_SetIntMode
      0100C5CDH   PUBLIC    CODE     ---       SHIFTREG_ENC_2_EnableInt
      0100C7BFH   PUBLIC    CODE     ---       SHIFTREG_ENC_2_Init
      0100C68FH   PUBLIC    CODE     ---       SHIFTREG_ENC_2_Enable
      0100C4DFH   PUBLIC    CODE     ---       SHIFTREG_ENC_2_Start
      000000CAH   SFRSYM    DATA     BYTE      SFRPRT5SEL
      000000DAH   SFRSYM    DATA     BYTE      SFRPRT6SEL
      000000D0H.6 SFRSYM    DATA     BIT       AC
      000000A8H.7 SFRSYM    DATA     BIT       EA
      000000A8H   SFRSYM    DATA     BYTE      IE
      00000085H   SFRSYM    DATA     BYTE      DPH1
      00000084H   SFRSYM    DATA     BYTE      DPL1
      000000D0H.7 SFRSYM    DATA     BIT       CY
      000000A0H   SFRSYM    DATA     BYTE      P2AX
      00000095H   SFRSYM    DATA     BYTE      DPX1
      00000081H   SFRSYM    DATA     BYTE      SP
      000000D0H.2 SFRSYM    DATA     BIT       OV
      00000080H   SFRSYM    DATA     BYTE      SFRPRT0DR
      00000090H   SFRSYM    DATA     BYTE      SFRPRT1DR
      000000F2H   SFRSYM    DATA     BYTE      SFRPRT12SEL
      00000098H   SFRSYM    DATA     BYTE      SFRPRT2DR
      000000B0H   SFRSYM    DATA     BYTE      SFRPRT3DR
      000000C0H   SFRSYM    DATA     BYTE      SFRPRT4DR
      000000FAH   SFRSYM    DATA     BYTE      SFRPRT15SEL
      000000C8H   SFRSYM    DATA     BYTE      SFRPRT5DR
      000000D8H   SFRSYM    DATA     BYTE      SFRPRT6DR
      00000089H   SFRSYM    DATA     BYTE      SFRPRT0PS
      00000091H   SFRSYM    DATA     BYTE      SFRPRT1PS
      00000099H   SFRSYM    DATA     BYTE      SFRPRT2PS
      000000B1H   SFRSYM    DATA     BYTE      SFRPRT3PS
      000000C1H   SFRSYM    DATA     BYTE      SFRPRT4PS
      000000C9H   SFRSYM    DATA     BYTE      SFRPRT5PS
      000000D9H   SFRSYM    DATA     BYTE      SFRPRT6PS
      000000EAH   SFRSYM    DATA     BYTE      MXAX
      000000F0H   SFRSYM    DATA     BYTE      B
      000000E0H   SFRSYM    DATA     BYTE      ACC
      000000D0H   SFRSYM    DATA     BIT       P
      000000D0H.3 SFRSYM    DATA     BIT       RS0
      000000D0H.4 SFRSYM    DATA     BIT       RS1
      00000083H   SFRSYM    DATA     BYTE      DPH
      000000E8H   SFRSYM    DATA     BYTE      SFRPRT12DR
      00000082H   SFRSYM    DATA     BYTE      DPL
      000000F8H   SFRSYM    DATA     BYTE      SFRPRT15DR
      00000086H   SFRSYM    DATA     BYTE      DPS
      000000E9H   SFRSYM    DATA     BYTE      SFRPRT12PS
      00000093H   SFRSYM    DATA     BYTE      DPX
LX51 LINKER/LOCATER V4.64.0.0                                                         03/27/2019  09:25:09  PAGE 94


      000000F9H   SFRSYM    DATA     BYTE      SFRPRT15PS
      000000D0H.5 SFRSYM    DATA     BIT       F0
      000000D0H.1 SFRSYM    DATA     BIT       F1
      0000008AH   SFRSYM    DATA     BYTE      SFRPRT0SEL
      000000D0H   SFRSYM    DATA     BYTE      PSW
      000000A2H   SFRSYM    DATA     BYTE      SFRPRT1SEL
      0000009AH   SFRSYM    DATA     BYTE      SFRPRT2SEL
      000000B2H   SFRSYM    DATA     BYTE      SFRPRT3SEL
      000000C2H   SFRSYM    DATA     BYTE      SFRPRT4SEL

      0100C4DFH   BLOCK     CODE     ---       LVL=0
      0100C4DFH   LINE      CODE     ---       #43
      0100C4DFH   LINE      CODE     ---       #44
      0100C4DFH   LINE      CODE     ---       #45
      0100C4E5H   LINE      CODE     ---       #46
      0100C4E5H   LINE      CODE     ---       #47
      0100C4E8H   LINE      CODE     ---       #48
      0100C4EEH   LINE      CODE     ---       #49
      0100C4EEH   LINE      CODE     ---       #51
      0100C4F1H   LINE      CODE     ---       #52
      ---         BLOCKEND  ---      ---       LVL=0

      0100C68FH   BLOCK     CODE     ---       LVL=0
      0100C68FH   LINE      CODE     ---       #69
      0100C68FH   LINE      CODE     ---       #70
      0100C68FH   LINE      CODE     ---       #73
      0100C696H   LINE      CODE     ---       #75
      0100C699H   LINE      CODE     ---       #76
      ---         BLOCKEND  ---      ---       LVL=0

      0100C7BFH   BLOCK     CODE     ---       LVL=0
      0100C7BFH   LINE      CODE     ---       #93
      0100C7BFH   LINE      CODE     ---       #94
      0100C7BFH   LINE      CODE     ---       #95
      0100C7C4H   LINE      CODE     ---       #96
      ---         BLOCKEND  ---      ---       LVL=0

      0100C5CDH   BLOCK     CODE     ---       LVL=0
      0100C5CDH   BLOCK     CODE     NEAR LAB  LVL=1
      00000007H   SYMBOL    DATA     BYTE      interruptState
      ---         BLOCKEND  ---      ---       LVL=1
      0100C5CDH   LINE      CODE     ---       #135
      0100C5CDH   LINE      CODE     ---       #136
      0100C5CDH   LINE      CODE     ---       #139
      0100C5D0H   LINE      CODE     ---       #140
      0100C5D7H   LINE      CODE     ---       #141
      0100C5DAH   LINE      CODE     ---       #142
      ---         BLOCKEND  ---      ---       LVL=0
      00000007H   SYMBOL    DATA     BYTE      interruptState
      00000007H   SYMBOL    DATA     BYTE      fifoId
      00000005H   SYMBOL    DATA     BYTE      result

      0100C573H   BLOCK     CODE     ---       LVL=0
      00000007H   SYMBOL    DATA     BYTE      interruptSource
      0100C573H   LINE      CODE     ---       #261
      0100C573H   LINE      CODE     ---       #262
      0100C573H   LINE      CODE     ---       #263
      0100C57AH   LINE      CODE     ---       #264
      0100C583H   LINE      CODE     ---       #265
      ---         BLOCKEND  ---      ---       LVL=0
      00000004H   SYMBOL    DATA     DWORD     shiftData

      0100C6B8H   BLOCK     CODE     ---       LVL=0
      0100C6B8H   LINE      CODE     ---       #366
      0100C6B8H   LINE      CODE     ---       #367
LX51 LINKER/LOCATER V4.64.0.0                                                         03/27/2019  09:25:09  PAGE 95


      0100C6B8H   LINE      CODE     ---       #368
      0100C6C1H   LINE      CODE     ---       #369
      ---         BLOCKEND  ---      ---       LVL=0

      ---         MODULE    ---      ---       SHIFTREG_ENC_3
      02000E9DH   PUBLIC    XDATA    BYTE      SHIFTREG_ENC_3_initVar
      0100C6C2H   PUBLIC    CODE     ---       SHIFTREG_ENC_3_ReadData
      000000CAH   SFRSYM    DATA     BYTE      SFRPRT5SEL
      000000DAH   SFRSYM    DATA     BYTE      SFRPRT6SEL
      000000D0H.6 SFRSYM    DATA     BIT       AC
      000000A8H.7 SFRSYM    DATA     BIT       EA
      000000A8H   SFRSYM    DATA     BYTE      IE
      00000085H   SFRSYM    DATA     BYTE      DPH1
      00000084H   SFRSYM    DATA     BYTE      DPL1
      000000D0H.7 SFRSYM    DATA     BIT       CY
      000000A0H   SFRSYM    DATA     BYTE      P2AX
      00000095H   SFRSYM    DATA     BYTE      DPX1
      00000081H   SFRSYM    DATA     BYTE      SP
      000000D0H.2 SFRSYM    DATA     BIT       OV
      00000080H   SFRSYM    DATA     BYTE      SFRPRT0DR
      00000090H   SFRSYM    DATA     BYTE      SFRPRT1DR
      000000F2H   SFRSYM    DATA     BYTE      SFRPRT12SEL
      00000098H   SFRSYM    DATA     BYTE      SFRPRT2DR
      000000B0H   SFRSYM    DATA     BYTE      SFRPRT3DR
      000000C0H   SFRSYM    DATA     BYTE      SFRPRT4DR
      000000FAH   SFRSYM    DATA     BYTE      SFRPRT15SEL
      000000C8H   SFRSYM    DATA     BYTE      SFRPRT5DR
      000000D8H   SFRSYM    DATA     BYTE      SFRPRT6DR
      00000089H   SFRSYM    DATA     BYTE      SFRPRT0PS
      00000091H   SFRSYM    DATA     BYTE      SFRPRT1PS
      00000099H   SFRSYM    DATA     BYTE      SFRPRT2PS
      000000B1H   SFRSYM    DATA     BYTE      SFRPRT3PS
      000000C1H   SFRSYM    DATA     BYTE      SFRPRT4PS
      000000C9H   SFRSYM    DATA     BYTE      SFRPRT5PS
      000000D9H   SFRSYM    DATA     BYTE      SFRPRT6PS
      000000EAH   SFRSYM    DATA     BYTE      MXAX
      000000F0H   SFRSYM    DATA     BYTE      B
      000000E0H   SFRSYM    DATA     BYTE      ACC
      000000D0H   SFRSYM    DATA     BIT       P
      000000D0H.3 SFRSYM    DATA     BIT       RS0
      000000D0H.4 SFRSYM    DATA     BIT       RS1
      00000083H   SFRSYM    DATA     BYTE      DPH
      000000E8H   SFRSYM    DATA     BYTE      SFRPRT12DR
      00000082H   SFRSYM    DATA     BYTE      DPL
      000000F8H   SFRSYM    DATA     BYTE      SFRPRT15DR
      00000086H   SFRSYM    DATA     BYTE      DPS
      000000E9H   SFRSYM    DATA     BYTE      SFRPRT12PS
      00000093H   SFRSYM    DATA     BYTE      DPX
      000000F9H   SFRSYM    DATA     BYTE      SFRPRT15PS
      000000D0H.5 SFRSYM    DATA     BIT       F0
      000000D0H.1 SFRSYM    DATA     BIT       F1
      0000008AH   SFRSYM    DATA     BYTE      SFRPRT0SEL
      000000D0H   SFRSYM    DATA     BYTE      PSW
      000000A2H   SFRSYM    DATA     BYTE      SFRPRT1SEL
      0000009AH   SFRSYM    DATA     BYTE      SFRPRT2SEL
      000000B2H   SFRSYM    DATA     BYTE      SFRPRT3SEL
      000000C2H   SFRSYM    DATA     BYTE      SFRPRT4SEL
      00000007H   SYMBOL    DATA     BYTE      interruptState
      00000007H   SYMBOL    DATA     BYTE      interruptState
      00000007H   SYMBOL    DATA     BYTE      fifoId
      00000005H   SYMBOL    DATA     BYTE      result
      00000007H   SYMBOL    DATA     BYTE      interruptSource
      00000004H   SYMBOL    DATA     DWORD     shiftData

      0100C6C2H   BLOCK     CODE     ---       LVL=0
LX51 LINKER/LOCATER V4.64.0.0                                                         03/27/2019  09:25:09  PAGE 96


      0100C6C2H   LINE      CODE     ---       #366
      0100C6C2H   LINE      CODE     ---       #367
      0100C6C2H   LINE      CODE     ---       #368
      0100C6CBH   LINE      CODE     ---       #369
      ---         BLOCKEND  ---      ---       LVL=0

      ---         MODULE    ---      ---       EEPROM
      0100ABE3H   PUBLIC    CODE     ---       _EEPROM_Write
      0100C81DH   PUBLIC    CODE     ---       EEPROM_UpdateTemperature
      0100C819H   PUBLIC    CODE     ---       EEPROM_Start
      0100C762H   PUBLIC    CODE     ---       EEPROM_Enable
      000000CAH   SFRSYM    DATA     BYTE      SFRPRT5SEL
      000000DAH   SFRSYM    DATA     BYTE      SFRPRT6SEL
      000000D0H.6 SFRSYM    DATA     BIT       AC
      000000A8H.7 SFRSYM    DATA     BIT       EA
      000000A8H   SFRSYM    DATA     BYTE      IE
      00000085H   SFRSYM    DATA     BYTE      DPH1
      00000084H   SFRSYM    DATA     BYTE      DPL1
      000000D0H.7 SFRSYM    DATA     BIT       CY
      000000A0H   SFRSYM    DATA     BYTE      P2AX
      00000095H   SFRSYM    DATA     BYTE      DPX1
      00000081H   SFRSYM    DATA     BYTE      SP
      000000D0H.2 SFRSYM    DATA     BIT       OV
      00000080H   SFRSYM    DATA     BYTE      SFRPRT0DR
      00000090H   SFRSYM    DATA     BYTE      SFRPRT1DR
      000000F2H   SFRSYM    DATA     BYTE      SFRPRT12SEL
      00000098H   SFRSYM    DATA     BYTE      SFRPRT2DR
      000000B0H   SFRSYM    DATA     BYTE      SFRPRT3DR
      000000C0H   SFRSYM    DATA     BYTE      SFRPRT4DR
      000000FAH   SFRSYM    DATA     BYTE      SFRPRT15SEL
      000000C8H   SFRSYM    DATA     BYTE      SFRPRT5DR
      000000D8H   SFRSYM    DATA     BYTE      SFRPRT6DR
      00000089H   SFRSYM    DATA     BYTE      SFRPRT0PS
      00000091H   SFRSYM    DATA     BYTE      SFRPRT1PS
      00000099H   SFRSYM    DATA     BYTE      SFRPRT2PS
      000000B1H   SFRSYM    DATA     BYTE      SFRPRT3PS
      000000C1H   SFRSYM    DATA     BYTE      SFRPRT4PS
      000000C9H   SFRSYM    DATA     BYTE      SFRPRT5PS
      000000D9H   SFRSYM    DATA     BYTE      SFRPRT6PS
      000000EAH   SFRSYM    DATA     BYTE      MXAX
      000000F0H   SFRSYM    DATA     BYTE      B
      000000E0H   SFRSYM    DATA     BYTE      ACC
      000000D0H   SFRSYM    DATA     BIT       P
      000000D0H.3 SFRSYM    DATA     BIT       RS0
      000000D0H.4 SFRSYM    DATA     BIT       RS1
      00000083H   SFRSYM    DATA     BYTE      DPH
      000000E8H   SFRSYM    DATA     BYTE      SFRPRT12DR
      00000082H   SFRSYM    DATA     BYTE      DPL
      000000F8H   SFRSYM    DATA     BYTE      SFRPRT15DR
      00000086H   SFRSYM    DATA     BYTE      DPS
      000000E9H   SFRSYM    DATA     BYTE      SFRPRT12PS
      00000093H   SFRSYM    DATA     BYTE      DPX
      000000F9H   SFRSYM    DATA     BYTE      SFRPRT15PS
      000000D0H.5 SFRSYM    DATA     BIT       F0
      000000D0H.1 SFRSYM    DATA     BIT       F1
      0000008AH   SFRSYM    DATA     BYTE      SFRPRT0SEL
      000000D0H   SFRSYM    DATA     BYTE      PSW
      000000A2H   SFRSYM    DATA     BYTE      SFRPRT1SEL
      0000009AH   SFRSYM    DATA     BYTE      SFRPRT2SEL
      000000B2H   SFRSYM    DATA     BYTE      SFRPRT3SEL
      000000C2H   SFRSYM    DATA     BYTE      SFRPRT4SEL

      0100C762H   BLOCK     CODE     ---       LVL=0
      0100C762H   LINE      CODE     ---       #33
      0100C762H   LINE      CODE     ---       #34
LX51 LINKER/LOCATER V4.64.0.0                                                         03/27/2019  09:25:09  PAGE 97


      0100C762H   LINE      CODE     ---       #36
      0100C765H   LINE      CODE     ---       #39
      0100C768H   LINE      CODE     ---       #40
      ---         BLOCKEND  ---      ---       LVL=0

      0100C819H   BLOCK     CODE     ---       LVL=0
      0100C819H   LINE      CODE     ---       #57
      0100C819H   LINE      CODE     ---       #58
      0100C819H   LINE      CODE     ---       #59
      0100C81CH   LINE      CODE     ---       #60
      ---         BLOCKEND  ---      ---       LVL=0

      0100C81DH   BLOCK     CODE     ---       LVL=0
      0100C81DH   LINE      CODE     ---       #247
      0100C81DH   LINE      CODE     ---       #248
      0100C81DH   LINE      CODE     ---       #249
      0100C820H   LINE      CODE     ---       #250
      ---         BLOCKEND  ---      ---       LVL=0

      0100ABE3H   BLOCK     CODE     ---       LVL=0
      02000036H   SYMBOL    XDATA    ---       rowData
      02000039H   SYMBOL    XDATA    BYTE      rowNumber
      0100ABF1H   BLOCK     CODE     NEAR LAB  LVL=1
      0200003AH   SYMBOL    XDATA    BYTE      status
      ---         BLOCKEND  ---      ---       LVL=1
      0100ABE3H   LINE      CODE     ---       #345
      0100ABF1H   LINE      CODE     ---       #346
      0100ABF1H   LINE      CODE     ---       #349
      0100ABF4H   LINE      CODE     ---       #351
      0100AC00H   LINE      CODE     ---       #352
      0100AC00H   LINE      CODE     ---       #354
      0100AC09H   LINE      CODE     ---       #355
      0100AC09H   LINE      CODE     ---       #357
      0100AC0FH   LINE      CODE     ---       #360
      0100AC2DH   LINE      CODE     ---       #361
      0100AC2DH   LINE      CODE     ---       #362
      0100AC35H   LINE      CODE     ---       #363
      0100AC35H   LINE      CODE     ---       #365
      0100AC35H   LINE      CODE     ---       #368
      0100AC4BH   LINE      CODE     ---       #369
      0100AC4BH   LINE      CODE     ---       #370
      0100AC4FH   LINE      CODE     ---       #371
      0100AC4FH   LINE      CODE     ---       #374
      0100AC55H   LINE      CODE     ---       #375
      0100AC55H   LINE      CODE     ---       #376
      0100AC71H   LINE      CODE     ---       #378
      0100AC71H   LINE      CODE     ---       #380
      0100AC77H   LINE      CODE     ---       #382
      0100AC7FH   LINE      CODE     ---       #383
      0100AC7FH   LINE      CODE     ---       #385
      0100AC7FH   LINE      CODE     ---       #388
      0100AC95H   LINE      CODE     ---       #389
      0100AC95H   LINE      CODE     ---       #390
      0100AC99H   LINE      CODE     ---       #391
      0100AC99H   LINE      CODE     ---       #392
      0100AC9BH   LINE      CODE     ---       #394
      0100AC9BH   LINE      CODE     ---       #395
      0100ACA1H   LINE      CODE     ---       #396
      0100ACA1H   LINE      CODE     ---       #397
      0100ACA3H   LINE      CODE     ---       #399
      0100ACA3H   LINE      CODE     ---       #400
      0100ACA9H   LINE      CODE     ---       #401
      0100ACA9H   LINE      CODE     ---       #402
      0100ACA9H   LINE      CODE     ---       #405
      0100ACACH   LINE      CODE     ---       #406
LX51 LINKER/LOCATER V4.64.0.0                                                         03/27/2019  09:25:09  PAGE 98


      0100ACAEH   LINE      CODE     ---       #408
      0100ACAEH   LINE      CODE     ---       #409
      0100ACB4H   LINE      CODE     ---       #410
      0100ACB4H   LINE      CODE     ---       #411
      0100ACB6H   LINE      CODE     ---       #413
      0100ACB6H   LINE      CODE     ---       #414
      0100ACBCH   LINE      CODE     ---       #415
      0100ACBCH   LINE      CODE     ---       #417
      0100ACC1H   LINE      CODE     ---       #418
      ---         BLOCKEND  ---      ---       LVL=0

      ---         MODULE    ---      ---       SHIFTREG_ENC_4
      02000E9EH   PUBLIC    XDATA    BYTE      SHIFTREG_ENC_4_initVar
      0100C6CCH   PUBLIC    CODE     ---       SHIFTREG_ENC_4_ReadData
      000000CAH   SFRSYM    DATA     BYTE      SFRPRT5SEL
      000000DAH   SFRSYM    DATA     BYTE      SFRPRT6SEL
      000000D0H.6 SFRSYM    DATA     BIT       AC
      000000A8H.7 SFRSYM    DATA     BIT       EA
      000000A8H   SFRSYM    DATA     BYTE      IE
      00000085H   SFRSYM    DATA     BYTE      DPH1
      00000084H   SFRSYM    DATA     BYTE      DPL1
      000000D0H.7 SFRSYM    DATA     BIT       CY
      000000A0H   SFRSYM    DATA     BYTE      P2AX
      00000095H   SFRSYM    DATA     BYTE      DPX1
      00000081H   SFRSYM    DATA     BYTE      SP
      000000D0H.2 SFRSYM    DATA     BIT       OV
      00000080H   SFRSYM    DATA     BYTE      SFRPRT0DR
      00000090H   SFRSYM    DATA     BYTE      SFRPRT1DR
      000000F2H   SFRSYM    DATA     BYTE      SFRPRT12SEL
      00000098H   SFRSYM    DATA     BYTE      SFRPRT2DR
      000000B0H   SFRSYM    DATA     BYTE      SFRPRT3DR
      000000C0H   SFRSYM    DATA     BYTE      SFRPRT4DR
      000000FAH   SFRSYM    DATA     BYTE      SFRPRT15SEL
      000000C8H   SFRSYM    DATA     BYTE      SFRPRT5DR
      000000D8H   SFRSYM    DATA     BYTE      SFRPRT6DR
      00000089H   SFRSYM    DATA     BYTE      SFRPRT0PS
      00000091H   SFRSYM    DATA     BYTE      SFRPRT1PS
      00000099H   SFRSYM    DATA     BYTE      SFRPRT2PS
      000000B1H   SFRSYM    DATA     BYTE      SFRPRT3PS
      000000C1H   SFRSYM    DATA     BYTE      SFRPRT4PS
      000000C9H   SFRSYM    DATA     BYTE      SFRPRT5PS
      000000D9H   SFRSYM    DATA     BYTE      SFRPRT6PS
      000000EAH   SFRSYM    DATA     BYTE      MXAX
      000000F0H   SFRSYM    DATA     BYTE      B
      000000E0H   SFRSYM    DATA     BYTE      ACC
      000000D0H   SFRSYM    DATA     BIT       P
      000000D0H.3 SFRSYM    DATA     BIT       RS0
      000000D0H.4 SFRSYM    DATA     BIT       RS1
      00000083H   SFRSYM    DATA     BYTE      DPH
      000000E8H   SFRSYM    DATA     BYTE      SFRPRT12DR
      00000082H   SFRSYM    DATA     BYTE      DPL
      000000F8H   SFRSYM    DATA     BYTE      SFRPRT15DR
      00000086H   SFRSYM    DATA     BYTE      DPS
      000000E9H   SFRSYM    DATA     BYTE      SFRPRT12PS
      00000093H   SFRSYM    DATA     BYTE      DPX
      000000F9H   SFRSYM    DATA     BYTE      SFRPRT15PS
      000000D0H.5 SFRSYM    DATA     BIT       F0
      000000D0H.1 SFRSYM    DATA     BIT       F1
      0000008AH   SFRSYM    DATA     BYTE      SFRPRT0SEL
      000000D0H   SFRSYM    DATA     BYTE      PSW
      000000A2H   SFRSYM    DATA     BYTE      SFRPRT1SEL
      0000009AH   SFRSYM    DATA     BYTE      SFRPRT2SEL
      000000B2H   SFRSYM    DATA     BYTE      SFRPRT3SEL
      000000C2H   SFRSYM    DATA     BYTE      SFRPRT4SEL
      00000007H   SYMBOL    DATA     BYTE      interruptState
LX51 LINKER/LOCATER V4.64.0.0                                                         03/27/2019  09:25:09  PAGE 99


      00000007H   SYMBOL    DATA     BYTE      interruptState
      00000007H   SYMBOL    DATA     BYTE      fifoId
      00000005H   SYMBOL    DATA     BYTE      result
      00000007H   SYMBOL    DATA     BYTE      interruptSource
      00000004H   SYMBOL    DATA     DWORD     shiftData

      0100C6CCH   BLOCK     CODE     ---       LVL=0
      0100C6CCH   LINE      CODE     ---       #366
      0100C6CCH   LINE      CODE     ---       #367
      0100C6CCH   LINE      CODE     ---       #368
      0100C6D5H   LINE      CODE     ---       #369
      ---         BLOCKEND  ---      ---       LVL=0

      ---         MODULE    ---      ---       RS485_CTS
      0100C7C5H   PUBLIC    CODE     ---       _RS485_CTS_Write

      0100C7C5H   BLOCK     CODE     ---       LVL=0
      00000007H   SYMBOL    DATA     BYTE      control
      0100C7C5H   LINE      CODE     ---       #37
      0100C7C5H   LINE      CODE     ---       #38
      0100C7C5H   LINE      CODE     ---       #39
      0100C7CAH   LINE      CODE     ---       #40
      ---         BLOCKEND  ---      ---       LVL=0

      ---         MODULE    ---      ---       MOTOR_ON_OFF
      0100C7CBH   PUBLIC    CODE     ---       _MOTOR_ON_OFF_Write

      0100C7CBH   BLOCK     CODE     ---       LVL=0
      00000007H   SYMBOL    DATA     BYTE      control
      0100C7CBH   LINE      CODE     ---       #37
      0100C7CBH   LINE      CODE     ---       #38
      0100C7CBH   LINE      CODE     ---       #39
      0100C7D0H   LINE      CODE     ---       #40
      ---         BLOCKEND  ---      ---       LVL=0

      ---         MODULE    ---      ---       BOOTLOADABLE
      0100C6D6H   PUBLIC    CODE     ---       Bootloadable_Load
      000000CAH   SFRSYM    DATA     BYTE      SFRPRT5SEL
      000000DAH   SFRSYM    DATA     BYTE      SFRPRT6SEL
      000000D0H.6 SFRSYM    DATA     BIT       AC
      000000A8H.7 SFRSYM    DATA     BIT       EA
      000000A8H   SFRSYM    DATA     BYTE      IE
      00000085H   SFRSYM    DATA     BYTE      DPH1
      00000084H   SFRSYM    DATA     BYTE      DPL1
      000000D0H.7 SFRSYM    DATA     BIT       CY
      000000A0H   SFRSYM    DATA     BYTE      P2AX
      00000095H   SFRSYM    DATA     BYTE      DPX1
      00000081H   SFRSYM    DATA     BYTE      SP
      000000D0H.2 SFRSYM    DATA     BIT       OV
      00000080H   SFRSYM    DATA     BYTE      SFRPRT0DR
      00000090H   SFRSYM    DATA     BYTE      SFRPRT1DR
      000000F2H   SFRSYM    DATA     BYTE      SFRPRT12SEL
      00000098H   SFRSYM    DATA     BYTE      SFRPRT2DR
      000000B0H   SFRSYM    DATA     BYTE      SFRPRT3DR
      000000C0H   SFRSYM    DATA     BYTE      SFRPRT4DR
      000000FAH   SFRSYM    DATA     BYTE      SFRPRT15SEL
      000000C8H   SFRSYM    DATA     BYTE      SFRPRT5DR
      000000D8H   SFRSYM    DATA     BYTE      SFRPRT6DR
      00000089H   SFRSYM    DATA     BYTE      SFRPRT0PS
      00000091H   SFRSYM    DATA     BYTE      SFRPRT1PS
      00000099H   SFRSYM    DATA     BYTE      SFRPRT2PS
      000000B1H   SFRSYM    DATA     BYTE      SFRPRT3PS
      000000C1H   SFRSYM    DATA     BYTE      SFRPRT4PS
      000000C9H   SFRSYM    DATA     BYTE      SFRPRT5PS
      000000D9H   SFRSYM    DATA     BYTE      SFRPRT6PS
LX51 LINKER/LOCATER V4.64.0.0                                                         03/27/2019  09:25:09  PAGE 100


      000000EAH   SFRSYM    DATA     BYTE      MXAX
      000000F0H   SFRSYM    DATA     BYTE      B
      000000E0H   SFRSYM    DATA     BYTE      ACC
      000000D0H   SFRSYM    DATA     BIT       P
      000000D0H.3 SFRSYM    DATA     BIT       RS0
      000000D0H.4 SFRSYM    DATA     BIT       RS1
      00000083H   SFRSYM    DATA     BYTE      DPH
      000000E8H   SFRSYM    DATA     BYTE      SFRPRT12DR
      00000082H   SFRSYM    DATA     BYTE      DPL
      000000F8H   SFRSYM    DATA     BYTE      SFRPRT15DR
      00000086H   SFRSYM    DATA     BYTE      DPS
      000000E9H   SFRSYM    DATA     BYTE      SFRPRT12PS
      00000093H   SFRSYM    DATA     BYTE      DPX
      000000F9H   SFRSYM    DATA     BYTE      SFRPRT15PS
      000000D0H.5 SFRSYM    DATA     BIT       F0
      000000D0H.1 SFRSYM    DATA     BIT       F1
      0000008AH   SFRSYM    DATA     BYTE      SFRPRT0SEL
      000000D0H   SFRSYM    DATA     BYTE      PSW
      000000A2H   SFRSYM    DATA     BYTE      SFRPRT1SEL
      0000009AH   SFRSYM    DATA     BYTE      SFRPRT2SEL
      000000B2H   SFRSYM    DATA     BYTE      SFRPRT3SEL
      000000C2H   SFRSYM    DATA     BYTE      SFRPRT4SEL

      0100C6D6H   BLOCK     CODE     ---       LVL=0
      0100C6D6H   LINE      CODE     ---       #41
      0100C6D6H   LINE      CODE     ---       #42
      0100C6D6H   LINE      CODE     ---       #44
      0100C6DCH   LINE      CODE     ---       #46
      0100C6DFH   LINE      CODE     ---       #47
      ---         BLOCKEND  ---      ---       LVL=0
      00000002H   SYMBOL    DATA     WORD      idx

      ---         MODULE    ---      ---       MY_TIMER
      02000E9FH   PUBLIC    XDATA    BYTE      MY_TIMER_initVar
      0100C62DH   PUBLIC    CODE     ---       MY_TIMER_ClearFIFO
      0100C584H   PUBLIC    CODE     ---       MY_TIMER_ReadCounter
      0100C6F4H   PUBLIC    CODE     ---       _MY_TIMER_WriteCounter
      0100C6EAH   PUBLIC    CODE     ---       MY_TIMER_ReadCapture
      0100C6E0H   PUBLIC    CODE     ---       _MY_TIMER_WritePeriod
      0100C7D7H   PUBLIC    CODE     ---       MY_TIMER_ReadStatusRegister
      0100C7D1H   PUBLIC    CODE     ---       _MY_TIMER_SetInterruptMode
      0100C4F2H   PUBLIC    CODE     ---       MY_TIMER_Start
      0100C734H   PUBLIC    CODE     ---       MY_TIMER_Enable
      0100C155H   PUBLIC    CODE     ---       MY_TIMER_Init
      000000CAH   SFRSYM    DATA     BYTE      SFRPRT5SEL
      000000DAH   SFRSYM    DATA     BYTE      SFRPRT6SEL
      000000D0H.6 SFRSYM    DATA     BIT       AC
      000000A8H.7 SFRSYM    DATA     BIT       EA
      000000A8H   SFRSYM    DATA     BYTE      IE
      00000085H   SFRSYM    DATA     BYTE      DPH1
      00000084H   SFRSYM    DATA     BYTE      DPL1
      000000D0H.7 SFRSYM    DATA     BIT       CY
      000000A0H   SFRSYM    DATA     BYTE      P2AX
      00000095H   SFRSYM    DATA     BYTE      DPX1
      00000081H   SFRSYM    DATA     BYTE      SP
      000000D0H.2 SFRSYM    DATA     BIT       OV
      00000080H   SFRSYM    DATA     BYTE      SFRPRT0DR
      00000090H   SFRSYM    DATA     BYTE      SFRPRT1DR
      000000F2H   SFRSYM    DATA     BYTE      SFRPRT12SEL
      00000098H   SFRSYM    DATA     BYTE      SFRPRT2DR
      000000B0H   SFRSYM    DATA     BYTE      SFRPRT3DR
      000000C0H   SFRSYM    DATA     BYTE      SFRPRT4DR
      000000FAH   SFRSYM    DATA     BYTE      SFRPRT15SEL
      000000C8H   SFRSYM    DATA     BYTE      SFRPRT5DR
      000000D8H   SFRSYM    DATA     BYTE      SFRPRT6DR
LX51 LINKER/LOCATER V4.64.0.0                                                         03/27/2019  09:25:09  PAGE 101


      00000089H   SFRSYM    DATA     BYTE      SFRPRT0PS
      00000091H   SFRSYM    DATA     BYTE      SFRPRT1PS
      00000099H   SFRSYM    DATA     BYTE      SFRPRT2PS
      000000B1H   SFRSYM    DATA     BYTE      SFRPRT3PS
      000000C1H   SFRSYM    DATA     BYTE      SFRPRT4PS
      000000C9H   SFRSYM    DATA     BYTE      SFRPRT5PS
      000000D9H   SFRSYM    DATA     BYTE      SFRPRT6PS
      000000EAH   SFRSYM    DATA     BYTE      MXAX
      000000F0H   SFRSYM    DATA     BYTE      B
      000000E0H   SFRSYM    DATA     BYTE      ACC
      000000D0H   SFRSYM    DATA     BIT       P
      000000D0H.3 SFRSYM    DATA     BIT       RS0
      000000D0H.4 SFRSYM    DATA     BIT       RS1
      00000083H   SFRSYM    DATA     BYTE      DPH
      000000E8H   SFRSYM    DATA     BYTE      SFRPRT12DR
      00000082H   SFRSYM    DATA     BYTE      DPL
      000000F8H   SFRSYM    DATA     BYTE      SFRPRT15DR
      00000086H   SFRSYM    DATA     BYTE      DPS
      000000E9H   SFRSYM    DATA     BYTE      SFRPRT12PS
      00000093H   SFRSYM    DATA     BYTE      DPX
      000000F9H   SFRSYM    DATA     BYTE      SFRPRT15PS
      000000D0H.5 SFRSYM    DATA     BIT       F0
      000000D0H.1 SFRSYM    DATA     BIT       F1
      0000008AH   SFRSYM    DATA     BYTE      SFRPRT0SEL
      000000D0H   SFRSYM    DATA     BYTE      PSW
      000000A2H   SFRSYM    DATA     BYTE      SFRPRT1SEL
      0000009AH   SFRSYM    DATA     BYTE      SFRPRT2SEL
      000000B2H   SFRSYM    DATA     BYTE      SFRPRT3SEL
      000000C2H   SFRSYM    DATA     BYTE      SFRPRT4SEL

      0100C155H   BLOCK     CODE     ---       LVL=0
      0100C155H   BLOCK     CODE     NEAR LAB  LVL=1
      00000007H   SYMBOL    DATA     BYTE      MY_TIMER_interruptState
      ---         BLOCKEND  ---      ---       LVL=1
      0100C155H   LINE      CODE     ---       #43
      0100C155H   LINE      CODE     ---       #44
      0100C155H   LINE      CODE     ---       #118
      0100C160H   LINE      CODE     ---       #119
      0100C16BH   LINE      CODE     ---       #142
      0100C16EH   LINE      CODE     ---       #145
      0100C175H   LINE      CODE     ---       #148
      0100C178H   LINE      CODE     ---       #159
      0100C17BH   LINE      CODE     ---       #162
      0100C180H   LINE      CODE     ---       #163
      ---         BLOCKEND  ---      ---       LVL=0

      0100C734H   BLOCK     CODE     ---       LVL=0
      0100C734H   LINE      CODE     ---       #180
      0100C734H   LINE      CODE     ---       #181
      0100C734H   LINE      CODE     ---       #190
      0100C73BH   LINE      CODE     ---       #192
      ---         BLOCKEND  ---      ---       LVL=0

      0100C4F2H   BLOCK     CODE     ---       LVL=0
      0100C4F2H   LINE      CODE     ---       #215
      0100C4F2H   LINE      CODE     ---       #216
      0100C4F2H   LINE      CODE     ---       #217
      0100C4F8H   LINE      CODE     ---       #218
      0100C4F8H   LINE      CODE     ---       #219
      0100C4FBH   LINE      CODE     ---       #221
      0100C501H   LINE      CODE     ---       #222
      0100C501H   LINE      CODE     ---       #225
      0100C504H   LINE      CODE     ---       #226
      ---         BLOCKEND  ---      ---       LVL=0

LX51 LINKER/LOCATER V4.64.0.0                                                         03/27/2019  09:25:09  PAGE 102


      0100C7D1H   BLOCK     CODE     ---       LVL=0
      00000007H   SYMBOL    DATA     BYTE      interruptMode
      0100C7D1H   LINE      CODE     ---       #279
      0100C7D1H   LINE      CODE     ---       #280
      0100C7D1H   LINE      CODE     ---       #281
      0100C7D6H   LINE      CODE     ---       #282
      ---         BLOCKEND  ---      ---       LVL=0

      0100C7D7H   BLOCK     CODE     ---       LVL=0
      0100C7D7H   LINE      CODE     ---       #333
      0100C7D7H   LINE      CODE     ---       #334
      0100C7D7H   LINE      CODE     ---       #335
      0100C7DCH   LINE      CODE     ---       #336
      ---         BLOCKEND  ---      ---       LVL=0
      00000007H   SYMBOL    DATA     BYTE      control

      0100C6E0H   BLOCK     CODE     ---       LVL=0
      00000004H   SYMBOL    DATA     DWORD     period
      0100C6E0H   LINE      CODE     ---       #431
      0100C6E0H   LINE      CODE     ---       #432
      0100C6E0H   LINE      CODE     ---       #437
      0100C6E9H   LINE      CODE     ---       #439
      ---         BLOCKEND  ---      ---       LVL=0

      0100C6EAH   BLOCK     CODE     ---       LVL=0
      0100C6EAH   LINE      CODE     ---       #456
      0100C6EAH   LINE      CODE     ---       #457
      0100C6EAH   LINE      CODE     ---       #461
      0100C6F3H   LINE      CODE     ---       #463
      ---         BLOCKEND  ---      ---       LVL=0

      0100C6F4H   BLOCK     CODE     ---       LVL=0
      00000004H   SYMBOL    DATA     DWORD     counter
      0100C6F4H   LINE      CODE     ---       #480
      0100C6F4H   LINE      CODE     ---       #481
      0100C6F4H   LINE      CODE     ---       #489
      0100C6FDH   LINE      CODE     ---       #491
      ---         BLOCKEND  ---      ---       LVL=0

      0100C584H   BLOCK     CODE     ---       LVL=0
      0100C584H   LINE      CODE     ---       #508
      0100C584H   LINE      CODE     ---       #509
      0100C584H   LINE      CODE     ---       #516
      0100C589H   LINE      CODE     ---       #523
      0100C592H   LINE      CODE     ---       #525
      ---         BLOCKEND  ---      ---       LVL=0

      0100C62DH   BLOCK     CODE     ---       LVL=0
      0100C62DH   LINE      CODE     ---       #763
      0100C62DH   LINE      CODE     ---       #764
      0100C62DH   LINE      CODE     ---       #765
      0100C634H   LINE      CODE     ---       #766
      0100C634H   LINE      CODE     ---       #767
      0100C637H   LINE      CODE     ---       #768
      0100C639H   LINE      CODE     ---       #769
      ---         BLOCKEND  ---      ---       LVL=0

      ---         MODULE    ---      ---       FTDI_ENABLE_REG
      0100C7DDH   PUBLIC    CODE     ---       _FTDI_ENABLE_REG_Write

      0100C7DDH   BLOCK     CODE     ---       LVL=0
      00000007H   SYMBOL    DATA     BYTE      control
      0100C7DDH   LINE      CODE     ---       #37
      0100C7DDH   LINE      CODE     ---       #38
      0100C7DDH   LINE      CODE     ---       #39
LX51 LINKER/LOCATER V4.64.0.0                                                         03/27/2019  09:25:09  PAGE 103


      0100C7E2H   LINE      CODE     ---       #40
      ---         BLOCKEND  ---      ---       LVL=0

      ---         MODULE    ---      ---       PACER_TIMER
      02000EA0H   PUBLIC    XDATA    BYTE      PACER_TIMER_initVar
      0100C5E9H   PUBLIC    CODE     ---       _PACER_TIMER_WriteCounter
      0100C5DBH   PUBLIC    CODE     ---       _PACER_TIMER_WritePeriod
      0100C7E3H   PUBLIC    CODE     ---       _PACER_TIMER_SetInterruptMode
      0100C505H   PUBLIC    CODE     ---       PACER_TIMER_Start
      0100C414H   PUBLIC    CODE     ---       PACER_TIMER_Enable
      0100BE20H   PUBLIC    CODE     ---       PACER_TIMER_Init
      000000CAH   SFRSYM    DATA     BYTE      SFRPRT5SEL
      000000DAH   SFRSYM    DATA     BYTE      SFRPRT6SEL
      000000D0H.6 SFRSYM    DATA     BIT       AC
      000000A8H.7 SFRSYM    DATA     BIT       EA
      000000A8H   SFRSYM    DATA     BYTE      IE
      00000085H   SFRSYM    DATA     BYTE      DPH1
      00000084H   SFRSYM    DATA     BYTE      DPL1
      000000D0H.7 SFRSYM    DATA     BIT       CY
      000000A0H   SFRSYM    DATA     BYTE      P2AX
      00000095H   SFRSYM    DATA     BYTE      DPX1
      00000081H   SFRSYM    DATA     BYTE      SP
      000000D0H.2 SFRSYM    DATA     BIT       OV
      00000080H   SFRSYM    DATA     BYTE      SFRPRT0DR
      00000090H   SFRSYM    DATA     BYTE      SFRPRT1DR
      000000F2H   SFRSYM    DATA     BYTE      SFRPRT12SEL
      00000098H   SFRSYM    DATA     BYTE      SFRPRT2DR
      000000B0H   SFRSYM    DATA     BYTE      SFRPRT3DR
      000000C0H   SFRSYM    DATA     BYTE      SFRPRT4DR
      000000FAH   SFRSYM    DATA     BYTE      SFRPRT15SEL
      000000C8H   SFRSYM    DATA     BYTE      SFRPRT5DR
      000000D8H   SFRSYM    DATA     BYTE      SFRPRT6DR
      00000089H   SFRSYM    DATA     BYTE      SFRPRT0PS
      00000091H   SFRSYM    DATA     BYTE      SFRPRT1PS
      00000099H   SFRSYM    DATA     BYTE      SFRPRT2PS
      000000B1H   SFRSYM    DATA     BYTE      SFRPRT3PS
      000000C1H   SFRSYM    DATA     BYTE      SFRPRT4PS
      000000C9H   SFRSYM    DATA     BYTE      SFRPRT5PS
      000000D9H   SFRSYM    DATA     BYTE      SFRPRT6PS
      000000EAH   SFRSYM    DATA     BYTE      MXAX
      000000F0H   SFRSYM    DATA     BYTE      B
      000000E0H   SFRSYM    DATA     BYTE      ACC
      000000D0H   SFRSYM    DATA     BIT       P
      000000D0H.3 SFRSYM    DATA     BIT       RS0
      000000D0H.4 SFRSYM    DATA     BIT       RS1
      00000083H   SFRSYM    DATA     BYTE      DPH
      000000E8H   SFRSYM    DATA     BYTE      SFRPRT12DR
      00000082H   SFRSYM    DATA     BYTE      DPL
      000000F8H   SFRSYM    DATA     BYTE      SFRPRT15DR
      00000086H   SFRSYM    DATA     BYTE      DPS
      000000E9H   SFRSYM    DATA     BYTE      SFRPRT12PS
      00000093H   SFRSYM    DATA     BYTE      DPX
      000000F9H   SFRSYM    DATA     BYTE      SFRPRT15PS
      000000D0H.5 SFRSYM    DATA     BIT       F0
      000000D0H.1 SFRSYM    DATA     BIT       F1
      0000008AH   SFRSYM    DATA     BYTE      SFRPRT0SEL
      000000D0H   SFRSYM    DATA     BYTE      PSW
      000000A2H   SFRSYM    DATA     BYTE      SFRPRT1SEL
      0000009AH   SFRSYM    DATA     BYTE      SFRPRT2SEL
      000000B2H   SFRSYM    DATA     BYTE      SFRPRT3SEL
      000000C2H   SFRSYM    DATA     BYTE      SFRPRT4SEL

      0100BE20H   BLOCK     CODE     ---       LVL=0
      0100BE20H   LINE      CODE     ---       #43
      0100BE20H   LINE      CODE     ---       #44
LX51 LINKER/LOCATER V4.64.0.0                                                         03/27/2019  09:25:09  PAGE 104


      0100BE20H   LINE      CODE     ---       #52
      0100BE27H   LINE      CODE     ---       #60
      0100BE2EH   LINE      CODE     ---       #106
      0100BE35H   LINE      CODE     ---       #107
      0100BE39H   LINE      CODE     ---       #110
      0100BE3DH   LINE      CODE     ---       #111
      0100BE41H   LINE      CODE     ---       #114
      0100BE48H   LINE      CODE     ---       #118
      0100BE4FH   LINE      CODE     ---       #119
      0100BE56H   LINE      CODE     ---       #162
      0100BE5BH   LINE      CODE     ---       #163
      ---         BLOCKEND  ---      ---       LVL=0

      0100C414H   BLOCK     CODE     ---       LVL=0
      0100C414H   LINE      CODE     ---       #180
      0100C414H   LINE      CODE     ---       #181
      0100C414H   LINE      CODE     ---       #184
      0100C41BH   LINE      CODE     ---       #185
      0100C422H   LINE      CODE     ---       #190
      0100C429H   LINE      CODE     ---       #192
      ---         BLOCKEND  ---      ---       LVL=0

      0100C505H   BLOCK     CODE     ---       LVL=0
      0100C505H   LINE      CODE     ---       #215
      0100C505H   LINE      CODE     ---       #216
      0100C505H   LINE      CODE     ---       #217
      0100C50BH   LINE      CODE     ---       #218
      0100C50BH   LINE      CODE     ---       #219
      0100C50EH   LINE      CODE     ---       #221
      0100C514H   LINE      CODE     ---       #222
      0100C514H   LINE      CODE     ---       #225
      0100C517H   LINE      CODE     ---       #226
      ---         BLOCKEND  ---      ---       LVL=0

      0100C7E3H   BLOCK     CODE     ---       LVL=0
      00000007H   SYMBOL    DATA     BYTE      interruptMode
      0100C7E3H   LINE      CODE     ---       #279
      0100C7E3H   LINE      CODE     ---       #280
      0100C7E3H   LINE      CODE     ---       #281
      0100C7E8H   LINE      CODE     ---       #282
      ---         BLOCKEND  ---      ---       LVL=0
      00000007H   SYMBOL    DATA     BYTE      control

      0100C5DBH   BLOCK     CODE     ---       LVL=0
      00000006H   SYMBOL    DATA     WORD      period
      0100C5DBH   BLOCK     CODE     NEAR LAB  LVL=1
      00000006H   SYMBOL    DATA     WORD      period_temp
      ---         BLOCKEND  ---      ---       LVL=1
      0100C5DBH   LINE      CODE     ---       #431
      0100C5DBH   LINE      CODE     ---       #432
      0100C5DBH   LINE      CODE     ---       #434
      0100C5DBH   LINE      CODE     ---       #435
      0100C5E8H   LINE      CODE     ---       #439
      ---         BLOCKEND  ---      ---       LVL=0

      0100C5E9H   BLOCK     CODE     ---       LVL=0
      00000006H   SYMBOL    DATA     WORD      counter
      0100C5E9H   LINE      CODE     ---       #480
      0100C5E9H   LINE      CODE     ---       #481
      0100C5E9H   LINE      CODE     ---       #486
      0100C5F6H   LINE      CODE     ---       #491
      ---         BLOCKEND  ---      ---       LVL=0

      ---         MODULE    ---      ---       FF_STATUS
      0100C7E9H   PUBLIC    CODE     ---       FF_STATUS_Read
LX51 LINKER/LOCATER V4.64.0.0                                                         03/27/2019  09:25:09  PAGE 105


      000000CAH   SFRSYM    DATA     BYTE      SFRPRT5SEL
      000000DAH   SFRSYM    DATA     BYTE      SFRPRT6SEL
      000000D0H.6 SFRSYM    DATA     BIT       AC
      000000A8H.7 SFRSYM    DATA     BIT       EA
      000000A8H   SFRSYM    DATA     BYTE      IE
      00000085H   SFRSYM    DATA     BYTE      DPH1
      00000084H   SFRSYM    DATA     BYTE      DPL1
      000000D0H.7 SFRSYM    DATA     BIT       CY
      000000A0H   SFRSYM    DATA     BYTE      P2AX
      00000095H   SFRSYM    DATA     BYTE      DPX1
      00000081H   SFRSYM    DATA     BYTE      SP
      000000D0H.2 SFRSYM    DATA     BIT       OV
      00000080H   SFRSYM    DATA     BYTE      SFRPRT0DR
      00000090H   SFRSYM    DATA     BYTE      SFRPRT1DR
      000000F2H   SFRSYM    DATA     BYTE      SFRPRT12SEL
      00000098H   SFRSYM    DATA     BYTE      SFRPRT2DR
      000000B0H   SFRSYM    DATA     BYTE      SFRPRT3DR
      000000C0H   SFRSYM    DATA     BYTE      SFRPRT4DR
      000000FAH   SFRSYM    DATA     BYTE      SFRPRT15SEL
      000000C8H   SFRSYM    DATA     BYTE      SFRPRT5DR
      000000D8H   SFRSYM    DATA     BYTE      SFRPRT6DR
      00000089H   SFRSYM    DATA     BYTE      SFRPRT0PS
      00000091H   SFRSYM    DATA     BYTE      SFRPRT1PS
      00000099H   SFRSYM    DATA     BYTE      SFRPRT2PS
      000000B1H   SFRSYM    DATA     BYTE      SFRPRT3PS
      000000C1H   SFRSYM    DATA     BYTE      SFRPRT4PS
      000000C9H   SFRSYM    DATA     BYTE      SFRPRT5PS
      000000D9H   SFRSYM    DATA     BYTE      SFRPRT6PS
      000000EAH   SFRSYM    DATA     BYTE      MXAX
      000000F0H   SFRSYM    DATA     BYTE      B
      000000E0H   SFRSYM    DATA     BYTE      ACC
      000000D0H   SFRSYM    DATA     BIT       P
      000000D0H.3 SFRSYM    DATA     BIT       RS0
      000000D0H.4 SFRSYM    DATA     BIT       RS1
      00000083H   SFRSYM    DATA     BYTE      DPH
      000000E8H   SFRSYM    DATA     BYTE      SFRPRT12DR
      00000082H   SFRSYM    DATA     BYTE      DPL
      000000F8H   SFRSYM    DATA     BYTE      SFRPRT15DR
      00000086H   SFRSYM    DATA     BYTE      DPS
      000000E9H   SFRSYM    DATA     BYTE      SFRPRT12PS
      00000093H   SFRSYM    DATA     BYTE      DPX
      000000F9H   SFRSYM    DATA     BYTE      SFRPRT15PS
      000000D0H.5 SFRSYM    DATA     BIT       F0
      000000D0H.1 SFRSYM    DATA     BIT       F1
      0000008AH   SFRSYM    DATA     BYTE      SFRPRT0SEL
      000000D0H   SFRSYM    DATA     BYTE      PSW
      000000A2H   SFRSYM    DATA     BYTE      SFRPRT1SEL
      0000009AH   SFRSYM    DATA     BYTE      SFRPRT2SEL
      000000B2H   SFRSYM    DATA     BYTE      SFRPRT3SEL
      000000C2H   SFRSYM    DATA     BYTE      SFRPRT4SEL

      0100C7E9H   BLOCK     CODE     ---       LVL=0
      0100C7E9H   LINE      CODE     ---       #37
      0100C7E9H   LINE      CODE     ---       #38
      0100C7E9H   LINE      CODE     ---       #39
      0100C7EEH   LINE      CODE     ---       #40
      ---         BLOCKEND  ---      ---       LVL=0
      00000007H   SYMBOL    DATA     BYTE      interruptState
      00000007H   SYMBOL    DATA     BYTE      interruptState
      00000007H   SYMBOL    DATA     BYTE      mask

      ---         MODULE    ---      ---       RESET_FF
      0100C7EFH   PUBLIC    CODE     ---       _RESET_FF_Write

      0100C7EFH   BLOCK     CODE     ---       LVL=0
LX51 LINKER/LOCATER V4.64.0.0                                                         03/27/2019  09:25:09  PAGE 106


      00000007H   SYMBOL    DATA     BYTE      control
      0100C7EFH   LINE      CODE     ---       #37
      0100C7EFH   LINE      CODE     ---       #38
      0100C7EFH   LINE      CODE     ---       #39
      0100C7F4H   LINE      CODE     ---       #40
      ---         BLOCKEND  ---      ---       LVL=0

      ---         MODULE    ---      ---       MOTOR_DIR
      0100C7F5H   PUBLIC    CODE     ---       _MOTOR_DIR_Write

      0100C7F5H   BLOCK     CODE     ---       LVL=0
      00000007H   SYMBOL    DATA     BYTE      control
      0100C7F5H   LINE      CODE     ---       #37
      0100C7F5H   LINE      CODE     ---       #38
      0100C7F5H   LINE      CODE     ---       #39
      0100C7FAH   LINE      CODE     ---       #40
      ---         BLOCKEND  ---      ---       LVL=0

      ---         MODULE    ---      ---       ADC_STATUS
      0100C7FBH   PUBLIC    CODE     ---       ADC_STATUS_Read
      000000CAH   SFRSYM    DATA     BYTE      SFRPRT5SEL
      000000DAH   SFRSYM    DATA     BYTE      SFRPRT6SEL
      000000D0H.6 SFRSYM    DATA     BIT       AC
      000000A8H.7 SFRSYM    DATA     BIT       EA
      000000A8H   SFRSYM    DATA     BYTE      IE
      00000085H   SFRSYM    DATA     BYTE      DPH1
      00000084H   SFRSYM    DATA     BYTE      DPL1
      000000D0H.7 SFRSYM    DATA     BIT       CY
      000000A0H   SFRSYM    DATA     BYTE      P2AX
      00000095H   SFRSYM    DATA     BYTE      DPX1
      00000081H   SFRSYM    DATA     BYTE      SP
      000000D0H.2 SFRSYM    DATA     BIT       OV
      00000080H   SFRSYM    DATA     BYTE      SFRPRT0DR
      00000090H   SFRSYM    DATA     BYTE      SFRPRT1DR
      000000F2H   SFRSYM    DATA     BYTE      SFRPRT12SEL
      00000098H   SFRSYM    DATA     BYTE      SFRPRT2DR
      000000B0H   SFRSYM    DATA     BYTE      SFRPRT3DR
      000000C0H   SFRSYM    DATA     BYTE      SFRPRT4DR
      000000FAH   SFRSYM    DATA     BYTE      SFRPRT15SEL
      000000C8H   SFRSYM    DATA     BYTE      SFRPRT5DR
      000000D8H   SFRSYM    DATA     BYTE      SFRPRT6DR
      00000089H   SFRSYM    DATA     BYTE      SFRPRT0PS
      00000091H   SFRSYM    DATA     BYTE      SFRPRT1PS
      00000099H   SFRSYM    DATA     BYTE      SFRPRT2PS
      000000B1H   SFRSYM    DATA     BYTE      SFRPRT3PS
      000000C1H   SFRSYM    DATA     BYTE      SFRPRT4PS
      000000C9H   SFRSYM    DATA     BYTE      SFRPRT5PS
      000000D9H   SFRSYM    DATA     BYTE      SFRPRT6PS
      000000EAH   SFRSYM    DATA     BYTE      MXAX
      000000F0H   SFRSYM    DATA     BYTE      B
      000000E0H   SFRSYM    DATA     BYTE      ACC
      000000D0H   SFRSYM    DATA     BIT       P
      000000D0H.3 SFRSYM    DATA     BIT       RS0
      000000D0H.4 SFRSYM    DATA     BIT       RS1
      00000083H   SFRSYM    DATA     BYTE      DPH
      000000E8H   SFRSYM    DATA     BYTE      SFRPRT12DR
      00000082H   SFRSYM    DATA     BYTE      DPL
      000000F8H   SFRSYM    DATA     BYTE      SFRPRT15DR
      00000086H   SFRSYM    DATA     BYTE      DPS
      000000E9H   SFRSYM    DATA     BYTE      SFRPRT12PS
      00000093H   SFRSYM    DATA     BYTE      DPX
      000000F9H   SFRSYM    DATA     BYTE      SFRPRT15PS
      000000D0H.5 SFRSYM    DATA     BIT       F0
      000000D0H.1 SFRSYM    DATA     BIT       F1
      0000008AH   SFRSYM    DATA     BYTE      SFRPRT0SEL
LX51 LINKER/LOCATER V4.64.0.0                                                         03/27/2019  09:25:09  PAGE 107


      000000D0H   SFRSYM    DATA     BYTE      PSW
      000000A2H   SFRSYM    DATA     BYTE      SFRPRT1SEL
      0000009AH   SFRSYM    DATA     BYTE      SFRPRT2SEL
      000000B2H   SFRSYM    DATA     BYTE      SFRPRT3SEL
      000000C2H   SFRSYM    DATA     BYTE      SFRPRT4SEL

      0100C7FBH   BLOCK     CODE     ---       LVL=0
      0100C7FBH   LINE      CODE     ---       #37
      0100C7FBH   LINE      CODE     ---       #38
      0100C7FBH   LINE      CODE     ---       #39
      0100C800H   LINE      CODE     ---       #40
      ---         BLOCKEND  ---      ---       LVL=0
      00000007H   SYMBOL    DATA     BYTE      interruptState
      00000007H   SYMBOL    DATA     BYTE      interruptState
      00000007H   SYMBOL    DATA     BYTE      mask

      ---         MODULE    ---      ---       ADC
      02000E75H   PUBLIC    XDATA    LONG      ADC_CountsPerVolt
      02000E74H   PUBLIC    XDATA    BYTE      ADC_convDone
      02000E70H   PUBLIC    XDATA    BYTE      ADC_started
      02000E6FH   PUBLIC    XDATA    BYTE      ADC_stopConversion
      02000E6BH   PUBLIC    XDATA    LONG      ADC_Offset
      02000E6AH   PUBLIC    XDATA    BYTE      ADC_initVar
      02000E69H   PUBLIC    XDATA    BYTE      ADC_Config
      0100C36BH   PUBLIC    CODE     ---       ADC_Start
      0100B1EFH   PUBLIC    CODE     ---       ADC_Enable
      0100AD74H   PUBLIC    CODE     ---       ADC_Init
      000000CAH   SFRSYM    DATA     BYTE      SFRPRT5SEL
      000000DAH   SFRSYM    DATA     BYTE      SFRPRT6SEL
      000000D0H.6 SFRSYM    DATA     BIT       AC
      000000A8H.7 SFRSYM    DATA     BIT       EA
      000000A8H   SFRSYM    DATA     BYTE      IE
      00000085H   SFRSYM    DATA     BYTE      DPH1
      00000084H   SFRSYM    DATA     BYTE      DPL1
      000000D0H.7 SFRSYM    DATA     BIT       CY
      000000A0H   SFRSYM    DATA     BYTE      P2AX
      00000095H   SFRSYM    DATA     BYTE      DPX1
      00000081H   SFRSYM    DATA     BYTE      SP
      000000D0H.2 SFRSYM    DATA     BIT       OV
      00000080H   SFRSYM    DATA     BYTE      SFRPRT0DR
      00000090H   SFRSYM    DATA     BYTE      SFRPRT1DR
      000000F2H   SFRSYM    DATA     BYTE      SFRPRT12SEL
      00000098H   SFRSYM    DATA     BYTE      SFRPRT2DR
      000000B0H   SFRSYM    DATA     BYTE      SFRPRT3DR
      000000C0H   SFRSYM    DATA     BYTE      SFRPRT4DR
      000000FAH   SFRSYM    DATA     BYTE      SFRPRT15SEL
      000000C8H   SFRSYM    DATA     BYTE      SFRPRT5DR
      000000D8H   SFRSYM    DATA     BYTE      SFRPRT6DR
      00000089H   SFRSYM    DATA     BYTE      SFRPRT0PS
      00000091H   SFRSYM    DATA     BYTE      SFRPRT1PS
      00000099H   SFRSYM    DATA     BYTE      SFRPRT2PS
      000000B1H   SFRSYM    DATA     BYTE      SFRPRT3PS
      000000C1H   SFRSYM    DATA     BYTE      SFRPRT4PS
      000000C9H   SFRSYM    DATA     BYTE      SFRPRT5PS
      000000D9H   SFRSYM    DATA     BYTE      SFRPRT6PS
      000000EAH   SFRSYM    DATA     BYTE      MXAX
      000000F0H   SFRSYM    DATA     BYTE      B
      000000E0H   SFRSYM    DATA     BYTE      ACC
      000000D0H   SFRSYM    DATA     BIT       P
      000000D0H.3 SFRSYM    DATA     BIT       RS0
      000000D0H.4 SFRSYM    DATA     BIT       RS1
      00000083H   SFRSYM    DATA     BYTE      DPH
      000000E8H   SFRSYM    DATA     BYTE      SFRPRT12DR
      00000082H   SFRSYM    DATA     BYTE      DPL
      000000F8H   SFRSYM    DATA     BYTE      SFRPRT15DR
LX51 LINKER/LOCATER V4.64.0.0                                                         03/27/2019  09:25:09  PAGE 108


      00000086H   SFRSYM    DATA     BYTE      DPS
      000000E9H   SFRSYM    DATA     BYTE      SFRPRT12PS
      00000093H   SFRSYM    DATA     BYTE      DPX
      000000F9H   SFRSYM    DATA     BYTE      SFRPRT15PS
      000000D0H.5 SFRSYM    DATA     BIT       F0
      000000D0H.1 SFRSYM    DATA     BIT       F1
      0000008AH   SFRSYM    DATA     BYTE      SFRPRT0SEL
      000000D0H   SFRSYM    DATA     BYTE      PSW
      000000A2H   SFRSYM    DATA     BYTE      SFRPRT1SEL
      0000009AH   SFRSYM    DATA     BYTE      SFRPRT2SEL
      000000B2H   SFRSYM    DATA     BYTE      SFRPRT3SEL
      000000C2H   SFRSYM    DATA     BYTE      SFRPRT4SEL
      0100AED6H   SYMBOL    CODE     ---       _ADC_InitConfig
      010099E5H   SYMBOL    CODE     ---       _ADC_GainCompensation
      0100BDE3H   SYMBOL    CODE     ---       _ADC_SetDSMRef0Reg
      02000E71H   SYMBOL    XDATA    ---       ADC_gcor

      0100AD74H   BLOCK     CODE     ---       LVL=0
      0100AD74H   LINE      CODE     ---       #91
      0100AD74H   LINE      CODE     ---       #92
      0100AD74H   LINE      CODE     ---       #94
      0100AD7AH   LINE      CODE     ---       #95
      0100AD7FH   LINE      CODE     ---       #97
      0100AD84H   LINE      CODE     ---       #101
      0100AD89H   LINE      CODE     ---       #106
      0100AD90H   LINE      CODE     ---       #110
      0100AD96H   LINE      CODE     ---       #111
      0100AD99H   LINE      CODE     ---       #112
      0100AD9DH   LINE      CODE     ---       #113
      0100ADA4H   LINE      CODE     ---       #114
      0100ADA9H   LINE      CODE     ---       #116
      0100ADADH   LINE      CODE     ---       #117
      0100ADAFH   LINE      CODE     ---       #119
      0100ADB5H   LINE      CODE     ---       #120
      0100ADB8H   LINE      CODE     ---       #124
      0100ADBCH   LINE      CODE     ---       #126
      0100ADC2H   LINE      CODE     ---       #127
      0100ADC5H   LINE      CODE     ---       #128
      0100ADCAH   LINE      CODE     ---       #130
      0100ADD0H   LINE      CODE     ---       #133
      0100ADE7H   LINE      CODE     ---       #161
      0100ADFDH   LINE      CODE     ---       #162
      0100AE1CH   LINE      CODE     ---       #165
      0100AE24H   LINE      CODE     ---       #166
      ---         BLOCKEND  ---      ---       LVL=0

      0100B1EFH   BLOCK     CODE     ---       LVL=0
      0100B1EFH   BLOCK     CODE     NEAR LAB  LVL=1
      02000003H   SYMBOL    XDATA    BYTE      config
      02000004H   SYMBOL    XDATA    BYTE      enableInterrupts
      ---         BLOCKEND  ---      ---       LVL=1
      0100B1EFH   LINE      CODE     ---       #184
      0100B1EFH   LINE      CODE     ---       #185
      0100B1EFH   LINE      CODE     ---       #188
      0100B1F7H   LINE      CODE     ---       #191
      0100B1FFH   LINE      CODE     ---       #194
      0100B206H   LINE      CODE     ---       #195
      0100B20AH   LINE      CODE     ---       #198
      0100B211H   LINE      CODE     ---       #199
      0100B215H   LINE      CODE     ---       #202
      0100B21CH   LINE      CODE     ---       #203
      0100B221H   LINE      CODE     ---       #205
      0100B228H   LINE      CODE     ---       #265
      0100B228H   LINE      CODE     ---       #266
      0100B228H   LINE      CODE     ---       #268
LX51 LINKER/LOCATER V4.64.0.0                                                         03/27/2019  09:25:09  PAGE 109


      0100B228H   LINE      CODE     ---       #271
      0100B22FH   LINE      CODE     ---       #274
      0100B236H   LINE      CODE     ---       #275
      0100B23BH   LINE      CODE     ---       #278
      0100B242H   LINE      CODE     ---       #281
      0100B248H   LINE      CODE     ---       #285
      0100B24FH   LINE      CODE     ---       #286
      0100B256H   LINE      CODE     ---       #290
      0100B25DH   LINE      CODE     ---       #291
      0100B264H   LINE      CODE     ---       #295
      0100B26AH   LINE      CODE     ---       #297
      0100B26EH   LINE      CODE     ---       #300
      0100B276H   LINE      CODE     ---       #302
      ---         BLOCKEND  ---      ---       LVL=0

      0100C36BH   BLOCK     CODE     ---       LVL=0
      0100C36BH   LINE      CODE     ---       #329
      0100C36BH   LINE      CODE     ---       #330
      0100C36BH   LINE      CODE     ---       #331
      0100C371H   LINE      CODE     ---       #332
      0100C371H   LINE      CODE     ---       #333
      0100C377H   LINE      CODE     ---       #334
      0100C377H   LINE      CODE     ---       #335
      0100C37AH   LINE      CODE     ---       #336
      0100C37AH   LINE      CODE     ---       #337
      0100C380H   LINE      CODE     ---       #338
      0100C380H   LINE      CODE     ---       #341
      0100C383H   LINE      CODE     ---       #342
      ---         BLOCKEND  ---      ---       LVL=0
      00000007H   SYMBOL    DATA     BYTE      gain
      00000006H   SYMBOL    DATA     BYTE      tmpReg
      00000007H   SYMBOL    DATA     BYTE      coherency
      00000006H   SYMBOL    DATA     BYTE      tmpReg
      00000004H   SYMBOL    DATA     WORD      gcorValue
      00000007H   SYMBOL    DATA     BYTE      retMode
      00000006H   SYMBOL    DATA     BYTE      status
      00000006H   SYMBOL    DATA     CHAR      result
      00000007H   SYMBOL    DATA     BYTE      coherency
      00000004H   SYMBOL    DATA     LONG      offset
      00000004H   SYMBOL    DATA     LONG      adcGain
      00000006H   SYMBOL    DATA     INT       mVolts
      00000004H   SYMBOL    DATA     FLOAT     Volts
      00000004H   SYMBOL    DATA     LONG      uVolts

      0100AED6H   BLOCK     CODE     ---       LVL=0
      00000007H   SYMBOL    DATA     BYTE      config
      0100AED6H   LINE      CODE     ---       #1242
      0100AED6H   LINE      CODE     ---       #1243
      0100AED6H   LINE      CODE     ---       #1244
      0100AEDBH   LINE      CODE     ---       #1246
      0100AEE3H   LINE      CODE     ---       #1247
      0100AEE3H   LINE      CODE     ---       #1249
      0100AEE9H   LINE      CODE     ---       #1250
      0100AEEFH   LINE      CODE     ---       #1251
      0100AEF3H   LINE      CODE     ---       #1252
      0100AEF6H   LINE      CODE     ---       #1253
      0100AEF8H   LINE      CODE     ---       #1254
      0100AEFCH   LINE      CODE     ---       #1255
      0100AF01H   LINE      CODE     ---       #1256
      0100AF03H   LINE      CODE     ---       #1257
      0100AF05H   LINE      CODE     ---       #1258
      0100AF0AH   LINE      CODE     ---       #1260
      0100AF10H   LINE      CODE     ---       #1261
      0100AF14H   LINE      CODE     ---       #1262
      0100AF18H   LINE      CODE     ---       #1263
LX51 LINKER/LOCATER V4.64.0.0                                                         03/27/2019  09:25:09  PAGE 110


      0100AF1BH   LINE      CODE     ---       #1264
      0100AF21H   LINE      CODE     ---       #1265
      0100AF25H   LINE      CODE     ---       #1266
      0100AF29H   LINE      CODE     ---       #1267
      0100AF2EH   LINE      CODE     ---       #1268
      0100AF32H   LINE      CODE     ---       #1269
      0100AF36H   LINE      CODE     ---       #1270
      0100AF3AH   LINE      CODE     ---       #1272
      0100AF3FH   LINE      CODE     ---       #1273
      0100AF45H   LINE      CODE     ---       #1274
      0100AF48H   LINE      CODE     ---       #1276
      0100AF4DH   LINE      CODE     ---       #1277
      0100AF4FH   LINE      CODE     ---       #1278
      0100AF52H   LINE      CODE     ---       #1279
      0100AF56H   LINE      CODE     ---       #1288
      0100AF5BH   LINE      CODE     ---       #1300
      0100AF68H   LINE      CODE     ---       #1302
      0100AF71H   LINE      CODE     ---       #1306
      0100AF7AH   LINE      CODE     ---       #1311
      0100AF83H   LINE      CODE     ---       #1313
      0100AF83H   LINE      CODE     ---       #1526
      ---         BLOCKEND  ---      ---       LVL=0

      010099E5H   BLOCK     CODE     ---       LVL=0
      00000007H   SYMBOL    DATA     BYTE      inputRange
      02000004H   SYMBOL    XDATA    WORD      idealDecGain
      02000006H   SYMBOL    XDATA    WORD      idealOddDecGain
      02000008H   SYMBOL    XDATA    BYTE      resolution
      02000009H   SYMBOL    XDATA    BYTE      config
      010099F3H   BLOCK     CODE     NEAR LAB  LVL=1
      0200000AH   SYMBOL    XDATA    CHAR      flash
      00000004H   SYMBOL    DATA     LONG      normalised
      00000004H   SYMBOL    DATA     WORD      gcorValue
      00000004H   SYMBOL    DATA     DWORD     gcorTmp
      ---         BLOCKEND  ---      ---       LVL=1
      010099E5H   LINE      CODE     ---       #1617
      010099F3H   LINE      CODE     ---       #1619
      010099F3H   LINE      CODE     ---       #1625
      01009A09H   LINE      CODE     ---       #1626
      01009A09H   LINE      CODE     ---       #1627
      01009A23H   LINE      CODE     ---       #1628
      01009A23H   LINE      CODE     ---       #1629
      01009A23H   LINE      CODE     ---       #1630
      01009A23H   LINE      CODE     ---       #1632
      01009A2CH   LINE      CODE     ---       #1633
      01009A2CH   LINE      CODE     ---       #1634
      01009A3AH   LINE      CODE     ---       #1635
      01009A3DH   LINE      CODE     ---       #1637
      01009A3DH   LINE      CODE     ---       #1638
      01009A4BH   LINE      CODE     ---       #1639
      01009A4BH   LINE      CODE     ---       #1640
      01009A4EH   LINE      CODE     ---       #1642
      01009A4EH   LINE      CODE     ---       #1644
      01009A57H   LINE      CODE     ---       #1645
      01009A57H   LINE      CODE     ---       #1646
      01009A65H   LINE      CODE     ---       #1647
      01009A67H   LINE      CODE     ---       #1649
      01009A67H   LINE      CODE     ---       #1650
      01009A75H   LINE      CODE     ---       #1651
      01009A75H   LINE      CODE     ---       #1652
      01009A77H   LINE      CODE     ---       #1654
      01009A77H   LINE      CODE     ---       #1656
      01009A80H   LINE      CODE     ---       #1657
      01009A80H   LINE      CODE     ---       #1658
      01009A8EH   LINE      CODE     ---       #1659
LX51 LINKER/LOCATER V4.64.0.0                                                         03/27/2019  09:25:09  PAGE 111


      01009A90H   LINE      CODE     ---       #1661
      01009A90H   LINE      CODE     ---       #1662
      01009A9EH   LINE      CODE     ---       #1663
      01009A9EH   LINE      CODE     ---       #1664
      01009AA0H   LINE      CODE     ---       #1666
      01009AA0H   LINE      CODE     ---       #1668
      01009AA9H   LINE      CODE     ---       #1669
      01009AA9H   LINE      CODE     ---       #1670
      01009AB7H   LINE      CODE     ---       #1671
      01009AB9H   LINE      CODE     ---       #1673
      01009AB9H   LINE      CODE     ---       #1674
      01009AC7H   LINE      CODE     ---       #1675
      01009AC7H   LINE      CODE     ---       #1676
      01009AC9H   LINE      CODE     ---       #1678
      01009AC9H   LINE      CODE     ---       #1679
      01009ACEH   LINE      CODE     ---       #1680
      01009ACEH   LINE      CODE     ---       #1681
      01009ACEH   LINE      CODE     ---       #1684
      01009B01H   LINE      CODE     ---       #1685
      01009B14H   LINE      CODE     ---       #1686
      01009B21H   LINE      CODE     ---       #1688
      01009B2AH   LINE      CODE     ---       #1689
      01009B2AH   LINE      CODE     ---       #1690
      01009B41H   LINE      CODE     ---       #1691
      01009B57H   LINE      CODE     ---       #1692
      01009B59H   LINE      CODE     ---       #1694
      01009B59H   LINE      CODE     ---       #1696
      01009B6DH   LINE      CODE     ---       #1697
      01009B6DH   LINE      CODE     ---       #1700
      01009B85H   LINE      CODE     ---       #1701
      01009B85H   LINE      CODE     ---       #1703
      01009B85H   LINE      CODE     ---       #1706
      01009B85H   LINE      CODE     ---       #1707
      ---         BLOCKEND  ---      ---       LVL=0

      0100BDE3H   BLOCK     CODE     ---       LVL=0
      02000003H   SYMBOL    XDATA    BYTE      value
      0100BDE8H   BLOCK     CODE     NEAR LAB  LVL=1
      02000004H   SYMBOL    XDATA    BYTE      enableInterrupts
      ---         BLOCKEND  ---      ---       LVL=1
      0100BDE3H   LINE      CODE     ---       #1724
      0100BDE8H   LINE      CODE     ---       #1725
      0100BDE8H   LINE      CODE     ---       #1727
      0100BDF0H   LINE      CODE     ---       #1730
      0100BDF7H   LINE      CODE     ---       #1731
      0100BDFCH   LINE      CODE     ---       #1732
      0100BE04H   LINE      CODE     ---       #1735
      0100BE0BH   LINE      CODE     ---       #1737
      0100BE12H   LINE      CODE     ---       #1738
      0100BE17H   LINE      CODE     ---       #1740
      0100BE1FH   LINE      CODE     ---       #1741
      ---         BLOCKEND  ---      ---       LVL=0
      00000007H   SYMBOL    DATA     CHAR      result
      00000006H   SYMBOL    DATA     INT       result
      00000004H   SYMBOL    DATA     LONG      result

      ---         MODULE    ---      ---       DMA_DMA
      02000EA1H   PUBLIC    XDATA    BYTE      DMA_DmaHandle
      02000003H   PUBLIC    XDATA    BYTE      ?_DMA_DmaInitialize?BYTE
      0100BBC6H   PUBLIC    CODE     ---       _DMA_DmaInitialize
      000000CAH   SFRSYM    DATA     BYTE      SFRPRT5SEL
      000000DAH   SFRSYM    DATA     BYTE      SFRPRT6SEL
      000000D0H.6 SFRSYM    DATA     BIT       AC
      000000A8H.7 SFRSYM    DATA     BIT       EA
      000000A8H   SFRSYM    DATA     BYTE      IE
LX51 LINKER/LOCATER V4.64.0.0                                                         03/27/2019  09:25:09  PAGE 112


      00000085H   SFRSYM    DATA     BYTE      DPH1
      00000084H   SFRSYM    DATA     BYTE      DPL1
      000000D0H.7 SFRSYM    DATA     BIT       CY
      000000A0H   SFRSYM    DATA     BYTE      P2AX
      00000095H   SFRSYM    DATA     BYTE      DPX1
      00000081H   SFRSYM    DATA     BYTE      SP
      000000D0H.2 SFRSYM    DATA     BIT       OV
      00000080H   SFRSYM    DATA     BYTE      SFRPRT0DR
      00000090H   SFRSYM    DATA     BYTE      SFRPRT1DR
      000000F2H   SFRSYM    DATA     BYTE      SFRPRT12SEL
      00000098H   SFRSYM    DATA     BYTE      SFRPRT2DR
      000000B0H   SFRSYM    DATA     BYTE      SFRPRT3DR
      000000C0H   SFRSYM    DATA     BYTE      SFRPRT4DR
      000000FAH   SFRSYM    DATA     BYTE      SFRPRT15SEL
      000000C8H   SFRSYM    DATA     BYTE      SFRPRT5DR
      000000D8H   SFRSYM    DATA     BYTE      SFRPRT6DR
      00000089H   SFRSYM    DATA     BYTE      SFRPRT0PS
      00000091H   SFRSYM    DATA     BYTE      SFRPRT1PS
      00000099H   SFRSYM    DATA     BYTE      SFRPRT2PS
      000000B1H   SFRSYM    DATA     BYTE      SFRPRT3PS
      000000C1H   SFRSYM    DATA     BYTE      SFRPRT4PS
      000000C9H   SFRSYM    DATA     BYTE      SFRPRT5PS
      000000D9H   SFRSYM    DATA     BYTE      SFRPRT6PS
      000000EAH   SFRSYM    DATA     BYTE      MXAX
      000000F0H   SFRSYM    DATA     BYTE      B
      000000E0H   SFRSYM    DATA     BYTE      ACC
      000000D0H   SFRSYM    DATA     BIT       P
      000000D0H.3 SFRSYM    DATA     BIT       RS0
      000000D0H.4 SFRSYM    DATA     BIT       RS1
      00000083H   SFRSYM    DATA     BYTE      DPH
      000000E8H   SFRSYM    DATA     BYTE      SFRPRT12DR
      00000082H   SFRSYM    DATA     BYTE      DPL
      000000F8H   SFRSYM    DATA     BYTE      SFRPRT15DR
      00000086H   SFRSYM    DATA     BYTE      DPS
      000000E9H   SFRSYM    DATA     BYTE      SFRPRT12PS
      00000093H   SFRSYM    DATA     BYTE      DPX
      000000F9H   SFRSYM    DATA     BYTE      SFRPRT15PS
      000000D0H.5 SFRSYM    DATA     BIT       F0
      000000D0H.1 SFRSYM    DATA     BIT       F1
      0000008AH   SFRSYM    DATA     BYTE      SFRPRT0SEL
      000000D0H   SFRSYM    DATA     BYTE      PSW
      000000A2H   SFRSYM    DATA     BYTE      SFRPRT1SEL
      0000009AH   SFRSYM    DATA     BYTE      SFRPRT2SEL
      000000B2H   SFRSYM    DATA     BYTE      SFRPRT3SEL
      000000C2H   SFRSYM    DATA     BYTE      SFRPRT4SEL

      0100BBC6H   BLOCK     CODE     ---       LVL=0
      00000007H   SYMBOL    DATA     BYTE      BurstCount
      00000006H   SYMBOL    DATA     BYTE      ReqestPerBurst
      02000005H   SYMBOL    XDATA    WORD      UpperSrcAddress
      02000007H   SYMBOL    XDATA    WORD      UpperDestAddress
      0100BBC6H   LINE      CODE     ---       #97
      0100BBD0H   LINE      CODE     ---       #98
      0100BBD0H   LINE      CODE     ---       #101
      0100BBD6H   LINE      CODE     ---       #109
      0100BBEAH   LINE      CODE     ---       #112
      0100BC00H   LINE      CODE     ---       #115
      0100BC0AH   LINE      CODE     ---       #117
      0100BC0FH   LINE      CODE     ---       #118
      ---         BLOCKEND  ---      ---       LVL=0

      ---         MODULE    ---      ---       ADC_SOC
      0100C801H   PUBLIC    CODE     ---       _ADC_SOC_Write

      0100C801H   BLOCK     CODE     ---       LVL=0
LX51 LINKER/LOCATER V4.64.0.0                                                         03/27/2019  09:25:09  PAGE 113


      00000007H   SYMBOL    DATA     BYTE      control
      0100C801H   LINE      CODE     ---       #37
      0100C801H   LINE      CODE     ---       #38
      0100C801H   LINE      CODE     ---       #39
      0100C806H   LINE      CODE     ---       #40
      ---         BLOCKEND  ---      ---       LVL=0

      ---         MODULE    ---      ---       ISR_WATCHDOG
      0100C770H   PUBLIC    CODE     ---       ISR_WATCHDOG_Disable
      0100C769H   PUBLIC    CODE     ---       ISR_WATCHDOG_Enable
      0100C6FEH   PUBLIC    CODE     ---       _ISR_WATCHDOG_SetPriority
      0100C5F7H   PUBLIC    CODE     ---       _ISR_WATCHDOG_SetVector
      0100C127H   PUBLIC    CODE     ---       ISR_WATCHDOG_Interrupt
      0100C2BFH   PUBLIC    CODE     ---       _ISR_WATCHDOG_StartEx
      000000CAH   SFRSYM    DATA     BYTE      SFRPRT5SEL
      000000DAH   SFRSYM    DATA     BYTE      SFRPRT6SEL
      000000D0H.6 SFRSYM    DATA     BIT       AC
      000000A8H.7 SFRSYM    DATA     BIT       EA
      000000A8H   SFRSYM    DATA     BYTE      IE
      00000085H   SFRSYM    DATA     BYTE      DPH1
      00000084H   SFRSYM    DATA     BYTE      DPL1
      000000D0H.7 SFRSYM    DATA     BIT       CY
      000000A0H   SFRSYM    DATA     BYTE      P2AX
      00000095H   SFRSYM    DATA     BYTE      DPX1
      00000081H   SFRSYM    DATA     BYTE      SP
      000000D0H.2 SFRSYM    DATA     BIT       OV
      00000080H   SFRSYM    DATA     BYTE      SFRPRT0DR
      00000090H   SFRSYM    DATA     BYTE      SFRPRT1DR
      000000F2H   SFRSYM    DATA     BYTE      SFRPRT12SEL
      00000098H   SFRSYM    DATA     BYTE      SFRPRT2DR
      000000B0H   SFRSYM    DATA     BYTE      SFRPRT3DR
      000000C0H   SFRSYM    DATA     BYTE      SFRPRT4DR
      000000FAH   SFRSYM    DATA     BYTE      SFRPRT15SEL
      000000C8H   SFRSYM    DATA     BYTE      SFRPRT5DR
      000000D8H   SFRSYM    DATA     BYTE      SFRPRT6DR
      00000089H   SFRSYM    DATA     BYTE      SFRPRT0PS
      00000091H   SFRSYM    DATA     BYTE      SFRPRT1PS
      00000099H   SFRSYM    DATA     BYTE      SFRPRT2PS
      000000B1H   SFRSYM    DATA     BYTE      SFRPRT3PS
      000000C1H   SFRSYM    DATA     BYTE      SFRPRT4PS
      000000C9H   SFRSYM    DATA     BYTE      SFRPRT5PS
      000000D9H   SFRSYM    DATA     BYTE      SFRPRT6PS
      000000EAH   SFRSYM    DATA     BYTE      MXAX
      000000F0H   SFRSYM    DATA     BYTE      B
      000000E0H   SFRSYM    DATA     BYTE      ACC
      000000D0H   SFRSYM    DATA     BIT       P
      000000D0H.3 SFRSYM    DATA     BIT       RS0
      000000D0H.4 SFRSYM    DATA     BIT       RS1
      00000083H   SFRSYM    DATA     BYTE      DPH
      000000E8H   SFRSYM    DATA     BYTE      SFRPRT12DR
      00000082H   SFRSYM    DATA     BYTE      DPL
      000000F8H   SFRSYM    DATA     BYTE      SFRPRT15DR
      00000086H   SFRSYM    DATA     BYTE      DPS
      000000E9H   SFRSYM    DATA     BYTE      SFRPRT12PS
      00000093H   SFRSYM    DATA     BYTE      DPX
      000000F9H   SFRSYM    DATA     BYTE      SFRPRT15PS
      000000D0H.5 SFRSYM    DATA     BIT       F0
      000000D0H.1 SFRSYM    DATA     BIT       F1
      0000008AH   SFRSYM    DATA     BYTE      SFRPRT0SEL
      000000D0H   SFRSYM    DATA     BYTE      PSW
      000000A2H   SFRSYM    DATA     BYTE      SFRPRT1SEL
      0000009AH   SFRSYM    DATA     BYTE      SFRPRT2SEL
      000000B2H   SFRSYM    DATA     BYTE      SFRPRT3SEL
      000000C2H   SFRSYM    DATA     BYTE      SFRPRT4SEL

LX51 LINKER/LOCATER V4.64.0.0                                                         03/27/2019  09:25:09  PAGE 114


      0100C2BFH   BLOCK     CODE     ---       LVL=0
      02000003H   SYMBOL    XDATA    ---       address
      0100C2BFH   LINE      CODE     ---       #94
      0100C2C7H   LINE      CODE     ---       #95
      0100C2C7H   LINE      CODE     ---       #97
      0100C2CAH   LINE      CODE     ---       #100
      0100C2D5H   LINE      CODE     ---       #103
      0100C2DAH   LINE      CODE     ---       #106
      0100C2DDH   LINE      CODE     ---       #107
      ---         BLOCKEND  ---      ---       LVL=0

      0100C127H   BLOCK     CODE     ---       LVL=0
      0100C127H   LINE      CODE     ---       #151
      0100C127H   LINE      CODE     ---       #168
      ---         BLOCKEND  ---      ---       LVL=0

      0100C5F7H   BLOCK     CODE     ---       LVL=0
      00000006H   SYMBOL    DATA     ---       address
      0100C5F7H   LINE      CODE     ---       #198
      0100C5F7H   LINE      CODE     ---       #199
      0100C5F7H   LINE      CODE     ---       #200
      0100C604H   LINE      CODE     ---       #201
      ---         BLOCKEND  ---      ---       LVL=0

      0100C6FEH   BLOCK     CODE     ---       LVL=0
      00000007H   SYMBOL    DATA     BYTE      priority
      0100C6FEH   LINE      CODE     ---       #248
      0100C6FEH   LINE      CODE     ---       #249
      0100C6FEH   LINE      CODE     ---       #250
      0100C707H   LINE      CODE     ---       #251
      ---         BLOCKEND  ---      ---       LVL=0
      00000007H   SYMBOL    DATA     BYTE      priority

      0100C769H   BLOCK     CODE     ---       LVL=0
      0100C769H   LINE      CODE     ---       #297
      0100C769H   LINE      CODE     ---       #298
      0100C769H   LINE      CODE     ---       #300
      0100C76FH   LINE      CODE     ---       #301
      ---         BLOCKEND  ---      ---       LVL=0

      0100C770H   BLOCK     CODE     ---       LVL=0
      0100C770H   LINE      CODE     ---       #339
      0100C770H   LINE      CODE     ---       #340
      0100C770H   LINE      CODE     ---       #342
      0100C776H   LINE      CODE     ---       #343
      ---         BLOCKEND  ---      ---       LVL=0

      ---         MODULE    ---      ---       WATCHDOG_COUNTER
      02000EA2H   PUBLIC    XDATA    BYTE      WATCHDOG_COUNTER_initVar
      0100C605H   PUBLIC    CODE     ---       _WATCHDOG_COUNTER_WritePeriod
      0100C31BH   PUBLIC    CODE     ---       _WATCHDOG_COUNTER_WriteCounter
      0100C807H   PUBLIC    CODE     ---       _WATCHDOG_COUNTER_SetInterruptMode
      0100C518H   PUBLIC    CODE     ---       WATCHDOG_COUNTER_Start
      0100C42AH   PUBLIC    CODE     ---       WATCHDOG_COUNTER_Enable
      0100BE5CH   PUBLIC    CODE     ---       WATCHDOG_COUNTER_Init
      000000CAH   SFRSYM    DATA     BYTE      SFRPRT5SEL
      000000DAH   SFRSYM    DATA     BYTE      SFRPRT6SEL
      000000D0H.6 SFRSYM    DATA     BIT       AC
      000000A8H.7 SFRSYM    DATA     BIT       EA
      000000A8H   SFRSYM    DATA     BYTE      IE
      00000085H   SFRSYM    DATA     BYTE      DPH1
      00000084H   SFRSYM    DATA     BYTE      DPL1
      000000D0H.7 SFRSYM    DATA     BIT       CY
      000000A0H   SFRSYM    DATA     BYTE      P2AX
      00000095H   SFRSYM    DATA     BYTE      DPX1
LX51 LINKER/LOCATER V4.64.0.0                                                         03/27/2019  09:25:09  PAGE 115


      00000081H   SFRSYM    DATA     BYTE      SP
      000000D0H.2 SFRSYM    DATA     BIT       OV
      00000080H   SFRSYM    DATA     BYTE      SFRPRT0DR
      00000090H   SFRSYM    DATA     BYTE      SFRPRT1DR
      000000F2H   SFRSYM    DATA     BYTE      SFRPRT12SEL
      00000098H   SFRSYM    DATA     BYTE      SFRPRT2DR
      000000B0H   SFRSYM    DATA     BYTE      SFRPRT3DR
      000000C0H   SFRSYM    DATA     BYTE      SFRPRT4DR
      000000FAH   SFRSYM    DATA     BYTE      SFRPRT15SEL
      000000C8H   SFRSYM    DATA     BYTE      SFRPRT5DR
      000000D8H   SFRSYM    DATA     BYTE      SFRPRT6DR
      00000089H   SFRSYM    DATA     BYTE      SFRPRT0PS
      00000091H   SFRSYM    DATA     BYTE      SFRPRT1PS
      00000099H   SFRSYM    DATA     BYTE      SFRPRT2PS
      000000B1H   SFRSYM    DATA     BYTE      SFRPRT3PS
      000000C1H   SFRSYM    DATA     BYTE      SFRPRT4PS
      000000C9H   SFRSYM    DATA     BYTE      SFRPRT5PS
      000000D9H   SFRSYM    DATA     BYTE      SFRPRT6PS
      000000EAH   SFRSYM    DATA     BYTE      MXAX
      000000F0H   SFRSYM    DATA     BYTE      B
      000000E0H   SFRSYM    DATA     BYTE      ACC
      000000D0H   SFRSYM    DATA     BIT       P
      000000D0H.3 SFRSYM    DATA     BIT       RS0
      000000D0H.4 SFRSYM    DATA     BIT       RS1
      00000083H   SFRSYM    DATA     BYTE      DPH
      000000E8H   SFRSYM    DATA     BYTE      SFRPRT12DR
      00000082H   SFRSYM    DATA     BYTE      DPL
      000000F8H   SFRSYM    DATA     BYTE      SFRPRT15DR
      00000086H   SFRSYM    DATA     BYTE      DPS
      000000E9H   SFRSYM    DATA     BYTE      SFRPRT12PS
      00000093H   SFRSYM    DATA     BYTE      DPX
      000000F9H   SFRSYM    DATA     BYTE      SFRPRT15PS
      000000D0H.5 SFRSYM    DATA     BIT       F0
      000000D0H.1 SFRSYM    DATA     BIT       F1
      0000008AH   SFRSYM    DATA     BYTE      SFRPRT0SEL
      000000D0H   SFRSYM    DATA     BYTE      PSW
      000000A2H   SFRSYM    DATA     BYTE      SFRPRT1SEL
      0000009AH   SFRSYM    DATA     BYTE      SFRPRT2SEL
      000000B2H   SFRSYM    DATA     BYTE      SFRPRT3SEL
      000000C2H   SFRSYM    DATA     BYTE      SFRPRT4SEL

      0100BE5CH   BLOCK     CODE     ---       LVL=0
      0100BE5CH   LINE      CODE     ---       #37
      0100BE5CH   LINE      CODE     ---       #38
      0100BE5CH   LINE      CODE     ---       #50
      0100BE63H   LINE      CODE     ---       #57
      0100BE6AH   LINE      CODE     ---       #66
      0100BE71H   LINE      CODE     ---       #69
      0100BE78H   LINE      CODE     ---       #70
      0100BE7CH   LINE      CODE     ---       #73
      0100BE80H   LINE      CODE     ---       #74
      0100BE84H   LINE      CODE     ---       #100
      0100BE89H   LINE      CODE     ---       #102
      0100BE8EH   LINE      CODE     ---       #104
      0100BE93H   LINE      CODE     ---       #123
      ---         BLOCKEND  ---      ---       LVL=0

      0100C42AH   BLOCK     CODE     ---       LVL=0
      0100C42AH   LINE      CODE     ---       #143
      0100C42AH   LINE      CODE     ---       #144
      0100C42AH   LINE      CODE     ---       #147
      0100C431H   LINE      CODE     ---       #148
      0100C438H   LINE      CODE     ---       #155
      0100C43FH   LINE      CODE     ---       #158
      ---         BLOCKEND  ---      ---       LVL=0
LX51 LINKER/LOCATER V4.64.0.0                                                         03/27/2019  09:25:09  PAGE 116



      0100C518H   BLOCK     CODE     ---       LVL=0
      0100C518H   LINE      CODE     ---       #178
      0100C518H   LINE      CODE     ---       #179
      0100C518H   LINE      CODE     ---       #180
      0100C51EH   LINE      CODE     ---       #181
      0100C51EH   LINE      CODE     ---       #182
      0100C521H   LINE      CODE     ---       #184
      0100C527H   LINE      CODE     ---       #185
      0100C527H   LINE      CODE     ---       #188
      0100C52AH   LINE      CODE     ---       #189
      ---         BLOCKEND  ---      ---       LVL=0

      0100C807H   BLOCK     CODE     ---       LVL=0
      00000007H   SYMBOL    DATA     BYTE      interruptsMask
      0100C807H   LINE      CODE     ---       #237
      0100C807H   LINE      CODE     ---       #238
      0100C807H   LINE      CODE     ---       #239
      0100C80CH   LINE      CODE     ---       #240
      ---         BLOCKEND  ---      ---       LVL=0
      00000007H   SYMBOL    DATA     BYTE      control

      0100C31BH   BLOCK     CODE     ---       LVL=0
      00000007H   SYMBOL    DATA     BYTE      counter
      0100C31BH   LINE      CODE     ---       #326
      0100C31BH   LINE      CODE     ---       #328
      0100C31BH   LINE      CODE     ---       #333
      0100C322H   LINE      CODE     ---       #334
      0100C32FH   LINE      CODE     ---       #335
      0100C336H   LINE      CODE     ---       #339
      ---         BLOCKEND  ---      ---       LVL=0

      0100C605H   BLOCK     CODE     ---       LVL=0
      00000007H   SYMBOL    DATA     BYTE      period
      0100C605H   LINE      CODE     ---       #415
      0100C605H   LINE      CODE     ---       #416
      0100C605H   LINE      CODE     ---       #418
      0100C612H   LINE      CODE     ---       #422
      ---         BLOCKEND  ---      ---       LVL=0

      ---         MODULE    ---      ---       WATCHDOG_ENABLER
      0100C80DH   PUBLIC    CODE     ---       _WATCHDOG_ENABLER_Write

      0100C80DH   BLOCK     CODE     ---       LVL=0
      00000007H   SYMBOL    DATA     BYTE      control
      0100C80DH   LINE      CODE     ---       #37
      0100C80DH   LINE      CODE     ---       #38
      0100C80DH   LINE      CODE     ---       #39
      0100C812H   LINE      CODE     ---       #40
      ---         BLOCKEND  ---      ---       LVL=0

      ---         MODULE    ---      ---       WATCHDOG_REFRESH
      0100C813H   PUBLIC    CODE     ---       _WATCHDOG_REFRESH_Write

      0100C813H   BLOCK     CODE     ---       LVL=0
      00000007H   SYMBOL    DATA     BYTE      control
      0100C813H   LINE      CODE     ---       #37
      0100C813H   LINE      CODE     ---       #38
      0100C813H   LINE      CODE     ---       #39
      0100C818H   LINE      CODE     ---       #40
      ---         BLOCKEND  ---      ---       LVL=0

      ---         MODULE    ---      ---       CYDMAC
      0100B4FAH   PUBLIC    CODE     ---       _CyDmaTdSetAddress
      02000003H   PUBLIC    XDATA    BYTE      ?_CyDmaTdSetConfiguration?BYTE
LX51 LINKER/LOCATER V4.64.0.0                                                         03/27/2019  09:25:09  PAGE 117


      0100B2FFH   PUBLIC    CODE     ---       _CyDmaTdSetConfiguration
      0100BDA5H   PUBLIC    CODE     ---       CyDmaTdAllocate
      02000009H   PUBLIC    XDATA    BYTE      ?_CyDmaChSetConfiguration?BYTE
      0100B409H   PUBLIC    CODE     ---       _CyDmaChSetConfiguration
      0100C2FDH   PUBLIC    CODE     ---       _CyDmaChSetInitialTd
      0100B482H   PUBLIC    CODE     ---       _CyDmaChSetExtendedAddress
      0100BD65H   PUBLIC    CODE     ---       _CyDmaChPriority
      0100BB7BH   PUBLIC    CODE     ---       _CyDmaChEnable
      0100BE94H   PUBLIC    CODE     ---       CyDmacConfigure
      000000CAH   SFRSYM    DATA     BYTE      SFRPRT5SEL
      000000DAH   SFRSYM    DATA     BYTE      SFRPRT6SEL
      000000D0H.6 SFRSYM    DATA     BIT       AC
      000000A8H.7 SFRSYM    DATA     BIT       EA
      000000A8H   SFRSYM    DATA     BYTE      IE
      00000085H   SFRSYM    DATA     BYTE      DPH1
      00000084H   SFRSYM    DATA     BYTE      DPL1
      000000D0H.7 SFRSYM    DATA     BIT       CY
      000000A0H   SFRSYM    DATA     BYTE      P2AX
      00000095H   SFRSYM    DATA     BYTE      DPX1
      00000081H   SFRSYM    DATA     BYTE      SP
      000000D0H.2 SFRSYM    DATA     BIT       OV
      00000080H   SFRSYM    DATA     BYTE      SFRPRT0DR
      00000090H   SFRSYM    DATA     BYTE      SFRPRT1DR
      000000F2H   SFRSYM    DATA     BYTE      SFRPRT12SEL
      00000098H   SFRSYM    DATA     BYTE      SFRPRT2DR
      000000B0H   SFRSYM    DATA     BYTE      SFRPRT3DR
      000000C0H   SFRSYM    DATA     BYTE      SFRPRT4DR
      000000FAH   SFRSYM    DATA     BYTE      SFRPRT15SEL
      000000C8H   SFRSYM    DATA     BYTE      SFRPRT5DR
      000000D8H   SFRSYM    DATA     BYTE      SFRPRT6DR
      00000089H   SFRSYM    DATA     BYTE      SFRPRT0PS
      00000091H   SFRSYM    DATA     BYTE      SFRPRT1PS
      00000099H   SFRSYM    DATA     BYTE      SFRPRT2PS
      000000B1H   SFRSYM    DATA     BYTE      SFRPRT3PS
      000000C1H   SFRSYM    DATA     BYTE      SFRPRT4PS
      000000C9H   SFRSYM    DATA     BYTE      SFRPRT5PS
      000000D9H   SFRSYM    DATA     BYTE      SFRPRT6PS
      000000EAH   SFRSYM    DATA     BYTE      MXAX
      000000F0H   SFRSYM    DATA     BYTE      B
      000000E0H   SFRSYM    DATA     BYTE      ACC
      000000D0H   SFRSYM    DATA     BIT       P
      000000D0H.3 SFRSYM    DATA     BIT       RS0
      000000D0H.4 SFRSYM    DATA     BIT       RS1
      00000083H   SFRSYM    DATA     BYTE      DPH
      000000E8H   SFRSYM    DATA     BYTE      SFRPRT12DR
      00000082H   SFRSYM    DATA     BYTE      DPL
      000000F8H   SFRSYM    DATA     BYTE      SFRPRT15DR
      00000086H   SFRSYM    DATA     BYTE      DPS
      000000E9H   SFRSYM    DATA     BYTE      SFRPRT12PS
      00000093H   SFRSYM    DATA     BYTE      DPX
      000000F9H   SFRSYM    DATA     BYTE      SFRPRT15PS
      000000D0H.5 SFRSYM    DATA     BIT       F0
      000000D0H.1 SFRSYM    DATA     BIT       F1
      0000008AH   SFRSYM    DATA     BYTE      SFRPRT0SEL
      000000D0H   SFRSYM    DATA     BYTE      PSW
      000000A2H   SFRSYM    DATA     BYTE      SFRPRT1SEL
      0000009AH   SFRSYM    DATA     BYTE      SFRPRT2SEL
      000000B2H   SFRSYM    DATA     BYTE      SFRPRT3SEL
      000000C2H   SFRSYM    DATA     BYTE      SFRPRT4SEL
      02000E88H   SYMBOL    XDATA    DWORD     CyDmaChannels
      02000E8CH   SYMBOL    XDATA    BYTE      CyDmaTdFreeIndex
      02000E8DH   SYMBOL    XDATA    BYTE      CyDmaTdCurrentNumber

      0100BE94H   BLOCK     CODE     ---       LVL=0
      0100BE94H   BLOCK     CODE     NEAR LAB  LVL=1
LX51 LINKER/LOCATER V4.64.0.0                                                         03/27/2019  09:25:09  PAGE 118


      00000007H   SYMBOL    DATA     BYTE      dmaIndex
      ---         BLOCKEND  ---      ---       LVL=1
      0100BE94H   LINE      CODE     ---       #61
      0100BE94H   LINE      CODE     ---       #62
      0100BE94H   LINE      CODE     ---       #66
      0100BE9AH   LINE      CODE     ---       #67
      0100BE9DH   LINE      CODE     ---       #70
      0100BEA2H   LINE      CODE     ---       #71
      0100BEA2H   LINE      CODE     ---       #72
      0100BEB5H   LINE      CODE     ---       #73
      0100BEB8H   LINE      CODE     ---       #76
      0100BEC9H   LINE      CODE     ---       #77
      ---         BLOCKEND  ---      ---       LVL=0
      00000007H   SYMBOL    DATA     BYTE      error

      0100BB7BH   BLOCK     CODE     ---       LVL=0
      00000007H   SYMBOL    DATA     BYTE      chHandle
      00000005H   SYMBOL    DATA     BYTE      preserveTds
      0100BB7BH   BLOCK     CODE     NEAR LAB  LVL=1
      00000006H   SYMBOL    DATA     BYTE      status
      ---         BLOCKEND  ---      ---       LVL=1
      0100BB7BH   LINE      CODE     ---       #304
      0100BB7BH   LINE      CODE     ---       #305
      0100BB7BH   LINE      CODE     ---       #306
      0100BB7DH   LINE      CODE     ---       #308
      0100BB83H   LINE      CODE     ---       #309
      0100BB83H   LINE      CODE     ---       #310
      0100BB86H   LINE      CODE     ---       #311
      0100BB86H   LINE      CODE     ---       #315
      0100BB99H   LINE      CODE     ---       #316
      0100BB9BH   LINE      CODE     ---       #318
      0100BB9BH   LINE      CODE     ---       #320
      0100BBAEH   LINE      CODE     ---       #321
      0100BBAEH   LINE      CODE     ---       #324
      0100BBC1H   LINE      CODE     ---       #326
      0100BBC3H   LINE      CODE     ---       #327
      0100BBC3H   LINE      CODE     ---       #329
      0100BBC5H   LINE      CODE     ---       #330
      ---         BLOCKEND  ---      ---       LVL=0
      00000007H   SYMBOL    DATA     BYTE      chHandle
      00000006H   SYMBOL    DATA     BYTE      status
      00000007H   SYMBOL    DATA     BYTE      chHandle
      00000006H   SYMBOL    DATA     BYTE      status

      0100BD65H   BLOCK     CODE     ---       LVL=0
      00000004H   SYMBOL    DATA     BYTE      chHandle
      00000005H   SYMBOL    DATA     BYTE      priority
      0100BD67H   BLOCK     CODE     NEAR LAB  LVL=1
      00000002H   SYMBOL    DATA     BYTE      value
      00000003H   SYMBOL    DATA     BYTE      status
      ---         BLOCKEND  ---      ---       LVL=1
      0100BD65H   LINE      CODE     ---       #429
      0100BD67H   LINE      CODE     ---       #430
      0100BD67H   LINE      CODE     ---       #432
      0100BD69H   LINE      CODE     ---       #434
      0100BD6FH   LINE      CODE     ---       #435
      0100BD6FH   LINE      CODE     ---       #436
      0100BD82H   LINE      CODE     ---       #438
      0100BDA0H   LINE      CODE     ---       #440
      0100BDA2H   LINE      CODE     ---       #441
      0100BDA2H   LINE      CODE     ---       #443
      0100BDA4H   LINE      CODE     ---       #444
      ---         BLOCKEND  ---      ---       LVL=0

      0100B482H   BLOCK     CODE     ---       LVL=0
LX51 LINKER/LOCATER V4.64.0.0                                                         03/27/2019  09:25:09  PAGE 119


      02000009H   SYMBOL    XDATA    BYTE      chHandle
      0200000AH   SYMBOL    XDATA    WORD      source
      0200000CH   SYMBOL    XDATA    WORD      destination
      0100B495H   BLOCK     CODE     NEAR LAB  LVL=1
      0200000EH   SYMBOL    XDATA    BYTE      status
      0200000FH   SYMBOL    XDATA    ---       convert
      ---         BLOCKEND  ---      ---       LVL=1
      0100B482H   LINE      CODE     ---       #470
      0100B495H   LINE      CODE     ---       #472
      0100B495H   LINE      CODE     ---       #473
      0100B49BH   LINE      CODE     ---       #492
      0100B4A1H   LINE      CODE     ---       #493
      0100B4A1H   LINE      CODE     ---       #495
      0100B4B8H   LINE      CODE     ---       #496
      0100B4C8H   LINE      CODE     ---       #499
      0100B4DFH   LINE      CODE     ---       #500
      0100B4EFH   LINE      CODE     ---       #501
      0100B4F4H   LINE      CODE     ---       #502
      0100B4F4H   LINE      CODE     ---       #504
      0100B4F9H   LINE      CODE     ---       #505
      ---         BLOCKEND  ---      ---       LVL=0

      0100C2FDH   BLOCK     CODE     ---       LVL=0
      00000007H   SYMBOL    DATA     BYTE      chHandle
      00000005H   SYMBOL    DATA     BYTE      startTd
      0100C2FDH   BLOCK     CODE     NEAR LAB  LVL=1
      00000006H   SYMBOL    DATA     BYTE      status
      ---         BLOCKEND  ---      ---       LVL=1
      0100C2FDH   LINE      CODE     ---       #529
      0100C2FDH   LINE      CODE     ---       #530
      0100C2FDH   LINE      CODE     ---       #531
      0100C2FFH   LINE      CODE     ---       #533
      0100C305H   LINE      CODE     ---       #534
      0100C305H   LINE      CODE     ---       #535
      0100C316H   LINE      CODE     ---       #536
      0100C318H   LINE      CODE     ---       #537
      0100C318H   LINE      CODE     ---       #539
      0100C31AH   LINE      CODE     ---       #540
      ---         BLOCKEND  ---      ---       LVL=0
      00000007H   SYMBOL    DATA     BYTE      chHandle
      00000005H   SYMBOL    DATA     BYTE      request
      00000006H   SYMBOL    DATA     BYTE      status
      00000007H   SYMBOL    DATA     BYTE      chHandle
      00000003H   SYMBOL    DATA     BYTE      status
      00000007H   SYMBOL    DATA     BYTE      chHandle
      00000006H   SYMBOL    DATA     BYTE      status

      0100B409H   BLOCK     CODE     ---       LVL=0
      00000004H   SYMBOL    DATA     BYTE      chHandle
      00000005H   SYMBOL    DATA     BYTE      burstCount
      00000003H   SYMBOL    DATA     BYTE      requestPerBurst
      0200000CH   SYMBOL    XDATA    BYTE      tdDone0
      0200000DH   SYMBOL    XDATA    BYTE      tdDone1
      0200000EH   SYMBOL    XDATA    BYTE      tdStop
      0100B40BH   BLOCK     CODE     NEAR LAB  LVL=1
      00000002H   SYMBOL    DATA     BYTE      status
      ---         BLOCKEND  ---      ---       LVL=1
      0100B409H   LINE      CODE     ---       #716
      0100B40BH   LINE      CODE     ---       #718
      0100B40BH   LINE      CODE     ---       #719
      0100B40DH   LINE      CODE     ---       #721
      0100B413H   LINE      CODE     ---       #722
      0100B413H   LINE      CODE     ---       #723
      0100B431H   LINE      CODE     ---       #724
      0100B455H   LINE      CODE     ---       #725
LX51 LINKER/LOCATER V4.64.0.0                                                         03/27/2019  09:25:09  PAGE 120


      0100B46DH   LINE      CODE     ---       #726
      0100B47EH   LINE      CODE     ---       #728
      0100B47FH   LINE      CODE     ---       #729
      0100B47FH   LINE      CODE     ---       #731
      0100B481H   LINE      CODE     ---       #732
      ---         BLOCKEND  ---      ---       LVL=0

      0100BDA5H   BLOCK     CODE     ---       LVL=0
      0100BDA5H   BLOCK     CODE     NEAR LAB  LVL=1
      00000007H   SYMBOL    DATA     BYTE      interruptState
      02000003H   SYMBOL    XDATA    BYTE      element
      ---         BLOCKEND  ---      ---       LVL=1
      0100BDA5H   LINE      CODE     ---       #752
      0100BDA5H   LINE      CODE     ---       #753
      0100BDA5H   LINE      CODE     ---       #755
      0100BDABH   LINE      CODE     ---       #758
      0100BDAEH   LINE      CODE     ---       #760
      0100BDB7H   LINE      CODE     ---       #761
      0100BDB7H   LINE      CODE     ---       #763
      0100BDC0H   LINE      CODE     ---       #766
      0100BDC6H   LINE      CODE     ---       #769
      0100BDDAH   LINE      CODE     ---       #770
      0100BDDAH   LINE      CODE     ---       #773
      0100BDDDH   LINE      CODE     ---       #775
      0100BDE2H   LINE      CODE     ---       #776
      ---         BLOCKEND  ---      ---       LVL=0

      0100B2FFH   BLOCK     CODE     ---       LVL=0
      02000003H   SYMBOL    XDATA    BYTE      tdHandle
      02000004H   SYMBOL    XDATA    WORD      transferCount
      02000006H   SYMBOL    XDATA    BYTE      nextTd
      02000007H   SYMBOL    XDATA    BYTE      configuration
      0100B30FH   BLOCK     CODE     NEAR LAB  LVL=1
      02000008H   SYMBOL    XDATA    BYTE      status
      0100B324H   BLOCK     CODE     NEAR LAB  LVL=2
      02000009H   SYMBOL    XDATA    ---       convert
      ---         BLOCKEND  ---      ---       LVL=2
      ---         BLOCKEND  ---      ---       LVL=1
      0100B2FFH   LINE      CODE     ---       #891
      0100B30FH   LINE      CODE     ---       #893
      0100B30FH   LINE      CODE     ---       #894
      0100B315H   LINE      CODE     ---       #896
      0100B324H   LINE      CODE     ---       #897
      0100B324H   LINE      CODE     ---       #899
      0100B33BH   LINE      CODE     ---       #900
      0100B34BH   LINE      CODE     ---       #903
      0100B365H   LINE      CODE     ---       #906
      0100B37BH   LINE      CODE     ---       #908
      0100B380H   LINE      CODE     ---       #909
      0100B380H   LINE      CODE     ---       #911
      0100B385H   LINE      CODE     ---       #912
      ---         BLOCKEND  ---      ---       LVL=0

      0100B4FAH   BLOCK     CODE     ---       LVL=0
      02000003H   SYMBOL    XDATA    BYTE      tdHandle
      02000004H   SYMBOL    XDATA    WORD      source
      02000006H   SYMBOL    XDATA    WORD      destination
      0100B50DH   BLOCK     CODE     NEAR LAB  LVL=1
      02000008H   SYMBOL    XDATA    BYTE      status
      02000009H   SYMBOL    XDATA    ---       convert
      ---         BLOCKEND  ---      ---       LVL=1
      0100B4FAH   LINE      CODE     ---       #1010
      0100B50DH   LINE      CODE     ---       #1011
      0100B50DH   LINE      CODE     ---       #1012
      0100B513H   LINE      CODE     ---       #1015
LX51 LINKER/LOCATER V4.64.0.0                                                         03/27/2019  09:25:09  PAGE 121


      0100B519H   LINE      CODE     ---       #1016
      0100B519H   LINE      CODE     ---       #1018
      0100B530H   LINE      CODE     ---       #1019
      0100B540H   LINE      CODE     ---       #1022
      0100B557H   LINE      CODE     ---       #1023
      0100B567H   LINE      CODE     ---       #1025
      0100B56CH   LINE      CODE     ---       #1026
      0100B56CH   LINE      CODE     ---       #1028
      0100B571H   LINE      CODE     ---       #1029
      ---         BLOCKEND  ---      ---       LVL=0
      00000007H   SYMBOL    DATA     BYTE      chHandle
      00000005H   SYMBOL    DATA     BYTE      enableRR
      00000006H   SYMBOL    DATA     BYTE      status

      ---         MODULE    ---      ---       CYLIB
      02000E84H   PUBLIC    XDATA    DWORD     cydelay_32k_ms
      02000E83H   PUBLIC    XDATA    BYTE      CyResetStatus
      02000E7FH   PUBLIC    XDATA    DWORD     cydelay_freq_hz
      02000E7EH   PUBLIC    XDATA    BYTE      cydelay_freq_mhz
      02000E7AH   PUBLIC    XDATA    DWORD     cydelay_freq_khz
      0100C384H   PUBLIC    CODE     ---       _CyIntSetPriority
      0100B9E7H   PUBLIC    CODE     ---       _CyIntSetVector
      0100B277H   PUBLIC    CODE     ---       _?CyDelay
      0100C73CH   PUBLIC    CODE     ---       CySoftwareReset
      000000CAH   SFRSYM    DATA     BYTE      SFRPRT5SEL
      000000DAH   SFRSYM    DATA     BYTE      SFRPRT6SEL
      000000D0H.6 SFRSYM    DATA     BIT       AC
      000000A8H.7 SFRSYM    DATA     BIT       EA
      000000A8H   SFRSYM    DATA     BYTE      IE
      00000085H   SFRSYM    DATA     BYTE      DPH1
      00000084H   SFRSYM    DATA     BYTE      DPL1
      000000D0H.7 SFRSYM    DATA     BIT       CY
      000000A0H   SFRSYM    DATA     BYTE      P2AX
      00000095H   SFRSYM    DATA     BYTE      DPX1
      00000081H   SFRSYM    DATA     BYTE      SP
      000000D0H.2 SFRSYM    DATA     BIT       OV
      00000080H   SFRSYM    DATA     BYTE      SFRPRT0DR
      00000090H   SFRSYM    DATA     BYTE      SFRPRT1DR
      000000F2H   SFRSYM    DATA     BYTE      SFRPRT12SEL
      00000098H   SFRSYM    DATA     BYTE      SFRPRT2DR
      000000B0H   SFRSYM    DATA     BYTE      SFRPRT3DR
      000000C0H   SFRSYM    DATA     BYTE      SFRPRT4DR
      000000FAH   SFRSYM    DATA     BYTE      SFRPRT15SEL
      000000C8H   SFRSYM    DATA     BYTE      SFRPRT5DR
      000000D8H   SFRSYM    DATA     BYTE      SFRPRT6DR
      00000089H   SFRSYM    DATA     BYTE      SFRPRT0PS
      00000091H   SFRSYM    DATA     BYTE      SFRPRT1PS
      00000099H   SFRSYM    DATA     BYTE      SFRPRT2PS
      000000B1H   SFRSYM    DATA     BYTE      SFRPRT3PS
      000000C1H   SFRSYM    DATA     BYTE      SFRPRT4PS
      000000C9H   SFRSYM    DATA     BYTE      SFRPRT5PS
      000000D9H   SFRSYM    DATA     BYTE      SFRPRT6PS
      000000EAH   SFRSYM    DATA     BYTE      MXAX
      000000F0H   SFRSYM    DATA     BYTE      B
      000000E0H   SFRSYM    DATA     BYTE      ACC
      000000D0H   SFRSYM    DATA     BIT       P
      000000D0H.3 SFRSYM    DATA     BIT       RS0
      000000D0H.4 SFRSYM    DATA     BIT       RS1
      00000083H   SFRSYM    DATA     BYTE      DPH
      000000E8H   SFRSYM    DATA     BYTE      SFRPRT12DR
      00000082H   SFRSYM    DATA     BYTE      DPL
      000000F8H   SFRSYM    DATA     BYTE      SFRPRT15DR
      00000086H   SFRSYM    DATA     BYTE      DPS
      000000E9H   SFRSYM    DATA     BYTE      SFRPRT12PS
      00000093H   SFRSYM    DATA     BYTE      DPX
LX51 LINKER/LOCATER V4.64.0.0                                                         03/27/2019  09:25:09  PAGE 122


      000000F9H   SFRSYM    DATA     BYTE      SFRPRT15PS
      000000D0H.5 SFRSYM    DATA     BIT       F0
      000000D0H.1 SFRSYM    DATA     BIT       F1
      0000008AH   SFRSYM    DATA     BYTE      SFRPRT0SEL
      000000D0H   SFRSYM    DATA     BYTE      PSW
      000000A2H   SFRSYM    DATA     BYTE      SFRPRT1SEL
      0000009AH   SFRSYM    DATA     BYTE      SFRPRT2SEL
      000000B2H   SFRSYM    DATA     BYTE      SFRPRT3SEL
      000000C2H   SFRSYM    DATA     BYTE      SFRPRT4SEL
      00000007H   SYMBOL    DATA     BYTE      wait
      00000007H   SYMBOL    DATA     BYTE      pDiv
      00000005H   SYMBOL    DATA     BYTE      qDiv
      00000003H   SYMBOL    DATA     BYTE      current
      00000007H   SYMBOL    DATA     BYTE      source
      00000007H   SYMBOL    DATA     BYTE      wait
      00000007H   SYMBOL    DATA     BYTE      poweredOn
      00000006H   SYMBOL    DATA     BYTE      freq
      00000007H   SYMBOL    DATA     BYTE      source
      00000007H   SYMBOL    DATA     BYTE      source
      00000007H   SYMBOL    DATA     BYTE      divider
      00000006H   SYMBOL    DATA     WORD      divider
      00000005H   SYMBOL    DATA     BYTE      masterClkDiv
      00000006H   SYMBOL    DATA     WORD      busClkDiv
      00000001H   SYMBOL    DATA     BYTE      interruptState
      00000007H   SYMBOL    DATA     BYTE      divider
      00000007H   SYMBOL    DATA     BYTE      source
      00000007H   SYMBOL    DATA     BYTE      source
      00000007H   SYMBOL    DATA     BYTE      mode
      00000006H   SYMBOL    DATA     BYTE      state
      00000007H   SYMBOL    DATA     BYTE      mode
      00000007H   SYMBOL    DATA     BYTE      wait
      00000007H   SYMBOL    DATA     BYTE      setting
      00000007H   SYMBOL    DATA     BYTE      setting
      00000007H   SYMBOL    DATA     BYTE      setting
      00000000H   SYMBOL    XSTK     BYTE      reason

      0100C73CH   BLOCK     CODE     ---       LVL=0
      0100C73CH   LINE      CODE     ---       #1666
      0100C73CH   LINE      CODE     ---       #1667
      0100C73CH   LINE      CODE     ---       #1668
      0100C743H   LINE      CODE     ---       #1669
      ---         BLOCKEND  ---      ---       LVL=0

      0100B277H   BLOCK     CODE     ---       LVL=0
      00000000H   SYMBOL    XSTK     DWORD     milliseconds
      0100B277H   LINE      CODE     ---       #1692
      0100B280H   LINE      CODE     ---       #1694
      0100B296H   LINE      CODE     ---       #1695
      0100B296H   LINE      CODE     ---       #1700
      0100B2A7H   LINE      CODE     ---       #1701
      0100B2D1H   LINE      CODE     ---       #1702
      0100B2D3H   LINE      CODE     ---       #1704
      0100B2F8H   LINE      CODE     ---       #1705
      ---         BLOCKEND  ---      ---       LVL=0
      00000000H   SYMBOL    XSTK     DWORD     freq
      00000007H   SYMBOL    DATA     BYTE      ticks
      00000005H   SYMBOL    DATA     BYTE      lpMode
      02000E79H   SYMBOL    XDATA    BYTE      interruptStatus
      00000005H   SYMBOL    DATA     BYTE      interruptState
      00000005H   SYMBOL    DATA     BYTE      interruptState
      00000003H   SYMBOL    DATA     BYTE      interruptState

      0100B9E7H   BLOCK     CODE     ---       LVL=0
      02000003H   SYMBOL    XDATA    BYTE      number
      02000004H   SYMBOL    XDATA    ---       address
LX51 LINKER/LOCATER V4.64.0.0                                                         03/27/2019  09:25:09  PAGE 123


      0100B9F4H   BLOCK     CODE     NEAR LAB  LVL=1
      02000006H   SYMBOL    XDATA    ---       oldIsr
      ---         BLOCKEND  ---      ---       LVL=1
      0100B9E7H   LINE      CODE     ---       #2641
      0100B9F4H   LINE      CODE     ---       #2642
      0100B9F4H   LINE      CODE     ---       #2648
      0100BA12H   LINE      CODE     ---       #2652
      0100BA32H   LINE      CODE     ---       #2654
      0100BA3AH   LINE      CODE     ---       #2655
      ---         BLOCKEND  ---      ---       LVL=0
      00000007H   SYMBOL    DATA     BYTE      number

      0100C384H   BLOCK     CODE     ---       LVL=0
      00000004H   SYMBOL    DATA     BYTE      number
      00000005H   SYMBOL    DATA     BYTE      priority
      0100C384H   LINE      CODE     ---       #2696
      0100C386H   LINE      CODE     ---       #2697
      0100C386H   LINE      CODE     ---       #2702
      0100C39CH   LINE      CODE     ---       #2704
      ---         BLOCKEND  ---      ---       LVL=0
      00000007H   SYMBOL    DATA     BYTE      number
      00000007H   SYMBOL    DATA     BYTE      priority
      00000005H   SYMBOL    DATA     BYTE      number
      00000006H   SYMBOL    DATA     ---       stateReg

      ---         MODULE    ---      ---       CYBOOTASMKEIL
      0100C440H   PUBLIC    CODE     NEAR LAB  CyEnterCriticalSection
      0100BF00H   PUBLIC    CODE     NEAR LAB  _CyDelayCycles
      0100C128H   PUBLIC    CODE     NEAR LAB  _CyDelayUs
      0100C3CEH   PUBLIC    CODE     NEAR LAB  _CyExitCriticalSection

      ---         MODULE    ---      ---       CYMEM
      02000000H   PUBLIC    XDATA    BYTE      ?_cyconfigcpy?BYTE
      0100BF6FH   PUBLIC    CODE     NEAR LAB  _cyconfigcpy
      0100C1F5H   PUBLIC    CODE     NEAR LAB  _cyconfigcpycode
      0100C593H   PUBLIC    CODE     NEAR LAB  _cyread16
      0100C595H   PUBLIC    CODE     NEAR LAB  _cyread16_nodpx
      0100C52BH   PUBLIC    CODE     NEAR LAB  _cyread24
      0100C52DH   PUBLIC    CODE     NEAR LAB  _cyread24_nodpx
      0100C654H   PUBLIC    CODE     NEAR LAB  _cyread8
      0100C656H   PUBLIC    CODE     NEAR LAB  _cyread8_nodpx
      0100C5A2H   PUBLIC    CODE     NEAR LAB  _cywrite16
      0100C5A4H   PUBLIC    CODE     NEAR LAB  _cywrite16_nodpx
      0100C550H   PUBLIC    CODE     NEAR LAB  _cywrite24
      0100C552H   PUBLIC    CODE     NEAR LAB  _cywrite24_nodpx
      0100C660H   PUBLIC    CODE     NEAR LAB  _cywrite8
      0100C662H   PUBLIC    CODE     NEAR LAB  _cywrite8_nodpx

      ---         MODULE    ---      ---       ?C_STARTUP
      00000000H   PUBLIC    NUMBER   ---       ?C?XPAGE1RST
      00000093H   PUBLIC    DATA     BYTE      ?C?XPAGE1SFR
      01002600H   PUBLIC    CODE     NEAR LAB  ?C_STARTUP
      0100A6DBH   PUBLIC    CODE     NEAR LAB  STARTUP1
      01002604H   PUBLIC    CODE     NEAR LAB  _dma_wait

      ---         MODULE    ---      ---       UART_RS485_INT
      0100AE25H   PUBLIC    CODE     ---       UART_RS485_RXISR
      000000CAH   SFRSYM    DATA     BYTE      SFRPRT5SEL
      000000DAH   SFRSYM    DATA     BYTE      SFRPRT6SEL
      000000D0H.6 SFRSYM    DATA     BIT       AC
      000000A8H.7 SFRSYM    DATA     BIT       EA
      000000A8H   SFRSYM    DATA     BYTE      IE
      00000085H   SFRSYM    DATA     BYTE      DPH1
      00000084H   SFRSYM    DATA     BYTE      DPL1
      000000D0H.7 SFRSYM    DATA     BIT       CY
LX51 LINKER/LOCATER V4.64.0.0                                                         03/27/2019  09:25:09  PAGE 124


      000000A0H   SFRSYM    DATA     BYTE      P2AX
      00000095H   SFRSYM    DATA     BYTE      DPX1
      00000081H   SFRSYM    DATA     BYTE      SP
      000000D0H.2 SFRSYM    DATA     BIT       OV
      00000080H   SFRSYM    DATA     BYTE      SFRPRT0DR
      00000090H   SFRSYM    DATA     BYTE      SFRPRT1DR
      000000F2H   SFRSYM    DATA     BYTE      SFRPRT12SEL
      00000098H   SFRSYM    DATA     BYTE      SFRPRT2DR
      000000B0H   SFRSYM    DATA     BYTE      SFRPRT3DR
      000000C0H   SFRSYM    DATA     BYTE      SFRPRT4DR
      000000FAH   SFRSYM    DATA     BYTE      SFRPRT15SEL
      000000C8H   SFRSYM    DATA     BYTE      SFRPRT5DR
      000000D8H   SFRSYM    DATA     BYTE      SFRPRT6DR
      00000089H   SFRSYM    DATA     BYTE      SFRPRT0PS
      00000091H   SFRSYM    DATA     BYTE      SFRPRT1PS
      00000099H   SFRSYM    DATA     BYTE      SFRPRT2PS
      000000B1H   SFRSYM    DATA     BYTE      SFRPRT3PS
      000000C1H   SFRSYM    DATA     BYTE      SFRPRT4PS
      000000C9H   SFRSYM    DATA     BYTE      SFRPRT5PS
      000000D9H   SFRSYM    DATA     BYTE      SFRPRT6PS
      000000EAH   SFRSYM    DATA     BYTE      MXAX
      000000F0H   SFRSYM    DATA     BYTE      B
      000000E0H   SFRSYM    DATA     BYTE      ACC
      000000D0H   SFRSYM    DATA     BIT       P
      000000D0H.3 SFRSYM    DATA     BIT       RS0
      000000D0H.4 SFRSYM    DATA     BIT       RS1
      00000083H   SFRSYM    DATA     BYTE      DPH
      000000E8H   SFRSYM    DATA     BYTE      SFRPRT12DR
      00000082H   SFRSYM    DATA     BYTE      DPL
      000000F8H   SFRSYM    DATA     BYTE      SFRPRT15DR
      00000086H   SFRSYM    DATA     BYTE      DPS
      000000E9H   SFRSYM    DATA     BYTE      SFRPRT12PS
      00000093H   SFRSYM    DATA     BYTE      DPX
      000000F9H   SFRSYM    DATA     BYTE      SFRPRT15PS
      000000D0H.5 SFRSYM    DATA     BIT       F0
      000000D0H.1 SFRSYM    DATA     BIT       F1
      0000008AH   SFRSYM    DATA     BYTE      SFRPRT0SEL
      000000D0H   SFRSYM    DATA     BYTE      PSW
      000000A2H   SFRSYM    DATA     BYTE      SFRPRT1SEL
      0000009AH   SFRSYM    DATA     BYTE      SFRPRT2SEL
      000000B2H   SFRSYM    DATA     BYTE      SFRPRT3SEL
      000000C2H   SFRSYM    DATA     BYTE      SFRPRT4SEL

      0100AE25H   BLOCK     CODE     ---       LVL=0
      0100AE48H   BLOCK     CODE     NEAR LAB  LVL=1
      00000006H   SYMBOL    DATA     BYTE      readData
      00000007H   SYMBOL    DATA     BYTE      readStatus
      00000003H   SYMBOL    DATA     BYTE      increment_pointer
      00000002H   SYMBOL    DATA     BYTE      int_en
      ---         BLOCKEND  ---      ---       LVL=1
      0100AE25H   LINE      CODE     ---       #59
      0100AE48H   LINE      CODE     ---       #63
      0100AE4AH   LINE      CODE     ---       #79
      0100AE4EH   LINE      CODE     ---       #80
      0100AE56H   LINE      CODE     ---       #84
      0100AE56H   LINE      CODE     ---       #86
      0100AE5BH   LINE      CODE     ---       #90
      0100AE5CH   LINE      CODE     ---       #95
      0100AE61H   LINE      CODE     ---       #96
      0100AE61H   LINE      CODE     ---       #101
      0100AE67H   LINE      CODE     ---       #109
      0100AE67H   LINE      CODE     ---       #111
      0100AE6BH   LINE      CODE     ---       #112
      0100AE6BH   LINE      CODE     ---       #114
      0100AE70H   LINE      CODE     ---       #141
LX51 LINKER/LOCATER V4.64.0.0                                                         03/27/2019  09:25:09  PAGE 125


      0100AE7FH   LINE      CODE     ---       #142
      0100AE81H   LINE      CODE     ---       #146
      0100AE84H   LINE      CODE     ---       #147
      0100AE84H   LINE      CODE     ---       #148
      0100AE8AH   LINE      CODE     ---       #149
      0100AE8AH   LINE      CODE     ---       #150
      0100AE90H   LINE      CODE     ---       #151
      0100AE90H   LINE      CODE     ---       #153
      0100AE96H   LINE      CODE     ---       #156
      0100AE9CH   LINE      CODE     ---       #157
      0100AE9CH   LINE      CODE     ---       #158
      0100AE9EH   LINE      CODE     ---       #159
      0100AE9EH   LINE      CODE     ---       #162
      0100AEAAH   LINE      CODE     ---       #163
      0100AEAAH   LINE      CODE     ---       #164
      0100AEB0H   LINE      CODE     ---       #172
      0100AEB0H   LINE      CODE     ---       #173
      0100AEB0H   LINE      CODE     ---       #174
      0100AEB0H   LINE      CODE     ---       #175
      0100AEB4H   LINE      CODE     ---       #187
      0100AEBBH   LINE      CODE     ---       #189
      ---         BLOCKEND  ---      ---       LVL=0

      ---         MODULE    ---      ---       ADC_INT
      0100C82DH   PUBLIC    CODE     ---       ADC_ISR4
      0100C82CH   PUBLIC    CODE     ---       ADC_ISR3
      0100C82BH   PUBLIC    CODE     ---       ADC_ISR2
      0100C82AH   PUBLIC    CODE     ---       ADC_ISR1
      000000CAH   SFRSYM    DATA     BYTE      SFRPRT5SEL
      000000DAH   SFRSYM    DATA     BYTE      SFRPRT6SEL
      000000D0H.6 SFRSYM    DATA     BIT       AC
      000000A8H.7 SFRSYM    DATA     BIT       EA
      000000A8H   SFRSYM    DATA     BYTE      IE
      00000085H   SFRSYM    DATA     BYTE      DPH1
      00000084H   SFRSYM    DATA     BYTE      DPL1
      000000D0H.7 SFRSYM    DATA     BIT       CY
      000000A0H   SFRSYM    DATA     BYTE      P2AX
      00000095H   SFRSYM    DATA     BYTE      DPX1
      00000081H   SFRSYM    DATA     BYTE      SP
      000000D0H.2 SFRSYM    DATA     BIT       OV
      00000080H   SFRSYM    DATA     BYTE      SFRPRT0DR
      00000090H   SFRSYM    DATA     BYTE      SFRPRT1DR
      000000F2H   SFRSYM    DATA     BYTE      SFRPRT12SEL
      00000098H   SFRSYM    DATA     BYTE      SFRPRT2DR
      000000B0H   SFRSYM    DATA     BYTE      SFRPRT3DR
      000000C0H   SFRSYM    DATA     BYTE      SFRPRT4DR
      000000FAH   SFRSYM    DATA     BYTE      SFRPRT15SEL
      000000C8H   SFRSYM    DATA     BYTE      SFRPRT5DR
      000000D8H   SFRSYM    DATA     BYTE      SFRPRT6DR
      00000089H   SFRSYM    DATA     BYTE      SFRPRT0PS
      00000091H   SFRSYM    DATA     BYTE      SFRPRT1PS
      00000099H   SFRSYM    DATA     BYTE      SFRPRT2PS
      000000B1H   SFRSYM    DATA     BYTE      SFRPRT3PS
      000000C1H   SFRSYM    DATA     BYTE      SFRPRT4PS
      000000C9H   SFRSYM    DATA     BYTE      SFRPRT5PS
      000000D9H   SFRSYM    DATA     BYTE      SFRPRT6PS
      000000EAH   SFRSYM    DATA     BYTE      MXAX
      000000F0H   SFRSYM    DATA     BYTE      B
      000000E0H   SFRSYM    DATA     BYTE      ACC
      000000D0H   SFRSYM    DATA     BIT       P
      000000D0H.3 SFRSYM    DATA     BIT       RS0
      000000D0H.4 SFRSYM    DATA     BIT       RS1
      00000083H   SFRSYM    DATA     BYTE      DPH
      000000E8H   SFRSYM    DATA     BYTE      SFRPRT12DR
      00000082H   SFRSYM    DATA     BYTE      DPL
LX51 LINKER/LOCATER V4.64.0.0                                                         03/27/2019  09:25:09  PAGE 126


      000000F8H   SFRSYM    DATA     BYTE      SFRPRT15DR
      00000086H   SFRSYM    DATA     BYTE      DPS
      000000E9H   SFRSYM    DATA     BYTE      SFRPRT12PS
      00000093H   SFRSYM    DATA     BYTE      DPX
      000000F9H   SFRSYM    DATA     BYTE      SFRPRT15PS
      000000D0H.5 SFRSYM    DATA     BIT       F0
      000000D0H.1 SFRSYM    DATA     BIT       F1
      0000008AH   SFRSYM    DATA     BYTE      SFRPRT0SEL
      000000D0H   SFRSYM    DATA     BYTE      PSW
      000000A2H   SFRSYM    DATA     BYTE      SFRPRT1SEL
      0000009AH   SFRSYM    DATA     BYTE      SFRPRT2SEL
      000000B2H   SFRSYM    DATA     BYTE      SFRPRT3SEL
      000000C2H   SFRSYM    DATA     BYTE      SFRPRT4SEL

      0100C82AH   BLOCK     CODE     ---       LVL=0
      0100C82AH   LINE      CODE     ---       #51
      0100C82AH   LINE      CODE     ---       #81
      ---         BLOCKEND  ---      ---       LVL=0

      0100C82BH   BLOCK     CODE     ---       LVL=0
      0100C82BH   LINE      CODE     ---       #101
      0100C82BH   LINE      CODE     ---       #131
      ---         BLOCKEND  ---      ---       LVL=0

      0100C82CH   BLOCK     CODE     ---       LVL=0
      0100C82CH   LINE      CODE     ---       #151
      0100C82CH   LINE      CODE     ---       #181
      ---         BLOCKEND  ---      ---       LVL=0

      0100C82DH   BLOCK     CODE     ---       LVL=0
      0100C82DH   LINE      CODE     ---       #201
      0100C82DH   LINE      CODE     ---       #231
      ---         BLOCKEND  ---      ---       LVL=0

      ---         MODULE    ---      ---       ADC_AMUX
      0100C39DH   PUBLIC    CODE     ---       _ADC_AMux_Select
      0100C25FH   PUBLIC    CODE     ---       ADC_AMux_Start
      02000EA3H   SYMBOL    XDATA    BYTE      ADC_AMux_lastChannel

      0100C25FH   BLOCK     CODE     ---       LVL=0
      0100C25FH   BLOCK     CODE     NEAR LAB  LVL=1
      02000004H   SYMBOL    XDATA    BYTE      chan
      ---         BLOCKEND  ---      ---       LVL=1
      0100C25FH   LINE      CODE     ---       #36
      0100C25FH   LINE      CODE     ---       #37
      0100C25FH   LINE      CODE     ---       #40
      0100C26EH   LINE      CODE     ---       #41
      0100C26EH   LINE      CODE     ---       #43
      0100C271H   LINE      CODE     ---       #48
      0100C279H   LINE      CODE     ---       #50
      0100C27FH   LINE      CODE     ---       #51
      ---         BLOCKEND  ---      ---       LVL=0

      0100C39DH   BLOCK     CODE     ---       LVL=0
      02000003H   SYMBOL    XDATA    BYTE      channel
      0100C39DH   LINE      CODE     ---       #69
      0100C3A2H   LINE      CODE     ---       #70
      0100C3A2H   LINE      CODE     ---       #71
      0100C3A5H   LINE      CODE     ---       #72
      0100C3ADH   LINE      CODE     ---       #73
      0100C3B5H   LINE      CODE     ---       #74
      ---         BLOCKEND  ---      ---       LVL=0

      ---         MODULE    ---      ---       ADC_EXT_CP_CLK
      0100C744H   PUBLIC    CODE     ---       ADC_Ext_CP_Clk_GetSourceRegister
LX51 LINKER/LOCATER V4.64.0.0                                                         03/27/2019  09:25:09  PAGE 127


      0100C63AH   PUBLIC    CODE     ---       _ADC_Ext_CP_Clk_SetModeRegister
      0100C708H   PUBLIC    CODE     ---       ADC_Ext_CP_Clk_GetDividerRegister
      0100A0F8H   PUBLIC    CODE     ---       _ADC_Ext_CP_Clk_SetDividerRegister
      00000007H   SYMBOL    DATA     BYTE      state

      0100A0F8H   BLOCK     CODE     ---       LVL=0
      02000003H   SYMBOL    XDATA    WORD      clkDivider
      02000005H   SYMBOL    XDATA    BYTE      restart
      0100A103H   BLOCK     CODE     NEAR LAB  LVL=1
      02000006H   SYMBOL    XDATA    BYTE      enabled
      02000007H   SYMBOL    XDATA    BYTE      currSrc
      02000008H   SYMBOL    XDATA    WORD      oldDivider
      ---         BLOCKEND  ---      ---       LVL=1
      0100A0F8H   LINE      CODE     ---       #193
      0100A103H   LINE      CODE     ---       #195
      0100A103H   LINE      CODE     ---       #198
      0100A10BH   LINE      CODE     ---       #199
      0100A116H   LINE      CODE     ---       #201
      0100A128H   LINE      CODE     ---       #202
      0100A128H   LINE      CODE     ---       #203
      0100A132H   LINE      CODE     ---       #205
      0100A143H   LINE      CODE     ---       #206
      0100A143H   LINE      CODE     ---       #208
      0100A147H   LINE      CODE     ---       #209
      0100A147H   LINE      CODE     ---       #213
      0100A150H   LINE      CODE     ---       #214
      0100A157H   LINE      CODE     ---       #215
      0100A158H   LINE      CODE     ---       #217
      0100A158H   LINE      CODE     ---       #220
      0100A15FH   LINE      CODE     ---       #221
      0100A170H   LINE      CODE     ---       #222
      0100A170H   LINE      CODE     ---       #223
      0100A171H   LINE      CODE     ---       #225
      0100A171H   LINE      CODE     ---       #227
      0100A177H   LINE      CODE     ---       #228
      0100A177H   LINE      CODE     ---       #229
      0100A17CH   LINE      CODE     ---       #236
      0100A182H   LINE      CODE     ---       #237
      0100A187H   LINE      CODE     ---       #240
      0100A18EH   LINE      CODE     ---       #243
      0100A1A0H   LINE      CODE     ---       #244
      0100A1A0H   LINE      CODE     ---       #246
      0100A1B1H   LINE      CODE     ---       #247
      0100A1B7H   LINE      CODE     ---       #250
      0100A1BFH   LINE      CODE     ---       #253
      0100A1C6H   LINE      CODE     ---       #257
      0100A1CBH   LINE      CODE     ---       #259
      0100A1CBH   LINE      CODE     ---       #260
      0100A1CBH   LINE      CODE     ---       #263
      0100A1D3H   LINE      CODE     ---       #264
      0100A1D3H   LINE      CODE     ---       #266
      0100A1E4H   LINE      CODE     ---       #268
      0100A1F7H   LINE      CODE     ---       #269
      0100A201H   LINE      CODE     ---       #270
      0100A202H   LINE      CODE     ---       #272
      0100A202H   LINE      CODE     ---       #274
      0100A213H   LINE      CODE     ---       #275
      0100A228H   LINE      CODE     ---       #276
      0100A228H   LINE      CODE     ---       #277
      0100A228H   LINE      CODE     ---       #278
      0100A228H   LINE      CODE     ---       #279
      ---         BLOCKEND  ---      ---       LVL=0

      0100C708H   BLOCK     CODE     ---       LVL=0
      0100C708H   LINE      CODE     ---       #297
LX51 LINKER/LOCATER V4.64.0.0                                                         03/27/2019  09:25:09  PAGE 128


      0100C708H   LINE      CODE     ---       #298
      0100C708H   LINE      CODE     ---       #299
      0100C711H   LINE      CODE     ---       #300
      ---         BLOCKEND  ---      ---       LVL=0

      0100C63AH   BLOCK     CODE     ---       LVL=0
      00000007H   SYMBOL    DATA     BYTE      modeBitMask
      0100C63AH   LINE      CODE     ---       #332
      0100C63AH   LINE      CODE     ---       #333
      0100C63AH   LINE      CODE     ---       #334
      0100C646H   LINE      CODE     ---       #335
      ---         BLOCKEND  ---      ---       LVL=0
      00000007H   SYMBOL    DATA     BYTE      modeBitMask
      00000007H   SYMBOL    DATA     BYTE      oldSrc

      0100C744H   BLOCK     CODE     ---       LVL=0
      0100C744H   LINE      CODE     ---       #464
      0100C744H   LINE      CODE     ---       #465
      0100C744H   LINE      CODE     ---       #466
      0100C74BH   LINE      CODE     ---       #467
      ---         BLOCKEND  ---      ---       LVL=0

      ---         MODULE    ---      ---       ADC_THEACLK
      0100C74CH   PUBLIC    CODE     ---       ADC_theACLK_GetSourceRegister
      0100C647H   PUBLIC    CODE     ---       _ADC_theACLK_SetModeRegister
      0100C712H   PUBLIC    CODE     ---       ADC_theACLK_GetDividerRegister
      0100A359H   PUBLIC    CODE     ---       _ADC_theACLK_SetDividerRegister
      00000007H   SYMBOL    DATA     BYTE      state

      0100A359H   BLOCK     CODE     ---       LVL=0
      02000003H   SYMBOL    XDATA    WORD      clkDivider
      02000005H   SYMBOL    XDATA    BYTE      restart
      0100A364H   BLOCK     CODE     NEAR LAB  LVL=1
      02000006H   SYMBOL    XDATA    BYTE      enabled
      02000007H   SYMBOL    XDATA    BYTE      currSrc
      02000008H   SYMBOL    XDATA    WORD      oldDivider
      ---         BLOCKEND  ---      ---       LVL=1
      0100A359H   LINE      CODE     ---       #193
      0100A364H   LINE      CODE     ---       #195
      0100A364H   LINE      CODE     ---       #198
      0100A36CH   LINE      CODE     ---       #199
      0100A377H   LINE      CODE     ---       #201
      0100A389H   LINE      CODE     ---       #202
      0100A389H   LINE      CODE     ---       #203
      0100A393H   LINE      CODE     ---       #205
      0100A3A4H   LINE      CODE     ---       #206
      0100A3A4H   LINE      CODE     ---       #208
      0100A3A8H   LINE      CODE     ---       #209
      0100A3A8H   LINE      CODE     ---       #213
      0100A3B0H   LINE      CODE     ---       #214
      0100A3B7H   LINE      CODE     ---       #215
      0100A3B8H   LINE      CODE     ---       #217
      0100A3B8H   LINE      CODE     ---       #220
      0100A3BFH   LINE      CODE     ---       #221
      0100A3D0H   LINE      CODE     ---       #222
      0100A3D0H   LINE      CODE     ---       #223
      0100A3D1H   LINE      CODE     ---       #225
      0100A3D1H   LINE      CODE     ---       #227
      0100A3D7H   LINE      CODE     ---       #228
      0100A3D7H   LINE      CODE     ---       #229
      0100A3DCH   LINE      CODE     ---       #233
      0100A3E1H   LINE      CODE     ---       #234
      0100A3E6H   LINE      CODE     ---       #240
      0100A3EDH   LINE      CODE     ---       #243
      0100A3FFH   LINE      CODE     ---       #244
LX51 LINKER/LOCATER V4.64.0.0                                                         03/27/2019  09:25:09  PAGE 129


      0100A3FFH   LINE      CODE     ---       #246
      0100A410H   LINE      CODE     ---       #247
      0100A416H   LINE      CODE     ---       #250
      0100A41EH   LINE      CODE     ---       #253
      0100A425H   LINE      CODE     ---       #257
      0100A42AH   LINE      CODE     ---       #259
      0100A42AH   LINE      CODE     ---       #260
      0100A42AH   LINE      CODE     ---       #263
      0100A432H   LINE      CODE     ---       #264
      0100A432H   LINE      CODE     ---       #266
      0100A443H   LINE      CODE     ---       #268
      0100A456H   LINE      CODE     ---       #269
      0100A460H   LINE      CODE     ---       #270
      0100A461H   LINE      CODE     ---       #272
      0100A461H   LINE      CODE     ---       #274
      0100A472H   LINE      CODE     ---       #275
      0100A487H   LINE      CODE     ---       #276
      0100A487H   LINE      CODE     ---       #277
      0100A487H   LINE      CODE     ---       #278
      0100A487H   LINE      CODE     ---       #279
      ---         BLOCKEND  ---      ---       LVL=0

      0100C712H   BLOCK     CODE     ---       LVL=0
      0100C712H   LINE      CODE     ---       #297
      0100C712H   LINE      CODE     ---       #298
      0100C712H   LINE      CODE     ---       #299
      0100C71BH   LINE      CODE     ---       #300
      ---         BLOCKEND  ---      ---       LVL=0

      0100C647H   BLOCK     CODE     ---       LVL=0
      00000007H   SYMBOL    DATA     BYTE      modeBitMask
      0100C647H   LINE      CODE     ---       #332
      0100C647H   LINE      CODE     ---       #333
      0100C647H   LINE      CODE     ---       #334
      0100C653H   LINE      CODE     ---       #335
      ---         BLOCKEND  ---      ---       LVL=0
      00000007H   SYMBOL    DATA     BYTE      modeBitMask
      00000007H   SYMBOL    DATA     BYTE      oldSrc

      0100C74CH   BLOCK     CODE     ---       LVL=0
      0100C74CH   LINE      CODE     ---       #464
      0100C74CH   LINE      CODE     ---       #465
      0100C74CH   LINE      CODE     ---       #466
      0100C753H   LINE      CODE     ---       #467
      ---         BLOCKEND  ---      ---       LVL=0
      00000007H   SYMBOL    DATA     BYTE      clkPhase

      ---         MODULE    ---      ---       CYFLASH
      02000E91H   PUBLIC    XDATA    ---       dieTemperature
      0100C039H   PUBLIC    CODE     ---       CyEEPROM_Start
      0100C3E6H   PUBLIC    CODE     ---       CySetTemp
      000000CAH   SFRSYM    DATA     BYTE      SFRPRT5SEL
      000000DAH   SFRSYM    DATA     BYTE      SFRPRT6SEL
      000000D0H.6 SFRSYM    DATA     BIT       AC
      000000A8H.7 SFRSYM    DATA     BIT       EA
      000000A8H   SFRSYM    DATA     BYTE      IE
      00000085H   SFRSYM    DATA     BYTE      DPH1
      00000084H   SFRSYM    DATA     BYTE      DPL1
      000000D0H.7 SFRSYM    DATA     BIT       CY
      000000A0H   SFRSYM    DATA     BYTE      P2AX
      00000095H   SFRSYM    DATA     BYTE      DPX1
      00000081H   SFRSYM    DATA     BYTE      SP
      000000D0H.2 SFRSYM    DATA     BIT       OV
      00000080H   SFRSYM    DATA     BYTE      SFRPRT0DR
      00000090H   SFRSYM    DATA     BYTE      SFRPRT1DR
LX51 LINKER/LOCATER V4.64.0.0                                                         03/27/2019  09:25:09  PAGE 130


      000000F2H   SFRSYM    DATA     BYTE      SFRPRT12SEL
      00000098H   SFRSYM    DATA     BYTE      SFRPRT2DR
      000000B0H   SFRSYM    DATA     BYTE      SFRPRT3DR
      000000C0H   SFRSYM    DATA     BYTE      SFRPRT4DR
      000000FAH   SFRSYM    DATA     BYTE      SFRPRT15SEL
      000000C8H   SFRSYM    DATA     BYTE      SFRPRT5DR
      000000D8H   SFRSYM    DATA     BYTE      SFRPRT6DR
      00000089H   SFRSYM    DATA     BYTE      SFRPRT0PS
      00000091H   SFRSYM    DATA     BYTE      SFRPRT1PS
      00000099H   SFRSYM    DATA     BYTE      SFRPRT2PS
      000000B1H   SFRSYM    DATA     BYTE      SFRPRT3PS
      000000C1H   SFRSYM    DATA     BYTE      SFRPRT4PS
      000000C9H   SFRSYM    DATA     BYTE      SFRPRT5PS
      000000D9H   SFRSYM    DATA     BYTE      SFRPRT6PS
      000000EAH   SFRSYM    DATA     BYTE      MXAX
      000000F0H   SFRSYM    DATA     BYTE      B
      000000E0H   SFRSYM    DATA     BYTE      ACC
      000000D0H   SFRSYM    DATA     BIT       P
      000000D0H.3 SFRSYM    DATA     BIT       RS0
      000000D0H.4 SFRSYM    DATA     BIT       RS1
      00000083H   SFRSYM    DATA     BYTE      DPH
      000000E8H   SFRSYM    DATA     BYTE      SFRPRT12DR
      00000082H   SFRSYM    DATA     BYTE      DPL
      000000F8H   SFRSYM    DATA     BYTE      SFRPRT15DR
      00000086H   SFRSYM    DATA     BYTE      DPS
      000000E9H   SFRSYM    DATA     BYTE      SFRPRT12PS
      00000093H   SFRSYM    DATA     BYTE      DPX
      000000F9H   SFRSYM    DATA     BYTE      SFRPRT15PS
      000000D0H.5 SFRSYM    DATA     BIT       F0
      000000D0H.1 SFRSYM    DATA     BIT       F1
      0000008AH   SFRSYM    DATA     BYTE      SFRPRT0SEL
      000000D0H   SFRSYM    DATA     BYTE      PSW
      000000A2H   SFRSYM    DATA     BYTE      SFRPRT1SEL
      0000009AH   SFRSYM    DATA     BYTE      SFRPRT2SEL
      000000B2H   SFRSYM    DATA     BYTE      SFRPRT3SEL
      000000C2H   SFRSYM    DATA     BYTE      SFRPRT4SEL
      0100BA8FH   SYMBOL    CODE     ---       CyFlashGetSpcAlgorithm
      0100B991H   SYMBOL    CODE     ---       CySetTempInt
      02000E8EH   SYMBOL    XDATA    ---       rowBuffer
      00000007H   SYMBOL    DATA     BYTE      interruptState
      00000007H   SYMBOL    DATA     BYTE      interruptState

      0100B991H   BLOCK     CODE     ---       LVL=0
      0100B991H   BLOCK     CODE     NEAR LAB  LVL=1
      02000037H   SYMBOL    XDATA    BYTE      status
      ---         BLOCKEND  ---      ---       LVL=1
      0100B991H   LINE      CODE     ---       #155
      0100B991H   LINE      CODE     ---       #156
      0100B991H   LINE      CODE     ---       #160
      0100B994H   LINE      CODE     ---       #163
      0100B99AH   LINE      CODE     ---       #165
      0100B9A0H   LINE      CODE     ---       #166
      0100B9A0H   LINE      CODE     ---       #168
      0100B9AAH   LINE      CODE     ---       #169
      0100B9AAH   LINE      CODE     ---       #171
      0100B9AAH   LINE      CODE     ---       #172
      0100B9B9H   LINE      CODE     ---       #173
      0100B9B9H   LINE      CODE     ---       #174
      0100B9BEH   LINE      CODE     ---       #176
      0100B9C6H   LINE      CODE     ---       #177
      0100B9C6H   LINE      CODE     ---       #179
      0100B9CCH   LINE      CODE     ---       #180
      0100B9CEH   LINE      CODE     ---       #181
      0100B9CEH   LINE      CODE     ---       #182
      0100B9CEH   LINE      CODE     ---       #184
LX51 LINKER/LOCATER V4.64.0.0                                                         03/27/2019  09:25:09  PAGE 131


      0100B9D6H   LINE      CODE     ---       #185
      0100B9D6H   LINE      CODE     ---       #187
      0100B9D9H   LINE      CODE     ---       #188
      0100B9DBH   LINE      CODE     ---       #190
      0100B9DBH   LINE      CODE     ---       #191
      0100B9E1H   LINE      CODE     ---       #192
      0100B9E1H   LINE      CODE     ---       #194
      0100B9E6H   LINE      CODE     ---       #195
      ---         BLOCKEND  ---      ---       LVL=0

      0100BA8FH   BLOCK     CODE     ---       LVL=0
      0100BA8FH   BLOCK     CODE     NEAR LAB  LVL=1
      02000037H   SYMBOL    XDATA    BYTE      status
      ---         BLOCKEND  ---      ---       LVL=1
      0100BA8FH   LINE      CODE     ---       #215
      0100BA8FH   LINE      CODE     ---       #216
      0100BA8FH   LINE      CODE     ---       #220
      0100BA92H   LINE      CODE     ---       #222
      0100BA98H   LINE      CODE     ---       #223
      0100BA98H   LINE      CODE     ---       #224
      0100BAA0H   LINE      CODE     ---       #226
      0100BAA4H   LINE      CODE     ---       #227
      0100BAA4H   LINE      CODE     ---       #228
      0100BAACH   LINE      CODE     ---       #229
      0100BAACH   LINE      CODE     ---       #231
      0100BAB2H   LINE      CODE     ---       #232
      0100BAB4H   LINE      CODE     ---       #234
      0100BACAH   LINE      CODE     ---       #235
      0100BACAH   LINE      CODE     ---       #236
      0100BACEH   LINE      CODE     ---       #237
      0100BACEH   LINE      CODE     ---       #238
      0100BACEH   LINE      CODE     ---       #239
      0100BAD1H   LINE      CODE     ---       #240
      0100BAD3H   LINE      CODE     ---       #242
      0100BAD3H   LINE      CODE     ---       #243
      0100BAD9H   LINE      CODE     ---       #244
      0100BAD9H   LINE      CODE     ---       #246
      0100BADEH   LINE      CODE     ---       #247
      ---         BLOCKEND  ---      ---       LVL=0

      0100C3E6H   BLOCK     CODE     ---       LVL=0
      0100C3E6H   BLOCK     CODE     NEAR LAB  LVL=1
      02000036H   SYMBOL    XDATA    BYTE      status
      ---         BLOCKEND  ---      ---       LVL=1
      0100C3E6H   LINE      CODE     ---       #273
      0100C3E6H   LINE      CODE     ---       #274
      0100C3E6H   LINE      CODE     ---       #275
      0100C3EEH   LINE      CODE     ---       #277
      0100C3F0H   LINE      CODE     ---       #278
      0100C3F0H   LINE      CODE     ---       #279
      0100C3F8H   LINE      CODE     ---       #280
      0100C3F8H   LINE      CODE     ---       #282
      0100C3FDH   LINE      CODE     ---       #283
      ---         BLOCKEND  ---      ---       LVL=0
      00000004H   SYMBOL    DATA     WORD      rowAddress
      00000001H   SYMBOL    DATA     ---       rowData
      00000007H   SYMBOL    DATA     BYTE      status
      00000007H   SYMBOL    DATA     BYTE      interruptState

      0100C039H   BLOCK     CODE     ---       LVL=0
      0100C039H   BLOCK     CODE     NEAR LAB  LVL=1
      00000007H   SYMBOL    DATA     BYTE      interruptState
      ---         BLOCKEND  ---      ---       LVL=1
      0100C039H   LINE      CODE     ---       #636
      0100C039H   LINE      CODE     ---       #637
LX51 LINKER/LOCATER V4.64.0.0                                                         03/27/2019  09:25:09  PAGE 132


      0100C039H   LINE      CODE     ---       #640
      0100C03CH   LINE      CODE     ---       #647
      0100C043H   LINE      CODE     ---       #648
      0100C04AH   LINE      CODE     ---       #661
      0100C050H   LINE      CODE     ---       #668
      0100C057H   LINE      CODE     ---       #669
      0100C05EH   LINE      CODE     ---       #671
      0100C066H   LINE      CODE     ---       #672
      0100C066H   LINE      CODE     ---       #674
      0100C066H   LINE      CODE     ---       #676
      0100C069H   LINE      CODE     ---       #677
      ---         BLOCKEND  ---      ---       LVL=0
      00000007H   SYMBOL    DATA     BYTE      interruptState

      ---         MODULE    ---      ---       CYPM
      000000CAH   SFRSYM    DATA     BYTE      SFRPRT5SEL
      000000DAH   SFRSYM    DATA     BYTE      SFRPRT6SEL
      000000D0H.6 SFRSYM    DATA     BIT       AC
      000000A8H.7 SFRSYM    DATA     BIT       EA
      000000A8H   SFRSYM    DATA     BYTE      IE
      00000085H   SFRSYM    DATA     BYTE      DPH1
      00000084H   SFRSYM    DATA     BYTE      DPL1
      000000D0H.7 SFRSYM    DATA     BIT       CY
      000000A0H   SFRSYM    DATA     BYTE      P2AX
      00000095H   SFRSYM    DATA     BYTE      DPX1
      00000081H   SFRSYM    DATA     BYTE      SP
      000000D0H.2 SFRSYM    DATA     BIT       OV
      00000080H   SFRSYM    DATA     BYTE      SFRPRT0DR
      00000090H   SFRSYM    DATA     BYTE      SFRPRT1DR
      000000F2H   SFRSYM    DATA     BYTE      SFRPRT12SEL
      00000098H   SFRSYM    DATA     BYTE      SFRPRT2DR
      000000B0H   SFRSYM    DATA     BYTE      SFRPRT3DR
      000000C0H   SFRSYM    DATA     BYTE      SFRPRT4DR
      000000FAH   SFRSYM    DATA     BYTE      SFRPRT15SEL
      000000C8H   SFRSYM    DATA     BYTE      SFRPRT5DR
      000000D8H   SFRSYM    DATA     BYTE      SFRPRT6DR
      00000089H   SFRSYM    DATA     BYTE      SFRPRT0PS
      00000091H   SFRSYM    DATA     BYTE      SFRPRT1PS
      00000099H   SFRSYM    DATA     BYTE      SFRPRT2PS
      000000B1H   SFRSYM    DATA     BYTE      SFRPRT3PS
      000000C1H   SFRSYM    DATA     BYTE      SFRPRT4PS
      000000C9H   SFRSYM    DATA     BYTE      SFRPRT5PS
      000000D9H   SFRSYM    DATA     BYTE      SFRPRT6PS
      000000EAH   SFRSYM    DATA     BYTE      MXAX
      000000F0H   SFRSYM    DATA     BYTE      B
      000000E0H   SFRSYM    DATA     BYTE      ACC
      000000D0H   SFRSYM    DATA     BIT       P
      000000D0H.3 SFRSYM    DATA     BIT       RS0
      000000D0H.4 SFRSYM    DATA     BIT       RS1
      00000083H   SFRSYM    DATA     BYTE      DPH
      000000E8H   SFRSYM    DATA     BYTE      SFRPRT12DR
      00000082H   SFRSYM    DATA     BYTE      DPL
      000000F8H   SFRSYM    DATA     BYTE      SFRPRT15DR
      00000086H   SFRSYM    DATA     BYTE      DPS
      000000E9H   SFRSYM    DATA     BYTE      SFRPRT12PS
      00000093H   SFRSYM    DATA     BYTE      DPX
      000000F9H   SFRSYM    DATA     BYTE      SFRPRT15PS
      000000D0H.5 SFRSYM    DATA     BIT       F0
      000000D0H.1 SFRSYM    DATA     BIT       F1
      0000008AH   SFRSYM    DATA     BYTE      SFRPRT0SEL
      000000D0H   SFRSYM    DATA     BYTE      PSW
      000000A2H   SFRSYM    DATA     BYTE      SFRPRT1SEL
      0000009AH   SFRSYM    DATA     BYTE      SFRPRT2SEL
      000000B2H   SFRSYM    DATA     BYTE      SFRPRT3SEL
      000000C2H   SFRSYM    DATA     BYTE      SFRPRT4SEL
LX51 LINKER/LOCATER V4.64.0.0                                                         03/27/2019  09:25:09  PAGE 133


      02000DD8H   SYMBOL    XDATA    ---       cyPmClockBackup
      02000DE8H   SYMBOL    XDATA    ---       cyPmBackup
      00000006H   SYMBOL    DATA     WORD      clkBusDivTmp
      02000DD7H   SYMBOL    XDATA    BYTE      interruptStatus
      00000005H   SYMBOL    DATA     BYTE      interruptState

      ---         MODULE    ---      ---       CYSPC
      02000EA4H   PUBLIC    XDATA    BYTE      SpcLockState
      0100C337H   PUBLIC    CODE     ---       CySpcGetAlgorithm
      0100C66CH   PUBLIC    CODE     ---       CySpcUnlock
      0100C2DEH   PUBLIC    CODE     ---       CySpcLock
      0100C0F9H   PUBLIC    CODE     ---       _CySpcGetTemp
      0200003BH   PUBLIC    XDATA    BYTE      ?_CySpcWriteRow?BYTE
      0100BA3BH   PUBLIC    CODE     ---       _CySpcWriteRow
      0200003BH   PUBLIC    XDATA    BYTE      ?_CySpcLoadRow?BYTE
      0100B65CH   PUBLIC    CODE     ---       _CySpcLoadRow
      0100B87CH   PUBLIC    CODE     ---       _CySpcReadData
      0100C455H   PUBLIC    CODE     ---       CySpcStart
      000000CAH   SFRSYM    DATA     BYTE      SFRPRT5SEL
      000000DAH   SFRSYM    DATA     BYTE      SFRPRT6SEL
      000000D0H.6 SFRSYM    DATA     BIT       AC
      000000A8H.7 SFRSYM    DATA     BIT       EA
      000000A8H   SFRSYM    DATA     BYTE      IE
      00000085H   SFRSYM    DATA     BYTE      DPH1
      00000084H   SFRSYM    DATA     BYTE      DPL1
      000000D0H.7 SFRSYM    DATA     BIT       CY
      000000A0H   SFRSYM    DATA     BYTE      P2AX
      00000095H   SFRSYM    DATA     BYTE      DPX1
      00000081H   SFRSYM    DATA     BYTE      SP
      000000D0H.2 SFRSYM    DATA     BIT       OV
      00000080H   SFRSYM    DATA     BYTE      SFRPRT0DR
      00000090H   SFRSYM    DATA     BYTE      SFRPRT1DR
      000000F2H   SFRSYM    DATA     BYTE      SFRPRT12SEL
      00000098H   SFRSYM    DATA     BYTE      SFRPRT2DR
      000000B0H   SFRSYM    DATA     BYTE      SFRPRT3DR
      000000C0H   SFRSYM    DATA     BYTE      SFRPRT4DR
      000000FAH   SFRSYM    DATA     BYTE      SFRPRT15SEL
      000000C8H   SFRSYM    DATA     BYTE      SFRPRT5DR
      000000D8H   SFRSYM    DATA     BYTE      SFRPRT6DR
      00000089H   SFRSYM    DATA     BYTE      SFRPRT0PS
      00000091H   SFRSYM    DATA     BYTE      SFRPRT1PS
      00000099H   SFRSYM    DATA     BYTE      SFRPRT2PS
      000000B1H   SFRSYM    DATA     BYTE      SFRPRT3PS
      000000C1H   SFRSYM    DATA     BYTE      SFRPRT4PS
      000000C9H   SFRSYM    DATA     BYTE      SFRPRT5PS
      000000D9H   SFRSYM    DATA     BYTE      SFRPRT6PS
      000000EAH   SFRSYM    DATA     BYTE      MXAX
      000000F0H   SFRSYM    DATA     BYTE      B
      000000E0H   SFRSYM    DATA     BYTE      ACC
      000000D0H   SFRSYM    DATA     BIT       P
      000000D0H.3 SFRSYM    DATA     BIT       RS0
      000000D0H.4 SFRSYM    DATA     BIT       RS1
      00000083H   SFRSYM    DATA     BYTE      DPH
      000000E8H   SFRSYM    DATA     BYTE      SFRPRT12DR
      00000082H   SFRSYM    DATA     BYTE      DPL
      000000F8H   SFRSYM    DATA     BYTE      SFRPRT15DR
      00000086H   SFRSYM    DATA     BYTE      DPS
      000000E9H   SFRSYM    DATA     BYTE      SFRPRT12PS
      00000093H   SFRSYM    DATA     BYTE      DPX
      000000F9H   SFRSYM    DATA     BYTE      SFRPRT15PS
      000000D0H.5 SFRSYM    DATA     BIT       F0
      000000D0H.1 SFRSYM    DATA     BIT       F1
      0000008AH   SFRSYM    DATA     BYTE      SFRPRT0SEL
      000000D0H   SFRSYM    DATA     BYTE      PSW
      000000A2H   SFRSYM    DATA     BYTE      SFRPRT1SEL
LX51 LINKER/LOCATER V4.64.0.0                                                         03/27/2019  09:25:09  PAGE 134


      0000009AH   SFRSYM    DATA     BYTE      SFRPRT2SEL
      000000B2H   SFRSYM    DATA     BYTE      SFRPRT3SEL
      000000C2H   SFRSYM    DATA     BYTE      SFRPRT4SEL

      0100C455H   BLOCK     CODE     ---       LVL=0
      0100C455H   BLOCK     CODE     NEAR LAB  LVL=1
      00000007H   SYMBOL    DATA     BYTE      interruptState
      ---         BLOCKEND  ---      ---       LVL=1
      0100C455H   LINE      CODE     ---       #78
      0100C455H   LINE      CODE     ---       #79
      0100C455H   LINE      CODE     ---       #81
      0100C458H   LINE      CODE     ---       #83
      0100C45FH   LINE      CODE     ---       #84
      0100C466H   LINE      CODE     ---       #87
      0100C469H   LINE      CODE     ---       #88
      ---         BLOCKEND  ---      ---       LVL=0
      00000007H   SYMBOL    DATA     BYTE      interruptState

      0100B87CH   BLOCK     CODE     ---       LVL=0
      02000038H   SYMBOL    XDATA    ---       buffer
      0200003BH   SYMBOL    XDATA    BYTE      size
      0100B88AH   BLOCK     CODE     NEAR LAB  LVL=1
      0200003CH   SYMBOL    XDATA    BYTE      i
      ---         BLOCKEND  ---      ---       LVL=1
      0100B87CH   LINE      CODE     ---       #135
      0100B88AH   LINE      CODE     ---       #136
      0100B88AH   LINE      CODE     ---       #139
      0100B898H   LINE      CODE     ---       #140
      0100B898H   LINE      CODE     ---       #141
      0100B8A6H   LINE      CODE     ---       #142
      0100B8A6H   LINE      CODE     ---       #143
      0100B8ADH   LINE      CODE     ---       #144
      0100B8AFH   LINE      CODE     ---       #145
      0100B8CEH   LINE      CODE     ---       #146
      0100B8D6H   LINE      CODE     ---       #148
      0100B8DBH   LINE      CODE     ---       #149
      ---         BLOCKEND  ---      ---       LVL=0
      00000005H   SYMBOL    DATA     BYTE      status
      00000007H   SYMBOL    DATA     BYTE      i

      0100B65CH   BLOCK     CODE     ---       LVL=0
      00000007H   SYMBOL    DATA     BYTE      array
      0200003CH   SYMBOL    XDATA    ---       buffer
      0200003FH   SYMBOL    XDATA    WORD      size
      0100B667H   BLOCK     CODE     NEAR LAB  LVL=1
      02000041H   SYMBOL    XDATA    BYTE      status
      00000006H   SYMBOL    DATA     WORD      i
      ---         BLOCKEND  ---      ---       LVL=1
      0100B65CH   LINE      CODE     ---       #258
      0100B667H   LINE      CODE     ---       #259
      0100B667H   LINE      CODE     ---       #260
      0100B66DH   LINE      CODE     ---       #264
      0100B675H   LINE      CODE     ---       #265
      0100B675H   LINE      CODE     ---       #266
      0100B67BH   LINE      CODE     ---       #267
      0100B67EH   LINE      CODE     ---       #268
      0100B681H   LINE      CODE     ---       #271
      0100B689H   LINE      CODE     ---       #272
      0100B689H   LINE      CODE     ---       #273
      0100B68EH   LINE      CODE     ---       #275
      0100B69EH   LINE      CODE     ---       #276
      0100B69EH   LINE      CODE     ---       #277
      0100B6B4H   LINE      CODE     ---       #278
      0100B6BBH   LINE      CODE     ---       #279
      0100B6BBH   LINE      CODE     ---       #281
LX51 LINKER/LOCATER V4.64.0.0                                                         03/27/2019  09:25:09  PAGE 135


      0100B6BBH   LINE      CODE     ---       #282
      0100B6C1H   LINE      CODE     ---       #283
      0100B6C1H   LINE      CODE     ---       #284
      0100B6C3H   LINE      CODE     ---       #286
      0100B6C3H   LINE      CODE     ---       #287
      0100B6C9H   LINE      CODE     ---       #288
      0100B6C9H   LINE      CODE     ---       #290
      0100B6CEH   LINE      CODE     ---       #291
      ---         BLOCKEND  ---      ---       LVL=0

      0100BA3BH   BLOCK     CODE     ---       LVL=0
      00000004H   SYMBOL    DATA     BYTE      array
      0200003CH   SYMBOL    XDATA    WORD      address
      00000003H   SYMBOL    DATA     BYTE      tempPolarity
      0200003FH   SYMBOL    XDATA    BYTE      tempMagnitude
      0100BA45H   BLOCK     CODE     NEAR LAB  LVL=1
      00000005H   SYMBOL    DATA     BYTE      status
      ---         BLOCKEND  ---      ---       LVL=1
      0100BA3BH   LINE      CODE     ---       #464
      0100BA45H   LINE      CODE     ---       #466
      0100BA45H   LINE      CODE     ---       #467
      0100BA47H   LINE      CODE     ---       #470
      0100BA4FH   LINE      CODE     ---       #471
      0100BA4FH   LINE      CODE     ---       #472
      0100BA55H   LINE      CODE     ---       #473
      0100BA58H   LINE      CODE     ---       #474
      0100BA5BH   LINE      CODE     ---       #477
      0100BA63H   LINE      CODE     ---       #478
      0100BA63H   LINE      CODE     ---       #479
      0100BA68H   LINE      CODE     ---       #480
      0100BA70H   LINE      CODE     ---       #481
      0100BA7AH   LINE      CODE     ---       #482
      0100BA7CH   LINE      CODE     ---       #483
      0100BA84H   LINE      CODE     ---       #484
      0100BA86H   LINE      CODE     ---       #486
      0100BA86H   LINE      CODE     ---       #487
      0100BA88H   LINE      CODE     ---       #488
      0100BA88H   LINE      CODE     ---       #489
      0100BA8AH   LINE      CODE     ---       #491
      0100BA8AH   LINE      CODE     ---       #492
      0100BA8CH   LINE      CODE     ---       #493
      0100BA8CH   LINE      CODE     ---       #495
      0100BA8EH   LINE      CODE     ---       #496
      ---         BLOCKEND  ---      ---       LVL=0
      00000007H   SYMBOL    DATA     BYTE      array
      00000005H   SYMBOL    DATA     BYTE      sectorNumber
      00000006H   SYMBOL    DATA     BYTE      status

      0100C0F9H   BLOCK     CODE     ---       LVL=0
      00000007H   SYMBOL    DATA     BYTE      numSamples
      0100C0F9H   BLOCK     CODE     NEAR LAB  LVL=1
      00000006H   SYMBOL    DATA     BYTE      status
      ---         BLOCKEND  ---      ---       LVL=1
      0100C0F9H   LINE      CODE     ---       #573
      0100C0F9H   LINE      CODE     ---       #574
      0100C0F9H   LINE      CODE     ---       #575
      0100C0FBH   LINE      CODE     ---       #578
      0100C103H   LINE      CODE     ---       #579
      0100C103H   LINE      CODE     ---       #580
      0100C109H   LINE      CODE     ---       #581
      0100C10CH   LINE      CODE     ---       #582
      0100C10FH   LINE      CODE     ---       #585
      0100C117H   LINE      CODE     ---       #586
      0100C117H   LINE      CODE     ---       #587
      0100C11CH   LINE      CODE     ---       #588
LX51 LINKER/LOCATER V4.64.0.0                                                         03/27/2019  09:25:09  PAGE 136


      0100C11EH   LINE      CODE     ---       #590
      0100C11EH   LINE      CODE     ---       #591
      0100C120H   LINE      CODE     ---       #592
      0100C120H   LINE      CODE     ---       #593
      0100C122H   LINE      CODE     ---       #595
      0100C122H   LINE      CODE     ---       #596
      0100C124H   LINE      CODE     ---       #597
      0100C124H   LINE      CODE     ---       #599
      0100C126H   LINE      CODE     ---       #600
      ---         BLOCKEND  ---      ---       LVL=0

      0100C2DEH   BLOCK     CODE     ---       LVL=0
      0100C2DEH   BLOCK     CODE     NEAR LAB  LVL=1
      0200003BH   SYMBOL    XDATA    BYTE      status
      00000007H   SYMBOL    DATA     BYTE      interruptState
      ---         BLOCKEND  ---      ---       LVL=1
      0100C2DEH   LINE      CODE     ---       #618
      0100C2DEH   LINE      CODE     ---       #619
      0100C2DEH   LINE      CODE     ---       #620
      0100C2E4H   LINE      CODE     ---       #624
      0100C2E7H   LINE      CODE     ---       #626
      0100C2EDH   LINE      CODE     ---       #627
      0100C2EDH   LINE      CODE     ---       #628
      0100C2EFH   LINE      CODE     ---       #629
      0100C2F4H   LINE      CODE     ---       #647
      0100C2F4H   LINE      CODE     ---       #650
      0100C2F7H   LINE      CODE     ---       #652
      0100C2FCH   LINE      CODE     ---       #653
      ---         BLOCKEND  ---      ---       LVL=0

      0100C66CH   BLOCK     CODE     ---       LVL=0
      0100C66CH   BLOCK     CODE     NEAR LAB  LVL=1
      00000007H   SYMBOL    DATA     BYTE      interruptState
      ---         BLOCKEND  ---      ---       LVL=1
      0100C66CH   LINE      CODE     ---       #670
      0100C66CH   LINE      CODE     ---       #671
      0100C66CH   LINE      CODE     ---       #675
      0100C66FH   LINE      CODE     ---       #678
      0100C674H   LINE      CODE     ---       #698
      0100C677H   LINE      CODE     ---       #699
      ---         BLOCKEND  ---      ---       LVL=0

      0100C337H   BLOCK     CODE     ---       LVL=0
      0100C337H   BLOCK     CODE     NEAR LAB  LVL=1
      00000007H   SYMBOL    DATA     BYTE      status
      ---         BLOCKEND  ---      ---       LVL=1
      0100C337H   LINE      CODE     ---       #716
      0100C337H   LINE      CODE     ---       #717
      0100C337H   LINE      CODE     ---       #718
      0100C339H   LINE      CODE     ---       #721
      0100C341H   LINE      CODE     ---       #722
      0100C341H   LINE      CODE     ---       #723
      0100C347H   LINE      CODE     ---       #724
      0100C34AH   LINE      CODE     ---       #725
      0100C34DH   LINE      CODE     ---       #726
      0100C34FH   LINE      CODE     ---       #728
      0100C34FH   LINE      CODE     ---       #729
      0100C351H   LINE      CODE     ---       #730
      0100C351H   LINE      CODE     ---       #732
      0100C351H   LINE      CODE     ---       #733
      ---         BLOCKEND  ---      ---       LVL=0

      ---         MODULE    ---      ---       ?C?FPADD
      01006F54H   PUBLIC    CODE     ---       ?C?FPADD
      01006F50H   PUBLIC    CODE     ---       ?C?FPSUB
LX51 LINKER/LOCATER V4.64.0.0                                                         03/27/2019  09:25:09  PAGE 137



      ---         MODULE    ---      ---       ?C?FPMUL
      01007045H   PUBLIC    CODE     ---       ?C?FPMUL

      ---         MODULE    ---      ---       ?C?FPDIV
      0100714EH   PUBLIC    CODE     ---       ?C?FPDIV

      ---         MODULE    ---      ---       ?C?FPCMP
      010071EDH   PUBLIC    CODE     ---       ?C?FPCMP
      010071EBH   PUBLIC    CODE     ---       ?C?FPCMP3

      ---         MODULE    ---      ---       ?C?FCAST
      0100726EH   PUBLIC    CODE     ---       ?C?FCASTC
      01007269H   PUBLIC    CODE     ---       ?C?FCASTI
      01007264H   PUBLIC    CODE     ---       ?C?FCASTL

      ---         MODULE    ---      ---       ?C?CASTF
      010072A2H   PUBLIC    CODE     ---       ?C?CASTF

      ---         MODULE    ---      ---       PRINTF
      02000640H   PUBLIC    XDATA    ---       ?_PRINTF?BYTE
      02000640H   PUBLIC    XDATA    ---       ?_SPRINTF?BYTE
      01008112H   PUBLIC    CODE     ---       _PRINTF
      0100810CH   PUBLIC    CODE     ---       _SPRINTF

      ---         MODULE    ---      ---       ?C?FPGETOPN
      010072D9H   PUBLIC    CODE     ---       ?C?FPGETOPN2
      0100730EH   PUBLIC    CODE     ---       ?C?FPNANRESULT
      01007318H   PUBLIC    CODE     ---       ?C?FPOVERFLOW
      010072F0H   PUBLIC    CODE     ---       ?C?FPRESULT
      01007304H   PUBLIC    CODE     ---       ?C?FPRESULT2
      01007315H   PUBLIC    CODE     ---       ?C?FPUNDERFLOW

      ---         MODULE    ---      ---       ?C?FPROUND
      01007323H   PUBLIC    CODE     ---       ?C?FPROUND

      ---         MODULE    ---      ---       ?C?FPCONVERT
      01007360H   PUBLIC    CODE     ---       ?C?FPCONVERT

      ---         MODULE    ---      ---       ?C?FTNPWR
      01007495H   PUBLIC    CODE     ---       ?C?FTNPWR

      ---         MODULE    ---      ---       ?C_INIT
      0100A7B3H   PUBLIC    CODE     ---       ?C_START

      ---         MODULE    ---      ---       ?C?CLDPTR
      010074D5H   PUBLIC    CODE     ---       ?C?CLDPTR

      ---         MODULE    ---      ---       ?C?CLDOPTR
      010074EEH   PUBLIC    CODE     ---       ?C?CLDOPTR

      ---         MODULE    ---      ---       ?C?CSTPTR
      0100751BH   PUBLIC    CODE     ---       ?C?CSTPTR

      ---         MODULE    ---      ---       ?C?IMUL
      0100752DH   PUBLIC    CODE     ---       ?C?IMUL

      ---         MODULE    ---      ---       ?C?ISTPTR
      0100753FH   PUBLIC    CODE     ---       ?C?ISTPTR

      ---         MODULE    ---      ---       ?C?LMUL
      0100755EH   PUBLIC    CODE     ---       ?C?LMUL

      ---         MODULE    ---      ---       ?C?ULDIV
      010075E9H   PUBLIC    CODE     ---       ?C?ULDIV
LX51 LINKER/LOCATER V4.64.0.0                                                         03/27/2019  09:25:09  PAGE 138



      ---         MODULE    ---      ---       ?C?SLDIV
      0100BC9DH   PUBLIC    CODE     ---       ?C?SLDIV

      ---         MODULE    ---      ---       ?C?LNOT
      0100767BH   PUBLIC    CODE     ---       ?C?LNOT

      ---         MODULE    ---      ---       ?C?LNEG
      01007688H   PUBLIC    CODE     ---       ?C?LNEG

      ---         MODULE    ---      ---       ?C?SLCMP
      01007696H   PUBLIC    CODE     ---       ?C?SLCMP

      ---         MODULE    ---      ---       ?C?ULCMP
      010076ACH   PUBLIC    CODE     ---       ?C?ULCMP

      ---         MODULE    ---      ---       ?C?ULSHR
      010076BDH   PUBLIC    CODE     ---       ?C?ULSHR

      ---         MODULE    ---      ---       ?C?SLSHR
      010076D0H   PUBLIC    CODE     ---       ?C?SLSHR

      ---         MODULE    ---      ---       ?C?LSHL
      010076E4H   PUBLIC    CODE     ---       ?C?LSHL

      ---         MODULE    ---      ---       ?C?LLDPTR
      010076F7H   PUBLIC    CODE     ---       ?C?LLDPTR

      ---         MODULE    ---      ---       ?C?LSTPTR
      01007717H   PUBLIC    CODE     ---       ?C?LSTPTR

      ---         MODULE    ---      ---       ?C?LSTXDATA
      01007731H   PUBLIC    CODE     ---       ?C?LSTXDATA

      ---         MODULE    ---      ---       ?C?PLDIXDATA
      0100773DH   PUBLIC    CODE     ---       ?C?PLDIXDATA

      ---         MODULE    ---      ---       ?C?PSTXDATA
      01007754H   PUBLIC    CODE     ---       ?C?PSTXDATA

      ---         MODULE    ---      ---       ?C?CCASE
      0100775DH   PUBLIC    CODE     ---       ?C?CCASE

      ---         MODULE    ---      ---       ?C_XBP
      0000000EH   PUBLIC    DATA     ---       ?C_XBP

      ---         MODULE    ---      ---       ?C?ADDXBP
      01007783H   PUBLIC    CODE     ---       ?C?ADDXBP

      ---         MODULE    ---      ---       ?C?LIMUL
      010077A7H   PUBLIC    CODE     ---       ?C?LIMUL

      ---         MODULE    ---      ---       PUTCHAR
      0100C1A8H   PUBLIC    CODE     ---       _PUTCHAR

      ---         MODULE    ---      ---       ABS
      0100C678H   PUBLIC    CODE     ---       _ABS

      ---         MODULE    ---      ---       STRCAT
      02000B06H   PUBLIC    XDATA    ---       ?_STRCAT?BYTE
      0100B7ABH   PUBLIC    CODE     ---       _STRCAT

      ---         MODULE    ---      ---       STRLEN
      0100C46AH   PUBLIC    CODE     ---       _STRLEN

LX51 LINKER/LOCATER V4.64.0.0                                                         03/27/2019  09:25:09  PAGE 139


      ---         MODULE    ---      ---       ?C?COPYAMD
      01007890H   PUBLIC    CODE     ---       ?C?COPYAMD

      ---         MODULE    ---      ---       ?C?STRCPYAMD
      0100796EH   PUBLIC    CODE     ---       ?C?STRCPYAMD

      ---         MODULE    ---      ---       ?C?IILDX
      0100798BH   PUBLIC    CODE     ---       ?C?IILDX

      ---         MODULE    ---      ---       ?C?ILDIX
      010079A1H   PUBLIC    CODE     ---       ?C?ILDIX

      ---         MODULE    ---      ---       ?C?LLDIDATA
      010079B7H   PUBLIC    CODE     ---       ?C?LLDIDATA

      ---         MODULE    ---      ---       ?C?LLDXDATA
      010079C3H   PUBLIC    CODE     ---       ?C?LLDXDATA

      ---         MODULE    ---      ---       ?C?LLDPDATA
      010079CFH   PUBLIC    CODE     ---       ?C?LLDPDATA

      ---         MODULE    ---      ---       ?C?LLDCODE
      010079DBH   PUBLIC    CODE     ---       ?C?LLDCODE

      ---         MODULE    ---      ---       ?C?LSTIDATA
      010079EBH   PUBLIC    CODE     ---       ?C?LSTIDATA

      ---         MODULE    ---      ---       ?C?LSTPDATA
      010079F7H   PUBLIC    CODE     ---       ?C?LSTPDATA



INTER-MODULE CROSS-REFERENCE LISTING


NAME . . . . . . . . . . . . . . . . . . CLASS    MODULE NAMES
==============================================================

?_Bootloadable_SetFlashByte?BYTE . . . . XDATA    BOOTLOADABLE  
?_commWrite?BYTE . . . . . . . . . . . . XDATA    COMMAND_PROCESSING  
?_commWrite_old_id?BYTE. . . . . . . . . XDATA    COMMAND_PROCESSING  
?_cyconfigcpy?BYTE . . . . . . . . . . . XDATA    CYMEM  CYFITTER_CFG  
?_CyDmaChSetConfiguration?BYTE . . . . . XDATA    CYDMAC  DMA_DMA  
?_CyDmaChStatus?BYTE . . . . . . . . . . XDATA    CYDMAC  
?_CyDmaTdGetAddress?BYTE . . . . . . . . XDATA    CYDMAC  
?_CyDmaTdGetConfiguration?BYTE . . . . . XDATA    CYDMAC  
?_CyDmaTdSetConfiguration?BYTE . . . . . XDATA    CYDMAC  MAIN  
?_CySpcLoadMultiByte?BYTE. . . . . . . . XDATA    CYSPC  EEPROM  
?_CySpcLoadRow?BYTE. . . . . . . . . . . XDATA    CYSPC  EEPROM  
?_CySpcLoadRowFull?BYTE. . . . . . . . . XDATA    CYSPC  CYFLASH  
?_CySpcWriteRow?BYTE . . . . . . . . . . XDATA    CYSPC  CYFLASH  EEPROM  
?_CyWriteRowFull?BYTE. . . . . . . . . . XDATA    CYFLASH  
?_DMA_DmaInitialize?BYTE . . . . . . . . XDATA    DMA_DMA  MAIN  
?_PRINTF?BYTE. . . . . . . . . . . . . . XDATA    PRINTF  
?_SPRINTF?BYTE . . . . . . . . . . . . . XDATA    PRINTF  COMMAND_PROCESSING  
?_strcat?BYTE. . . . . . . . . . . . . . XDATA    STRCAT  COMMAND_PROCESSING  
?C?ADDXBP. . . . . . . . . . . . . . . . CODE     ?C?ADDXBP  CYLIB  
?C?CASTF . . . . . . . . . . . . . . . . CODE     ?C?CASTF  ADC  COMMAND_PROCESSING  INTERRUPTIONS  
?C?CCASE . . . . . . . . . . . . . . . . CODE     ?C?CCASE  COMMAND_PROCESSING  PRINTF  
?C?CLDOPTR . . . . . . . . . . . . . . . CODE     ?C?CLDOPTR  PRINTF  
?C?CLDPTR. . . . . . . . . . . . . . . . CODE     ?C?CLDPTR  COMMAND_PROCESSING  CYSPC  PRINTF  STRCAT  STRLEN  UART_RS4
                                                  85  UTILS  
?C?CODESEG . . . . . . . . . . . . . . . NUMBER   ** LX51 GENERATED **  
?C?COPYAMD . . . . . . . . . . . . . . . CODE     ?C?COPYAMD  COMMAND_PROCESSING  INTERRUPTIONS  MAIN  
?C?CSTPTR. . . . . . . . . . . . . . . . CODE     ?C?CSTPTR  CYDMAC  CYSPC  PRINTF  STRCAT  
LX51 LINKER/LOCATER V4.64.0.0                                                         03/27/2019  09:25:09  PAGE 140


?C?FCASTC. . . . . . . . . . . . . . . . CODE     ?C?FCAST  
?C?FCASTI. . . . . . . . . . . . . . . . CODE     ?C?FCAST  ADC  COMMAND_PROCESSING  
?C?FCASTL. . . . . . . . . . . . . . . . CODE     ?C?FCAST  ADC  COMMAND_PROCESSING  INTERRUPTIONS  
?C?FPADD . . . . . . . . . . . . . . . . CODE     ?C?FPADD  ?C?FPCONVERT  COMMAND_PROCESSING  
?C?FPCMP . . . . . . . . . . . . . . . . CODE     ?C?FPCMP  
?C?FPCMP3. . . . . . . . . . . . . . . . CODE     ?C?FPCMP  ADC  COMMAND_PROCESSING  INTERRUPTIONS  
?C?FPCONVERT . . . . . . . . . . . . . . CODE     ?C?FPCONVERT  PRINTF  
?C?FPDIV . . . . . . . . . . . . . . . . CODE     ?C?FPDIV  ?C?FPCONVERT  ADC  COMMAND_PROCESSING  
?C?FPGETOPN2 . . . . . . . . . . . . . . CODE     ?C?FPGETOPN  ?C?FPADD  ?C?FPDIV  ?C?FPMUL  
?C?FPMUL . . . . . . . . . . . . . . . . CODE     ?C?FPMUL  ?C?FPCONVERT  ?C?FTNPWR  ADC  COMMAND_PROCESSING  INTERRUPTI
                                                  ONS  
?C?FPNANRESULT . . . . . . . . . . . . . CODE     ?C?FPGETOPN  ?C?FPADD  ?C?FPDIV  ?C?FPMUL  
?C?FPOVERFLOW. . . . . . . . . . . . . . CODE     ?C?FPGETOPN  ?C?FPADD  ?C?FPDIV  ?C?FPMUL  
?C?FPRESULT. . . . . . . . . . . . . . . CODE     ?C?FPGETOPN  ?C?FPADD  ?C?FPDIV  ?C?FPMUL  
?C?FPRESULT2 . . . . . . . . . . . . . . CODE     ?C?FPGETOPN  ?C?FPDIV  ?C?FPMUL  
?C?FPROUND . . . . . . . . . . . . . . . CODE     ?C?FPROUND  PRINTF  
?C?FPSUB . . . . . . . . . . . . . . . . CODE     ?C?FPADD  
?C?FPUNDERFLOW . . . . . . . . . . . . . CODE     ?C?FPGETOPN  ?C?FPADD  ?C?FPDIV  ?C?FPMUL  
?C?FTNPWR. . . . . . . . . . . . . . . . CODE     ?C?FTNPWR  ?C?FPCONVERT  
?C?IILDX . . . . . . . . . . . . . . . . CODE     ?C?IILDX  STRCAT  
?C?ILDIX . . . . . . . . . . . . . . . . CODE     ?C?ILDIX  STRCAT  
?C?IMUL. . . . . . . . . . . . . . . . . CODE     ?C?IMUL  INTERRUPTIONS  
?C?ISTPTR. . . . . . . . . . . . . . . . CODE     ?C?ISTPTR  CYDMAC  
?C?LIMUL . . . . . . . . . . . . . . . . CODE     ?C?LIMUL  COMMAND_PROCESSING  CYSPC  
?C?LLDCODE . . . . . . . . . . . . . . . CODE     ?C?LLDCODE  ?C?LLDPTR  
?C?LLDIDATA. . . . . . . . . . . . . . . CODE     ?C?LLDIDATA  ?C?LLDPTR  
?C?LLDPDATA. . . . . . . . . . . . . . . CODE     ?C?LLDPDATA  ?C?LLDPTR  
?C?LLDPTR. . . . . . . . . . . . . . . . CODE     ?C?LLDPTR  CYLIB  
?C?LLDXDATA. . . . . . . . . . . . . . . CODE     ?C?LLDXDATA  ?C?LLDPTR  
?C?LMUL. . . . . . . . . . . . . . . . . CODE     ?C?LMUL  ADC  COMMAND_PROCESSING  CYLIB  CYPM  INTERRUPTIONS  UTILS  
?C?LNEG. . . . . . . . . . . . . . . . . CODE     ?C?LNEG  ?C?CASTF  ?C?FCAST  MAIN  
?C?LNOT. . . . . . . . . . . . . . . . . CODE     ?C?LNOT  CYDMAC  
?C?LSHL. . . . . . . . . . . . . . . . . CODE     ?C?LSHL  ADC  COMMAND_PROCESSING  CYDMAC  CYLIB  INTERRUPTIONS  UTILS 
                                                   
?C?LSTIDATA. . . . . . . . . . . . . . . CODE     ?C?LSTIDATA  ?C?LSTPTR  
?C?LSTPDATA. . . . . . . . . . . . . . . CODE     ?C?LSTPDATA  ?C?LSTPTR  
?C?LSTPTR. . . . . . . . . . . . . . . . CODE     ?C?LSTPTR  CYLIB  
?C?LSTXDATA. . . . . . . . . . . . . . . CODE     ?C?LSTXDATA  ?C?LSTPTR  ADC  BOOTLOADABLE  COMMAND_PROCESSING  CYDMAC 
                                                   CYFITTER_CFG  CYLIB  CYSPC  INTERRUPTIONS  MAIN  SHIFTREG_ENC_1  SHIF
                                                  TREG_ENC_2  SHIFTREG_ENC_3  SHIFTREG_ENC_4  UTILS  
?C?PLDIXDATA . . . . . . . . . . . . . . CODE     ?C?PLDIXDATA  PRINTF  
?C?PSTXDATA. . . . . . . . . . . . . . . CODE     ?C?PSTXDATA  PRINTF  
?C?SLCMP . . . . . . . . . . . . . . . . CODE     ?C?SLCMP  COMMAND_PROCESSING  INTERRUPTIONS  
?C?SLDIV . . . . . . . . . . . . . . . . CODE     ?C?SLDIV  ADC  COMMAND_PROCESSING  INTERRUPTIONS  UTILS  
?C?SLSHR . . . . . . . . . . . . . . . . CODE     ?C?SLSHR  COMMAND_PROCESSING  INTERRUPTIONS  UTILS  
?C?STRCPYAMD . . . . . . . . . . . . . . CODE     ?C?STRCPYAMD  COMMAND_PROCESSING  
?C?ULCMP . . . . . . . . . . . . . . . . CODE     ?C?ULCMP  COMMAND_PROCESSING  CYDMAC  CYFLASH  INTERRUPTIONS  
?C?ULDIV . . . . . . . . . . . . . . . . CODE     ?C?ULDIV  ?C?SLDIV  ADC  BOOTLOADABLE  CYLIB  CYPM  
?C?ULSHR . . . . . . . . . . . . . . . . CODE     ?C?ULSHR  COMMAND_PROCESSING  CYLIB  INTERRUPTIONS  
?C?XDATASEG. . . . . . . . . . . . . . . NUMBER   ** LX51 GENERATED **  
?C?XPAGE1RST . . . . . . . . . . . . . . NUMBER   ?C_STARTUP  ADC_INT  INTERRUPTIONS  ISR_RS485_RX  ISR_WATCHDOG  UART_R
                                                  S485_INT  
?C?XPAGE1SFR . . . . . . . . . . . . . . DATA     ?C_STARTUP  ADC_INT  INTERRUPTIONS  ISR_RS485_RX  ISR_WATCHDOG  UART_R
                                                  S485_INT  
?C_START . . . . . . . . . . . . . . . . CODE     ?C_INIT  ?C_STARTUP  
?C_STARTUP . . . . . . . . . . . . . . . CODE     ?C_STARTUP  MAIN  
?C_XBP . . . . . . . . . . . . . . . . . DATA     ?C_XBP  ?C?ADDXBP  ?C_STARTUP  CYLIB  
_?CyDelay. . . . . . . . . . . . . . . . CODE     CYLIB  COMMAND_PROCESSING  CYBOOTASMKEIL  MAIN  
_?CyDelayFreq. . . . . . . . . . . . . . CODE     CYLIB  
_?CyHalt . . . . . . . . . . . . . . . . CODE     CYLIB  
_ABS . . . . . . . . . . . . . . . . . . CODE     ABS  INTERRUPTIONS  
_ADC_AMux_FastSelect . . . . . . . . . . CODE     ADC_AMUX  
_ADC_AMux_Select . . . . . . . . . . . . CODE     ADC_AMUX  ADC  
_ADC_AMux_Set. . . . . . . . . . . . . . CODE     CYFITTER_CFG  ADC_AMUX  
_ADC_AMux_Unset. . . . . . . . . . . . . CODE     CYFITTER_CFG  ADC_AMUX  
LX51 LINKER/LOCATER V4.64.0.0                                                         03/27/2019  09:25:09  PAGE 141


_ADC_CountsTo_mVolts . . . . . . . . . . CODE     ADC  
_ADC_CountsTo_uVolts . . . . . . . . . . CODE     ADC  
_ADC_CountsTo_Volts. . . . . . . . . . . CODE     ADC  
_ADC_Ext_CP_Clk_ClearModeRegister. . . . CODE     ADC_EXT_CP_CLK  
_ADC_Ext_CP_Clk_SetDividerRegister . . . CODE     ADC_EXT_CP_CLK  ADC  
_ADC_Ext_CP_Clk_SetModeRegister. . . . . CODE     ADC_EXT_CP_CLK  ADC  
_ADC_Ext_CP_Clk_SetSourceRegister. . . . CODE     ADC_EXT_CP_CLK  
_ADC_Ext_CP_Clk_StandbyPower . . . . . . CODE     ADC_EXT_CP_CLK  
_ADC_IsEndConversion . . . . . . . . . . CODE     ADC  
_ADC_SelectConfiguration . . . . . . . . CODE     ADC  
_ADC_SetBufferGain . . . . . . . . . . . CODE     ADC  
_ADC_SetCoherency. . . . . . . . . . . . CODE     ADC  
_ADC_SetGain . . . . . . . . . . . . . . CODE     ADC  
_ADC_SetGCOR . . . . . . . . . . . . . . CODE     ADC  
_ADC_SetOffset . . . . . . . . . . . . . CODE     ADC  
_ADC_SOC_Write . . . . . . . . . . . . . CODE     ADC_SOC  INTERRUPTIONS  MAIN  
_ADC_STATUS_WriteMask. . . . . . . . . . CODE     ADC_STATUS  
_ADC_theACLK_ClearModeRegister . . . . . CODE     ADC_THEACLK  
_ADC_theACLK_SetDividerRegister. . . . . CODE     ADC_THEACLK  ADC  
_ADC_theACLK_SetModeRegister . . . . . . CODE     ADC_THEACLK  ADC  
_ADC_theACLK_SetPhaseRegister. . . . . . CODE     ADC_THEACLK  
_ADC_theACLK_SetSourceRegister . . . . . CODE     ADC_THEACLK  
_ADC_theACLK_StandbyPower. . . . . . . . CODE     ADC_THEACLK  
_Bootloadable_SetFlashByte . . . . . . . CODE     BOOTLOADABLE  
_cfg_write_bytes . . . . . . . . . . . . CODE     CYMEM  
_cfg_write_bytes_code. . . . . . . . . . CODE     CYMEM  
_check_enc_data. . . . . . . . . . . . . CODE     UTILS  INTERRUPTIONS  
_CLOCK_UART_ClearModeRegister. . . . . . CODE     CLOCK_UART  
_CLOCK_UART_SetDividerRegister . . . . . CODE     CLOCK_UART  COMMAND_PROCESSING  
_CLOCK_UART_SetModeRegister. . . . . . . CODE     CLOCK_UART  
_CLOCK_UART_SetSourceRegister. . . . . . CODE     CLOCK_UART  
_CLOCK_UART_StandbyPower . . . . . . . . CODE     CLOCK_UART  
_commWrite . . . . . . . . . . . . . . . CODE     COMMAND_PROCESSING  
_commWrite_old_id. . . . . . . . . . . . CODE     COMMAND_PROCESSING  
_COUNTER_ENC_SetInterruptMode. . . . . . CODE     COUNTER_ENC  
_COUNTER_ENC_WriteCompare. . . . . . . . CODE     COUNTER_ENC  
_COUNTER_ENC_WriteControlRegister. . . . CODE     COUNTER_ENC  
_COUNTER_ENC_WriteCounter. . . . . . . . CODE     COUNTER_ENC  
_COUNTER_ENC_WritePeriod . . . . . . . . CODE     COUNTER_ENC  
_CyBusClk_SetDivider . . . . . . . . . . CODE     CYLIB  CYPM  
_cyconfigcpy . . . . . . . . . . . . . . CODE     CYMEM  CYFITTER_CFG  
_cyconfigcpycode . . . . . . . . . . . . CODE     CYMEM  CYFITTER_CFG  
_CyCpuClk_SetDivider . . . . . . . . . . CODE     CYLIB  
_CyDelay . . . . . . . . . . . . . . . . CODE     CYBOOTASMKEIL  
_CyDelayCycles . . . . . . . . . . . . . CODE     CYBOOTASMKEIL  CYFITTER_CFG  CYLIB  CYPM  
_CyDelayUs . . . . . . . . . . . . . . . CODE     CYBOOTASMKEIL  ADC  CYFLASH  CYLIB  CYPM  CYSPC  
_CyDmacClearError. . . . . . . . . . . . CODE     CYDMAC  
_CyDmaChDisable. . . . . . . . . . . . . CODE     CYDMAC  DMA_DMA  
_CyDmaChEnable . . . . . . . . . . . . . CODE     CYDMAC  MAIN  
_CyDmaChFree . . . . . . . . . . . . . . CODE     CYDMAC  
_CyDmaChGetRequest . . . . . . . . . . . CODE     CYDMAC  
_CyDmaChPriority . . . . . . . . . . . . CODE     CYDMAC  DMA_DMA  
_CyDmaChRoundRobin . . . . . . . . . . . CODE     CYDMAC  
_CyDmaChSetConfiguration . . . . . . . . CODE     CYDMAC  DMA_DMA  
_CyDmaChSetExtendedAddress . . . . . . . CODE     CYDMAC  DMA_DMA  
_CyDmaChSetInitialTd . . . . . . . . . . CODE     CYDMAC  MAIN  
_CyDmaChSetRequest . . . . . . . . . . . CODE     CYDMAC  
_CyDmaChStatus . . . . . . . . . . . . . CODE     CYDMAC  
_CyDmaClearPendingDrq. . . . . . . . . . CODE     CYDMAC  
_CyDmaTdFree . . . . . . . . . . . . . . CODE     CYDMAC  
_CyDmaTdGetAddress . . . . . . . . . . . CODE     CYDMAC  
_CyDmaTdGetConfiguration . . . . . . . . CODE     CYDMAC  
_CyDmaTdSetAddress . . . . . . . . . . . CODE     CYDMAC  MAIN  
_CyDmaTdSetConfiguration . . . . . . . . CODE     CYDMAC  MAIN  
_CyEnableInts. . . . . . . . . . . . . . CODE     CYLIB  
LX51 LINKER/LOCATER V4.64.0.0                                                         03/27/2019  09:25:09  PAGE 142


_CyExitCriticalSection . . . . . . . . . CODE     CYBOOTASMKEIL  ADC  ADC_STATUS  COUNTER_ENC  CYDMAC  CYFLASH  CYLIB  C
                                                  YPM  CYSPC  EEPROM  FF_STATUS  MY_TIMER  SHIFTREG_ENC_1  SHIFTREG_ENC_
                                                  2  SHIFTREG_ENC_3  SHIFTREG_ENC_4  UART_RS485  
_CyFlash_SetWaitCycles . . . . . . . . . CODE     CYFLASH  CYPM  
_CyGetUniqueId . . . . . . . . . . . . . CODE     CYLIB  
_CyILO_SetPowerMode. . . . . . . . . . . CODE     CYLIB  CYPM  
_CyILO_SetSource . . . . . . . . . . . . CODE     CYLIB  
_CyIMO_SetFreq . . . . . . . . . . . . . CODE     CYLIB  CYPM  
_CyIMO_SetSource . . . . . . . . . . . . CODE     CYLIB  CYPM  
_CyIMO_Start . . . . . . . . . . . . . . CODE     CYLIB  CYPM  
_CyIntGetPriority. . . . . . . . . . . . CODE     CYLIB  
_CyIntGetState . . . . . . . . . . . . . CODE     CYLIB  
_CyIntGetVector. . . . . . . . . . . . . CODE     CYLIB  
_CyIntSetPriority. . . . . . . . . . . . CODE     CYLIB  ADC  UART_RS485  
_CyIntSetVector. . . . . . . . . . . . . CODE     CYLIB  ADC  UART_RS485  
_CyMasterClk_SetDivider. . . . . . . . . CODE     CYLIB  CYPM  
_CyMasterClk_SetSource . . . . . . . . . CODE     CYLIB  CYPM  
_cymemzero . . . . . . . . . . . . . . . CODE     CYMEM  
_CyPLL_OUT_SetPQ . . . . . . . . . . . . CODE     CYLIB  
_CyPLL_OUT_SetSource . . . . . . . . . . CODE     CYLIB  
_CyPLL_OUT_Start . . . . . . . . . . . . CODE     CYLIB  CYPM  
_CyPmAltAct. . . . . . . . . . . . . . . CODE     CYPM  
_CyPmCtwSetInterval. . . . . . . . . . . CODE     CYPM  
_CyPmFtwSetInterval. . . . . . . . . . . CODE     CYPM  CYLIB  
_CyPmHibernateEx . . . . . . . . . . . . CODE     CYPM  
_CyPmReadStatus. . . . . . . . . . . . . CODE     CYPM  CYLIB  
_CyPmSleep . . . . . . . . . . . . . . . CODE     CYPM  
_cyread16. . . . . . . . . . . . . . . . CODE     CYMEM  
_cyread16_nodpx. . . . . . . . . . . . . CODE     CYMEM  ADC  ADC_EXT_CP_CLK  ADC_THEACLK  CLOCK_UART  CYDMAC  CYLIB  IS
                                                  R_RS485_RX  ISR_WATCHDOG  PACER_TIMER  WATCHDOG_COUNTER  
_cyread24. . . . . . . . . . . . . . . . CODE     CYMEM  
_cyread24_nodpx. . . . . . . . . . . . . CODE     CYMEM  MY_TIMER  SHIFTREG_ENC_1  SHIFTREG_ENC_2  SHIFTREG_ENC_3  SHIFT
                                                  REG_ENC_4  
_cyread32. . . . . . . . . . . . . . . . CODE     CYMEM  
_cyread32_nodpx. . . . . . . . . . . . . CODE     CYMEM  CYDMAC  
_cyread8 . . . . . . . . . . . . . . . . CODE     CYMEM  ADC  CYFITTER_CFG  CYLIB  CYSPC  
_cyread8_nodpx . . . . . . . . . . . . . CODE     CYMEM  
_CySetFlashEEBuffer. . . . . . . . . . . CODE     CYFLASH  
_CySpcEraseSector. . . . . . . . . . . . CODE     CYSPC  EEPROM  
_CySpcGetTemp. . . . . . . . . . . . . . CODE     CYSPC  CYFLASH  
_CySpcLoadMultiByte. . . . . . . . . . . CODE     CYSPC  EEPROM  
_CySpcLoadRow. . . . . . . . . . . . . . CODE     CYSPC  EEPROM  
_CySpcLoadRowFull. . . . . . . . . . . . CODE     CYSPC  CYFLASH  
_CySpcReadData . . . . . . . . . . . . . CODE     CYSPC  CYFLASH  
_CySpcWriteRow . . . . . . . . . . . . . CODE     CYSPC  CYFLASH  EEPROM  
_CyUsbClk_SetSource. . . . . . . . . . . CODE     CYLIB  
_CyVdLvAnalogEnable. . . . . . . . . . . CODE     CYLIB  CYPM  
_CyVdLvDigitEnable . . . . . . . . . . . CODE     CYLIB  CYPM  
_CyVdStickyStatus. . . . . . . . . . . . CODE     CYLIB  
_CyWdtStart. . . . . . . . . . . . . . . CODE     CYLIB  
_cywrite16 . . . . . . . . . . . . . . . CODE     CYMEM  CYFITTER_CFG  
_cywrite16_nodpx . . . . . . . . . . . . CODE     CYMEM  ADC  ADC_EXT_CP_CLK  ADC_THEACLK  CLOCK_UART  CYDMAC  CYFITTER_
                                                  CFG  CYLIB  ISR_RS485_RX  ISR_WATCHDOG  PACER_TIMER  WATCHDOG_COUNTER 
                                                   
_cywrite24 . . . . . . . . . . . . . . . CODE     CYMEM  
_cywrite24_nodpx . . . . . . . . . . . . CODE     CYMEM  MY_TIMER  SHIFTREG_ENC_1  SHIFTREG_ENC_2  SHIFTREG_ENC_3  SHIFT
                                                  REG_ENC_4  
_cywrite32 . . . . . . . . . . . . . . . CODE     CYMEM  
_cywrite32_nodpx . . . . . . . . . . . . CODE     CYMEM  
_cywrite8. . . . . . . . . . . . . . . . CODE     CYMEM  CYFITTER_CFG  
_cywrite8_nodpx. . . . . . . . . . . . . CODE     CYMEM  
_CyWriteRowData. . . . . . . . . . . . . CODE     CYFLASH  BOOTLOADABLE  
_CyWriteRowFull. . . . . . . . . . . . . CODE     CYFLASH  
_CyXTAL_32KHZ_SetPowerMode . . . . . . . CODE     CYLIB  
_CyXTAL_SetFbVoltage . . . . . . . . . . CODE     CYLIB  
LX51 LINKER/LOCATER V4.64.0.0                                                         03/27/2019  09:25:09  PAGE 143


_CyXTAL_SetStartup . . . . . . . . . . . CODE     CYLIB  
_CyXTAL_SetWdVoltage . . . . . . . . . . CODE     CYLIB  
_CyXTAL_Start. . . . . . . . . . . . . . CODE     CYLIB  CYPM  
_DMA_DmaInitialize . . . . . . . . . . . CODE     DMA_DMA  MAIN  
_dma_wait. . . . . . . . . . . . . . . . CODE     ?C_STARTUP  
_EEPROM_ByteWritePos . . . . . . . . . . CODE     EEPROM  
_EEPROM_EraseSector. . . . . . . . . . . CODE     EEPROM  
_EEPROM_ReadByte . . . . . . . . . . . . CODE     EEPROM  
_EEPROM_StartErase . . . . . . . . . . . CODE     EEPROM  
_EEPROM_StartWrite . . . . . . . . . . . CODE     EEPROM  
_EEPROM_Write. . . . . . . . . . . . . . CODE     EEPROM  COMMAND_PROCESSING  
_EEPROM_WriteByte. . . . . . . . . . . . CODE     EEPROM  
_encoder_reading . . . . . . . . . . . . CODE     INTERRUPTIONS  MAIN  
_FF_STATUS_WriteMask . . . . . . . . . . CODE     FF_STATUS  
_filter_i1 . . . . . . . . . . . . . . . CODE     UTILS  INTERRUPTIONS  
_filter_i2 . . . . . . . . . . . . . . . CODE     UTILS  INTERRUPTIONS  
_filter_vel_1. . . . . . . . . . . . . . CODE     UTILS  
_filter_vel_2. . . . . . . . . . . . . . CODE     UTILS  
_filter_vel_3. . . . . . . . . . . . . . CODE     UTILS  
_FTDI_ENABLE_REG_Write . . . . . . . . . CODE     FTDI_ENABLE_REG  COMMAND_PROCESSING  MAIN  
_get_param_list. . . . . . . . . . . . . CODE     COMMAND_PROCESSING  
_infoGet . . . . . . . . . . . . . . . . CODE     COMMAND_PROCESSING  INTERRUPTIONS  
_infoPrepare . . . . . . . . . . . . . . CODE     COMMAND_PROCESSING  
_ISR_RS485_RX_SetPriority. . . . . . . . CODE     ISR_RS485_RX  
_ISR_RS485_RX_SetVector. . . . . . . . . CODE     ISR_RS485_RX  
_ISR_RS485_RX_StartEx. . . . . . . . . . CODE     ISR_RS485_RX  MAIN  
_ISR_WATCHDOG_SetPriority. . . . . . . . CODE     ISR_WATCHDOG  
_ISR_WATCHDOG_SetVector. . . . . . . . . CODE     ISR_WATCHDOG  
_ISR_WATCHDOG_StartEx. . . . . . . . . . CODE     ISR_WATCHDOG  MAIN  
_LCRChecksum . . . . . . . . . . . . . . CODE     UTILS  COMMAND_PROCESSING  
_memStore. . . . . . . . . . . . . . . . CODE     COMMAND_PROCESSING  MAIN  
_motor_control . . . . . . . . . . . . . CODE     INTERRUPTIONS  
_MOTOR_DIR_Write . . . . . . . . . . . . CODE     MOTOR_DIR  INTERRUPTIONS  MAIN  
_MOTOR_ON_OFF_Write. . . . . . . . . . . CODE     MOTOR_ON_OFF  COMMAND_PROCESSING  MAIN  
_MY_TIMER_SetInterruptMode . . . . . . . CODE     MY_TIMER  
_MY_TIMER_WriteControlRegister . . . . . CODE     MY_TIMER  
_MY_TIMER_WriteCounter . . . . . . . . . CODE     MY_TIMER  INTERRUPTIONS  
_MY_TIMER_WritePeriod. . . . . . . . . . CODE     MY_TIMER  
_PACER_TIMER_SetInterruptMode. . . . . . CODE     PACER_TIMER  
_PACER_TIMER_WriteControlRegister. . . . CODE     PACER_TIMER  
_PACER_TIMER_WriteCounter. . . . . . . . CODE     PACER_TIMER  
_PACER_TIMER_WritePeriod . . . . . . . . CODE     PACER_TIMER  
_PRINTF. . . . . . . . . . . . . . . . . CODE     PRINTF  
_PUTCHAR . . . . . . . . . . . . . . . . CODE     PUTCHAR  PRINTF  
_PWM_MOTORS_WriteCompare1. . . . . . . . CODE     PWM_MOTORS  COMMAND_PROCESSING  INTERRUPTIONS  MAIN  
_PWM_MOTORS_WriteCompare2. . . . . . . . CODE     PWM_MOTORS  COMMAND_PROCESSING  INTERRUPTIONS  MAIN  
_PWM_MOTORS_WriteControlRegister . . . . CODE     PWM_MOTORS  
_PWM_MOTORS_WriteCounter . . . . . . . . CODE     PWM_MOTORS  
_PWM_MOTORS_WritePeriod. . . . . . . . . CODE     PWM_MOTORS  
_RESET_FF_Write. . . . . . . . . . . . . CODE     RESET_FF  MAIN  
_RS485_CTS_Write . . . . . . . . . . . . CODE     RS485_CTS  COMMAND_PROCESSING  INTERRUPTIONS  MAIN  
_sendAcknowledgment. . . . . . . . . . . CODE     COMMAND_PROCESSING  MAIN  
_SetAnalogRoutingPumps . . . . . . . . . CODE     CYFITTER_CFG  
_SHIFTREG_ENC_1_GetFIFOStatus. . . . . . CODE     SHIFTREG_ENC_1  
_SHIFTREG_ENC_1_SetIntMode . . . . . . . CODE     SHIFTREG_ENC_1  
_SHIFTREG_ENC_1_WriteRegValue. . . . . . CODE     SHIFTREG_ENC_1  
_SHIFTREG_ENC_2_GetFIFOStatus. . . . . . CODE     SHIFTREG_ENC_2  
_SHIFTREG_ENC_2_SetIntMode . . . . . . . CODE     SHIFTREG_ENC_2  
_SHIFTREG_ENC_2_WriteRegValue. . . . . . CODE     SHIFTREG_ENC_2  
_SHIFTREG_ENC_3_GetFIFOStatus. . . . . . CODE     SHIFTREG_ENC_3  
_SHIFTREG_ENC_3_SetIntMode . . . . . . . CODE     SHIFTREG_ENC_3  
_SHIFTREG_ENC_3_WriteRegValue. . . . . . CODE     SHIFTREG_ENC_3  
_SHIFTREG_ENC_4_GetFIFOStatus. . . . . . CODE     SHIFTREG_ENC_4  
_SHIFTREG_ENC_4_SetIntMode . . . . . . . CODE     SHIFTREG_ENC_4  
_SHIFTREG_ENC_4_WriteRegValue. . . . . . CODE     SHIFTREG_ENC_4  
LX51 LINKER/LOCATER V4.64.0.0                                                         03/27/2019  09:25:09  PAGE 144


_SPRINTF . . . . . . . . . . . . . . . . CODE     PRINTF  COMMAND_PROCESSING  
_strcat. . . . . . . . . . . . . . . . . CODE     STRCAT  COMMAND_PROCESSING  
_STRLEN. . . . . . . . . . . . . . . . . CODE     STRLEN  COMMAND_PROCESSING  
_UART_RS485_PutArray . . . . . . . . . . CODE     UART_RS485  
_UART_RS485_PutChar. . . . . . . . . . . CODE     UART_RS485  COMMAND_PROCESSING  
_UART_RS485_PutCRLF. . . . . . . . . . . CODE     UART_RS485  
_UART_RS485_PutString. . . . . . . . . . CODE     UART_RS485  COMMAND_PROCESSING  
_UART_RS485_SendBreak. . . . . . . . . . CODE     UART_RS485  
_UART_RS485_SetRxAddress1. . . . . . . . CODE     UART_RS485  
_UART_RS485_SetRxAddress2. . . . . . . . CODE     UART_RS485  
_UART_RS485_SetRxAddressMode . . . . . . CODE     UART_RS485  
_UART_RS485_SetRxInterruptMode . . . . . CODE     UART_RS485  
_UART_RS485_SetTxAddressMode . . . . . . CODE     UART_RS485  
_UART_RS485_SetTxInterruptMode . . . . . CODE     UART_RS485  
_UART_RS485_WriteControlRegister . . . . CODE     UART_RS485  
_UART_RS485_WriteTxData. . . . . . . . . CODE     UART_RS485  
_WATCHDOG_COUNTER_SetInterruptMode . . . CODE     WATCHDOG_COUNTER  
_WATCHDOG_COUNTER_WriteControlRegister . CODE     WATCHDOG_COUNTER  
_WATCHDOG_COUNTER_WriteCounter . . . . . CODE     WATCHDOG_COUNTER  
_WATCHDOG_COUNTER_WritePeriod. . . . . . CODE     WATCHDOG_COUNTER  COMMAND_PROCESSING  
_WATCHDOG_ENABLER_Write. . . . . . . . . CODE     WATCHDOG_ENABLER  COMMAND_PROCESSING  MAIN  
_WATCHDOG_REFRESH_Write. . . . . . . . . CODE     WATCHDOG_REFRESH  MAIN  
AC . . . . . . . . . . . . . . . . . . . DATA     COMMAND_PROCESSING  
ACC. . . . . . . . . . . . . . . . . . . DATA     COMMAND_PROCESSING  
ADC_AMux__addrTable. . . . . . . . . . . CONST    CYFITTER_CFG  
ADC_AMux__maskTable. . . . . . . . . . . CONST    CYFITTER_CFG  
ADC_AMux_Start . . . . . . . . . . . . . CODE     ADC_AMUX  
ADC_buf. . . . . . . . . . . . . . . . . XDATA    GLOBALS  INTERRUPTIONS  MAIN  
ADC_Config . . . . . . . . . . . . . . . XDATA    ADC  
ADC_convDone . . . . . . . . . . . . . . XDATA    ADC  
ADC_CountsPerVolt. . . . . . . . . . . . XDATA    ADC  
ADC_Enable . . . . . . . . . . . . . . . CODE     ADC  
ADC_Ext_CP_Clk_GetDividerRegister. . . . CODE     ADC_EXT_CP_CLK  
ADC_Ext_CP_Clk_GetModeRegister . . . . . CODE     ADC_EXT_CP_CLK  
ADC_Ext_CP_Clk_GetSourceRegister . . . . CODE     ADC_EXT_CP_CLK  
ADC_Ext_CP_Clk_Start . . . . . . . . . . CODE     ADC_EXT_CP_CLK  
ADC_Ext_CP_Clk_Stop. . . . . . . . . . . CODE     ADC_EXT_CP_CLK  
ADC_Ext_CP_Clk_StopBlock . . . . . . . . CODE     ADC_EXT_CP_CLK  
ADC_GetResult16. . . . . . . . . . . . . CODE     ADC  
ADC_GetResult32. . . . . . . . . . . . . CODE     ADC  
ADC_GetResult8 . . . . . . . . . . . . . CODE     ADC  
ADC_Init . . . . . . . . . . . . . . . . CODE     ADC  
ADC_initVar. . . . . . . . . . . . . . . XDATA    ADC  
ADC_ISR1 . . . . . . . . . . . . . . . . CODE     ADC_INT  ADC  
ADC_ISR2 . . . . . . . . . . . . . . . . CODE     ADC_INT  
ADC_ISR3 . . . . . . . . . . . . . . . . CODE     ADC_INT  
ADC_ISR4 . . . . . . . . . . . . . . . . CODE     ADC_INT  
ADC_Offset . . . . . . . . . . . . . . . XDATA    ADC  
ADC_Read16 . . . . . . . . . . . . . . . CODE     ADC  
ADC_Read32 . . . . . . . . . . . . . . . CODE     ADC  
ADC_Read8. . . . . . . . . . . . . . . . CODE     ADC  
ADC_ReadGCOR . . . . . . . . . . . . . . CODE     ADC  
ADC_SOC_Read . . . . . . . . . . . . . . CODE     ADC_SOC  
ADC_Start. . . . . . . . . . . . . . . . CODE     ADC  MAIN  
ADC_StartConvert . . . . . . . . . . . . CODE     ADC  
ADC_started. . . . . . . . . . . . . . . XDATA    ADC  
ADC_STATUS_InterruptDisable. . . . . . . CODE     ADC_STATUS  
ADC_STATUS_InterruptEnable . . . . . . . CODE     ADC_STATUS  
ADC_STATUS_Read. . . . . . . . . . . . . CODE     ADC_STATUS  INTERRUPTIONS  
ADC_STATUS_ReadMask. . . . . . . . . . . CODE     ADC_STATUS  
ADC_Stop . . . . . . . . . . . . . . . . CODE     ADC  
ADC_stopConversion . . . . . . . . . . . XDATA    ADC  
ADC_StopConvert. . . . . . . . . . . . . CODE     ADC  
ADC_theACLK_GetDividerRegister . . . . . CODE     ADC_THEACLK  
ADC_theACLK_GetModeRegister. . . . . . . CODE     ADC_THEACLK  
LX51 LINKER/LOCATER V4.64.0.0                                                         03/27/2019  09:25:09  PAGE 145


ADC_theACLK_GetPhaseRegister . . . . . . CODE     ADC_THEACLK  
ADC_theACLK_GetSourceRegister. . . . . . CODE     ADC_THEACLK  
ADC_theACLK_Start. . . . . . . . . . . . CODE     ADC_THEACLK  
ADC_theACLK_Stop . . . . . . . . . . . . CODE     ADC_THEACLK  
ADC_theACLK_StopBlock. . . . . . . . . . CODE     ADC_THEACLK  
analog_read_end. . . . . . . . . . . . . CODE     INTERRUPTIONS  
B. . . . . . . . . . . . . . . . . . . . DATA     COMMAND_PROCESSING  
Bootloadable_Load. . . . . . . . . . . . CODE     BOOTLOADABLE  COMMAND_PROCESSING  
c_mem. . . . . . . . . . . . . . . . . . XDATA    GLOBALS  COMMAND_PROCESSING  INTERRUPTIONS  MAIN  
calibration_flag . . . . . . . . . . . . XDATA    GLOBALS  MAIN  
CLOCK_UART_GetDividerRegister. . . . . . CODE     CLOCK_UART  
CLOCK_UART_GetModeRegister . . . . . . . CODE     CLOCK_UART  
CLOCK_UART_GetSourceRegister . . . . . . CODE     CLOCK_UART  
CLOCK_UART_Start . . . . . . . . . . . . CODE     CLOCK_UART  
CLOCK_UART_Stop. . . . . . . . . . . . . CODE     CLOCK_UART  
CLOCK_UART_StopBlock . . . . . . . . . . CODE     CLOCK_UART  
cmd_activate . . . . . . . . . . . . . . CODE     COMMAND_PROCESSING  
cmd_get_activate . . . . . . . . . . . . CODE     COMMAND_PROCESSING  
cmd_get_curr_and_meas. . . . . . . . . . CODE     COMMAND_PROCESSING  
cmd_get_currents . . . . . . . . . . . . CODE     COMMAND_PROCESSING  
cmd_get_inputs . . . . . . . . . . . . . CODE     COMMAND_PROCESSING  
cmd_get_measurements . . . . . . . . . . CODE     COMMAND_PROCESSING  
cmd_get_velocities . . . . . . . . . . . CODE     COMMAND_PROCESSING  
cmd_ping . . . . . . . . . . . . . . . . CODE     COMMAND_PROCESSING  
cmd_set_baudrate . . . . . . . . . . . . CODE     COMMAND_PROCESSING  
cmd_set_inputs . . . . . . . . . . . . . CODE     COMMAND_PROCESSING  
cmd_set_pos_stiff. . . . . . . . . . . . CODE     COMMAND_PROCESSING  
cmd_set_watchdog . . . . . . . . . . . . CODE     COMMAND_PROCESSING  
cmd_store_params . . . . . . . . . . . . CODE     COMMAND_PROCESSING  
commProcess. . . . . . . . . . . . . . . CODE     COMMAND_PROCESSING  INTERRUPTIONS  
COUNTER_ENC_ClearFIFO. . . . . . . . . . CODE     COUNTER_ENC  
COUNTER_ENC_Enable . . . . . . . . . . . CODE     COUNTER_ENC  
COUNTER_ENC_Init . . . . . . . . . . . . CODE     COUNTER_ENC  
COUNTER_ENC_initVar. . . . . . . . . . . XDATA    COUNTER_ENC  
COUNTER_ENC_ReadCapture. . . . . . . . . CODE     COUNTER_ENC  
COUNTER_ENC_ReadCompare. . . . . . . . . CODE     COUNTER_ENC  
COUNTER_ENC_ReadControlRegister. . . . . CODE     COUNTER_ENC  
COUNTER_ENC_ReadCounter. . . . . . . . . CODE     COUNTER_ENC  
COUNTER_ENC_ReadPeriod . . . . . . . . . CODE     COUNTER_ENC  
COUNTER_ENC_ReadStatusRegister . . . . . CODE     COUNTER_ENC  
COUNTER_ENC_Start. . . . . . . . . . . . CODE     COUNTER_ENC  MAIN  
COUNTER_ENC_Stop . . . . . . . . . . . . CODE     COUNTER_ENC  
cuff_flag_force. . . . . . . . . . . . . BIT      GLOBALS  COMMAND_PROCESSING  INTERRUPTIONS  MAIN  
cuff_flag_force_proprio. . . . . . . . . BIT      GLOBALS  COMMAND_PROCESSING  INTERRUPTIONS  MAIN  
cuff_flag_proprio. . . . . . . . . . . . BIT      GLOBALS  COMMAND_PROCESSING  INTERRUPTIONS  MAIN  
CY . . . . . . . . . . . . . . . . . . . DATA     COMMAND_PROCESSING  
cydelay_32k_ms . . . . . . . . . . . . . XDATA    CYLIB  
cydelay_freq_hz. . . . . . . . . . . . . XDATA    CYLIB  
cydelay_freq_khz . . . . . . . . . . . . XDATA    CYLIB  
cydelay_freq_mhz . . . . . . . . . . . . XDATA    CYLIB  CYBOOTASMKEIL  
CyDisableInts. . . . . . . . . . . . . . CODE     CYLIB  
CyDmacConfigure. . . . . . . . . . . . . CODE     CYDMAC  ?C_STARTUP  
CyDmacError. . . . . . . . . . . . . . . CODE     CYDMAC  
CyDmacErrorAddress . . . . . . . . . . . CODE     CYDMAC  
CyDmaChAlloc . . . . . . . . . . . . . . CODE     CYDMAC  
CyDmaTdAllocate. . . . . . . . . . . . . CODE     CYDMAC  MAIN  
CyDmaTdFreeCount . . . . . . . . . . . . CODE     CYDMAC  
CyEEPROM_ReadRelease . . . . . . . . . . CODE     CYFLASH  EEPROM  
CyEEPROM_ReadReserve . . . . . . . . . . CODE     CYFLASH  EEPROM  
CyEEPROM_Start . . . . . . . . . . . . . CODE     CYFLASH  EEPROM  
CyEEPROM_Stop. . . . . . . . . . . . . . CODE     CYFLASH  EEPROM  
CyEnterCriticalSection . . . . . . . . . CODE     CYBOOTASMKEIL  ADC  ADC_STATUS  COUNTER_ENC  CYDMAC  CYFLASH  CYLIB  C
                                                  YPM  CYSPC  EEPROM  FF_STATUS  MY_TIMER  SHIFTREG_ENC_1  SHIFTREG_ENC_
                                                  2  SHIFTREG_ENC_3  SHIFTREG_ENC_4  UART_RS485  
cyfitter_cfg . . . . . . . . . . . . . . CODE     CYFITTER_CFG  ?C_STARTUP  
LX51 LINKER/LOCATER V4.64.0.0                                                         03/27/2019  09:25:09  PAGE 146


CyFlash_Start. . . . . . . . . . . . . . CODE     CYFLASH  
CyFlash_Stop . . . . . . . . . . . . . . CODE     CYFLASH  
CyILO_Disable33K . . . . . . . . . . . . CODE     CYLIB  
CyILO_Enable33K. . . . . . . . . . . . . CODE     CYLIB  
CyILO_Start100K. . . . . . . . . . . . . CODE     CYLIB  CYPM  
CyILO_Start1K. . . . . . . . . . . . . . CODE     CYLIB  CYPM  
CyILO_Stop100K . . . . . . . . . . . . . CODE     CYLIB  
CyILO_Stop1K . . . . . . . . . . . . . . CODE     CYLIB  
CyIMO_DisableDoubler . . . . . . . . . . CODE     CYLIB  CYPM  
CyIMO_EnableDoubler. . . . . . . . . . . CODE     CYLIB  CYPM  
CyIMO_Stop . . . . . . . . . . . . . . . CODE     CYLIB  CYPM  
CyPLL_OUT_Stop . . . . . . . . . . . . . CODE     CYLIB  CYPM  
CyPmHibernate. . . . . . . . . . . . . . CODE     CYPM  
CyPmOppsSet. . . . . . . . . . . . . . . CODE     CYPM  
CyPmRestoreClocks. . . . . . . . . . . . CODE     CYPM  
CyPmSaveClocks . . . . . . . . . . . . . CODE     CYPM  
CyResetStatus. . . . . . . . . . . . . . XDATA    CYLIB  ?C_STARTUP  
CySetTemp. . . . . . . . . . . . . . . . CODE     CYFLASH  EEPROM  
CySoftwareReset. . . . . . . . . . . . . CODE     CYLIB  BOOTLOADABLE  
CySpcGetAlgorithm. . . . . . . . . . . . CODE     CYSPC  CYFLASH  
CySpcLock. . . . . . . . . . . . . . . . CODE     CYSPC  CYFLASH  EEPROM  
CySpcStart . . . . . . . . . . . . . . . CODE     CYSPC  CYFLASH  EEPROM  
CySpcStop. . . . . . . . . . . . . . . . CODE     CYSPC  
CySpcUnlock. . . . . . . . . . . . . . . CODE     CYSPC  CYFLASH  EEPROM  
CyVdHvAnalogDisable. . . . . . . . . . . CODE     CYLIB  CYPM  
CyVdHvAnalogEnable . . . . . . . . . . . CODE     CYLIB  CYPM  
CyVdLvAnalogDisable. . . . . . . . . . . CODE     CYLIB  CYPM  
CyVdLvDigitDisable . . . . . . . . . . . CODE     CYLIB  CYPM  
CyVdRealTimeStatus . . . . . . . . . . . CODE     CYLIB  
CyWdtClear . . . . . . . . . . . . . . . CODE     CYLIB  
CyXTAL_32KHZ_ReadStatus. . . . . . . . . CODE     CYLIB  
CyXTAL_32KHZ_Start . . . . . . . . . . . CODE     CYLIB  CYPM  
CyXTAL_32KHZ_Stop. . . . . . . . . . . . CODE     CYLIB  
CyXTAL_DisableErrStatus. . . . . . . . . CODE     CYLIB  
CyXTAL_DisableFaultRecovery. . . . . . . CODE     CYLIB  
CyXTAL_EnableErrStatus . . . . . . . . . CODE     CYLIB  
CyXTAL_EnableFaultRecovery . . . . . . . CODE     CYLIB  
CyXTAL_ReadStatus. . . . . . . . . . . . CODE     CYLIB  
CyXTAL_Stop. . . . . . . . . . . . . . . CODE     CYLIB  CYPM  
dev_pwm_limit. . . . . . . . . . . . . . XDATA    GLOBALS  COMMAND_PROCESSING  INTERRUPTIONS  MAIN  
dev_tension. . . . . . . . . . . . . . . XDATA    GLOBALS  COMMAND_PROCESSING  INTERRUPTIONS  
dieTemperature . . . . . . . . . . . . . XDATA    CYFLASH  EEPROM  
DMA_DmaHandle. . . . . . . . . . . . . . XDATA    DMA_DMA  
DMA_DmaRelease . . . . . . . . . . . . . CODE     DMA_DMA  
DPH. . . . . . . . . . . . . . . . . . . DATA     COMMAND_PROCESSING  
DPH1 . . . . . . . . . . . . . . . . . . DATA     COMMAND_PROCESSING  
DPL. . . . . . . . . . . . . . . . . . . DATA     COMMAND_PROCESSING  
DPL1 . . . . . . . . . . . . . . . . . . DATA     COMMAND_PROCESSING  
DPS. . . . . . . . . . . . . . . . . . . DATA     COMMAND_PROCESSING  
DPX. . . . . . . . . . . . . . . . . . . DATA     COMMAND_PROCESSING  
DPX1 . . . . . . . . . . . . . . . . . . DATA     COMMAND_PROCESSING  
drive_cuff . . . . . . . . . . . . . . . CODE     COMMAND_PROCESSING  INTERRUPTIONS  
EA . . . . . . . . . . . . . . . . . . . DATA     COMMAND_PROCESSING  
EEPROM_ADDR. . . . . . . . . . . . . . . XDATA    COMMAND_PROCESSING  
EEPROM_Enable. . . . . . . . . . . . . . CODE     EEPROM  
EEPROM_Query . . . . . . . . . . . . . . CODE     EEPROM  
EEPROM_Start . . . . . . . . . . . . . . CODE     EEPROM  MAIN  
EEPROM_Stop. . . . . . . . . . . . . . . CODE     EEPROM  
EEPROM_UpdateTemperature . . . . . . . . CODE     EEPROM  COMMAND_PROCESSING  
F0 . . . . . . . . . . . . . . . . . . . DATA     COMMAND_PROCESSING  
F1 . . . . . . . . . . . . . . . . . . . DATA     COMMAND_PROCESSING  
FF_STATUS_InterruptDisable . . . . . . . CODE     FF_STATUS  
FF_STATUS_InterruptEnable. . . . . . . . CODE     FF_STATUS  
FF_STATUS_Read . . . . . . . . . . . . . CODE     FF_STATUS  MAIN  
FF_STATUS_ReadMask . . . . . . . . . . . CODE     FF_STATUS  
LX51 LINKER/LOCATER V4.64.0.0                                                         03/27/2019  09:25:09  PAGE 147


force_and_slide_cuff . . . . . . . . . . CODE     COMMAND_PROCESSING  INTERRUPTIONS  
FTDI_ENABLE_REG_Read . . . . . . . . . . CODE     FTDI_ENABLE_REG  
function_scheduler . . . . . . . . . . . CODE     INTERRUPTIONS  MAIN  
g_meas . . . . . . . . . . . . . . . . . XDATA    GLOBALS  COMMAND_PROCESSING  INTERRUPTIONS  MAIN  
g_measOld. . . . . . . . . . . . . . . . XDATA    GLOBALS  COMMAND_PROCESSING  INTERRUPTIONS  
g_mem. . . . . . . . . . . . . . . . . . XDATA    GLOBALS  COMMAND_PROCESSING  INTERRUPTIONS  MAIN  
g_ref. . . . . . . . . . . . . . . . . . XDATA    GLOBALS  COMMAND_PROCESSING  INTERRUPTIONS  MAIN  
g_refNew . . . . . . . . . . . . . . . . XDATA    GLOBALS  COMMAND_PROCESSING  INTERRUPTIONS  MAIN  
g_refOld . . . . . . . . . . . . . . . . XDATA    GLOBALS  COMMAND_PROCESSING  INTERRUPTIONS  
g_rx . . . . . . . . . . . . . . . . . . XDATA    GLOBALS  COMMAND_PROCESSING  INTERRUPTIONS  MAIN  
hitech_pwm_preload_values. . . . . . . . CONST    INTERRUPTIONS  
hitech_pwm_preload_values_6v . . . . . . CONST    INTERRUPTIONS  
IE . . . . . . . . . . . . . . . . . . . DATA     COMMAND_PROCESSING  
interrupt_flag . . . . . . . . . . . . . BIT      GLOBALS  COMMAND_PROCESSING  INTERRUPTIONS  MAIN  
interrupt_manager. . . . . . . . . . . . CODE     INTERRUPTIONS  COMMAND_PROCESSING  MAIN  
ISR_RS485_RX_ClearPending. . . . . . . . CODE     ISR_RS485_RX  
ISR_RS485_RX_Disable . . . . . . . . . . CODE     ISR_RS485_RX  
ISR_RS485_RX_Enable. . . . . . . . . . . CODE     ISR_RS485_RX  
ISR_RS485_RX_ExInterrupt . . . . . . . . CODE     INTERRUPTIONS  MAIN  
ISR_RS485_RX_GetPriority . . . . . . . . CODE     ISR_RS485_RX  
ISR_RS485_RX_GetState. . . . . . . . . . CODE     ISR_RS485_RX  
ISR_RS485_RX_GetVector . . . . . . . . . CODE     ISR_RS485_RX  
ISR_RS485_RX_Interrupt . . . . . . . . . CODE     ISR_RS485_RX  
ISR_RS485_RX_SetPending. . . . . . . . . CODE     ISR_RS485_RX  
ISR_RS485_RX_Start . . . . . . . . . . . CODE     ISR_RS485_RX  
ISR_RS485_RX_Stop. . . . . . . . . . . . CODE     ISR_RS485_RX  
ISR_WATCHDOG_ClearPending. . . . . . . . CODE     ISR_WATCHDOG  
ISR_WATCHDOG_Disable . . . . . . . . . . CODE     ISR_WATCHDOG  
ISR_WATCHDOG_Enable. . . . . . . . . . . CODE     ISR_WATCHDOG  
ISR_WATCHDOG_GetPriority . . . . . . . . CODE     ISR_WATCHDOG  
ISR_WATCHDOG_GetState. . . . . . . . . . CODE     ISR_WATCHDOG  
ISR_WATCHDOG_GetVector . . . . . . . . . CODE     ISR_WATCHDOG  
ISR_WATCHDOG_Handler . . . . . . . . . . CODE     INTERRUPTIONS  MAIN  
ISR_WATCHDOG_Interrupt . . . . . . . . . CODE     ISR_WATCHDOG  
ISR_WATCHDOG_SetPending. . . . . . . . . CODE     ISR_WATCHDOG  
ISR_WATCHDOG_Start . . . . . . . . . . . CODE     ISR_WATCHDOG  
ISR_WATCHDOG_Stop. . . . . . . . . . . . CODE     ISR_WATCHDOG  
main . . . . . . . . . . . . . . . . . . CODE     MAIN  ?C_INIT  
memInit. . . . . . . . . . . . . . . . . CODE     COMMAND_PROCESSING  
memRecall. . . . . . . . . . . . . . . . CODE     COMMAND_PROCESSING  MAIN  
memRestore . . . . . . . . . . . . . . . CODE     COMMAND_PROCESSING  
MOTOR_DIR_Read . . . . . . . . . . . . . CODE     MOTOR_DIR  
MOTOR_ON_OFF_Read. . . . . . . . . . . . CODE     MOTOR_ON_OFF  
MXAX . . . . . . . . . . . . . . . . . . DATA     COMMAND_PROCESSING  
MY_TIMER_ClearFIFO . . . . . . . . . . . CODE     MY_TIMER  
MY_TIMER_Enable. . . . . . . . . . . . . CODE     MY_TIMER  
MY_TIMER_Init. . . . . . . . . . . . . . CODE     MY_TIMER  
MY_TIMER_initVar . . . . . . . . . . . . XDATA    MY_TIMER  
MY_TIMER_ReadCapture . . . . . . . . . . CODE     MY_TIMER  
MY_TIMER_ReadControlRegister . . . . . . CODE     MY_TIMER  
MY_TIMER_ReadCounter . . . . . . . . . . CODE     MY_TIMER  COMMAND_PROCESSING  INTERRUPTIONS  
MY_TIMER_ReadPeriod. . . . . . . . . . . CODE     MY_TIMER  
MY_TIMER_ReadStatusRegister. . . . . . . CODE     MY_TIMER  
MY_TIMER_SoftwareCapture . . . . . . . . CODE     MY_TIMER  
MY_TIMER_Start . . . . . . . . . . . . . CODE     MY_TIMER  MAIN  
MY_TIMER_Stop. . . . . . . . . . . . . . CODE     MY_TIMER  
OV . . . . . . . . . . . . . . . . . . . DATA     COMMAND_PROCESSING  
P. . . . . . . . . . . . . . . . . . . . DATA     COMMAND_PROCESSING  
P2AX . . . . . . . . . . . . . . . . . . DATA     COMMAND_PROCESSING  
PACER_TIMER_Enable . . . . . . . . . . . CODE     PACER_TIMER  
PACER_TIMER_Init . . . . . . . . . . . . CODE     PACER_TIMER  
PACER_TIMER_initVar. . . . . . . . . . . XDATA    PACER_TIMER  
PACER_TIMER_ReadCapture. . . . . . . . . CODE     PACER_TIMER  
PACER_TIMER_ReadControlRegister. . . . . CODE     PACER_TIMER  
PACER_TIMER_ReadCounter. . . . . . . . . CODE     PACER_TIMER  
LX51 LINKER/LOCATER V4.64.0.0                                                         03/27/2019  09:25:09  PAGE 148


PACER_TIMER_ReadPeriod . . . . . . . . . CODE     PACER_TIMER  
PACER_TIMER_ReadStatusRegister . . . . . CODE     PACER_TIMER  
PACER_TIMER_SoftwareCapture. . . . . . . CODE     PACER_TIMER  
PACER_TIMER_Start. . . . . . . . . . . . CODE     PACER_TIMER  MAIN  
PACER_TIMER_Stop . . . . . . . . . . . . CODE     PACER_TIMER  
pret_done. . . . . . . . . . . . . . . . BIT      GLOBALS  COMMAND_PROCESSING  INTERRUPTIONS  MAIN  
pret_offset_pos. . . . . . . . . . . . . XDATA    GLOBALS  COMMAND_PROCESSING  INTERRUPTIONS  
pretensioning_flag . . . . . . . . . . . BIT      GLOBALS  COMMAND_PROCESSING  INTERRUPTIONS  MAIN  
pretensioning_process. . . . . . . . . . CODE     INTERRUPTIONS  
PSW. . . . . . . . . . . . . . . . . . . DATA     COMMAND_PROCESSING  
pwm_limit_search . . . . . . . . . . . . CODE     INTERRUPTIONS  
PWM_MOTORS_Enable. . . . . . . . . . . . CODE     PWM_MOTORS  
PWM_MOTORS_Init. . . . . . . . . . . . . CODE     PWM_MOTORS  
PWM_MOTORS_initVar . . . . . . . . . . . XDATA    PWM_MOTORS  
PWM_MOTORS_ReadCapture . . . . . . . . . CODE     PWM_MOTORS  
PWM_MOTORS_ReadCompare1. . . . . . . . . CODE     PWM_MOTORS  
PWM_MOTORS_ReadCompare2. . . . . . . . . CODE     PWM_MOTORS  
PWM_MOTORS_ReadControlRegister . . . . . CODE     PWM_MOTORS  
PWM_MOTORS_ReadCounter . . . . . . . . . CODE     PWM_MOTORS  
PWM_MOTORS_ReadPeriod. . . . . . . . . . CODE     PWM_MOTORS  
PWM_MOTORS_Start . . . . . . . . . . . . CODE     PWM_MOTORS  MAIN  
PWM_MOTORS_Stop. . . . . . . . . . . . . CODE     PWM_MOTORS  
pwm_preload_values . . . . . . . . . . . CONST    INTERRUPTIONS  
pwm_sign . . . . . . . . . . . . . . . . XDATA    GLOBALS  INTERRUPTIONS  
RESET_FF_Read. . . . . . . . . . . . . . CODE     RESET_FF  
reset_last_value_flag. . . . . . . . . . BIT      GLOBALS  COMMAND_PROCESSING  INTERRUPTIONS  MAIN  
RS0. . . . . . . . . . . . . . . . . . . DATA     COMMAND_PROCESSING  
RS1. . . . . . . . . . . . . . . . . . . DATA     COMMAND_PROCESSING  
RS485_CTS_Read . . . . . . . . . . . . . CODE     RS485_CTS  
setZeros . . . . . . . . . . . . . . . . CODE     COMMAND_PROCESSING  
SFRPRT0DR. . . . . . . . . . . . . . . . DATA     COMMAND_PROCESSING  
SFRPRT0PS. . . . . . . . . . . . . . . . DATA     COMMAND_PROCESSING  
SFRPRT0SEL . . . . . . . . . . . . . . . DATA     COMMAND_PROCESSING  
SFRPRT12DR . . . . . . . . . . . . . . . DATA     COMMAND_PROCESSING  
SFRPRT12PS . . . . . . . . . . . . . . . DATA     COMMAND_PROCESSING  
SFRPRT12SEL. . . . . . . . . . . . . . . DATA     COMMAND_PROCESSING  
SFRPRT15DR . . . . . . . . . . . . . . . DATA     COMMAND_PROCESSING  
SFRPRT15PS . . . . . . . . . . . . . . . DATA     COMMAND_PROCESSING  
SFRPRT15SEL. . . . . . . . . . . . . . . DATA     COMMAND_PROCESSING  
SFRPRT1DR. . . . . . . . . . . . . . . . DATA     COMMAND_PROCESSING  
SFRPRT1PS. . . . . . . . . . . . . . . . DATA     COMMAND_PROCESSING  
SFRPRT1SEL . . . . . . . . . . . . . . . DATA     COMMAND_PROCESSING  
SFRPRT2DR. . . . . . . . . . . . . . . . DATA     COMMAND_PROCESSING  
SFRPRT2PS. . . . . . . . . . . . . . . . DATA     COMMAND_PROCESSING  
SFRPRT2SEL . . . . . . . . . . . . . . . DATA     COMMAND_PROCESSING  
SFRPRT3DR. . . . . . . . . . . . . . . . DATA     COMMAND_PROCESSING  
SFRPRT3PS. . . . . . . . . . . . . . . . DATA     COMMAND_PROCESSING  
SFRPRT3SEL . . . . . . . . . . . . . . . DATA     COMMAND_PROCESSING  
SFRPRT4DR. . . . . . . . . . . . . . . . DATA     COMMAND_PROCESSING  
SFRPRT4PS. . . . . . . . . . . . . . . . DATA     COMMAND_PROCESSING  
SFRPRT4SEL . . . . . . . . . . . . . . . DATA     COMMAND_PROCESSING  
SFRPRT5DR. . . . . . . . . . . . . . . . DATA     COMMAND_PROCESSING  
SFRPRT5PS. . . . . . . . . . . . . . . . DATA     COMMAND_PROCESSING  
SFRPRT5SEL . . . . . . . . . . . . . . . DATA     COMMAND_PROCESSING  
SFRPRT6DR. . . . . . . . . . . . . . . . DATA     COMMAND_PROCESSING  
SFRPRT6PS. . . . . . . . . . . . . . . . DATA     COMMAND_PROCESSING  
SFRPRT6SEL . . . . . . . . . . . . . . . DATA     COMMAND_PROCESSING  
SHIFTREG_ENC_1_DisableInt. . . . . . . . CODE     SHIFTREG_ENC_1  
SHIFTREG_ENC_1_Enable. . . . . . . . . . CODE     SHIFTREG_ENC_1  
SHIFTREG_ENC_1_EnableInt . . . . . . . . CODE     SHIFTREG_ENC_1  
SHIFTREG_ENC_1_GetIntStatus. . . . . . . CODE     SHIFTREG_ENC_1  
SHIFTREG_ENC_1_Init. . . . . . . . . . . CODE     SHIFTREG_ENC_1  
SHIFTREG_ENC_1_initVar . . . . . . . . . XDATA    SHIFTREG_ENC_1  
SHIFTREG_ENC_1_ReadData. . . . . . . . . CODE     SHIFTREG_ENC_1  INTERRUPTIONS  
SHIFTREG_ENC_1_ReadRegValue. . . . . . . CODE     SHIFTREG_ENC_1  
LX51 LINKER/LOCATER V4.64.0.0                                                         03/27/2019  09:25:09  PAGE 149


SHIFTREG_ENC_1_Start . . . . . . . . . . CODE     SHIFTREG_ENC_1  MAIN  
SHIFTREG_ENC_1_Stop. . . . . . . . . . . CODE     SHIFTREG_ENC_1  
SHIFTREG_ENC_2_DisableInt. . . . . . . . CODE     SHIFTREG_ENC_2  
SHIFTREG_ENC_2_Enable. . . . . . . . . . CODE     SHIFTREG_ENC_2  
SHIFTREG_ENC_2_EnableInt . . . . . . . . CODE     SHIFTREG_ENC_2  
SHIFTREG_ENC_2_GetIntStatus. . . . . . . CODE     SHIFTREG_ENC_2  
SHIFTREG_ENC_2_Init. . . . . . . . . . . CODE     SHIFTREG_ENC_2  
SHIFTREG_ENC_2_initVar . . . . . . . . . XDATA    SHIFTREG_ENC_2  
SHIFTREG_ENC_2_ReadData. . . . . . . . . CODE     SHIFTREG_ENC_2  INTERRUPTIONS  
SHIFTREG_ENC_2_ReadRegValue. . . . . . . CODE     SHIFTREG_ENC_2  
SHIFTREG_ENC_2_Start . . . . . . . . . . CODE     SHIFTREG_ENC_2  MAIN  
SHIFTREG_ENC_2_Stop. . . . . . . . . . . CODE     SHIFTREG_ENC_2  
SHIFTREG_ENC_3_DisableInt. . . . . . . . CODE     SHIFTREG_ENC_3  
SHIFTREG_ENC_3_Enable. . . . . . . . . . CODE     SHIFTREG_ENC_3  
SHIFTREG_ENC_3_EnableInt . . . . . . . . CODE     SHIFTREG_ENC_3  
SHIFTREG_ENC_3_GetIntStatus. . . . . . . CODE     SHIFTREG_ENC_3  
SHIFTREG_ENC_3_Init. . . . . . . . . . . CODE     SHIFTREG_ENC_3  
SHIFTREG_ENC_3_initVar . . . . . . . . . XDATA    SHIFTREG_ENC_3  
SHIFTREG_ENC_3_ReadData. . . . . . . . . CODE     SHIFTREG_ENC_3  INTERRUPTIONS  
SHIFTREG_ENC_3_ReadRegValue. . . . . . . CODE     SHIFTREG_ENC_3  
SHIFTREG_ENC_3_Start . . . . . . . . . . CODE     SHIFTREG_ENC_3  
SHIFTREG_ENC_3_Stop. . . . . . . . . . . CODE     SHIFTREG_ENC_3  
SHIFTREG_ENC_4_DisableInt. . . . . . . . CODE     SHIFTREG_ENC_4  
SHIFTREG_ENC_4_Enable. . . . . . . . . . CODE     SHIFTREG_ENC_4  
SHIFTREG_ENC_4_EnableInt . . . . . . . . CODE     SHIFTREG_ENC_4  
SHIFTREG_ENC_4_GetIntStatus. . . . . . . CODE     SHIFTREG_ENC_4  
SHIFTREG_ENC_4_Init. . . . . . . . . . . CODE     SHIFTREG_ENC_4  
SHIFTREG_ENC_4_initVar . . . . . . . . . XDATA    SHIFTREG_ENC_4  
SHIFTREG_ENC_4_ReadData. . . . . . . . . CODE     SHIFTREG_ENC_4  INTERRUPTIONS  
SHIFTREG_ENC_4_ReadRegValue. . . . . . . CODE     SHIFTREG_ENC_4  
SHIFTREG_ENC_4_Start . . . . . . . . . . CODE     SHIFTREG_ENC_4  
SHIFTREG_ENC_4_Stop. . . . . . . . . . . CODE     SHIFTREG_ENC_4  
slide_cuff . . . . . . . . . . . . . . . CODE     COMMAND_PROCESSING  INTERRUPTIONS  
SP . . . . . . . . . . . . . . . . . . . DATA     COMMAND_PROCESSING  
SpcLockState . . . . . . . . . . . . . . XDATA    CYSPC  
STARTUP1 . . . . . . . . . . . . . . . . CODE     ?C_STARTUP  
tension_valid. . . . . . . . . . . . . . BIT      GLOBALS  MAIN  
timer_value. . . . . . . . . . . . . . . XDATA    GLOBALS  COMMAND_PROCESSING  INTERRUPTIONS  
timer_value0 . . . . . . . . . . . . . . XDATA    GLOBALS  COMMAND_PROCESSING  INTERRUPTIONS  
UART_RS485_ClearRxBuffer . . . . . . . . CODE     UART_RS485  MAIN  
UART_RS485_ClearTxBuffer . . . . . . . . CODE     UART_RS485  COMMAND_PROCESSING  MAIN  
UART_RS485_Enable. . . . . . . . . . . . CODE     UART_RS485  
UART_RS485_errorStatus . . . . . . . . . XDATA    UART_RS485  UART_RS485_INT  
UART_RS485_GetByte . . . . . . . . . . . CODE     UART_RS485  
UART_RS485_GetChar . . . . . . . . . . . CODE     UART_RS485  INTERRUPTIONS  
UART_RS485_GetRxBufferSize . . . . . . . CODE     UART_RS485  INTERRUPTIONS  
UART_RS485_GetTxBufferSize . . . . . . . CODE     UART_RS485  
UART_RS485_Init. . . . . . . . . . . . . CODE     UART_RS485  MAIN  
UART_RS485_initVar . . . . . . . . . . . XDATA    UART_RS485  
UART_RS485_ReadControlRegister . . . . . CODE     UART_RS485  
UART_RS485_ReadRxData. . . . . . . . . . CODE     UART_RS485  
UART_RS485_ReadRxStatus. . . . . . . . . CODE     UART_RS485  MAIN  
UART_RS485_ReadTxStatus. . . . . . . . . CODE     UART_RS485  COMMAND_PROCESSING  
UART_RS485_rxBuffer. . . . . . . . . . . XDATA    UART_RS485  UART_RS485_INT  
UART_RS485_rxBufferLoopDetect. . . . . . XDATA    UART_RS485  UART_RS485_INT  
UART_RS485_rxBufferOverflow. . . . . . . XDATA    UART_RS485  UART_RS485_INT  
UART_RS485_rxBufferRead. . . . . . . . . XDATA    UART_RS485  UART_RS485_INT  
UART_RS485_rxBufferWrite . . . . . . . . XDATA    UART_RS485  UART_RS485_INT  
UART_RS485_RXISR . . . . . . . . . . . . CODE     UART_RS485_INT  UART_RS485  
UART_RS485_Start . . . . . . . . . . . . CODE     UART_RS485  MAIN  
UART_RS485_Stop. . . . . . . . . . . . . CODE     UART_RS485  MAIN  
WATCHDOG_COUNTER_Enable. . . . . . . . . CODE     WATCHDOG_COUNTER  
WATCHDOG_COUNTER_Init. . . . . . . . . . CODE     WATCHDOG_COUNTER  
WATCHDOG_COUNTER_initVar . . . . . . . . XDATA    WATCHDOG_COUNTER  
WATCHDOG_COUNTER_ReadCapture . . . . . . CODE     WATCHDOG_COUNTER  
LX51 LINKER/LOCATER V4.64.0.0                                                         03/27/2019  09:25:09  PAGE 150


WATCHDOG_COUNTER_ReadControlRegister . . CODE     WATCHDOG_COUNTER  
WATCHDOG_COUNTER_ReadCounter . . . . . . CODE     WATCHDOG_COUNTER  
WATCHDOG_COUNTER_ReadPeriod. . . . . . . CODE     WATCHDOG_COUNTER  
WATCHDOG_COUNTER_ReadStatusRegister. . . CODE     WATCHDOG_COUNTER  
WATCHDOG_COUNTER_Start . . . . . . . . . CODE     WATCHDOG_COUNTER  MAIN  
WATCHDOG_COUNTER_Stop. . . . . . . . . . CODE     WATCHDOG_COUNTER  
WATCHDOG_ENABLER_Read. . . . . . . . . . CODE     WATCHDOG_ENABLER  
watchdog_flag. . . . . . . . . . . . . . BIT      GLOBALS  INTERRUPTIONS  MAIN  
WATCHDOG_REFRESH_Read. . . . . . . . . . CODE     WATCHDOG_REFRESH  

Program Size: data=113.6 xdata=3749 const=3000 code=41518
LX51 RUN COMPLETE.  0 WARNING(S),  0 ERROR(S)
