LX51 LINKER/LOCATER V4.64.0.0                                                           06/13/2017  14:44:14  PAGE 1


LX51 LINKER/LOCATER V4.64.0.0, INVOKED BY:
C:\PROGRAM FILES (X86)\CYPRESS\PSOC CREATOR\3.3\PSOC CREATOR\IMPORT\KEIL\PK51\9.51\C51\BIN\LX51.EXE .\DP8051_Keil_951\Re
>> lease\command_processing.obj, .\DP8051_Keil_951\Release\globals.obj, .\DP8051_Keil_951\Release\main.obj, .\DP8051_Kei
>> l_951\Release\utils.obj, .\DP8051_Keil_951\Release\interruptions.obj, .\DP8051_Keil_951\Release\cuff_mod_firmware.lib
>> , C:\Program Files (x86)\Cypress\PSoC Creator\3.3\PSoC Creator\psoc\content\cycomponentlibrary\CyComponentLibrary.cyl
>> ib\DP8051\DP8051_Keil_951\Release\CyComponentLibrary.lib TO .\DP8051_Keil_951\Release\cuff_mod_firmware.omf CODE RU R
>> C (10) DW (16) WL (2) PR (.\DP8051_Keil_951\Release/cuff_mod_firmware.map) IX CL (XDATA (X:0X0000-X:0X1FFF)) CL (CODE
>>  (C:0X2600-C:0XFFBF)) CL (CONST (C:0X2600-C:0XFFBF))


CPU MODE:     8051 MODE
MEMORY MODEL: LARGE WITH FLOATING POINT ARITHMETIC


INPUT MODULES INCLUDED:
  .\DP8051_Keil_951\Release\command_processing.obj (COMMAND_PROCESSING)
         COMMENT TYPE 0: C51 V9.51
  .\DP8051_Keil_951\Release\globals.obj (GLOBALS)
         COMMENT TYPE 0: C51 V9.51
  .\DP8051_Keil_951\Release\main.obj (MAIN)
         COMMENT TYPE 0: C51 V9.51
  .\DP8051_Keil_951\Release\utils.obj (UTILS)
         COMMENT TYPE 0: C51 V9.51
  .\DP8051_Keil_951\Release\interruptions.obj (INTERRUPTIONS)
         COMMENT TYPE 0: C51 V9.51
  .\DP8051_Keil_951\Release\cuff_mod_firmware.lib (UART_RS485)
         COMMENT TYPE 0: C51 V9.51
  .\DP8051_Keil_951\Release\cuff_mod_firmware.lib (PWM_MOTORS)
         COMMENT TYPE 0: C51 V9.51
  .\DP8051_Keil_951\Release\cuff_mod_firmware.lib (ISR_RS485_RX)
         COMMENT TYPE 0: C51 V9.51
  .\DP8051_Keil_951\Release\cuff_mod_firmware.lib (CLOCK_UART)
         COMMENT TYPE 0: C51 V9.51
  .\DP8051_Keil_951\Release\cuff_mod_firmware.lib (COUNTER_ENC)
         COMMENT TYPE 0: C51 V9.51
  .\DP8051_Keil_951\Release\cuff_mod_firmware.lib (SHIFTREG_ENC_1)
         COMMENT TYPE 0: C51 V9.51
  .\DP8051_Keil_951\Release\cuff_mod_firmware.lib (SHIFTREG_ENC_2)
         COMMENT TYPE 0: C51 V9.51
  .\DP8051_Keil_951\Release\cuff_mod_firmware.lib (SHIFTREG_ENC_3)
         COMMENT TYPE 0: C51 V9.51
  .\DP8051_Keil_951\Release\cuff_mod_firmware.lib (EEPROM)
         COMMENT TYPE 0: C51 V9.51
  .\DP8051_Keil_951\Release\cuff_mod_firmware.lib (SHIFTREG_ENC_4)
         COMMENT TYPE 0: C51 V9.51
  .\DP8051_Keil_951\Release\cuff_mod_firmware.lib (RS485_CTS)
         COMMENT TYPE 0: C51 V9.51
  .\DP8051_Keil_951\Release\cuff_mod_firmware.lib (MOTOR_ON_OFF)
         COMMENT TYPE 0: C51 V9.51
  .\DP8051_Keil_951\Release\cuff_mod_firmware.lib (BOOTLOADABLE)
         COMMENT TYPE 0: C51 V9.51
  .\DP8051_Keil_951\Release\cuff_mod_firmware.lib (MY_TIMER)
         COMMENT TYPE 0: C51 V9.51
  .\DP8051_Keil_951\Release\cuff_mod_firmware.lib (FTDI_ENABLE_REG)
         COMMENT TYPE 0: C51 V9.51
  .\DP8051_Keil_951\Release\cuff_mod_firmware.lib (PACER_TIMER)
         COMMENT TYPE 0: C51 V9.51
  .\DP8051_Keil_951\Release\cuff_mod_firmware.lib (FF_STATUS)
         COMMENT TYPE 0: C51 V9.51
  .\DP8051_Keil_951\Release\cuff_mod_firmware.lib (RESET_FF)
         COMMENT TYPE 0: C51 V9.51
  .\DP8051_Keil_951\Release\cuff_mod_firmware.lib (MOTOR_DIR)
         COMMENT TYPE 0: C51 V9.51
  .\DP8051_Keil_951\Release\cuff_mod_firmware.lib (ADC_STATUS)
         COMMENT TYPE 0: C51 V9.51
  .\DP8051_Keil_951\Release\cuff_mod_firmware.lib (ADC)
LX51 LINKER/LOCATER V4.64.0.0                                                         06/13/2017  14:44:14  PAGE 2


         COMMENT TYPE 0: C51 V9.51
  .\DP8051_Keil_951\Release\cuff_mod_firmware.lib (DMA_DMA)
         COMMENT TYPE 0: C51 V9.51
  .\DP8051_Keil_951\Release\cuff_mod_firmware.lib (ADC_SOC)
         COMMENT TYPE 0: C51 V9.51
  .\DP8051_Keil_951\Release\cuff_mod_firmware.lib (ISR_WATCHDOG)
         COMMENT TYPE 0: C51 V9.51
  .\DP8051_Keil_951\Release\cuff_mod_firmware.lib (WATCHDOG_COUNTER)
         COMMENT TYPE 0: C51 V9.51
  .\DP8051_Keil_951\Release\cuff_mod_firmware.lib (WATCHDOG_ENABLER)
         COMMENT TYPE 0: C51 V9.51
  .\DP8051_Keil_951\Release\cuff_mod_firmware.lib (WATCHDOG_REFRESH)
         COMMENT TYPE 0: C51 V9.51
  .\DP8051_Keil_951\Release\cuff_mod_firmware.lib (CYDMAC)
         COMMENT TYPE 0: C51 V9.51
  .\DP8051_Keil_951\Release\cuff_mod_firmware.lib (CYLIB)
         COMMENT TYPE 0: C51 V9.51
  .\DP8051_Keil_951\Release\cuff_mod_firmware.lib (?C_STARTUP)
         COMMENT TYPE 0: AX51 V3.07d
  .\DP8051_Keil_951\Release\cuff_mod_firmware.lib (CYFITTER_CFG)
         COMMENT TYPE 0: C51 V9.51
  .\DP8051_Keil_951\Release\cuff_mod_firmware.lib (UART_RS485_INT)
         COMMENT TYPE 0: C51 V9.51
  .\DP8051_Keil_951\Release\cuff_mod_firmware.lib (ADC_INT)
         COMMENT TYPE 0: C51 V9.51
  .\DP8051_Keil_951\Release\cuff_mod_firmware.lib (ADC_AMUX)
         COMMENT TYPE 0: C51 V9.51
  .\DP8051_Keil_951\Release\cuff_mod_firmware.lib (ADC_EXT_CP_CLK)
         COMMENT TYPE 0: C51 V9.51
  .\DP8051_Keil_951\Release\cuff_mod_firmware.lib (ADC_THEACLK)
         COMMENT TYPE 0: C51 V9.51
  .\DP8051_Keil_951\Release\cuff_mod_firmware.lib (CYBOOTASMKEIL)
         COMMENT TYPE 0: AX51 V3.07d
  .\DP8051_Keil_951\Release\cuff_mod_firmware.lib (CYFLASH)
         COMMENT TYPE 0: C51 V9.51
  .\DP8051_Keil_951\Release\cuff_mod_firmware.lib (CYMEM)
         COMMENT TYPE 0: AX51 V3.07d
  .\DP8051_Keil_951\Release\cuff_mod_firmware.lib (CYPM)
         COMMENT TYPE 0: C51 V9.51
  .\DP8051_Keil_951\Release\cuff_mod_firmware.lib (CYSPC)
         COMMENT TYPE 0: C51 V9.51
  C:\PROGRAM FILES (X86)\CYPRESS\PSOC CREATOR\3.3\PSOC CREATOR\IMPORT\KEIL\PK51\9.51\C51\LIB\C51FPL.LIB (?C?FPMUL)
         COMMENT TYPE 1: A51 / ASM51 Assembler
  C:\PROGRAM FILES (X86)\CYPRESS\PSOC CREATOR\3.3\PSOC CREATOR\IMPORT\KEIL\PK51\9.51\C51\LIB\C51FPL.LIB (?C?FPDIV)
         COMMENT TYPE 1: A51 / ASM51 Assembler
  C:\PROGRAM FILES (X86)\CYPRESS\PSOC CREATOR\3.3\PSOC CREATOR\IMPORT\KEIL\PK51\9.51\C51\LIB\C51FPL.LIB (?C?FPCMP)
         COMMENT TYPE 1: A51 / ASM51 Assembler
  C:\PROGRAM FILES (X86)\CYPRESS\PSOC CREATOR\3.3\PSOC CREATOR\IMPORT\KEIL\PK51\9.51\C51\LIB\C51FPL.LIB (?C?FCAST)
         COMMENT TYPE 1: A51 / ASM51 Assembler
  C:\PROGRAM FILES (X86)\CYPRESS\PSOC CREATOR\3.3\PSOC CREATOR\IMPORT\KEIL\PK51\9.51\C51\LIB\C51FPL.LIB (?C?CASTF)
         COMMENT TYPE 1: A51 / ASM51 Assembler
  C:\PROGRAM FILES (X86)\CYPRESS\PSOC CREATOR\3.3\PSOC CREATOR\IMPORT\KEIL\PK51\9.51\C51\LIB\C51FPL.LIB (PRINTF)
         COMMENT TYPE 1: A51 / ASM51 Assembler
  C:\PROGRAM FILES (X86)\CYPRESS\PSOC CREATOR\3.3\PSOC CREATOR\IMPORT\KEIL\PK51\9.51\C51\LIB\C51FPL.LIB (?C?FPGETOPN)
         COMMENT TYPE 1: A51 / ASM51 Assembler
  C:\PROGRAM FILES (X86)\CYPRESS\PSOC CREATOR\3.3\PSOC CREATOR\IMPORT\KEIL\PK51\9.51\C51\LIB\C51FPL.LIB (?C?FPROUND)
         COMMENT TYPE 1: A51 / ASM51 Assembler
  C:\PROGRAM FILES (X86)\CYPRESS\PSOC CREATOR\3.3\PSOC CREATOR\IMPORT\KEIL\PK51\9.51\C51\LIB\C51FPL.LIB (?C?FPCONVERT)
         COMMENT TYPE 1: A51 / ASM51 Assembler
  C:\PROGRAM FILES (X86)\CYPRESS\PSOC CREATOR\3.3\PSOC CREATOR\IMPORT\KEIL\PK51\9.51\C51\LIB\C51FPL.LIB (?C?FPADD)
         COMMENT TYPE 1: A51 / ASM51 Assembler
  C:\PROGRAM FILES (X86)\CYPRESS\PSOC CREATOR\3.3\PSOC CREATOR\IMPORT\KEIL\PK51\9.51\C51\LIB\C51FPL.LIB (?C?FTNPWR)
         COMMENT TYPE 1: A51 / ASM51 Assembler
  C:\PROGRAM FILES (X86)\CYPRESS\PSOC CREATOR\3.3\PSOC CREATOR\IMPORT\KEIL\PK51\9.51\C51\LIB\C51L.LIB (?C_INIT)
         COMMENT TYPE 1: A51 / ASM51 Assembler
LX51 LINKER/LOCATER V4.64.0.0                                                         06/13/2017  14:44:14  PAGE 3


  C:\PROGRAM FILES (X86)\CYPRESS\PSOC CREATOR\3.3\PSOC CREATOR\IMPORT\KEIL\PK51\9.51\C51\LIB\C51L.LIB (?C?CLDPTR)
         COMMENT TYPE 1: A51 / ASM51 Assembler
  C:\PROGRAM FILES (X86)\CYPRESS\PSOC CREATOR\3.3\PSOC CREATOR\IMPORT\KEIL\PK51\9.51\C51\LIB\C51L.LIB (?C?CLDOPTR)
         COMMENT TYPE 1: A51 / ASM51 Assembler
  C:\PROGRAM FILES (X86)\CYPRESS\PSOC CREATOR\3.3\PSOC CREATOR\IMPORT\KEIL\PK51\9.51\C51\LIB\C51L.LIB (?C?CSTPTR)
         COMMENT TYPE 1: A51 / ASM51 Assembler
  C:\PROGRAM FILES (X86)\CYPRESS\PSOC CREATOR\3.3\PSOC CREATOR\IMPORT\KEIL\PK51\9.51\C51\LIB\C51L.LIB (?C?IMUL)
         COMMENT TYPE 1: A51 / ASM51 Assembler
  C:\PROGRAM FILES (X86)\CYPRESS\PSOC CREATOR\3.3\PSOC CREATOR\IMPORT\KEIL\PK51\9.51\C51\LIB\C51L.LIB (?C?ISTPTR)
         COMMENT TYPE 1: A51 / ASM51 Assembler
  C:\PROGRAM FILES (X86)\CYPRESS\PSOC CREATOR\3.3\PSOC CREATOR\IMPORT\KEIL\PK51\9.51\C51\LIB\C51L.LIB (?C?LMUL)
         COMMENT TYPE 1: A51 / ASM51 Assembler
  C:\PROGRAM FILES (X86)\CYPRESS\PSOC CREATOR\3.3\PSOC CREATOR\IMPORT\KEIL\PK51\9.51\C51\LIB\C51L.LIB (?C?ULDIV)
         COMMENT TYPE 1: A51 / ASM51 Assembler
  C:\PROGRAM FILES (X86)\CYPRESS\PSOC CREATOR\3.3\PSOC CREATOR\IMPORT\KEIL\PK51\9.51\C51\LIB\C51L.LIB (?C?SLDIV)
         COMMENT TYPE 1: A51 / ASM51 Assembler
  C:\PROGRAM FILES (X86)\CYPRESS\PSOC CREATOR\3.3\PSOC CREATOR\IMPORT\KEIL\PK51\9.51\C51\LIB\C51L.LIB (?C?LNOT)
         COMMENT TYPE 1: A51 / ASM51 Assembler
  C:\PROGRAM FILES (X86)\CYPRESS\PSOC CREATOR\3.3\PSOC CREATOR\IMPORT\KEIL\PK51\9.51\C51\LIB\C51L.LIB (?C?LNEG)
         COMMENT TYPE 1: A51 / ASM51 Assembler
  C:\PROGRAM FILES (X86)\CYPRESS\PSOC CREATOR\3.3\PSOC CREATOR\IMPORT\KEIL\PK51\9.51\C51\LIB\C51L.LIB (?C?SLCMP)
         COMMENT TYPE 1: A51 / ASM51 Assembler
  C:\PROGRAM FILES (X86)\CYPRESS\PSOC CREATOR\3.3\PSOC CREATOR\IMPORT\KEIL\PK51\9.51\C51\LIB\C51L.LIB (?C?ULCMP)
         COMMENT TYPE 1: A51 / ASM51 Assembler
  C:\PROGRAM FILES (X86)\CYPRESS\PSOC CREATOR\3.3\PSOC CREATOR\IMPORT\KEIL\PK51\9.51\C51\LIB\C51L.LIB (?C?ULSHR)
         COMMENT TYPE 1: A51 / ASM51 Assembler
  C:\PROGRAM FILES (X86)\CYPRESS\PSOC CREATOR\3.3\PSOC CREATOR\IMPORT\KEIL\PK51\9.51\C51\LIB\C51L.LIB (?C?SLSHR)
         COMMENT TYPE 1: A51 / ASM51 Assembler
  C:\PROGRAM FILES (X86)\CYPRESS\PSOC CREATOR\3.3\PSOC CREATOR\IMPORT\KEIL\PK51\9.51\C51\LIB\C51L.LIB (?C?LSHL)
         COMMENT TYPE 1: A51 / ASM51 Assembler
  C:\PROGRAM FILES (X86)\CYPRESS\PSOC CREATOR\3.3\PSOC CREATOR\IMPORT\KEIL\PK51\9.51\C51\LIB\C51L.LIB (?C?LLDPTR)
         COMMENT TYPE 1: A51 / ASM51 Assembler
  C:\PROGRAM FILES (X86)\CYPRESS\PSOC CREATOR\3.3\PSOC CREATOR\IMPORT\KEIL\PK51\9.51\C51\LIB\C51L.LIB (?C?LSTPTR)
         COMMENT TYPE 1: A51 / ASM51 Assembler
  C:\PROGRAM FILES (X86)\CYPRESS\PSOC CREATOR\3.3\PSOC CREATOR\IMPORT\KEIL\PK51\9.51\C51\LIB\C51L.LIB (?C?LSTXDATA)
         COMMENT TYPE 1: A51 / ASM51 Assembler
  C:\PROGRAM FILES (X86)\CYPRESS\PSOC CREATOR\3.3\PSOC CREATOR\IMPORT\KEIL\PK51\9.51\C51\LIB\C51L.LIB (?C?PLDIXDATA)
         COMMENT TYPE 1: A51 / ASM51 Assembler
  C:\PROGRAM FILES (X86)\CYPRESS\PSOC CREATOR\3.3\PSOC CREATOR\IMPORT\KEIL\PK51\9.51\C51\LIB\C51L.LIB (?C?PSTXDATA)
         COMMENT TYPE 1: A51 / ASM51 Assembler
  C:\PROGRAM FILES (X86)\CYPRESS\PSOC CREATOR\3.3\PSOC CREATOR\IMPORT\KEIL\PK51\9.51\C51\LIB\C51L.LIB (?C?CCASE)
         COMMENT TYPE 1: A51 / ASM51 Assembler
  C:\PROGRAM FILES (X86)\CYPRESS\PSOC CREATOR\3.3\PSOC CREATOR\IMPORT\KEIL\PK51\9.51\C51\LIB\C51L.LIB (?C_XBP)
         COMMENT TYPE 1: A51 / ASM51 Assembler
  C:\PROGRAM FILES (X86)\CYPRESS\PSOC CREATOR\3.3\PSOC CREATOR\IMPORT\KEIL\PK51\9.51\C51\LIB\C51L.LIB (?C?ADDXBP)
         COMMENT TYPE 1: A51 / ASM51 Assembler
  C:\PROGRAM FILES (X86)\CYPRESS\PSOC CREATOR\3.3\PSOC CREATOR\IMPORT\KEIL\PK51\9.51\C51\LIB\C51L.LIB (?C?LIMUL)
         COMMENT TYPE 1: A51 / ASM51 Assembler
  C:\PROGRAM FILES (X86)\CYPRESS\PSOC CREATOR\3.3\PSOC CREATOR\IMPORT\KEIL\PK51\9.51\C51\LIB\C51L.LIB (PUTCHAR)
         COMMENT TYPE 1: A51 / ASM51 Assembler
  C:\PROGRAM FILES (X86)\CYPRESS\PSOC CREATOR\3.3\PSOC CREATOR\IMPORT\KEIL\PK51\9.51\C51\LIB\C51L.LIB (ABS)
         COMMENT TYPE 1: A51 / ASM51 Assembler
  C:\PROGRAM FILES (X86)\CYPRESS\PSOC CREATOR\3.3\PSOC CREATOR\IMPORT\KEIL\PK51\9.51\C51\LIB\C51L.LIB (STRCAT)
         COMMENT TYPE 1: C51 Compiler
  C:\PROGRAM FILES (X86)\CYPRESS\PSOC CREATOR\3.3\PSOC CREATOR\IMPORT\KEIL\PK51\9.51\C51\LIB\C51L.LIB (STRLEN)
         COMMENT TYPE 1: A51 / ASM51 Assembler
  C:\PROGRAM FILES (X86)\CYPRESS\PSOC CREATOR\3.3\PSOC CREATOR\IMPORT\KEIL\PK51\9.51\C51\LIB\C51L.LIB (?C?COPYAMD)
         COMMENT TYPE 1: A51 / ASM51 Assembler
  C:\PROGRAM FILES (X86)\CYPRESS\PSOC CREATOR\3.3\PSOC CREATOR\IMPORT\KEIL\PK51\9.51\C51\LIB\C51L.LIB (?C?STRCPYAMD)
         COMMENT TYPE 1: A51 / ASM51 Assembler
  C:\PROGRAM FILES (X86)\CYPRESS\PSOC CREATOR\3.3\PSOC CREATOR\IMPORT\KEIL\PK51\9.51\C51\LIB\C51L.LIB (?C?IILDX)
         COMMENT TYPE 1: A51 / ASM51 Assembler
  C:\PROGRAM FILES (X86)\CYPRESS\PSOC CREATOR\3.3\PSOC CREATOR\IMPORT\KEIL\PK51\9.51\C51\LIB\C51L.LIB (?C?ILDIX)
         COMMENT TYPE 1: A51 / ASM51 Assembler
  C:\PROGRAM FILES (X86)\CYPRESS\PSOC CREATOR\3.3\PSOC CREATOR\IMPORT\KEIL\PK51\9.51\C51\LIB\C51L.LIB (?C?LLDIDATA)
LX51 LINKER/LOCATER V4.64.0.0                                                         06/13/2017  14:44:14  PAGE 4


         COMMENT TYPE 1: A51 / ASM51 Assembler
  C:\PROGRAM FILES (X86)\CYPRESS\PSOC CREATOR\3.3\PSOC CREATOR\IMPORT\KEIL\PK51\9.51\C51\LIB\C51L.LIB (?C?LLDXDATA)
         COMMENT TYPE 1: A51 / ASM51 Assembler
  C:\PROGRAM FILES (X86)\CYPRESS\PSOC CREATOR\3.3\PSOC CREATOR\IMPORT\KEIL\PK51\9.51\C51\LIB\C51L.LIB (?C?LLDPDATA)
         COMMENT TYPE 1: A51 / ASM51 Assembler
  C:\PROGRAM FILES (X86)\CYPRESS\PSOC CREATOR\3.3\PSOC CREATOR\IMPORT\KEIL\PK51\9.51\C51\LIB\C51L.LIB (?C?LLDCODE)
         COMMENT TYPE 1: A51 / ASM51 Assembler
  C:\PROGRAM FILES (X86)\CYPRESS\PSOC CREATOR\3.3\PSOC CREATOR\IMPORT\KEIL\PK51\9.51\C51\LIB\C51L.LIB (?C?LSTIDATA)
         COMMENT TYPE 1: A51 / ASM51 Assembler
  C:\PROGRAM FILES (X86)\CYPRESS\PSOC CREATOR\3.3\PSOC CREATOR\IMPORT\KEIL\PK51\9.51\C51\LIB\C51L.LIB (?C?LSTPDATA)
         COMMENT TYPE 1: A51 / ASM51 Assembler


ACTIVE MEMORY CLASSES OF MODULE:  .\DP8051_Keil_951\Release\cuff_mod_firmware.omf (COMMAND_PROCESSING)

BASE        START       END         USED      MEMORY CLASS
==========================================================
X:000000H   X:000000H   X:001FFFH   000CA7H   XDATA
C:000000H   C:002600H   C:00FFBFH   008BE5H   CODE
C:000000H   C:002600H   C:00FFBFH   000BB8H   CONST
I:000000H   I:000000H   I:00007FH   00006AH   DATA
I:000020H.0 I:000020H.0 I:00002FH.7 000002H.2 BIT
I:000000H   I:000000H   I:0000FFH   000004H   IDATA


MEMORY MAP OF MODULE:  .\DP8051_Keil_951\Release\cuff_mod_firmware.omf (COMMAND_PROCESSING)


START     STOP      LENGTH    ALIGN  RELOC    MEMORY CLASS   SEGMENT NAME
=========================================================================

* * * * * * * * * * *   D A T A   M E M O R Y   * * * * * * * * * * * * *
000000H   000007H   000008H   ---    AT..     DATA           "REG BANK 0"
000008H   00000DH   000006H   BYTE   UNIT     DATA           ?DT?INTERRUPTIONS
00000EH   00000FH   000002H   BYTE   UNIT     DATA           ?C?LIB_DATA
000010H   000012H   000003H   BYTE   UNIT     IDATA          _IDATA_GROUP_
000013H.0 00001FH.7 00000DH.0 ---    ---      **GAP**
000020H.0 000021H.1 000001H.2 BIT    UNIT     BIT            _BIT_GROUP_
000021H.2 000021H.6 000000H.5 BIT    UNIT     BIT            ?BI?GLOBALS
000021H.7 000022H.1 000000H.3 BIT    UNIT     BIT            ?BI?INTERRUPTIONS
000022H.2 000022H   000000H.6 ---    ---      **GAP**
000023H   00007CH   00005AH   BYTE   UNIT     DATA           _DATA_GROUP_
00007DH   00007DH   000001H   BYTE   UNIT     IDATA          ?STACK

* * * * * * * * * * *   C O D E   M E M O R Y   * * * * * * * * * * * * *
002600H   002619H   00001AH   ---    OFFS..   CODE           ?CO?KEILSTART?3
00261AH   003A2CH   001413H   BYTE   UNIT     CODE           ?PR?_GET_PARAM_LIST?COMMAND_PROCESSING
003A2DH   004BE9H   0011BDH   BYTE   UNIT     CODE           ?PR?_INFOPREPARE?COMMAND_PROCESSING
004BEAH   005925H   000D3CH   BYTE   UNIT     CODE           ?PR?_MOTOR_CONTROL?INTERRUPTIONS
005926H   006614H   000CEFH   BYTE   UNIT     CODE           ?CO?COMMAND_PROCESSING
006615H   0070CAH   000AB6H   BYTE   UNIT     CODE           ?C?LIB_CODE
0070CBH   00754DH   000483H   BYTE   UNIT     CODE           ?PR?PRINTF?PRINTF
00754EH   00787DH   000330H   BYTE   UNIT     CODE           ?PR?CMD_STORE_PARAMS?COMMAND_PROCESSING
00787EH   007B72H   0002F5H   BYTE   UNIT     CODE           ?PR?_ENCODER_READING?INTERRUPTIONS
007B73H   007DD8H   000266H   BYTE   UNIT     CODE           ?PR?MAIN?MAIN
007DD9H   007FEEH   000216H   BYTE   UNIT     CODE           ?PR?DRIVE_CUFF?COMMAND_PROCESSING
007FEFH   0081B9H   0001CBH   BYTE   UNIT     CODE           ?PR?CALIBRATION?INTERRUPTIONS
0081BAH   008364H   0001ABH   BYTE   UNIT     CODE           ?PR?MEMINIT?COMMAND_PROCESSING
008365H   008505H   0001A1H   BYTE   UNIT     CODE           ?PR?_ADC_GAINCOMPENSATION?ADC
008506H   008684H   00017FH   BYTE   UNIT     CODE           ?PR?CLOCKSETUP?CYFITTER_CFG
008685H   0087EFH   00016BH   BYTE   UNIT     CODE           ?PR?CMD_SET_POS_STIFF?COMMAND_PROCESSING
0087F0H   008931H   000142H   BYTE   UNIT     CODE           ?PR?CMD_SET_INPUTS?COMMAND_PROCESSING
008932H   008A69H   000138H   BYTE   UNIT     CODE           ?PR?COMMPROCESS?COMMAND_PROCESSING
008A6AH   008B9AH   000131H   BYTE   UNIT     CODE           ?PR?_ADC_EXT_CP_CLK_SETDIVIDERREGISTER?ADC_EXT_CP_CLK
008B9BH   008CCAH   000130H   BYTE   UNIT     CODE           ?PR?_CLOCK_UART_SETDIVIDERREGISTER?CLOCK_UART
LX51 LINKER/LOCATER V4.64.0.0                                                         06/13/2017  14:44:14  PAGE 5


008CCBH   008DF9H   00012FH   BYTE   UNIT     CODE           ?PR?_ADC_THEACLK_SETDIVIDERREGISTER?ADC_THEACLK
008DFAH   008F20H   000127H   BYTE   UNIT     CODE           ?PR?INTERRUPT_MANAGER?INTERRUPTIONS
008F21H   009047H   000127H   BYTE   UNIT     CODE           ?PR?PWM_LIMIT_SEARCH?INTERRUPTIONS
009048H   009164H   00011DH   BYTE   UNIT     CODE           ?C_C51STARTUP
009165H   00927BH   000117H   BYTE   UNIT     CODE           ?PR?CYFITTER_CFG?CYFITTER_CFG
00927CH   00937DH   000102H   BYTE   UNIT     CODE           ?PR?ANALOG_READ_END?INTERRUPTIONS
00937EH   009478H   0000FBH   BYTE   UNIT     CODE           ?PR?FUNCTION_SCHEDULER?INTERRUPTIONS
009479H   009561H   0000E9H   BYTE   UNIT     CODE           ?PR?CFG_DMA_INIT?CYFITTER_CFG
009562H   009640H   0000DFH   BYTE   UNIT     CODE           ?PR?_EEPROM_WRITE?EEPROM
009641H   0096F2H   0000B2H   BYTE   UNIT     CODE           ?PR?_MEMSTORE?COMMAND_PROCESSING
0096F3H   0097A3H   0000B1H   BYTE   UNIT     CODE           ?PR?ADC_INIT?ADC
0097A4H   009854H   0000B1H   BYTE   UNIT     CODE           ?PR?UART_RS485_RXISR?UART_RS485_INT
009855H   009902H   0000AEH   BYTE   UNIT     CODE           ?PR?_ADC_INITCONFIG?ADC
009903H   0099A6H   0000A4H   BYTE   UNIT     CODE           ?PR?_COMMWRITE?COMMAND_PROCESSING
0099A7H   009A44H   00009EH   BYTE   UNIT     CODE           ?C_INITSEG
009A45H   009AD5H   000091H   BYTE   UNIT     CODE           ?PR?CMD_GET_CURR_AND_MEAS?COMMAND_PROCESSING
009AD6H   009B62H   00008DH   BYTE   UNIT     CODE           ?PR?_COMMWRITE_OLD_ID?COMMAND_PROCESSING
009B63H   009BEAH   000088H   BYTE   UNIT     CODE           ?PR?ADC_ENABLE?ADC
009BEBH   009C72H   000088H   BYTE   UNIT     CODE           ?PR?_?CYDELAY?CYLIB
009C73H   009CF9H   000087H   BYTE   UNIT     CODE           ?PR?_CYDMATDSETCONFIGURATION?CYDMAC
009CFAH   009D7CH   000083H   BYTE   UNIT     CODE           ?PR?SETZEROS?COMMAND_PROCESSING
009D7DH   009DF5H   000079H   BYTE   UNIT     CODE           ?PR?_CYDMACHSETCONFIGURATION?CYDMAC
009DF6H   009E6DH   000078H   BYTE   UNIT     CODE           ?PR?_CYDMACHSETEXTENDEDADDRESS?CYDMAC
009E6EH   009EE5H   000078H   BYTE   UNIT     CODE           ?PR?_CYDMATDSETADDRESS?CYDMAC
009EE6H   009F5AH   000075H   BYTE   UNIT     CODE           ?PR?_FILTER_I1?UTILS
009F5BH   009FCFH   000075H   BYTE   UNIT     CODE           ?PR?_FILTER_I2?UTILS
009FD0H   00A042H   000073H   BYTE   UNIT     CODE           ?PR?_CYSPCLOADROW?CYSPC
00A043H   00A0B3H   000071H   BYTE   UNIT     CODE           ?PR?CMD_GET_MEASUREMENTS?COMMAND_PROCESSING
00A0B4H   00A11EH   00006BH   BYTE   UNIT     CODE           ?PR?_CHECK_ENC_DATA?UTILS
00A11FH   00A189H   00006BH   BYTE   UNIT     CODE           ?PR?_STRCAT?STRCAT
00A18AH   00A1EFH   000066H   BYTE   UNIT     CODE           ?PR?CMD_GET_INPUTS?COMMAND_PROCESSING
00A1F0H   00A24FH   000060H   BYTE   UNIT     CODE           ?PR?_CYSPCREADDATA?CYSPC
00A250H   00A2AAH   00005BH   BYTE   UNIT     CODE           ?PR?UART_RS485_GETCHAR?UART_RS485
00A2ABH   00A304H   00005AH   BYTE   UNIT     CODE           ?PR?CMD_GET_VELOCITIES?COMMAND_PROCESSING
00A305H   00A35AH   000056H   BYTE   UNIT     CODE           ?PR?CYSETTEMPINT?CYFLASH
00A35BH   00A3AEH   000054H   BYTE   UNIT     CODE           ?PR?_CYINTSETVECTOR?CYLIB
00A3AFH   00A402H   000054H   BYTE   UNIT     CODE           ?PR?_CYSPCWRITEROW?CYSPC
00A403H   00A452H   000050H   BYTE   UNIT     CODE           ?PR?CYFLASHGETSPCALGORITHM?CYFLASH
00A453H   00A4A1H   00004FH   BYTE   UNIT     CODE           ?PR?UART_RS485_GETRXBUFFERSIZE?UART_RS485
00A4A2H   00A4EEH   00004DH   BYTE   UNIT     CODE           ?PR?MEMRECALL?COMMAND_PROCESSING
00A4EFH   00A539H   00004BH   BYTE   UNIT     CODE           ?PR?_CYDMACHENABLE?CYDMAC
00A53AH   00A583H   00004AH   BYTE   UNIT     CODE           ?PR?_DMA_DMAINITIALIZE?DMA_DMA
00A584H   00A5CAH   000047H   BYTE   UNIT     CODE           ?PR?MEMRESTORE?COMMAND_PROCESSING
00A5CBH   00A610H   000046H   BYTE   UNIT     CODE           ?PR?CMD_GET_CURRENTS?COMMAND_PROCESSING
00A611H   00A654H   000044H   BYTE   UNIT     CODE           ?C?LDIV
00A655H   00A697H   000043H   BYTE   UNIT     CODE           ?PR?CMD_ACTIVATE?COMMAND_PROCESSING
00A698H   00A6D8H   000041H   BYTE   UNIT     CODE           ?PR?CMD_SET_WATCHDOG?COMMAND_PROCESSING
00A6D9H   00A718H   000040H   BYTE   UNIT     CODE           ?PR?_CYDMACHPRIORITY?CYDMAC
00A719H   00A756H   00003EH   BYTE   UNIT     CODE           ?PR?CYDMATDALLOCATE?CYDMAC
00A757H   00A793H   00003DH   BYTE   UNIT     CODE           ?PR?_ADC_SETDSMREF0REG?ADC
00A794H   00A7CFH   00003CH   BYTE   UNIT     CODE           ?PR?PACER_TIMER_INIT?PACER_TIMER
00A7D0H   00A7FFH   000030H   BYTE   UNIT     CODE           ?PR?CMD_GET_ACTIVATE?COMMAND_PROCESSING
00A800H   00A83AH   00003BH   PAGE   UNIT     CODE           ?PR?CYDELAYCYCLES?CYBOOTASMKEIL
00A83BH   00A872H   000038H   BYTE   UNIT     CODE           ?PR?WATCHDOG_COUNTER_INIT?WATCHDOG_COUNTER
00A873H   00A8A8H   000036H   BYTE   UNIT     CODE           ?PR?CYDMACCONFIGURE?CYDMAC
00A8A9H   00A8DDH   000035H   BYTE   UNIT     CODE           ?PR?COUNTER_ENC_INIT?COUNTER_ENC
00A8DEH   00A911H   000034H   BYTE   UNIT     CODE           ?PR?_UART_RS485_PUTSTRING?UART_RS485
00A912H   00A945H   000034H   BYTE   UNIT     CODE           ?PR?_CYCONFIGCPY?CYMEM
00A946H   00A978H   000033H   BYTE   UNIT     CODE           ?PR?UART_RS485_INIT?UART_RS485
00A979H   00A9AAH   000032H   BYTE   UNIT     CODE           ?PR?_LCRCHECKSUM?UTILS
00A9ABH   00A9DBH   000031H   BYTE   UNIT     CODE           ?PR?_ADC_AMUX_UNSET?CYFITTER_CFG
00A9DCH   00AA0CH   000031H   BYTE   UNIT     CODE           ?PR?CYEEPROM_START?CYFLASH
00AA0DH   00AA3CH   000030H   BYTE   UNIT     CODE           ?PR?_ADC_AMUX_SET?CYFITTER_CFG
00AA3DH   00AA6BH   00002FH   BYTE   UNIT     CODE           ?PR?UART_RS485_CLEARRXBUFFER?UART_RS485
00AA6CH   00AA99H   00002EH   BYTE   UNIT     CODE           ?PR?_CYSPCGETTEMP?CYSPC
LX51 LINKER/LOCATER V4.64.0.0                                                         06/13/2017  14:44:14  PAGE 6


00AA9AH   00AA9AH   000001H   BYTE   UNIT     CODE           ?PR?ISR_RS485_RX_INTERRUPT?ISR_RS485_RX
00AA9BH   00AA9BH   000001H   BYTE   UNIT     CODE           ?PR?ISR_WATCHDOG_INTERRUPT?ISR_WATCHDOG
00AA9CH   00AAC8H   00002DH   DWORD  UNIT     CODE           ?PR?CYDELAYUS?CYBOOTASMKEIL
00AAC9H   00AAF4H   00002CH   BYTE   UNIT     CODE           ?PR?MY_TIMER_INIT?MY_TIMER
00AAF5H   00AB1BH   000027H   BYTE   UNIT     CODE           ?PR?ANALOGSETDEFAULT?CYFITTER_CFG
00AB1CH   00AB42H   000027H   BYTE   UNIT     CODE           ?PR?PUTCHAR?PUTCHAR
00AB43H   00AB68H   000026H   BYTE   UNIT     CODE           ?PR?PWM_MOTORS_INIT?PWM_MOTORS
00AB69H   00AB8EH   000026H   BYTE   UNIT     CODE           ?PR?CYCONFIGCPYCODE?CYMEM
00AB8FH   00ABB0H   000022H   BYTE   UNIT     CODE           ?PR?UART_RS485_ENABLE?UART_RS485
00ABB1H   00ABD2H   000022H   BYTE   UNIT     CODE           ?PR?UART_RS485_STOP?UART_RS485
00ABD3H   00ABF3H   000021H   BYTE   UNIT     CODE           ?PR?ADC_AMUX_START?ADC_AMUX
00ABF4H   00AC13H   000020H   BYTE   UNIT     CODE           ?PR?CMD_SET_BAUDRATE?COMMAND_PROCESSING
00AC14H   00AC32H   00001FH   BYTE   UNIT     CODE           ?PR?_ISR_RS485_RX_STARTEX?ISR_RS485_RX
00AC33H   00AC51H   00001FH   BYTE   UNIT     CODE           ?PR?_ISR_WATCHDOG_STARTEX?ISR_WATCHDOG
00AC52H   00AC70H   00001FH   BYTE   UNIT     CODE           ?PR?CYSPCLOCK?CYSPC
00AC71H   00AC8EH   00001EH   BYTE   UNIT     CODE           ?PR?_CYDMACHSETINITIALTD?CYDMAC
00AC8FH   00ACAAH   00001CH   BYTE   UNIT     CODE           ?PR?_WATCHDOG_COUNTER_WRITECOUNTER?WATCHDOG_COUNTER
00ACABH   00ACC5H   00001BH   BYTE   UNIT     CODE           ?PR?CYSPCGETALGORITHM?CYSPC
00ACC6H   00ACDEH   000019H   BYTE   UNIT     CODE           ?PR?_INFOGET?COMMAND_PROCESSING
00ACDFH   00ACF7H   000019H   BYTE   UNIT     CODE           ?PR?ADC_START?ADC
00ACF8H   00AD10H   000019H   BYTE   UNIT     CODE           ?PR?_CYINTSETPRIORITY?CYLIB
00AD11H   00AD29H   000019H   BYTE   UNIT     CODE           ?PR?_ADC_AMUX_SELECT?ADC_AMUX
00AD2AH   00AD41H   000018H   BYTE   UNIT     CODE           ?PR?CMD_PING?COMMAND_PROCESSING
00AD42H   00AD59H   000018H   BYTE   UNIT     CODE           ?PR?CYEXITCRITICALSECTION?CYBOOTASMKEIL
00AD5AH   00AD71H   000018H   BYTE   UNIT     CODE           ?PR?CYSETTEMP?CYFLASH
00AD72H   00AD87H   000016H   BYTE   UNIT     CODE           ?PR?_SENDACKNOWLEDGMENT?COMMAND_PROCESSING
00AD88H   00AD9DH   000016H   BYTE   UNIT     CODE           ?PR?PACER_TIMER_ENABLE?PACER_TIMER
00AD9EH   00ADB3H   000016H   BYTE   UNIT     CODE           ?PR?WATCHDOG_COUNTER_ENABLE?WATCHDOG_COUNTER
00ADB4H   00ADC8H   000015H   BYTE   UNIT     CODE           ?PR?CYENTERCRITICALSECTION?CYBOOTASMKEIL
00ADC9H   00ADDDH   000015H   BYTE   UNIT     CODE           ?PR?CYSPCSTART?CYSPC
00ADDEH   00ADF2H   000015H   BYTE   UNIT     CODE           ?PR?_STRLEN?STRLEN
00ADF3H   00AE06H   000014H   BYTE   UNIT     CODE           ?PR?UART_RS485_READRXSTATUS?UART_RS485
00AE07H   00AE19H   000013H   BYTE   UNIT     CODE           ?PR?UART_RS485_START?UART_RS485
00AE1AH   00AE2CH   000013H   BYTE   UNIT     CODE           ?PR?PWM_MOTORS_START?PWM_MOTORS
00AE2DH   00AE3FH   000013H   BYTE   UNIT     CODE           ?PR?COUNTER_ENC_START?COUNTER_ENC
00AE40H   00AE52H   000013H   BYTE   UNIT     CODE           ?PR?SHIFTREG_ENC_1_START?SHIFTREG_ENC_1
00AE53H   00AE65H   000013H   BYTE   UNIT     CODE           ?PR?SHIFTREG_ENC_2_START?SHIFTREG_ENC_2
00AE66H   00AE78H   000013H   BYTE   UNIT     CODE           ?PR?SHIFTREG_ENC_3_START?SHIFTREG_ENC_3
00AE79H   00AE8BH   000013H   BYTE   UNIT     CODE           ?PR?MY_TIMER_START?MY_TIMER
00AE8CH   00AE9EH   000013H   BYTE   UNIT     CODE           ?PR?PACER_TIMER_START?PACER_TIMER
00AE9FH   00AEB1H   000013H   BYTE   UNIT     CODE           ?PR?WATCHDOG_COUNTER_START?WATCHDOG_COUNTER
00AEB2H   00AEC4H   000013H   BYTE   UNIT     CODE           ?PR?CYREAD24?CYMEM
00AEC5H   00AED6H   000012H   BYTE   UNIT     CODE           ?PR?UART_RS485_CLEARTXBUFFER?UART_RS485
00AED7H   00AEE8H   000012H   BYTE   UNIT     CODE           ?PR?CYWRITE24?CYMEM
00AEE9H   00AEF9H   000011H   BYTE   UNIT     CODE           ?PR?_SHIFTREG_ENC_1_SETINTMODE?SHIFTREG_ENC_1
00AEFAH   00AF0AH   000011H   BYTE   UNIT     CODE           ?PR?_SHIFTREG_ENC_2_SETINTMODE?SHIFTREG_ENC_2
00AF0BH   00AF1BH   000011H   BYTE   UNIT     CODE           ?PR?_SHIFTREG_ENC_3_SETINTMODE?SHIFTREG_ENC_3
00AF1CH   00AF2AH   00000FH   BYTE   UNIT     CODE           ?PR?MY_TIMER_READCOUNTER?MY_TIMER
00AF2BH   00AF39H   00000FH   BYTE   UNIT     CODE           ?PR?CYREAD16?CYMEM
00AF3AH   00AF48H   00000FH   BYTE   UNIT     CODE           ?PR?CYWRITE16?CYMEM
00AF49H   00AF56H   00000EH   BYTE   UNIT     CODE           ?PR?_ISR_RS485_RX_SETVECTOR?ISR_RS485_RX
00AF57H   00AF64H   00000EH   BYTE   UNIT     CODE           ?PR?SHIFTREG_ENC_1_ENABLEINT?SHIFTREG_ENC_1
00AF65H   00AF72H   00000EH   BYTE   UNIT     CODE           ?PR?SHIFTREG_ENC_2_ENABLEINT?SHIFTREG_ENC_2
00AF73H   00AF80H   00000EH   BYTE   UNIT     CODE           ?PR?SHIFTREG_ENC_3_ENABLEINT?SHIFTREG_ENC_3
00AF81H   00AF8EH   00000EH   BYTE   UNIT     CODE           ?PR?_PACER_TIMER_WRITEPERIOD?PACER_TIMER
00AF8FH   00AF9CH   00000EH   BYTE   UNIT     CODE           ?PR?_PACER_TIMER_WRITECOUNTER?PACER_TIMER
00AF9DH   00AFAAH   00000EH   BYTE   UNIT     CODE           ?PR?_ISR_WATCHDOG_SETVECTOR?ISR_WATCHDOG
00AFABH   00AFB8H   00000EH   BYTE   UNIT     CODE           ?PR?_WATCHDOG_COUNTER_WRITEPERIOD?WATCHDOG_COUNTER
00AFB9H   00AFC5H   00000DH   BYTE   UNIT     CODE           ?PR?_UART_RS485_PUTCHAR?UART_RS485
00AFC6H   00AFD2H   00000DH   BYTE   UNIT     CODE           ?PR?COUNTER_ENC_CLEARFIFO?COUNTER_ENC
00AFD3H   00AFDFH   00000DH   BYTE   UNIT     CODE           ?PR?MY_TIMER_CLEARFIFO?MY_TIMER
00AFE0H   00AFECH   00000DH   BYTE   UNIT     CODE           ?PR?_ADC_EXT_CP_CLK_SETMODEREGISTER?ADC_EXT_CP_CLK
00AFEDH   00AFF9H   00000DH   BYTE   UNIT     CODE           ?PR?_ADC_THEACLK_SETMODEREGISTER?ADC_THEACLK
00AFFAH   00B005H   00000CH   BYTE   UNIT     CODE           ?PR?CYREAD8?CYMEM
00B006H   00B011H   00000CH   BYTE   UNIT     CODE           ?PR?CYWRITE8?CYMEM
LX51 LINKER/LOCATER V4.64.0.0                                                         06/13/2017  14:44:14  PAGE 7


00B012H   00B01DH   00000CH   BYTE   UNIT     CODE           ?PR?CYSPCUNLOCK?CYSPC
00B01EH   00B029H   00000CH   BYTE   UNIT     CODE           ?PR?_ABS?ABS
00B02AH   00B034H   00000BH   BYTE   UNIT     CODE           ?PR?SHIFTREG_ENC_1_ENABLE?SHIFTREG_ENC_1
00B035H   00B03FH   00000BH   BYTE   UNIT     CODE           ?PR?SHIFTREG_ENC_2_ENABLE?SHIFTREG_ENC_2
00B040H   00B04AH   00000BH   BYTE   UNIT     CODE           ?PR?SHIFTREG_ENC_3_ENABLE?SHIFTREG_ENC_3
00B04BH   00B054H   00000AH   BYTE   UNIT     CODE           ?PR?_ISR_RS485_RX_SETPRIORITY?ISR_RS485_RX
00B055H   00B05EH   00000AH   BYTE   UNIT     CODE           ?PR?CLOCK_UART_GETDIVIDERREGISTER?CLOCK_UART
00B05FH   00B068H   00000AH   BYTE   UNIT     CODE           ?PR?SHIFTREG_ENC_1_READDATA?SHIFTREG_ENC_1
00B069H   00B072H   00000AH   BYTE   UNIT     CODE           ?PR?SHIFTREG_ENC_2_READDATA?SHIFTREG_ENC_2
00B073H   00B07CH   00000AH   BYTE   UNIT     CODE           ?PR?SHIFTREG_ENC_3_READDATA?SHIFTREG_ENC_3
00B07DH   00B086H   00000AH   BYTE   UNIT     CODE           ?PR?SHIFTREG_ENC_4_READDATA?SHIFTREG_ENC_4
00B087H   00B090H   00000AH   BYTE   UNIT     CODE           ?PR?BOOTLOADABLE_LOAD?BOOTLOADABLE
00B091H   00B09AH   00000AH   BYTE   UNIT     CODE           ?PR?_MY_TIMER_WRITEPERIOD?MY_TIMER
00B09BH   00B0A4H   00000AH   BYTE   UNIT     CODE           ?PR?MY_TIMER_READCAPTURE?MY_TIMER
00B0A5H   00B0AEH   00000AH   BYTE   UNIT     CODE           ?PR?_MY_TIMER_WRITECOUNTER?MY_TIMER
00B0AFH   00B0B8H   00000AH   BYTE   UNIT     CODE           ?PR?_ISR_WATCHDOG_SETPRIORITY?ISR_WATCHDOG
00B0B9H   00B0C2H   00000AH   BYTE   UNIT     CODE           ?PR?ADC_EXT_CP_CLK_GETDIVIDERREGISTER?ADC_EXT_CP_CLK
00B0C3H   00B0CCH   00000AH   BYTE   UNIT     CODE           ?PR?ADC_THEACLK_GETDIVIDERREGISTER?ADC_THEACLK
00B0CDH   00B0D4H   000008H   BYTE   UNIT     CODE           ?PR?PWM_MOTORS_ENABLE?PWM_MOTORS
00B0D5H   00B0DCH   000008H   BYTE   UNIT     CODE           ?PR?CLOCK_UART_GETSOURCEREGISTER?CLOCK_UART
00B0DDH   00B0E4H   000008H   BYTE   UNIT     CODE           ?PR?COUNTER_ENC_ENABLE?COUNTER_ENC
00B0E5H   00B0ECH   000008H   BYTE   UNIT     CODE           ?PR?MY_TIMER_ENABLE?MY_TIMER
00B0EDH   00B0F4H   000008H   BYTE   UNIT     CODE           ?PR?CYSOFTWARERESET?CYLIB
00B0F5H   00B0FCH   000008H   BYTE   UNIT     CODE           ?PR?ADC_EXT_CP_CLK_GETSOURCEREGISTER?ADC_EXT_CP_CLK
00B0FDH   00B104H   000008H   BYTE   UNIT     CODE           ?PR?ADC_THEACLK_GETSOURCEREGISTER?ADC_THEACLK
00B105H   00B10BH   000007H   BYTE   UNIT     CODE           ?PR?ISR_RS485_RX_ENABLE?ISR_RS485_RX
00B10CH   00B112H   000007H   BYTE   UNIT     CODE           ?PR?ISR_RS485_RX_DISABLE?ISR_RS485_RX
00B113H   00B119H   000007H   BYTE   UNIT     CODE           ?PR?EEPROM_ENABLE?EEPROM
00B11AH   00B120H   000007H   BYTE   UNIT     CODE           ?PR?ISR_WATCHDOG_ENABLE?ISR_WATCHDOG
00B121H   00B127H   000007H   BYTE   UNIT     CODE           ?PR?ISR_WATCHDOG_DISABLE?ISR_WATCHDOG
00B128H   00B12DH   000006H   BYTE   UNIT     CODE           ?PR?UART_RS485_READTXSTATUS?UART_RS485
00B12EH   00B133H   000006H   BYTE   UNIT     CODE           ?PR?_PWM_MOTORS_WRITECOUNTER?PWM_MOTORS
00B134H   00B139H   000006H   BYTE   UNIT     CODE           ?PR?_PWM_MOTORS_WRITEPERIOD?PWM_MOTORS
00B13AH   00B13FH   000006H   BYTE   UNIT     CODE           ?PR?_PWM_MOTORS_WRITECOMPARE1?PWM_MOTORS
00B140H   00B145H   000006H   BYTE   UNIT     CODE           ?PR?_PWM_MOTORS_WRITECOMPARE2?PWM_MOTORS
00B146H   00B14BH   000006H   BYTE   UNIT     CODE           ?PR?_COUNTER_ENC_SETINTERRUPTMODE?COUNTER_ENC
00B14CH   00B151H   000006H   BYTE   UNIT     CODE           ?PR?COUNTER_ENC_READSTATUSREGISTER?COUNTER_ENC
00B152H   00B157H   000006H   BYTE   UNIT     CODE           ?PR?_COUNTER_ENC_WRITECOUNTER?COUNTER_ENC
00B158H   00B15DH   000006H   BYTE   UNIT     CODE           ?PR?COUNTER_ENC_READCAPTURE?COUNTER_ENC
00B15EH   00B163H   000006H   BYTE   UNIT     CODE           ?PR?_COUNTER_ENC_WRITEPERIOD?COUNTER_ENC
00B164H   00B169H   000006H   BYTE   UNIT     CODE           ?PR?_COUNTER_ENC_WRITECOMPARE?COUNTER_ENC
00B16AH   00B16FH   000006H   BYTE   UNIT     CODE           ?PR?SHIFTREG_ENC_1_INIT?SHIFTREG_ENC_1
00B170H   00B175H   000006H   BYTE   UNIT     CODE           ?PR?SHIFTREG_ENC_2_INIT?SHIFTREG_ENC_2
00B176H   00B17BH   000006H   BYTE   UNIT     CODE           ?PR?SHIFTREG_ENC_3_INIT?SHIFTREG_ENC_3
00B17CH   00B181H   000006H   BYTE   UNIT     CODE           ?PR?_RS485_CTS_WRITE?RS485_CTS
00B182H   00B187H   000006H   BYTE   UNIT     CODE           ?PR?_MOTOR_ON_OFF_WRITE?MOTOR_ON_OFF
00B188H   00B18DH   000006H   BYTE   UNIT     CODE           ?PR?_MY_TIMER_SETINTERRUPTMODE?MY_TIMER
00B18EH   00B193H   000006H   BYTE   UNIT     CODE           ?PR?MY_TIMER_READSTATUSREGISTER?MY_TIMER
00B194H   00B199H   000006H   BYTE   UNIT     CODE           ?PR?_FTDI_ENABLE_REG_WRITE?FTDI_ENABLE_REG
00B19AH   00B19FH   000006H   BYTE   UNIT     CODE           ?PR?_PACER_TIMER_SETINTERRUPTMODE?PACER_TIMER
00B1A0H   00B1A5H   000006H   BYTE   UNIT     CODE           ?PR?FF_STATUS_READ?FF_STATUS
00B1A6H   00B1ABH   000006H   BYTE   UNIT     CODE           ?PR?_RESET_FF_WRITE?RESET_FF
00B1ACH   00B1B1H   000006H   BYTE   UNIT     CODE           ?PR?_MOTOR_DIR_WRITE?MOTOR_DIR
00B1B2H   00B1B7H   000006H   BYTE   UNIT     CODE           ?PR?ADC_STATUS_READ?ADC_STATUS
00B1B8H   00B1BDH   000006H   BYTE   UNIT     CODE           ?PR?_ADC_SOC_WRITE?ADC_SOC
00B1BEH   00B1C3H   000006H   BYTE   UNIT     CODE           ?PR?_WATCHDOG_COUNTER_SETINTERRUPTMODE?WATCHDOG_COUNTER
00B1C4H   00B1C9H   000006H   BYTE   UNIT     CODE           ?PR?_WATCHDOG_ENABLER_WRITE?WATCHDOG_ENABLER
00B1CAH   00B1CFH   000006H   BYTE   UNIT     CODE           ?PR?_WATCHDOG_REFRESH_WRITE?WATCHDOG_REFRESH
00B1D0H   00B1D3H   000004H   BYTE   UNIT     CODE           ?PR?EEPROM_START?EEPROM
00B1D4H   00B1D7H   000004H   BYTE   UNIT     CODE           ?PR?EEPROM_UPDATETEMPERATURE?EEPROM
00B1D8H   00B1DAH   000003H   BYTE   UNIT     CODE           ?PR?ISR_WATCHDOG_HANDLER?INTERRUPTIONS
00B1DBH   00B1DDH   000003H   BYTE   UNIT     CODE           ?PR?ISR_RS485_RX_EXINTERRUPT?INTERRUPTIONS
00B1DEH   00B1E0H   000003H   BYTE   UNIT     CODE           ?PR?_CYCLOCKSTARTUPERROR?CYFITTER_CFG
00B1E1H   00B1E1H   000001H   BYTE   UNIT     CODE           ?PR?ADC_ISR1?ADC_INT
00B1E2H   00B1E2H   000001H   BYTE   UNIT     CODE           ?PR?ADC_ISR2?ADC_INT
LX51 LINKER/LOCATER V4.64.0.0                                                         06/13/2017  14:44:14  PAGE 8


00B1E3H   00B1E3H   000001H   BYTE   UNIT     CODE           ?PR?ADC_ISR3?ADC_INT
00B1E4H   00B1E4H   000001H   BYTE   UNIT     CODE           ?PR?ADC_ISR4?ADC_INT
00B1E5H   00BD3BH   000B57H   BYTE   UNIT     CONST          ?CO?CYFITTER_CFG
00BD3CH   00BD9CH   000061H   BYTE   UNIT     CONST          ?CO?INTERRUPTIONS

* * * * * * * * * * *  X D A T A   M E M O R Y  * * * * * * * * * * * * *
000000H   00093AH   00093BH   BYTE   UNIT     XDATA          _XDATA_GROUP_
00093BH   000B22H   0001E8H   BYTE   UNIT     XDATA          ?XD?GLOBALS
000B23H   000BD8H   0000B6H   BYTE   UNIT     XDATA          ?XD?INTERRUPTIONS
000BD9H   000C1BH   000043H   BYTE   UNIT     XDATA          ?XD?CYPM
000C1CH   000C43H   000028H   BYTE   UNIT     XDATA          ?XD?UTILS
000C44H   000C6AH   000027H   BYTE   UNIT     XDATA          ?XD?UART_RS485
000C6BH   000C7AH   000010H   BYTE   UNIT     XDATA          ?XD?ADC
000C7BH   000C89H   00000FH   BYTE   UNIT     XDATA          ?XD?CYLIB
000C8AH   000C8FH   000006H   BYTE   UNIT     XDATA          ?XD?CYDMAC
000C90H   000C94H   000005H   BYTE   UNIT     XDATA          ?XD?CYFLASH
000C95H   000C98H   000004H   BYTE   UNIT     XDATA          ?XD?CYFITTER_CFG
000C99H   000C9AH   000002H   BYTE   UNIT     XDATA          ?XD?COMMAND_PROCESSING
000C9BH   000C9BH   000001H   BYTE   UNIT     XDATA          ?XD?PWM_MOTORS
000C9CH   000C9CH   000001H   BYTE   UNIT     XDATA          ?XD?COUNTER_ENC
000C9DH   000C9DH   000001H   BYTE   UNIT     XDATA          ?XD?SHIFTREG_ENC_1
000C9EH   000C9EH   000001H   BYTE   UNIT     XDATA          ?XD?SHIFTREG_ENC_2
000C9FH   000C9FH   000001H   BYTE   UNIT     XDATA          ?XD?SHIFTREG_ENC_3
000CA0H   000CA0H   000001H   BYTE   UNIT     XDATA          ?XD?SHIFTREG_ENC_4
000CA1H   000CA1H   000001H   BYTE   UNIT     XDATA          ?XD?MY_TIMER
000CA2H   000CA2H   000001H   BYTE   UNIT     XDATA          ?XD?PACER_TIMER
000CA3H   000CA3H   000001H   BYTE   UNIT     XDATA          ?XD?DMA_DMA
000CA4H   000CA4H   000001H   BYTE   UNIT     XDATA          ?XD?WATCHDOG_COUNTER
000CA5H   000CA5H   000001H   BYTE   UNIT     XDATA          ?XD?ADC_AMUX
000CA6H   000CA6H   000001H   BYTE   UNIT     XDATA          ?XD?CYSPC

* * * * * * * * *   R E M O V E D     S E G M E N T S   * * * * * * * *
   *DEL*:           00007AH   BYTE   UNIT     CODE           ?PR?_FILTER_VEL_1?UTILS
   *DEL*:           00007AH   BYTE   UNIT     CODE           ?PR?_FILTER_VEL_2?UTILS
   *DEL*:           00007AH   BYTE   UNIT     CODE           ?PR?_FILTER_VEL_3?UTILS
   *DEL*:           000003H   BYTE   UNIT     CODE           ?PR?UART_RS485_READCONTROLREGISTER?UART_RS485
   *DEL*:           000006H   BYTE   UNIT     CODE           ?PR?_UART_RS485_WRITECONTROLREGISTER?UART_RS485
   *DEL*:           000001H   BYTE   UNIT     XDATA          ?XD?_UART_RS485_WRITECONTROLREGISTER?UART_RS485
   *DEL*:           000006H   BYTE   UNIT     CODE           ?PR?_UART_RS485_SETRXINTERRUPTMODE?UART_RS485
   *DEL*:           00004AH   BYTE   UNIT     CODE           ?PR?UART_RS485_READRXDATA?UART_RS485
   *DEL*:           00001FH   BYTE   UNIT     CODE           ?PR?UART_RS485_GETBYTE?UART_RS485
   *DEL*:           000006H   BYTE   UNIT     CODE           ?PR?_UART_RS485_SETRXADDRESSMODE?UART_RS485
   *DEL*:           000001H   BYTE   UNIT     XDATA          ?XD?_UART_RS485_SETRXADDRESSMODE?UART_RS485
   *DEL*:           000006H   BYTE   UNIT     CODE           ?PR?_UART_RS485_SETRXADDRESS1?UART_RS485
   *DEL*:           000006H   BYTE   UNIT     CODE           ?PR?_UART_RS485_SETRXADDRESS2?UART_RS485
   *DEL*:           000006H   BYTE   UNIT     CODE           ?PR?_UART_RS485_SETTXINTERRUPTMODE?UART_RS485
   *DEL*:           00000CH   BYTE   UNIT     CODE           ?PR?_UART_RS485_WRITETXDATA?UART_RS485
   *DEL*:           000032H   BYTE   UNIT     CODE           ?PR?_UART_RS485_PUTARRAY?UART_RS485
   *DEL*:           000003H   BYTE   UNIT     XDATA          ?XD?_UART_RS485_PUTARRAY?UART_RS485
   *DEL*:           000014H   BYTE   UNIT     CODE           ?PR?_UART_RS485_PUTCRLF?UART_RS485
   *DEL*:           000017H   BYTE   UNIT     CODE           ?PR?UART_RS485_GETTXBUFFERSIZE?UART_RS485
   *DEL*:           000059H   BYTE   UNIT     CODE           ?PR?_UART_RS485_SENDBREAK?UART_RS485
   *DEL*:           000001H   BYTE   UNIT     XDATA          ?XD?_UART_RS485_SENDBREAK?UART_RS485
   *DEL*:           000006H   BYTE   UNIT     CODE           ?PR?_UART_RS485_SETTXADDRESSMODE?UART_RS485
   *DEL*:           000001H   BYTE   UNIT     XDATA          ?XD?_UART_RS485_SETTXADDRESSMODE?UART_RS485
   *DEL*:           000008H   BYTE   UNIT     CODE           ?PR?PWM_MOTORS_STOP?PWM_MOTORS
   *DEL*:           00000BH   BYTE   UNIT     CODE           ?PR?PWM_MOTORS_READCOUNTER?PWM_MOTORS
   *DEL*:           000006H   BYTE   UNIT     CODE           ?PR?PWM_MOTORS_READCONTROLREGISTER?PWM_MOTORS
   *DEL*:           000006H   BYTE   UNIT     CODE           ?PR?_PWM_MOTORS_WRITECONTROLREGISTER?PWM_MOTORS
   *DEL*:           000006H   BYTE   UNIT     CODE           ?PR?PWM_MOTORS_READCAPTURE?PWM_MOTORS
   *DEL*:           000006H   BYTE   UNIT     CODE           ?PR?PWM_MOTORS_READCOMPARE1?PWM_MOTORS
   *DEL*:           000006H   BYTE   UNIT     CODE           ?PR?PWM_MOTORS_READCOMPARE2?PWM_MOTORS
   *DEL*:           000006H   BYTE   UNIT     CODE           ?PR?PWM_MOTORS_READPERIOD?PWM_MOTORS
   *DEL*:           000013H   BYTE   UNIT     CODE           ?PR?ISR_RS485_RX_START?ISR_RS485_RX
   *DEL*:           000004H   BYTE   UNIT     CODE           ?PR?ISR_RS485_RX_STOP?ISR_RS485_RX
LX51 LINKER/LOCATER V4.64.0.0                                                         06/13/2017  14:44:14  PAGE 9


   *DEL*:           00000AH   BYTE   UNIT     CODE           ?PR?ISR_RS485_RX_GETVECTOR?ISR_RS485_RX
   *DEL*:           00000BH   BYTE   UNIT     CODE           ?PR?ISR_RS485_RX_GETPRIORITY?ISR_RS485_RX
   *DEL*:           00000EH   BYTE   UNIT     CODE           ?PR?ISR_RS485_RX_GETSTATE?ISR_RS485_RX
   *DEL*:           000007H   BYTE   UNIT     CODE           ?PR?ISR_RS485_RX_SETPENDING?ISR_RS485_RX
   *DEL*:           000007H   BYTE   UNIT     CODE           ?PR?ISR_RS485_RX_CLEARPENDING?ISR_RS485_RX
   *DEL*:           00000FH   BYTE   UNIT     CODE           ?PR?CLOCK_UART_START?CLOCK_UART
   *DEL*:           00000FH   BYTE   UNIT     CODE           ?PR?CLOCK_UART_STOP?CLOCK_UART
   *DEL*:           00006DH   BYTE   UNIT     CODE           ?PR?CLOCK_UART_STOPBLOCK?CLOCK_UART
   *DEL*:           000002H   BYTE   UNIT     XDATA          ?XD?CLOCK_UART_STOPBLOCK?CLOCK_UART
   *DEL*:           000013H   BYTE   UNIT     CODE           ?PR?_CLOCK_UART_STANDBYPOWER?CLOCK_UART
   *DEL*:           00000DH   BYTE   UNIT     CODE           ?PR?_CLOCK_UART_SETMODEREGISTER?CLOCK_UART
   *DEL*:           00000EH   BYTE   UNIT     CODE           ?PR?_CLOCK_UART_CLEARMODEREGISTER?CLOCK_UART
   *DEL*:           000008H   BYTE   UNIT     CODE           ?PR?CLOCK_UART_GETMODEREGISTER?CLOCK_UART
   *DEL*:           000062H   BYTE   UNIT     CODE           ?PR?_CLOCK_UART_SETSOURCEREGISTER?CLOCK_UART
   *DEL*:           000003H   BYTE   UNIT     XDATA          ?XD?_CLOCK_UART_SETSOURCEREGISTER?CLOCK_UART
   *DEL*:           000008H   BYTE   UNIT     CODE           ?PR?COUNTER_ENC_STOP?COUNTER_ENC
   *DEL*:           000006H   BYTE   UNIT     CODE           ?PR?COUNTER_ENC_READCONTROLREGISTER?COUNTER_ENC
   *DEL*:           000006H   BYTE   UNIT     CODE           ?PR?_COUNTER_ENC_WRITECONTROLREGISTER?COUNTER_ENC
   *DEL*:           00000BH   BYTE   UNIT     CODE           ?PR?COUNTER_ENC_READCOUNTER?COUNTER_ENC
   *DEL*:           000006H   BYTE   UNIT     CODE           ?PR?COUNTER_ENC_READPERIOD?COUNTER_ENC
   *DEL*:           000006H   BYTE   UNIT     CODE           ?PR?COUNTER_ENC_READCOMPARE?COUNTER_ENC
   *DEL*:           00000BH   BYTE   UNIT     CODE           ?PR?SHIFTREG_ENC_1_STOP?SHIFTREG_ENC_1
   *DEL*:           00000EH   BYTE   UNIT     CODE           ?PR?SHIFTREG_ENC_1_DISABLEINT?SHIFTREG_ENC_1
   *DEL*:           000036H   BYTE   UNIT     CODE           ?PR?_SHIFTREG_ENC_1_GETFIFOSTATUS?SHIFTREG_ENC_1
   *DEL*:           000008H   BYTE   UNIT     CODE           ?PR?SHIFTREG_ENC_1_GETINTSTATUS?SHIFTREG_ENC_1
   *DEL*:           00000AH   BYTE   UNIT     CODE           ?PR?_SHIFTREG_ENC_1_WRITEREGVALUE?SHIFTREG_ENC_1
   *DEL*:           000053H   BYTE   UNIT     CODE           ?PR?SHIFTREG_ENC_1_READREGVALUE?SHIFTREG_ENC_1
   *DEL*:           000004H   BYTE   UNIT     XDATA          ?XD?SHIFTREG_ENC_1_READREGVALUE?SHIFTREG_ENC_1
   *DEL*:           00000BH   BYTE   UNIT     CODE           ?PR?SHIFTREG_ENC_2_STOP?SHIFTREG_ENC_2
   *DEL*:           00000EH   BYTE   UNIT     CODE           ?PR?SHIFTREG_ENC_2_DISABLEINT?SHIFTREG_ENC_2
   *DEL*:           000036H   BYTE   UNIT     CODE           ?PR?_SHIFTREG_ENC_2_GETFIFOSTATUS?SHIFTREG_ENC_2
   *DEL*:           000008H   BYTE   UNIT     CODE           ?PR?SHIFTREG_ENC_2_GETINTSTATUS?SHIFTREG_ENC_2
   *DEL*:           00000AH   BYTE   UNIT     CODE           ?PR?_SHIFTREG_ENC_2_WRITEREGVALUE?SHIFTREG_ENC_2
   *DEL*:           000053H   BYTE   UNIT     CODE           ?PR?SHIFTREG_ENC_2_READREGVALUE?SHIFTREG_ENC_2
   *DEL*:           000004H   BYTE   UNIT     XDATA          ?XD?SHIFTREG_ENC_2_READREGVALUE?SHIFTREG_ENC_2
   *DEL*:           00000BH   BYTE   UNIT     CODE           ?PR?SHIFTREG_ENC_3_STOP?SHIFTREG_ENC_3
   *DEL*:           00000EH   BYTE   UNIT     CODE           ?PR?SHIFTREG_ENC_3_DISABLEINT?SHIFTREG_ENC_3
   *DEL*:           000036H   BYTE   UNIT     CODE           ?PR?_SHIFTREG_ENC_3_GETFIFOSTATUS?SHIFTREG_ENC_3
   *DEL*:           000008H   BYTE   UNIT     CODE           ?PR?SHIFTREG_ENC_3_GETINTSTATUS?SHIFTREG_ENC_3
   *DEL*:           00000AH   BYTE   UNIT     CODE           ?PR?_SHIFTREG_ENC_3_WRITEREGVALUE?SHIFTREG_ENC_3
   *DEL*:           000053H   BYTE   UNIT     CODE           ?PR?SHIFTREG_ENC_3_READREGVALUE?SHIFTREG_ENC_3
   *DEL*:           000004H   BYTE   UNIT     XDATA          ?XD?SHIFTREG_ENC_3_READREGVALUE?SHIFTREG_ENC_3
   *DEL*:           000004H   BYTE   UNIT     CODE           ?PR?EEPROM_STOP?EEPROM
   *DEL*:           000124H   BYTE   UNIT     CODE           ?PR?_EEPROM_WRITEBYTE?EEPROM
   *DEL*:           000008H   BYTE   UNIT     XDATA          ?XD?_EEPROM_WRITEBYTE?EEPROM
   *DEL*:           00003AH   BYTE   UNIT     CODE           ?PR?_EEPROM_READBYTE?EEPROM
   *DEL*:           000004H   BYTE   UNIT     XDATA          ?XD?_EEPROM_READBYTE?EEPROM
   *DEL*:           00006FH   BYTE   UNIT     CODE           ?PR?_EEPROM_ERASESECTOR?EEPROM
   *DEL*:           000002H   BYTE   UNIT     XDATA          ?XD?_EEPROM_ERASESECTOR?EEPROM
   *DEL*:           0000B9H   BYTE   UNIT     CODE           ?PR?_EEPROM_STARTWRITE?EEPROM
   *DEL*:           000005H   BYTE   UNIT     XDATA          ?XD?_EEPROM_STARTWRITE?EEPROM
   *DEL*:           000046H   BYTE   UNIT     CODE           ?PR?_EEPROM_STARTERASE?EEPROM
   *DEL*:           000002H   BYTE   UNIT     XDATA          ?XD?_EEPROM_STARTERASE?EEPROM
   *DEL*:           00003BH   BYTE   UNIT     CODE           ?PR?EEPROM_QUERY?EEPROM
   *DEL*:           000001H   BYTE   UNIT     XDATA          ?XD?EEPROM_QUERY?EEPROM
   *DEL*:           0000E5H   BYTE   UNIT     CODE           ?PR?_EEPROM_BYTEWRITEPOS?EEPROM
   *DEL*:           000004H   BYTE   UNIT     XDATA          ?XD?_EEPROM_BYTEWRITEPOS?EEPROM
   *DEL*:           000013H   BYTE   UNIT     CODE           ?PR?SHIFTREG_ENC_4_START?SHIFTREG_ENC_4
   *DEL*:           00000BH   BYTE   UNIT     CODE           ?PR?SHIFTREG_ENC_4_ENABLE?SHIFTREG_ENC_4
   *DEL*:           000006H   BYTE   UNIT     CODE           ?PR?SHIFTREG_ENC_4_INIT?SHIFTREG_ENC_4
   *DEL*:           00000BH   BYTE   UNIT     CODE           ?PR?SHIFTREG_ENC_4_STOP?SHIFTREG_ENC_4
   *DEL*:           00000EH   BYTE   UNIT     CODE           ?PR?SHIFTREG_ENC_4_ENABLEINT?SHIFTREG_ENC_4
   *DEL*:           00000EH   BYTE   UNIT     CODE           ?PR?SHIFTREG_ENC_4_DISABLEINT?SHIFTREG_ENC_4
   *DEL*:           000036H   BYTE   UNIT     CODE           ?PR?_SHIFTREG_ENC_4_GETFIFOSTATUS?SHIFTREG_ENC_4
   *DEL*:           000011H   BYTE   UNIT     CODE           ?PR?_SHIFTREG_ENC_4_SETINTMODE?SHIFTREG_ENC_4
LX51 LINKER/LOCATER V4.64.0.0                                                         06/13/2017  14:44:14  PAGE 10


   *DEL*:           000008H   BYTE   UNIT     CODE           ?PR?SHIFTREG_ENC_4_GETINTSTATUS?SHIFTREG_ENC_4
   *DEL*:           00000AH   BYTE   UNIT     CODE           ?PR?_SHIFTREG_ENC_4_WRITEREGVALUE?SHIFTREG_ENC_4
   *DEL*:           000053H   BYTE   UNIT     CODE           ?PR?SHIFTREG_ENC_4_READREGVALUE?SHIFTREG_ENC_4
   *DEL*:           000004H   BYTE   UNIT     XDATA          ?XD?SHIFTREG_ENC_4_READREGVALUE?SHIFTREG_ENC_4
   *DEL*:           000006H   BYTE   UNIT     CODE           ?PR?RS485_CTS_READ?RS485_CTS
   *DEL*:           000006H   BYTE   UNIT     CODE           ?PR?MOTOR_ON_OFF_READ?MOTOR_ON_OFF
   *DEL*:           0000FBH   BYTE   UNIT     CODE           ?PR?_BOOTLOADABLE_SETFLASHBYTE?BOOTLOADABLE
   *DEL*:           000110H   BYTE   UNIT     XDATA          ?XD?_BOOTLOADABLE_SETFLASHBYTE?BOOTLOADABLE
   *DEL*:           000008H   BYTE   UNIT     CODE           ?PR?MY_TIMER_STOP?MY_TIMER
   *DEL*:           000006H   BYTE   UNIT     CODE           ?PR?MY_TIMER_SOFTWARECAPTURE?MY_TIMER
   *DEL*:           000006H   BYTE   UNIT     CODE           ?PR?MY_TIMER_READCONTROLREGISTER?MY_TIMER
   *DEL*:           000006H   BYTE   UNIT     CODE           ?PR?_MY_TIMER_WRITECONTROLREGISTER?MY_TIMER
   *DEL*:           00000AH   BYTE   UNIT     CODE           ?PR?MY_TIMER_READPERIOD?MY_TIMER
   *DEL*:           000006H   BYTE   UNIT     CODE           ?PR?FTDI_ENABLE_REG_READ?FTDI_ENABLE_REG
   *DEL*:           000016H   BYTE   UNIT     CODE           ?PR?PACER_TIMER_STOP?PACER_TIMER
   *DEL*:           00000AH   BYTE   UNIT     CODE           ?PR?PACER_TIMER_SOFTWARECAPTURE?PACER_TIMER
   *DEL*:           000006H   BYTE   UNIT     CODE           ?PR?PACER_TIMER_READSTATUSREGISTER?PACER_TIMER
   *DEL*:           000006H   BYTE   UNIT     CODE           ?PR?PACER_TIMER_READCONTROLREGISTER?PACER_TIMER
   *DEL*:           000006H   BYTE   UNIT     CODE           ?PR?_PACER_TIMER_WRITECONTROLREGISTER?PACER_TIMER
   *DEL*:           00000AH   BYTE   UNIT     CODE           ?PR?PACER_TIMER_READPERIOD?PACER_TIMER
   *DEL*:           00000AH   BYTE   UNIT     CODE           ?PR?PACER_TIMER_READCAPTURE?PACER_TIMER
   *DEL*:           000013H   BYTE   UNIT     CODE           ?PR?PACER_TIMER_READCOUNTER?PACER_TIMER
   *DEL*:           00000EH   BYTE   UNIT     CODE           ?PR?FF_STATUS_INTERRUPTENABLE?FF_STATUS
   *DEL*:           00000EH   BYTE   UNIT     CODE           ?PR?FF_STATUS_INTERRUPTDISABLE?FF_STATUS
   *DEL*:           000009H   BYTE   UNIT     CODE           ?PR?_FF_STATUS_WRITEMASK?FF_STATUS
   *DEL*:           000006H   BYTE   UNIT     CODE           ?PR?FF_STATUS_READMASK?FF_STATUS
   *DEL*:           000006H   BYTE   UNIT     CODE           ?PR?RESET_FF_READ?RESET_FF
   *DEL*:           000006H   BYTE   UNIT     CODE           ?PR?MOTOR_DIR_READ?MOTOR_DIR
   *DEL*:           00000EH   BYTE   UNIT     CODE           ?PR?ADC_STATUS_INTERRUPTENABLE?ADC_STATUS
   *DEL*:           00000EH   BYTE   UNIT     CODE           ?PR?ADC_STATUS_INTERRUPTDISABLE?ADC_STATUS
   *DEL*:           000009H   BYTE   UNIT     CODE           ?PR?_ADC_STATUS_WRITEMASK?ADC_STATUS
   *DEL*:           000006H   BYTE   UNIT     CODE           ?PR?ADC_STATUS_READMASK?ADC_STATUS
   *DEL*:           000088H   BYTE   UNIT     CODE           ?PR?ADC_STOP?ADC
   *DEL*:           000001H   BYTE   UNIT     XDATA          ?XD?ADC_STOP?ADC
   *DEL*:           000012H   BYTE   UNIT     CODE           ?PR?_ADC_SETBUFFERGAIN?ADC
   *DEL*:           00000EH   BYTE   UNIT     CODE           ?PR?_ADC_SETCOHERENCY?ADC
   *DEL*:           0000F2H   BYTE   UNIT     CODE           ?PR?_ADC_SETGCOR?ADC
   *DEL*:           00000BH   BYTE   UNIT     XDATA          ?XD?_ADC_SETGCOR?ADC
   *DEL*:           000039H   BYTE   UNIT     CODE           ?PR?ADC_READGCOR?ADC
   *DEL*:           000001H   BYTE   UNIT     XDATA          ?XD?ADC_READGCOR?ADC
   *DEL*:           000008H   BYTE   UNIT     CODE           ?PR?ADC_STARTCONVERT?ADC
   *DEL*:           000008H   BYTE   UNIT     CODE           ?PR?ADC_STOPCONVERT?ADC
   *DEL*:           00001FH   BYTE   UNIT     CODE           ?PR?_ADC_ISENDCONVERSION?ADC
   *DEL*:           00002CH   BYTE   UNIT     CODE           ?PR?ADC_GETRESULT8?ADC
   *DEL*:           000060H   BYTE   UNIT     CODE           ?PR?ADC_GETRESULT16?ADC
   *DEL*:           000003H   BYTE   UNIT     XDATA          ?XD?ADC_GETRESULT16?ADC
   *DEL*:           0001B4H   BYTE   UNIT     CODE           ?PR?ADC_GETRESULT32?ADC
   *DEL*:           000007H   BYTE   UNIT     XDATA          ?XD?ADC_GETRESULT32?ADC
   *DEL*:           000007H   BYTE   UNIT     CODE           ?PR?_ADC_SETOFFSET?ADC
   *DEL*:           000007H   BYTE   UNIT     CODE           ?PR?_ADC_SETGAIN?ADC
   *DEL*:           00005FH   BYTE   UNIT     CODE           ?PR?_ADC_COUNTSTO_MVOLTS?ADC
   *DEL*:           000004H   BYTE   UNIT     XDATA          ?XD?_ADC_COUNTSTO_MVOLTS?ADC
   *DEL*:           00006DH   BYTE   UNIT     CODE           ?PR?_ADC_COUNTSTO_VOLTS?ADC
   *DEL*:           000004H   BYTE   UNIT     XDATA          ?XD?_ADC_COUNTSTO_VOLTS?ADC
   *DEL*:           000137H   BYTE   UNIT     CODE           ?PR?_ADC_COUNTSTO_UVOLTS?ADC
   *DEL*:           00000DH   BYTE   UNIT     XDATA          ?XD?_ADC_COUNTSTO_UVOLTS?ADC
   *DEL*:           000072H   BYTE   UNIT     CODE           ?PR?_ADC_SELECTCONFIGURATION?ADC
   *DEL*:           000002H   BYTE   UNIT     XDATA          ?XD?_ADC_SELECTCONFIGURATION?ADC
   *DEL*:           000016H   BYTE   UNIT     CODE           ?PR?ADC_READ8?ADC
   *DEL*:           000016H   BYTE   UNIT     CODE           ?PR?ADC_READ16?ADC
   *DEL*:           000016H   BYTE   UNIT     CODE           ?PR?ADC_READ32?ADC
   *DEL*:           000009H   BYTE   UNIT     CODE           ?PR?DMA_DMARELEASE?DMA_DMA
   *DEL*:           000006H   BYTE   UNIT     CODE           ?PR?ADC_SOC_READ?ADC_SOC
   *DEL*:           000013H   BYTE   UNIT     CODE           ?PR?ISR_WATCHDOG_START?ISR_WATCHDOG
   *DEL*:           000004H   BYTE   UNIT     CODE           ?PR?ISR_WATCHDOG_STOP?ISR_WATCHDOG
LX51 LINKER/LOCATER V4.64.0.0                                                         06/13/2017  14:44:14  PAGE 11


   *DEL*:           00000AH   BYTE   UNIT     CODE           ?PR?ISR_WATCHDOG_GETVECTOR?ISR_WATCHDOG
   *DEL*:           00000BH   BYTE   UNIT     CODE           ?PR?ISR_WATCHDOG_GETPRIORITY?ISR_WATCHDOG
   *DEL*:           00000EH   BYTE   UNIT     CODE           ?PR?ISR_WATCHDOG_GETSTATE?ISR_WATCHDOG
   *DEL*:           000007H   BYTE   UNIT     CODE           ?PR?ISR_WATCHDOG_SETPENDING?ISR_WATCHDOG
   *DEL*:           000007H   BYTE   UNIT     CODE           ?PR?ISR_WATCHDOG_CLEARPENDING?ISR_WATCHDOG
   *DEL*:           000016H   BYTE   UNIT     CODE           ?PR?WATCHDOG_COUNTER_STOP?WATCHDOG_COUNTER
   *DEL*:           000006H   BYTE   UNIT     CODE           ?PR?WATCHDOG_COUNTER_READSTATUSREGISTER?WATCHDOG_COUNTER
   *DEL*:           000006H   BYTE   UNIT     CODE           ?PR?WATCHDOG_COUNTER_READCONTROLREGISTER?WATCHDOG_COUNTER
   *DEL*:           000006H   BYTE   UNIT     CODE           ?PR?_WATCHDOG_COUNTER_WRITECONTROLREGISTER?WATCHDOG_COUNTE
                                                             -R
   *DEL*:           000013H   BYTE   UNIT     CODE           ?PR?WATCHDOG_COUNTER_READCOUNTER?WATCHDOG_COUNTER
   *DEL*:           00000AH   BYTE   UNIT     CODE           ?PR?WATCHDOG_COUNTER_READCAPTURE?WATCHDOG_COUNTER
   *DEL*:           00000AH   BYTE   UNIT     CODE           ?PR?WATCHDOG_COUNTER_READPERIOD?WATCHDOG_COUNTER
   *DEL*:           000006H   BYTE   UNIT     CODE           ?PR?WATCHDOG_ENABLER_READ?WATCHDOG_ENABLER
   *DEL*:           000006H   BYTE   UNIT     CODE           ?PR?WATCHDOG_REFRESH_READ?WATCHDOG_REFRESH
   *DEL*:           000012H   BYTE   UNIT     CODE           ?PR?CYDMACERROR?CYDMAC
   *DEL*:           000010H   BYTE   UNIT     CODE           ?PR?_CYDMACCLEARERROR?CYDMAC
   *DEL*:           00000AH   BYTE   UNIT     CODE           ?PR?CYDMACERRORADDRESS?CYDMAC
   *DEL*:           0000BEH   BYTE   UNIT     CODE           ?PR?CYDMACHALLOC?CYDMAC
   *DEL*:           000006H   BYTE   UNIT     XDATA          ?XD?CYDMACHALLOC?CYDMAC
   *DEL*:           000064H   BYTE   UNIT     CODE           ?PR?_CYDMACHFREE?CYDMAC
   *DEL*:           000003H   BYTE   UNIT     XDATA          ?XD?_CYDMACHFREE?CYDMAC
   *DEL*:           000033H   BYTE   UNIT     CODE           ?PR?_CYDMACHDISABLE?CYDMAC
   *DEL*:           000033H   BYTE   UNIT     CODE           ?PR?_CYDMACLEARPENDINGDRQ?CYDMAC
   *DEL*:           000025H   BYTE   UNIT     CODE           ?PR?_CYDMACHSETREQUEST?CYDMAC
   *DEL*:           000024H   BYTE   UNIT     CODE           ?PR?_CYDMACHGETREQUEST?CYDMAC
   *DEL*:           000072H   BYTE   UNIT     CODE           ?PR?_CYDMACHSTATUS?CYDMAC
   *DEL*:           000007H   BYTE   UNIT     XDATA          ?XD?_CYDMACHSTATUS?CYDMAC
   *DEL*:           00003EH   BYTE   UNIT     CODE           ?PR?_CYDMATDFREE?CYDMAC
   *DEL*:           000002H   BYTE   UNIT     XDATA          ?XD?_CYDMATDFREE?CYDMAC
   *DEL*:           000009H   BYTE   UNIT     CODE           ?PR?CYDMATDFREECOUNT?CYDMAC
   *DEL*:           0000C9H   BYTE   UNIT     CODE           ?PR?_CYDMATDGETCONFIGURATION?CYDMAC
   *DEL*:           00000DH   BYTE   UNIT     XDATA          ?XD?_CYDMATDGETCONFIGURATION?CYDMAC
   *DEL*:           0000A6H   BYTE   UNIT     CODE           ?PR?_CYDMATDGETADDRESS?CYDMAC
   *DEL*:           00000AH   BYTE   UNIT     XDATA          ?XD?_CYDMATDGETADDRESS?CYDMAC
   *DEL*:           000038H   BYTE   UNIT     CODE           ?PR?_CYDMACHROUNDROBIN?CYDMAC
   *DEL*:           00006EH   BYTE   UNIT     CODE           ?PR?_CYPLL_OUT_START?CYLIB
   *DEL*:           000004H   BYTE   UNIT     XDATA          ?XD?_CYPLL_OUT_START?CYLIB
   *DEL*:           000008H   BYTE   UNIT     CODE           ?PR?CYPLL_OUT_STOP?CYLIB
   *DEL*:           000036H   BYTE   UNIT     CODE           ?PR?_CYPLL_OUT_SETPQ?CYLIB
   *DEL*:           000010H   BYTE   UNIT     CODE           ?PR?_CYPLL_OUT_SETSOURCE?CYLIB
   *DEL*:           000053H   BYTE   UNIT     CODE           ?PR?_CYIMO_START?CYLIB
   *DEL*:           000003H   BYTE   UNIT     XDATA          ?XD?_CYIMO_START?CYLIB
   *DEL*:           00000FH   BYTE   UNIT     CODE           ?PR?CYIMO_STOP?CYLIB
   *DEL*:           000027H   BYTE   UNIT     CODE           ?PR?CYUSB_POWERONCHECK?CYLIB
   *DEL*:           0000B6H   BYTE   UNIT     CODE           ?PR?_CYIMO_SETTRIMVALUE?CYLIB
   *DEL*:           000001H   BYTE   UNIT     XDATA          ?XD?_CYIMO_SETTRIMVALUE?CYLIB
   *DEL*:           000118H   BYTE   UNIT     CODE           ?PR?_CYIMO_SETFREQ?CYLIB
   *DEL*:           000003H   BYTE   UNIT     XDATA          ?XD?_CYIMO_SETFREQ?CYLIB
   *DEL*:           00002FH   BYTE   UNIT     CODE           ?PR?_CYIMO_SETSOURCE?CYLIB
   *DEL*:           000008H   BYTE   UNIT     CODE           ?PR?CYIMO_ENABLEDOUBLER?CYLIB
   *DEL*:           000008H   BYTE   UNIT     CODE           ?PR?CYIMO_DISABLEDOUBLER?CYLIB
   *DEL*:           00000DH   BYTE   UNIT     CODE           ?PR?_CYMASTERCLK_SETSOURCE?CYLIB
   *DEL*:           000006H   BYTE   UNIT     CODE           ?PR?_CYMASTERCLK_SETDIVIDER?CYLIB
   *DEL*:           000023H   BYTE   UNIT     CODE           ?PR?_CYBUSCLK_INTERNAL_SETDIVIDER?CYLIB
   *DEL*:           00007AH   BYTE   UNIT     CODE           ?PR?_CYBUSCLK_SETDIVIDER?CYLIB
   *DEL*:           000002H   BYTE   UNIT     XDATA          ?XD?_CYBUSCLK_SETDIVIDER?CYLIB
   *DEL*:           00000EH   BYTE   UNIT     CODE           ?PR?_CYCPUCLK_SETDIVIDER?CYLIB
   *DEL*:           00000DH   BYTE   UNIT     CODE           ?PR?_CYUSBCLK_SETSOURCE?CYLIB
   *DEL*:           000008H   BYTE   UNIT     CODE           ?PR?CYILO_START1K?CYLIB
   *DEL*:           000008H   BYTE   UNIT     CODE           ?PR?CYILO_STOP1K?CYLIB
   *DEL*:           000008H   BYTE   UNIT     CODE           ?PR?CYILO_START100K?CYLIB
   *DEL*:           000008H   BYTE   UNIT     CODE           ?PR?CYILO_STOP100K?CYLIB
   *DEL*:           000008H   BYTE   UNIT     CODE           ?PR?CYILO_ENABLE33K?CYLIB
   *DEL*:           000008H   BYTE   UNIT     CODE           ?PR?CYILO_DISABLE33K?CYLIB
LX51 LINKER/LOCATER V4.64.0.0                                                         06/13/2017  14:44:14  PAGE 12


   *DEL*:           000011H   BYTE   UNIT     CODE           ?PR?_CYILO_SETSOURCE?CYLIB
   *DEL*:           000029H   BYTE   UNIT     CODE           ?PR?_CYILO_SETPOWERMODE?CYLIB
   *DEL*:           00005EH   BYTE   UNIT     CODE           ?PR?CYXTAL_32KHZ_START?CYLIB
   *DEL*:           000002H   BYTE   UNIT     XDATA          ?XD?CYXTAL_32KHZ_START?CYLIB
   *DEL*:           000020H   BYTE   UNIT     CODE           ?PR?CYXTAL_32KHZ_STOP?CYLIB
   *DEL*:           000008H   BYTE   UNIT     CODE           ?PR?CYXTAL_32KHZ_READSTATUS?CYLIB
   *DEL*:           000066H   BYTE   UNIT     CODE           ?PR?_CYXTAL_32KHZ_SETPOWERMODE?CYLIB
   *DEL*:           000001H   BYTE   UNIT     XDATA          ?XD?_CYXTAL_32KHZ_SETPOWERMODE?CYLIB
   *DEL*:           0000A0H   BYTE   UNIT     CODE           ?PR?_CYXTAL_START?CYLIB
   *DEL*:           000006H   BYTE   UNIT     XDATA          ?XD?_CYXTAL_START?CYLIB
   *DEL*:           000008H   BYTE   UNIT     CODE           ?PR?CYXTAL_STOP?CYLIB
   *DEL*:           000008H   BYTE   UNIT     CODE           ?PR?CYXTAL_ENABLEERRSTATUS?CYLIB
   *DEL*:           000008H   BYTE   UNIT     CODE           ?PR?CYXTAL_DISABLEERRSTATUS?CYLIB
   *DEL*:           00000FH   BYTE   UNIT     CODE           ?PR?CYXTAL_READSTATUS?CYLIB
   *DEL*:           000008H   BYTE   UNIT     CODE           ?PR?CYXTAL_ENABLEFAULTRECOVERY?CYLIB
   *DEL*:           000008H   BYTE   UNIT     CODE           ?PR?CYXTAL_DISABLEFAULTRECOVERY?CYLIB
   *DEL*:           00000DH   BYTE   UNIT     CODE           ?PR?_CYXTAL_SETSTARTUP?CYLIB
   *DEL*:           00000DH   BYTE   UNIT     CODE           ?PR?_CYXTAL_SETFBVOLTAGE?CYLIB
   *DEL*:           00000EH   BYTE   UNIT     CODE           ?PR?_CYXTAL_SETWDVOLTAGE?CYLIB
   *DEL*:           000015H   BYTE   UNIT     CODE           ?PR?_?CYHALT?CYLIB
   *DEL*:           0000B8H   BYTE   UNIT     CODE           ?PR?_?CYDELAYFREQ?CYLIB
   *DEL*:           000026H   BYTE   UNIT     CODE           ?PR?_CYWDTSTART?CYLIB
   *DEL*:           000007H   BYTE   UNIT     CODE           ?PR?CYWDTCLEAR?CYLIB
   *DEL*:           000084H   BYTE   UNIT     CODE           ?PR?_CYVDLVDIGITENABLE?CYLIB
   *DEL*:           000007H   BYTE   UNIT     XDATA          ?XD?_CYVDLVDIGITENABLE?CYLIB
   *DEL*:           000083H   BYTE   UNIT     CODE           ?PR?_CYVDLVANALOGENABLE?CYLIB
   *DEL*:           000007H   BYTE   UNIT     XDATA          ?XD?_CYVDLVANALOGENABLE?CYLIB
   *DEL*:           00001DH   BYTE   UNIT     CODE           ?PR?CYVDLVDIGITDISABLE?CYLIB
   *DEL*:           000018H   BYTE   UNIT     CODE           ?PR?CYVDLVANALOGDISABLE?CYLIB
   *DEL*:           000056H   BYTE   UNIT     CODE           ?PR?CYVDHVANALOGENABLE?CYLIB
   *DEL*:           000005H   BYTE   UNIT     XDATA          ?XD?CYVDHVANALOGENABLE?CYLIB
   *DEL*:           000011H   BYTE   UNIT     CODE           ?PR?CYVDHVANALOGDISABLE?CYLIB
   *DEL*:           000039H   BYTE   UNIT     CODE           ?PR?_CYVDSTICKYSTATUS?CYLIB
   *DEL*:           000002H   BYTE   UNIT     XDATA          ?XD?_CYVDSTICKYSTATUS?CYLIB
   *DEL*:           000018H   BYTE   UNIT     CODE           ?PR?CYVDREALTIMESTATUS?CYLIB
   *DEL*:           000001H   BYTE   UNIT     XDATA          ?XD?CYVDREALTIMESTATUS?CYLIB
   *DEL*:           0000D0H   BYTE   UNIT     CODE           ?PR?CYDISABLEINTS?CYLIB
   *DEL*:           000005H   BYTE   UNIT     XDATA          ?XD?CYDISABLEINTS?CYLIB
   *DEL*:           000067H   BYTE   UNIT     CODE           ?PR?_CYENABLEINTS?CYLIB
   *DEL*:           000004H   BYTE   UNIT     XDATA          ?XD?_CYENABLEINTS?CYLIB
   *DEL*:           000018H   BYTE   UNIT     CODE           ?PR?_CYINTGETVECTOR?CYLIB
   *DEL*:           000014H   BYTE   UNIT     CODE           ?PR?_CYINTGETPRIORITY?CYLIB
   *DEL*:           000036H   BYTE   UNIT     CODE           ?PR?_CYINTGETSTATE?CYLIB
   *DEL*:           000248H   BYTE   UNIT     CODE           ?PR?_CYGETUNIQUEID?CYLIB
   *DEL*:           000003H   BYTE   UNIT     XDATA          ?XD?_CYGETUNIQUEID?CYLIB
   *DEL*:           00001AH   BYTE   UNIT     CODE           ?PR?_SETANALOGROUTINGPUMPS?CYFITTER_CFG
   *DEL*:           000021H   BYTE   UNIT     CODE           ?PR?_ADC_AMUX_FASTSELECT?ADC_AMUX
   *DEL*:           000001H   BYTE   UNIT     XDATA          ?XD?_ADC_AMUX_FASTSELECT?ADC_AMUX
   *DEL*:           00000FH   BYTE   UNIT     CODE           ?PR?ADC_EXT_CP_CLK_START?ADC_EXT_CP_CLK
   *DEL*:           00000FH   BYTE   UNIT     CODE           ?PR?ADC_EXT_CP_CLK_STOP?ADC_EXT_CP_CLK
   *DEL*:           00006EH   BYTE   UNIT     CODE           ?PR?ADC_EXT_CP_CLK_STOPBLOCK?ADC_EXT_CP_CLK
   *DEL*:           000002H   BYTE   UNIT     XDATA          ?XD?ADC_EXT_CP_CLK_STOPBLOCK?ADC_EXT_CP_CLK
   *DEL*:           000013H   BYTE   UNIT     CODE           ?PR?_ADC_EXT_CP_CLK_STANDBYPOWER?ADC_EXT_CP_CLK
   *DEL*:           00000EH   BYTE   UNIT     CODE           ?PR?_ADC_EXT_CP_CLK_CLEARMODEREGISTER?ADC_EXT_CP_CLK
   *DEL*:           000008H   BYTE   UNIT     CODE           ?PR?ADC_EXT_CP_CLK_GETMODEREGISTER?ADC_EXT_CP_CLK
   *DEL*:           000062H   BYTE   UNIT     CODE           ?PR?_ADC_EXT_CP_CLK_SETSOURCEREGISTER?ADC_EXT_CP_CLK
   *DEL*:           000003H   BYTE   UNIT     XDATA          ?XD?_ADC_EXT_CP_CLK_SETSOURCEREGISTER?ADC_EXT_CP_CLK
   *DEL*:           00000FH   BYTE   UNIT     CODE           ?PR?ADC_THEACLK_START?ADC_THEACLK
   *DEL*:           00000FH   BYTE   UNIT     CODE           ?PR?ADC_THEACLK_STOP?ADC_THEACLK
   *DEL*:           00006CH   BYTE   UNIT     CODE           ?PR?ADC_THEACLK_STOPBLOCK?ADC_THEACLK
   *DEL*:           000002H   BYTE   UNIT     XDATA          ?XD?ADC_THEACLK_STOPBLOCK?ADC_THEACLK
   *DEL*:           000013H   BYTE   UNIT     CODE           ?PR?_ADC_THEACLK_STANDBYPOWER?ADC_THEACLK
   *DEL*:           00000EH   BYTE   UNIT     CODE           ?PR?_ADC_THEACLK_CLEARMODEREGISTER?ADC_THEACLK
   *DEL*:           000008H   BYTE   UNIT     CODE           ?PR?ADC_THEACLK_GETMODEREGISTER?ADC_THEACLK
   *DEL*:           000062H   BYTE   UNIT     CODE           ?PR?_ADC_THEACLK_SETSOURCEREGISTER?ADC_THEACLK
LX51 LINKER/LOCATER V4.64.0.0                                                         06/13/2017  14:44:14  PAGE 13


   *DEL*:           000003H   BYTE   UNIT     XDATA          ?XD?_ADC_THEACLK_SETSOURCEREGISTER?ADC_THEACLK
   *DEL*:           000008H   BYTE   UNIT     CODE           ?PR?_ADC_THEACLK_SETPHASEREGISTER?ADC_THEACLK
   *DEL*:           000008H   BYTE   UNIT     CODE           ?PR?ADC_THEACLK_GETPHASEREGISTER?ADC_THEACLK
   *DEL*:           000004H   BYTE   UNIT     CODE           ?PR?_CyDelay?CYBOOTASMKEIL
   *DEL*:           000031H   BYTE   UNIT     CODE           ?PR?CYFLASH_START?CYFLASH
   *DEL*:           000015H   BYTE   UNIT     CODE           ?PR?CYFLASH_STOP?CYFLASH
   *DEL*:           00007DH   BYTE   UNIT     CODE           ?PR?_CYSETFLASHEEBUFFER?CYFLASH
   *DEL*:           000004H   BYTE   UNIT     XDATA          ?XD?_CYSETFLASHEEBUFFER?CYFLASH
   *DEL*:           000034H   BYTE   UNIT     CODE           ?PR?_CYWRITEROWDATA?CYFLASH
   *DEL*:           000003H   BYTE   UNIT     XDATA          ?XD?_CYWRITEROWDATA?CYFLASH
   *DEL*:           000190H   BYTE   UNIT     CODE           ?PR?_CYWRITEROWFULL?CYFLASH
   *DEL*:           000009H   BYTE   UNIT     XDATA          ?XD?_CYWRITEROWFULL?CYFLASH
   *DEL*:           000044H   BYTE   UNIT     CODE           ?PR?_CYFLASH_SETWAITCYCLES?CYFLASH
   *DEL*:           000001H   BYTE   UNIT     XDATA          ?XD?_CYFLASH_SETWAITCYCLES?CYFLASH
   *DEL*:           000015H   BYTE   UNIT     CODE           ?PR?CYEEPROM_STOP?CYFLASH
   *DEL*:           000010H   BYTE   UNIT     CODE           ?PR?CYEEPROM_READRESERVE?CYFLASH
   *DEL*:           000008H   BYTE   UNIT     CODE           ?PR?CYEEPROM_READRELEASE?CYFLASH
   *DEL*:           000019H   BYTE   UNIT     CODE           ?PR?CYMEMZERO?CYMEM
   *DEL*:           00002DH   BYTE   UNIT     CODE           ?PR?CFG_WRITE_BYTES?CYMEM
   *DEL*:           00002EH   BYTE   UNIT     CODE           ?PR?CY_WRITE_BYTES_CODE?CYMEM
   *DEL*:           000015H   BYTE   UNIT     CODE           ?PR?CYREAD32?CYMEM
   *DEL*:           000015H   BYTE   UNIT     CODE           ?PR?CYWRITE32?CYMEM
   *DEL*:           0001A9H   BYTE   UNIT     CODE           ?PR?CYPMSAVECLOCKS?CYPM
   *DEL*:           00024CH   BYTE   UNIT     CODE           ?PR?CYPMRESTORECLOCKS?CYPM
   *DEL*:           000003H   BYTE   UNIT     XDATA          ?XD?CYPMRESTORECLOCKS?CYPM
   *DEL*:           0000E0H   BYTE   UNIT     CODE           ?PR?_CYPMALTACT?CYPM
   *DEL*:           000004H   BYTE   UNIT     XDATA          ?XD?_CYPMALTACT?CYPM
   *DEL*:           000160H   BYTE   UNIT     CODE           ?PR?_CYPMSLEEP?CYPM
   *DEL*:           000004H   BYTE   UNIT     XDATA          ?XD?_CYPMSLEEP?CYPM
   *DEL*:           000008H   BYTE   UNIT     CODE           ?PR?CYPMHIBERNATE?CYPM
   *DEL*:           0000D6H   BYTE   UNIT     CODE           ?PR?_CYPMHIBERNATEEX?CYPM
   *DEL*:           000003H   BYTE   UNIT     XDATA          ?XD?_CYPMHIBERNATEEX?CYPM
   *DEL*:           000039H   BYTE   UNIT     CODE           ?PR?_CYPMREADSTATUS?CYPM
   *DEL*:           000002H   BYTE   UNIT     XDATA          ?XD?_CYPMREADSTATUS?CYPM
   *DEL*:           000076H   BYTE   UNIT     CODE           ?PR?CYPMHIBSAVESET?CYPM
   *DEL*:           000040H   BYTE   UNIT     CODE           ?PR?CYPMHIBRESTORE?CYPM
   *DEL*:           000049H   BYTE   UNIT     CODE           ?PR?_CYPMCTWSETINTERVAL?CYPM
   *DEL*:           000001H   BYTE   UNIT     XDATA          ?XD?_CYPMCTWSETINTERVAL?CYPM
   *DEL*:           000017H   BYTE   UNIT     CODE           ?PR?CYPMOPPSSET?CYPM
   *DEL*:           00004DH   BYTE   UNIT     CODE           ?PR?_CYPMFTWSETINTERVAL?CYPM
   *DEL*:           000001H   BYTE   UNIT     XDATA          ?XD?_CYPMFTWSETINTERVAL?CYPM
   *DEL*:           00018CH   BYTE   UNIT     CODE           ?PR?CYPMHIBSLPSAVESET?CYPM
   *DEL*:           00010DH   BYTE   UNIT     CODE           ?PR?CYPMHIBSLPRESTORE?CYPM
   *DEL*:           000082H   BYTE   UNIT     CODE           ?PR?CYPMHVILVISAVEDISABLE?CYPM
   *DEL*:           000033H   BYTE   UNIT     CODE           ?PR?CYPMHVILVIRESTORE?CYPM
   *DEL*:           00000EH   BYTE   UNIT     CONST          ?CO?CYPM
   *DEL*:           000015H   BYTE   UNIT     CODE           ?PR?CYSPCSTOP?CYSPC
   *DEL*:           0000A7H   BYTE   UNIT     CODE           ?PR?_CYSPCLOADMULTIBYTE?CYSPC
   *DEL*:           000007H   BYTE   UNIT     XDATA          ?XD?_CYSPCLOADMULTIBYTE?CYSPC
   *DEL*:           000143H   BYTE   UNIT     CODE           ?PR?_CYSPCLOADROWFULL?CYSPC
   *DEL*:           00000FH   BYTE   UNIT     XDATA          ?XD?_CYSPCLOADROWFULL?CYSPC
   *DEL*:           000030H   BYTE   UNIT     CODE           ?PR?_CYSPCERASESECTOR?CYSPC



OVERLAY MAP OF MODULE:   .\DP8051_Keil_951\Release\cuff_mod_firmware.omf (COMMAND_PROCESSING)


FUNCTION/MODULE                                BIT_GROUP   DATA_GROUP   IDATA_GROUP  XDATA_GROUP
--> CALLED FUNCTION/MODULE                    START  STOP  START  STOP  START  STOP  START  STOP
================================================================================================
ISR_WATCHDOG_HANDLER/INTERRUPTIONS            ----- -----  ----- -----  ----- -----  ----- -----

*** NEW ROOT ********************************

LX51 LINKER/LOCATER V4.64.0.0                                                         06/13/2017  14:44:14  PAGE 14


ISR_RS485_RX_EXINTERRUPT/INTERRUPTIONS        ----- -----  ----- -----  ----- -----  ----- -----

*** NEW ROOT ********************************

ISR_RS485_RX_INTERRUPT/ISR_RS485_RX           ----- -----  ----- -----  ----- -----  ----- -----

*** NEW ROOT ********************************

ISR_WATCHDOG_INTERRUPT/ISR_WATCHDOG           ----- -----  ----- -----  ----- -----  ----- -----

*** NEW ROOT ********************************

?C_C51STARTUP                                 ----- -----  ----- -----  ----- -----  ----- -----
  +--> ?CO?KEILSTART?3
  +--> CYFITTER_CFG/CYFITTER_CFG
  +--> CYDMACCONFIGURE/CYDMAC
  +--> MAIN/MAIN
  +--> ?C_INITSEG

?CO?KEILSTART?3                               ----- -----  ----- -----  ----- -----  ----- -----

CYFITTER_CFG/CYFITTER_CFG                     ----- -----  ----- -----  ----- -----  ----- -----
  +--> CYREAD8/CYMEM
  +--> CYWRITE8/CYMEM
  +--> CFG_DMA_INIT/CYFITTER_CFG
  +--> ?CO?CYFITTER_CFG
  +--> CYCONFIGCPYCODE/CYMEM
  +--> _CYCONFIGCPY/CYMEM
  +--> CLOCKSETUP/CYFITTER_CFG
  +--> ANALOGSETDEFAULT/CYFITTER_CFG

CYREAD8/CYMEM                                 ----- -----  ----- -----  ----- -----  ----- -----

CYWRITE8/CYMEM                                ----- -----  ----- -----  ----- -----  ----- -----

CFG_DMA_INIT/CYFITTER_CFG                     ----- -----  ----- -----  ----- -----  ----- -----
  +--> CYWRITE16/CYMEM
  +--> ?CO?CYFITTER_CFG
  +--> _CYCONFIGCPY/CYMEM

CYWRITE16/CYMEM                               ----- -----  ----- -----  ----- -----  ----- -----

?CO?CYFITTER_CFG                              ----- -----  ----- -----  ----- -----  ----- -----

_CYCONFIGCPY/CYMEM                            ----- -----  ----- -----  ----- -----  0000H 0007H

CYCONFIGCPYCODE/CYMEM                         ----- -----  ----- -----  ----- -----  ----- -----

CLOCKSETUP/CYFITTER_CFG                       ----- -----  ----- -----  ----- -----  0000H 0004H
  +--> CYWRITE16/CYMEM
  +--> ?CO?CYFITTER_CFG
  +--> CYCONFIGCPYCODE/CYMEM
  +--> CYREAD8/CYMEM
  +--> CYDELAYCYCLES/CYBOOTASMKEIL
  +--> _CYCLOCKSTARTUPERROR/CYFITTER_CFG

CYDELAYCYCLES/CYBOOTASMKEIL                   ----- -----  ----- -----  ----- -----  ----- -----

_CYCLOCKSTARTUPERROR/CYFITTER_CFG             ----- -----  ----- -----  ----- -----  ----- -----

ANALOGSETDEFAULT/CYFITTER_CFG                 ----- -----  ----- -----  ----- -----  ----- -----
  +--> CYREAD8/CYMEM

CYDMACCONFIGURE/CYDMAC                        ----- -----  ----- -----  ----- -----  ----- -----

LX51 LINKER/LOCATER V4.64.0.0                                                         06/13/2017  14:44:14  PAGE 15


MAIN/MAIN                                     ----- -----  ----- -----  ----- -----  0000H 0002H
  +--> EEPROM_START/EEPROM
  +--> MEMRECALL/COMMAND_PROCESSING
  +--> _?CYDELAY/CYLIB
  +--> _FTDI_ENABLE_REG_WRITE/FTDI_ENABLE_REG
  +--> UART_RS485_STOP/UART_RS485
  +--> UART_RS485_START/UART_RS485
  +--> UART_RS485_INIT/UART_RS485
  +--> UART_RS485_CLEARRXBUFFER/UART_RS485
  +--> UART_RS485_CLEARTXBUFFER/UART_RS485
  +--> _ISR_RS485_RX_STARTEX/ISR_RS485_RX
  +--> WATCHDOG_COUNTER_START/WATCHDOG_COUNTER
  +--> _ISR_WATCHDOG_STARTEX/ISR_WATCHDOG
  +--> PWM_MOTORS_START/PWM_MOTORS
  +--> _PWM_MOTORS_WRITECOMPARE1/PWM_MOTORS
  +--> _PWM_MOTORS_WRITECOMPARE2/PWM_MOTORS
  +--> _MOTOR_DIR_WRITE/MOTOR_DIR
  +--> _MOTOR_ON_OFF_WRITE/MOTOR_ON_OFF
  +--> COUNTER_ENC_START/COUNTER_ENC
  +--> SHIFTREG_ENC_1_START/SHIFTREG_ENC_1
  +--> SHIFTREG_ENC_2_START/SHIFTREG_ENC_2
  +--> SHIFTREG_ENC_3_START/SHIFTREG_ENC_3
  +--> ADC_START/ADC
  +--> _ADC_SOC_WRITE/ADC_SOC
  +--> _DMA_DMAINITIALIZE/DMA_DMA
  +--> CYDMATDALLOCATE/CYDMAC
  +--> _CYDMATDSETCONFIGURATION/CYDMAC
  +--> _CYDMATDSETADDRESS/CYDMAC
  +--> _CYDMACHSETINITIALTD/CYDMAC
  +--> _CYDMACHENABLE/CYDMAC
  +--> _RS485_CTS_WRITE/RS485_CTS
  +--> MY_TIMER_START/MY_TIMER
  +--> PACER_TIMER_START/PACER_TIMER
  +--> _MEMSTORE/COMMAND_PROCESSING
  +--> _SENDACKNOWLEDGMENT/COMMAND_PROCESSING
  +--> _ENCODER_READING/INTERRUPTIONS
  +--> _WATCHDOG_ENABLER_WRITE/WATCHDOG_ENABLER
  +--> _RESET_FF_WRITE/RESET_FF
  +--> FUNCTION_SCHEDULER/INTERRUPTIONS
  +--> FF_STATUS_READ/FF_STATUS
  +--> _WATCHDOG_REFRESH_WRITE/WATCHDOG_REFRESH
  +--> INTERRUPT_MANAGER/INTERRUPTIONS
  +--> UART_RS485_READRXSTATUS/UART_RS485

EEPROM_START/EEPROM                           ----- -----  ----- -----  ----- -----  ----- -----
  +--> EEPROM_ENABLE/EEPROM

EEPROM_ENABLE/EEPROM                          ----- -----  ----- -----  ----- -----  ----- -----
  +--> CYSETTEMP/CYFLASH
  +--> CYEEPROM_START/CYFLASH

CYSETTEMP/CYFLASH                             ----- -----  ----- -----  ----- -----  0026H 0026H
  +--> CYFLASHGETSPCALGORITHM/CYFLASH
  +--> CYSETTEMPINT/CYFLASH

CYFLASHGETSPCALGORITHM/CYFLASH                ----- -----  ----- -----  ----- -----  0027H 0027H
  +--> CYSPCSTART/CYSPC
  +--> CYSPCLOCK/CYSPC
  +--> CYSPCGETALGORITHM/CYSPC
  +--> CYDELAYUS/CYBOOTASMKEIL
  +--> CYSPCUNLOCK/CYSPC

CYSPCSTART/CYSPC                              ----- -----  ----- -----  ----- -----  ----- -----
  +--> CYENTERCRITICALSECTION/CYBOOTASMKEIL
  +--> CYEXITCRITICALSECTION/CYBOOTASMKEIL
LX51 LINKER/LOCATER V4.64.0.0                                                         06/13/2017  14:44:14  PAGE 16



CYENTERCRITICALSECTION/CYBOOTASMKEIL          ----- -----  ----- -----  ----- -----  ----- -----

CYEXITCRITICALSECTION/CYBOOTASMKEIL           ----- -----  ----- -----  ----- -----  ----- -----

CYSPCLOCK/CYSPC                               ----- -----  ----- -----  ----- -----  002BH 002BH
  +--> CYENTERCRITICALSECTION/CYBOOTASMKEIL
  +--> CYEXITCRITICALSECTION/CYBOOTASMKEIL

CYSPCGETALGORITHM/CYSPC                       ----- -----  ----- -----  ----- -----  ----- -----

CYDELAYUS/CYBOOTASMKEIL                       ----- -----  ----- -----  ----- -----  ----- -----
  +--> CYDELAYCYCLES/CYBOOTASMKEIL

CYSPCUNLOCK/CYSPC                             ----- -----  ----- -----  ----- -----  ----- -----
  +--> CYENTERCRITICALSECTION/CYBOOTASMKEIL
  +--> CYEXITCRITICALSECTION/CYBOOTASMKEIL

CYSETTEMPINT/CYFLASH                          ----- -----  ----- -----  ----- -----  0027H 0027H
  +--> CYSPCSTART/CYSPC
  +--> CYSPCLOCK/CYSPC
  +--> _CYSPCGETTEMP/CYSPC
  +--> _CYSPCREADDATA/CYSPC
  +--> CYDELAYUS/CYBOOTASMKEIL
  +--> CYSPCUNLOCK/CYSPC

_CYSPCGETTEMP/CYSPC                           ----- -----  ----- -----  ----- -----  ----- -----

_CYSPCREADDATA/CYSPC                          ----- -----  ----- -----  ----- -----  0028H 002CH
  +--> CYDELAYUS/CYBOOTASMKEIL

CYEEPROM_START/CYFLASH                        ----- -----  ----- -----  ----- -----  ----- -----
  +--> CYENTERCRITICALSECTION/CYBOOTASMKEIL
  +--> CYEXITCRITICALSECTION/CYBOOTASMKEIL

MEMRECALL/COMMAND_PROCESSING                  ----- -----  ----- -----  ----- -----  ----- -----
  +--> MEMRESTORE/COMMAND_PROCESSING

MEMRESTORE/COMMAND_PROCESSING                 ----- -----  ----- -----  ----- -----  ----- -----
  +--> MEMINIT/COMMAND_PROCESSING
  +--> _MEMSTORE/COMMAND_PROCESSING

MEMINIT/COMMAND_PROCESSING                    ----- -----  0067H 0067H  ----- -----  ----- -----
  +--> _MEMSTORE/COMMAND_PROCESSING

_MEMSTORE/COMMAND_PROCESSING                  ----- -----  ----- -----  ----- -----  001FH 0025H
  +--> _PWM_MOTORS_WRITECOMPARE1/PWM_MOTORS
  +--> _PWM_MOTORS_WRITECOMPARE2/PWM_MOTORS
  +--> EEPROM_UPDATETEMPERATURE/EEPROM
  +--> _EEPROM_WRITE/EEPROM

_PWM_MOTORS_WRITECOMPARE1/PWM_MOTORS          ----- -----  ----- -----  ----- -----  ----- -----

_PWM_MOTORS_WRITECOMPARE2/PWM_MOTORS          ----- -----  ----- -----  ----- -----  ----- -----

EEPROM_UPDATETEMPERATURE/EEPROM               ----- -----  ----- -----  ----- -----  ----- -----
  +--> CYSETTEMP/CYFLASH

_EEPROM_WRITE/EEPROM                          ----- -----  ----- -----  ----- -----  0026H 002AH
  +--> CYSPCSTART/CYSPC
  +--> CYSPCLOCK/CYSPC
  +--> _CYSPCLOADROW/CYSPC
  +--> _CYSPCWRITEROW/CYSPC
  +--> CYSPCUNLOCK/CYSPC

LX51 LINKER/LOCATER V4.64.0.0                                                         06/13/2017  14:44:14  PAGE 17


_CYSPCLOADROW/CYSPC                           ----- -----  ----- -----  ----- -----  002BH 0031H

_CYSPCWRITEROW/CYSPC                          ----- -----  ----- -----  ----- -----  002BH 002FH

_?CYDELAY/CYLIB                               ----- -----  ----- -----  ----- -----  ----- -----
  +--> CYDELAYCYCLES/CYBOOTASMKEIL

_FTDI_ENABLE_REG_WRITE/FTDI_ENABLE_REG        ----- -----  ----- -----  ----- -----  ----- -----

UART_RS485_STOP/UART_RS485                    ----- -----  ----- -----  ----- -----  ----- -----
  +--> CYENTERCRITICALSECTION/CYBOOTASMKEIL
  +--> CYEXITCRITICALSECTION/CYBOOTASMKEIL

UART_RS485_START/UART_RS485                   ----- -----  ----- -----  ----- -----  ----- -----
  +--> UART_RS485_INIT/UART_RS485
  +--> UART_RS485_ENABLE/UART_RS485

UART_RS485_INIT/UART_RS485                    ----- -----  ----- -----  ----- -----  ----- -----
  +--> _CYINTSETVECTOR/CYLIB
  +--> _CYINTSETPRIORITY/CYLIB

_CYINTSETVECTOR/CYLIB                         ----- -----  ----- -----  ----- -----  0003H 0007H
  +--> CYREAD16/CYMEM
  +--> CYWRITE16/CYMEM

CYREAD16/CYMEM                                ----- -----  ----- -----  ----- -----  ----- -----

_CYINTSETPRIORITY/CYLIB                       ----- -----  ----- -----  ----- -----  ----- -----

UART_RS485_ENABLE/UART_RS485                  ----- -----  ----- -----  ----- -----  ----- -----
  +--> CYENTERCRITICALSECTION/CYBOOTASMKEIL
  +--> CYEXITCRITICALSECTION/CYBOOTASMKEIL

UART_RS485_CLEARRXBUFFER/UART_RS485           ----- -----  ----- -----  ----- -----  ----- -----
  +--> CYENTERCRITICALSECTION/CYBOOTASMKEIL
  +--> CYEXITCRITICALSECTION/CYBOOTASMKEIL

UART_RS485_CLEARTXBUFFER/UART_RS485           ----- -----  ----- -----  ----- -----  ----- -----
  +--> CYENTERCRITICALSECTION/CYBOOTASMKEIL
  +--> CYEXITCRITICALSECTION/CYBOOTASMKEIL

_ISR_RS485_RX_STARTEX/ISR_RS485_RX            ----- -----  ----- -----  ----- -----  0003H 0004H
  +--> ISR_RS485_RX_DISABLE/ISR_RS485_RX
  +--> _ISR_RS485_RX_SETVECTOR/ISR_RS485_RX
  +--> _ISR_RS485_RX_SETPRIORITY/ISR_RS485_RX
  +--> ISR_RS485_RX_ENABLE/ISR_RS485_RX

ISR_RS485_RX_DISABLE/ISR_RS485_RX             ----- -----  ----- -----  ----- -----  ----- -----

_ISR_RS485_RX_SETVECTOR/ISR_RS485_RX          ----- -----  ----- -----  ----- -----  ----- -----
  +--> CYWRITE16/CYMEM

_ISR_RS485_RX_SETPRIORITY/ISR_RS485_RX        ----- -----  ----- -----  ----- -----  ----- -----

ISR_RS485_RX_ENABLE/ISR_RS485_RX              ----- -----  ----- -----  ----- -----  ----- -----

WATCHDOG_COUNTER_START/WATCHDOG_COUNTER       ----- -----  ----- -----  ----- -----  ----- -----
  +--> WATCHDOG_COUNTER_INIT/WATCHDOG_COUNTER
  +--> WATCHDOG_COUNTER_ENABLE/WATCHDOG_COUNTER

WATCHDOG_COUNTER_INIT/WATCHDOG_COUNTER        ----- -----  ----- -----  ----- -----  ----- -----
  +--> _WATCHDOG_COUNTER_WRITEPERIOD/WATCHDOG_COUNTER
  +--> _WATCHDOG_COUNTER_WRITECOUNTER/WATCHDOG_COUNTER
  +--> _WATCHDOG_COUNTER_SETINTERRUPTMODE/WATCHDOG_COUNTER

LX51 LINKER/LOCATER V4.64.0.0                                                         06/13/2017  14:44:14  PAGE 18


_WATCHDOG_COUNTER_WRITEPERIOD/WATCHDOG_C+     ----- -----  ----- -----  ----- -----  ----- -----
... OUNTER
  +--> CYWRITE16/CYMEM

_WATCHDOG_COUNTER_WRITECOUNTER/WATCHDOG_+     ----- -----  ----- -----  ----- -----  ----- -----
... COUNTER
  +--> CYWRITE16/CYMEM

_WATCHDOG_COUNTER_SETINTERRUPTMODE/WATCH+     ----- -----  ----- -----  ----- -----  ----- -----
... DOG_COUNTER

WATCHDOG_COUNTER_ENABLE/WATCHDOG_COUNTER      ----- -----  ----- -----  ----- -----  ----- -----

_ISR_WATCHDOG_STARTEX/ISR_WATCHDOG            ----- -----  ----- -----  ----- -----  0003H 0004H
  +--> ISR_WATCHDOG_DISABLE/ISR_WATCHDOG
  +--> _ISR_WATCHDOG_SETVECTOR/ISR_WATCHDOG
  +--> _ISR_WATCHDOG_SETPRIORITY/ISR_WATCHDOG
  +--> ISR_WATCHDOG_ENABLE/ISR_WATCHDOG

ISR_WATCHDOG_DISABLE/ISR_WATCHDOG             ----- -----  ----- -----  ----- -----  ----- -----

_ISR_WATCHDOG_SETVECTOR/ISR_WATCHDOG          ----- -----  ----- -----  ----- -----  ----- -----
  +--> CYWRITE16/CYMEM

_ISR_WATCHDOG_SETPRIORITY/ISR_WATCHDOG        ----- -----  ----- -----  ----- -----  ----- -----

ISR_WATCHDOG_ENABLE/ISR_WATCHDOG              ----- -----  ----- -----  ----- -----  ----- -----

PWM_MOTORS_START/PWM_MOTORS                   ----- -----  ----- -----  ----- -----  ----- -----
  +--> PWM_MOTORS_INIT/PWM_MOTORS
  +--> PWM_MOTORS_ENABLE/PWM_MOTORS

PWM_MOTORS_INIT/PWM_MOTORS                    ----- -----  ----- -----  ----- -----  ----- -----
  +--> _PWM_MOTORS_WRITECOUNTER/PWM_MOTORS
  +--> _PWM_MOTORS_WRITEPERIOD/PWM_MOTORS
  +--> _PWM_MOTORS_WRITECOMPARE1/PWM_MOTORS
  +--> _PWM_MOTORS_WRITECOMPARE2/PWM_MOTORS

_PWM_MOTORS_WRITECOUNTER/PWM_MOTORS           ----- -----  ----- -----  ----- -----  ----- -----

_PWM_MOTORS_WRITEPERIOD/PWM_MOTORS            ----- -----  ----- -----  ----- -----  ----- -----

PWM_MOTORS_ENABLE/PWM_MOTORS                  ----- -----  ----- -----  ----- -----  ----- -----

_MOTOR_DIR_WRITE/MOTOR_DIR                    ----- -----  ----- -----  ----- -----  ----- -----

_MOTOR_ON_OFF_WRITE/MOTOR_ON_OFF              ----- -----  ----- -----  ----- -----  ----- -----

COUNTER_ENC_START/COUNTER_ENC                 ----- -----  ----- -----  ----- -----  ----- -----
  +--> COUNTER_ENC_INIT/COUNTER_ENC
  +--> COUNTER_ENC_ENABLE/COUNTER_ENC

COUNTER_ENC_INIT/COUNTER_ENC                  ----- -----  ----- -----  ----- -----  ----- -----
  +--> COUNTER_ENC_CLEARFIFO/COUNTER_ENC
  +--> _COUNTER_ENC_WRITEPERIOD/COUNTER_ENC
  +--> _COUNTER_ENC_WRITECOUNTER/COUNTER_ENC
  +--> _COUNTER_ENC_SETINTERRUPTMODE/COUNTER_ENC
  +--> COUNTER_ENC_READSTATUSREGISTER/COUNTER_ENC
  +--> _COUNTER_ENC_WRITECOMPARE/COUNTER_ENC
  +--> CYENTERCRITICALSECTION/CYBOOTASMKEIL
  +--> CYEXITCRITICALSECTION/CYBOOTASMKEIL

COUNTER_ENC_CLEARFIFO/COUNTER_ENC             ----- -----  ----- -----  ----- -----  ----- -----
  +--> COUNTER_ENC_READSTATUSREGISTER/COUNTER_ENC
  +--> COUNTER_ENC_READCAPTURE/COUNTER_ENC
LX51 LINKER/LOCATER V4.64.0.0                                                         06/13/2017  14:44:14  PAGE 19



COUNTER_ENC_READSTATUSREGISTER/COUNTER_E+     ----- -----  ----- -----  ----- -----  ----- -----
... NC

COUNTER_ENC_READCAPTURE/COUNTER_ENC           ----- -----  ----- -----  ----- -----  ----- -----

_COUNTER_ENC_WRITEPERIOD/COUNTER_ENC          ----- -----  ----- -----  ----- -----  ----- -----

_COUNTER_ENC_WRITECOUNTER/COUNTER_ENC         ----- -----  ----- -----  ----- -----  ----- -----

_COUNTER_ENC_SETINTERRUPTMODE/COUNTER_EN+     ----- -----  ----- -----  ----- -----  ----- -----
... C

_COUNTER_ENC_WRITECOMPARE/COUNTER_ENC         ----- -----  ----- -----  ----- -----  ----- -----

COUNTER_ENC_ENABLE/COUNTER_ENC                ----- -----  ----- -----  ----- -----  ----- -----

SHIFTREG_ENC_1_START/SHIFTREG_ENC_1           ----- -----  ----- -----  ----- -----  ----- -----
  +--> SHIFTREG_ENC_1_INIT/SHIFTREG_ENC_1
  +--> SHIFTREG_ENC_1_ENABLE/SHIFTREG_ENC_1

SHIFTREG_ENC_1_INIT/SHIFTREG_ENC_1            ----- -----  ----- -----  ----- -----  ----- -----
  +--> _SHIFTREG_ENC_1_SETINTMODE/SHIFTREG_ENC_1

_SHIFTREG_ENC_1_SETINTMODE/SHIFTREG_ENC_+     ----- -----  ----- -----  ----- -----  ----- -----
... 1

SHIFTREG_ENC_1_ENABLE/SHIFTREG_ENC_1          ----- -----  ----- -----  ----- -----  ----- -----
  +--> SHIFTREG_ENC_1_ENABLEINT/SHIFTREG_ENC_1

SHIFTREG_ENC_1_ENABLEINT/SHIFTREG_ENC_1       ----- -----  ----- -----  ----- -----  ----- -----
  +--> CYENTERCRITICALSECTION/CYBOOTASMKEIL
  +--> CYEXITCRITICALSECTION/CYBOOTASMKEIL

SHIFTREG_ENC_2_START/SHIFTREG_ENC_2           ----- -----  ----- -----  ----- -----  ----- -----
  +--> SHIFTREG_ENC_2_INIT/SHIFTREG_ENC_2
  +--> SHIFTREG_ENC_2_ENABLE/SHIFTREG_ENC_2

SHIFTREG_ENC_2_INIT/SHIFTREG_ENC_2            ----- -----  ----- -----  ----- -----  ----- -----
  +--> _SHIFTREG_ENC_2_SETINTMODE/SHIFTREG_ENC_2

_SHIFTREG_ENC_2_SETINTMODE/SHIFTREG_ENC_+     ----- -----  ----- -----  ----- -----  ----- -----
... 2

SHIFTREG_ENC_2_ENABLE/SHIFTREG_ENC_2          ----- -----  ----- -----  ----- -----  ----- -----
  +--> SHIFTREG_ENC_2_ENABLEINT/SHIFTREG_ENC_2

SHIFTREG_ENC_2_ENABLEINT/SHIFTREG_ENC_2       ----- -----  ----- -----  ----- -----  ----- -----
  +--> CYENTERCRITICALSECTION/CYBOOTASMKEIL
  +--> CYEXITCRITICALSECTION/CYBOOTASMKEIL

SHIFTREG_ENC_3_START/SHIFTREG_ENC_3           ----- -----  ----- -----  ----- -----  ----- -----
  +--> SHIFTREG_ENC_3_INIT/SHIFTREG_ENC_3
  +--> SHIFTREG_ENC_3_ENABLE/SHIFTREG_ENC_3

SHIFTREG_ENC_3_INIT/SHIFTREG_ENC_3            ----- -----  ----- -----  ----- -----  ----- -----
  +--> _SHIFTREG_ENC_3_SETINTMODE/SHIFTREG_ENC_3

_SHIFTREG_ENC_3_SETINTMODE/SHIFTREG_ENC_+     ----- -----  ----- -----  ----- -----  ----- -----
... 3

SHIFTREG_ENC_3_ENABLE/SHIFTREG_ENC_3          ----- -----  ----- -----  ----- -----  ----- -----
  +--> SHIFTREG_ENC_3_ENABLEINT/SHIFTREG_ENC_3

SHIFTREG_ENC_3_ENABLEINT/SHIFTREG_ENC_3       ----- -----  ----- -----  ----- -----  ----- -----
LX51 LINKER/LOCATER V4.64.0.0                                                         06/13/2017  14:44:14  PAGE 20


  +--> CYENTERCRITICALSECTION/CYBOOTASMKEIL
  +--> CYEXITCRITICALSECTION/CYBOOTASMKEIL

ADC_START/ADC                                 ----- -----  ----- -----  ----- -----  ----- -----
  +--> ADC_INIT/ADC
  +--> ADC_ENABLE/ADC

ADC_INIT/ADC                                  ----- -----  ----- -----  ----- -----  ----- -----
  +--> _ADC_EXT_CP_CLK_SETMODEREGISTER/ADC_EXT_CP_CLK
  +--> _ADC_THEACLK_SETMODEREGISTER/ADC_THEACLK
  +--> _CYINTSETPRIORITY/CYLIB
  +--> _ADC_GAINCOMPENSATION/ADC
  +--> CYWRITE16/CYMEM
  +--> _ADC_INITCONFIG/ADC

_ADC_EXT_CP_CLK_SETMODEREGISTER/ADC_EXT_+     ----- -----  ----- -----  ----- -----  ----- -----
... CP_CLK

_ADC_THEACLK_SETMODEREGISTER/ADC_THEACLK      ----- -----  ----- -----  ----- -----  ----- -----

_ADC_GAINCOMPENSATION/ADC                     ----- -----  ----- -----  ----- -----  0003H 000AH
  +--> CYREAD8/CYMEM

_ADC_INITCONFIG/ADC                           ----- -----  ----- -----  ----- -----  ----- -----
  +--> _ADC_SETDSMREF0REG/ADC
  +--> _ADC_AMUX_SELECT/ADC_AMUX
  +--> _ADC_EXT_CP_CLK_SETDIVIDERREGISTER/ADC_EXT_CP_CLK
  +--> _ADC_THEACLK_SETDIVIDERREGISTER/ADC_THEACLK
  +--> _CYINTSETVECTOR/CYLIB

_ADC_SETDSMREF0REG/ADC                        ----- -----  ----- -----  ----- -----  0003H 0004H
  +--> CYENTERCRITICALSECTION/CYBOOTASMKEIL
  +--> CYDELAYUS/CYBOOTASMKEIL
  +--> CYEXITCRITICALSECTION/CYBOOTASMKEIL

_ADC_AMUX_SELECT/ADC_AMUX                     ----- -----  ----- -----  ----- -----  0003H 0003H
  +--> ADC_AMUX_START/ADC_AMUX
  +--> _ADC_AMUX_SET/CYFITTER_CFG

ADC_AMUX_START/ADC_AMUX                       ----- -----  ----- -----  ----- -----  0004H 0004H
  +--> _ADC_AMUX_UNSET/CYFITTER_CFG

_ADC_AMUX_UNSET/CYFITTER_CFG                  ----- -----  ----- -----  ----- -----  ----- -----
  +--> ?CO?CYFITTER_CFG

_ADC_AMUX_SET/CYFITTER_CFG                    ----- -----  ----- -----  ----- -----  ----- -----
  +--> ?CO?CYFITTER_CFG

_ADC_EXT_CP_CLK_SETDIVIDERREGISTER/ADC_E+     ----- -----  ----- -----  ----- -----  0003H 0009H
... XT_CP_CLK
  +--> ADC_EXT_CP_CLK_GETSOURCEREGISTER/ADC_EXT_CP_CLK
  +--> ADC_EXT_CP_CLK_GETDIVIDERREGISTER/ADC_EXT_CP_CLK
  +--> CYWRITE16/CYMEM

ADC_EXT_CP_CLK_GETSOURCEREGISTER/ADC_EXT+     ----- -----  ----- -----  ----- -----  ----- -----
... _CP_CLK

ADC_EXT_CP_CLK_GETDIVIDERREGISTER/ADC_EX+     ----- -----  ----- -----  ----- -----  ----- -----
... T_CP_CLK
  +--> CYREAD16/CYMEM

_ADC_THEACLK_SETDIVIDERREGISTER/ADC_THEA+     ----- -----  ----- -----  ----- -----  0003H 0009H
... CLK
  +--> ADC_THEACLK_GETSOURCEREGISTER/ADC_THEACLK
  +--> ADC_THEACLK_GETDIVIDERREGISTER/ADC_THEACLK
LX51 LINKER/LOCATER V4.64.0.0                                                         06/13/2017  14:44:14  PAGE 21


  +--> CYWRITE16/CYMEM

ADC_THEACLK_GETSOURCEREGISTER/ADC_THEACL+     ----- -----  ----- -----  ----- -----  ----- -----
... K

ADC_THEACLK_GETDIVIDERREGISTER/ADC_THEAC+     ----- -----  ----- -----  ----- -----  ----- -----
... LK
  +--> CYREAD16/CYMEM

ADC_ENABLE/ADC                                ----- -----  ----- -----  ----- -----  0003H 0004H
  +--> CYENTERCRITICALSECTION/CYBOOTASMKEIL
  +--> CYDELAYUS/CYBOOTASMKEIL
  +--> CYEXITCRITICALSECTION/CYBOOTASMKEIL

_ADC_SOC_WRITE/ADC_SOC                        ----- -----  ----- -----  ----- -----  ----- -----

_DMA_DMAINITIALIZE/DMA_DMA                    ----- -----  ----- -----  ----- -----  0003H 0008H
  +--> _CYDMACHSETCONFIGURATION/CYDMAC
  +--> _CYDMACHSETEXTENDEDADDRESS/CYDMAC
  +--> _CYDMACHPRIORITY/CYDMAC

_CYDMACHSETCONFIGURATION/CYDMAC               ----- -----  ----- -----  ----- -----  0009H 000EH

_CYDMACHSETEXTENDEDADDRESS/CYDMAC             ----- -----  ----- -----  ----- -----  0009H 0010H
  +--> CYWRITE16/CYMEM

_CYDMACHPRIORITY/CYDMAC                       ----- -----  ----- -----  ----- -----  ----- -----

CYDMATDALLOCATE/CYDMAC                        ----- -----  ----- -----  ----- -----  0003H 0003H
  +--> CYENTERCRITICALSECTION/CYBOOTASMKEIL
  +--> CYEXITCRITICALSECTION/CYBOOTASMKEIL

_CYDMATDSETCONFIGURATION/CYDMAC               ----- -----  ----- -----  ----- -----  0003H 000AH
  +--> CYWRITE16/CYMEM

_CYDMATDSETADDRESS/CYDMAC                     ----- -----  ----- -----  ----- -----  0003H 000AH
  +--> CYWRITE16/CYMEM

_CYDMACHSETINITIALTD/CYDMAC                   ----- -----  ----- -----  ----- -----  ----- -----

_CYDMACHENABLE/CYDMAC                         ----- -----  ----- -----  ----- -----  ----- -----

_RS485_CTS_WRITE/RS485_CTS                    ----- -----  ----- -----  ----- -----  ----- -----

MY_TIMER_START/MY_TIMER                       ----- -----  ----- -----  ----- -----  ----- -----
  +--> MY_TIMER_INIT/MY_TIMER
  +--> MY_TIMER_ENABLE/MY_TIMER

MY_TIMER_INIT/MY_TIMER                        ----- -----  ----- -----  ----- -----  ----- -----
  +--> _MY_TIMER_WRITEPERIOD/MY_TIMER
  +--> _MY_TIMER_WRITECOUNTER/MY_TIMER
  +--> CYENTERCRITICALSECTION/CYBOOTASMKEIL
  +--> CYEXITCRITICALSECTION/CYBOOTASMKEIL
  +--> MY_TIMER_CLEARFIFO/MY_TIMER
  +--> _MY_TIMER_SETINTERRUPTMODE/MY_TIMER

_MY_TIMER_WRITEPERIOD/MY_TIMER                ----- -----  ----- -----  ----- -----  ----- -----
  +--> CYWRITE24/CYMEM

CYWRITE24/CYMEM                               ----- -----  ----- -----  ----- -----  ----- -----

_MY_TIMER_WRITECOUNTER/MY_TIMER               ----- -----  ----- -----  ----- -----  ----- -----
  +--> CYWRITE24/CYMEM

MY_TIMER_CLEARFIFO/MY_TIMER                   ----- -----  ----- -----  ----- -----  ----- -----
LX51 LINKER/LOCATER V4.64.0.0                                                         06/13/2017  14:44:14  PAGE 22


  +--> MY_TIMER_READSTATUSREGISTER/MY_TIMER
  +--> MY_TIMER_READCAPTURE/MY_TIMER

MY_TIMER_READSTATUSREGISTER/MY_TIMER          ----- -----  ----- -----  ----- -----  ----- -----

MY_TIMER_READCAPTURE/MY_TIMER                 ----- -----  ----- -----  ----- -----  ----- -----
  +--> CYREAD24/CYMEM

CYREAD24/CYMEM                                ----- -----  ----- -----  ----- -----  ----- -----

_MY_TIMER_SETINTERRUPTMODE/MY_TIMER           ----- -----  ----- -----  ----- -----  ----- -----

MY_TIMER_ENABLE/MY_TIMER                      ----- -----  ----- -----  ----- -----  ----- -----

PACER_TIMER_START/PACER_TIMER                 ----- -----  ----- -----  ----- -----  ----- -----
  +--> PACER_TIMER_INIT/PACER_TIMER
  +--> PACER_TIMER_ENABLE/PACER_TIMER

PACER_TIMER_INIT/PACER_TIMER                  ----- -----  ----- -----  ----- -----  ----- -----
  +--> _PACER_TIMER_WRITEPERIOD/PACER_TIMER
  +--> _PACER_TIMER_WRITECOUNTER/PACER_TIMER
  +--> _PACER_TIMER_SETINTERRUPTMODE/PACER_TIMER

_PACER_TIMER_WRITEPERIOD/PACER_TIMER          ----- -----  ----- -----  ----- -----  ----- -----
  +--> CYWRITE16/CYMEM

_PACER_TIMER_WRITECOUNTER/PACER_TIMER         ----- -----  ----- -----  ----- -----  ----- -----
  +--> CYWRITE16/CYMEM

_PACER_TIMER_SETINTERRUPTMODE/PACER_TIME+     ----- -----  ----- -----  ----- -----  ----- -----
... R

PACER_TIMER_ENABLE/PACER_TIMER                ----- -----  ----- -----  ----- -----  ----- -----

_SENDACKNOWLEDGMENT/COMMAND_PROCESSING        ----- -----  006BH 006CH  ----- -----  ----- -----
  +--> _COMMWRITE/COMMAND_PROCESSING

_COMMWRITE/COMMAND_PROCESSING                 ----- -----  0078H 0079H  ----- -----  090BH 0910H
  +--> _UART_RS485_PUTCHAR/UART_RS485
  +--> UART_RS485_READTXSTATUS/UART_RS485
  +--> _RS485_CTS_WRITE/RS485_CTS

_UART_RS485_PUTCHAR/UART_RS485                ----- -----  ----- -----  ----- -----  ----- -----

UART_RS485_READTXSTATUS/UART_RS485            ----- -----  ----- -----  ----- -----  ----- -----

_ENCODER_READING/INTERRUPTIONS                ----- -----  0023H 0023H  ----- -----  0003H 000FH
  +--> SHIFTREG_ENC_1_READDATA/SHIFTREG_ENC_1
  +--> SHIFTREG_ENC_2_READDATA/SHIFTREG_ENC_2
  +--> SHIFTREG_ENC_3_READDATA/SHIFTREG_ENC_3
  +--> SHIFTREG_ENC_4_READDATA/SHIFTREG_ENC_4
  +--> _CHECK_ENC_DATA/UTILS
  +--> _ABS/ABS

SHIFTREG_ENC_1_READDATA/SHIFTREG_ENC_1        ----- -----  ----- -----  ----- -----  ----- -----
  +--> CYREAD24/CYMEM

SHIFTREG_ENC_2_READDATA/SHIFTREG_ENC_2        ----- -----  ----- -----  ----- -----  ----- -----
  +--> CYREAD24/CYMEM

SHIFTREG_ENC_3_READDATA/SHIFTREG_ENC_3        ----- -----  ----- -----  ----- -----  ----- -----
  +--> CYREAD24/CYMEM

SHIFTREG_ENC_4_READDATA/SHIFTREG_ENC_4        ----- -----  ----- -----  ----- -----  ----- -----
  +--> CYREAD24/CYMEM
LX51 LINKER/LOCATER V4.64.0.0                                                         06/13/2017  14:44:14  PAGE 23



_CHECK_ENC_DATA/UTILS                         ----- -----  0024H 0024H  0010H 0012H  ----- -----

_ABS/ABS                                      ----- -----  ----- -----  ----- -----  ----- -----

_WATCHDOG_ENABLER_WRITE/WATCHDOG_ENABLER      ----- -----  ----- -----  ----- -----  ----- -----

_RESET_FF_WRITE/RESET_FF                      ----- -----  ----- -----  ----- -----  ----- -----

FUNCTION_SCHEDULER/INTERRUPTIONS              ----- -----  ----- -----  ----- -----  ----- -----
  +--> MY_TIMER_READCOUNTER/MY_TIMER
  +--> _ADC_SOC_WRITE/ADC_SOC
  +--> INTERRUPT_MANAGER/INTERRUPTIONS
  +--> _ENCODER_READING/INTERRUPTIONS
  +--> _MOTOR_CONTROL/INTERRUPTIONS
  +--> ANALOG_READ_END/INTERRUPTIONS
  +--> CALIBRATION/INTERRUPTIONS
  +--> DRIVE_CUFF/COMMAND_PROCESSING
  +--> _MY_TIMER_WRITECOUNTER/MY_TIMER

MY_TIMER_READCOUNTER/MY_TIMER                 ----- -----  ----- -----  ----- -----  ----- -----
  +--> CYREAD24/CYMEM

INTERRUPT_MANAGER/INTERRUPTIONS               20H.0 20H.0  0064H 0065H  ----- -----  ----- -----
  +--> UART_RS485_GETRXBUFFERSIZE/UART_RS485
  +--> UART_RS485_GETCHAR/UART_RS485
  +--> _INFOGET/COMMAND_PROCESSING
  +--> COMMPROCESS/COMMAND_PROCESSING
  +--> _RS485_CTS_WRITE/RS485_CTS

UART_RS485_GETRXBUFFERSIZE/UART_RS485         ----- -----  ----- -----  ----- -----  ----- -----

UART_RS485_GETCHAR/UART_RS485                 ----- -----  ----- -----  ----- -----  ----- -----

_INFOGET/COMMAND_PROCESSING                   ----- -----  ----- -----  ----- -----  001FH 046AH
  +--> _INFOPREPARE/COMMAND_PROCESSING
  +--> _UART_RS485_PUTSTRING/UART_RS485

_INFOPREPARE/COMMAND_PROCESSING               ----- -----  0067H 0068H  ----- -----  046BH 049FH
  +--> ?CO?COMMAND_PROCESSING
  +--> _STRCAT/STRCAT
  +--> PRINTF/PRINTF

?CO?COMMAND_PROCESSING                        ----- -----  ----- -----  ----- -----  ----- -----

_STRCAT/STRCAT                                ----- -----  ----- -----  ----- -----  090BH 0913H

PRINTF/PRINTF                                 20H.1 21H.1  0078H 007CH  ----- -----  090BH 093AH
  +--> PUTCHAR/PUTCHAR

PUTCHAR/PUTCHAR                               ----- -----  ----- -----  ----- -----  ----- -----

_UART_RS485_PUTSTRING/UART_RS485              ----- -----  ----- -----  ----- -----  046BH 046DH
  +--> _UART_RS485_PUTCHAR/UART_RS485

COMMPROCESS/COMMAND_PROCESSING                ----- -----  0066H 0066H  ----- -----  ----- -----
  +--> _LCRCHECKSUM/UTILS
  +--> CMD_GET_MEASUREMENTS/COMMAND_PROCESSING
  +--> CMD_GET_INPUTS/COMMAND_PROCESSING
  +--> CMD_GET_CURRENTS/COMMAND_PROCESSING
  +--> CMD_GET_CURR_AND_MEAS/COMMAND_PROCESSING
  +--> CMD_SET_INPUTS/COMMAND_PROCESSING
  +--> CMD_SET_POS_STIFF/COMMAND_PROCESSING
  +--> CMD_GET_VELOCITIES/COMMAND_PROCESSING
  +--> CMD_ACTIVATE/COMMAND_PROCESSING
LX51 LINKER/LOCATER V4.64.0.0                                                         06/13/2017  14:44:14  PAGE 24


  +--> CMD_SET_WATCHDOG/COMMAND_PROCESSING
  +--> CMD_GET_ACTIVATE/COMMAND_PROCESSING
  +--> CMD_SET_BAUDRATE/COMMAND_PROCESSING
  +--> _INFOGET/COMMAND_PROCESSING
  +--> SETZEROS/COMMAND_PROCESSING
  +--> _GET_PARAM_LIST/COMMAND_PROCESSING
  +--> CMD_PING/COMMAND_PROCESSING
  +--> CMD_STORE_PARAMS/COMMAND_PROCESSING
  +--> _MEMSTORE/COMMAND_PROCESSING
  +--> _SENDACKNOWLEDGMENT/COMMAND_PROCESSING
  +--> MEMRESTORE/COMMAND_PROCESSING
  +--> MEMINIT/COMMAND_PROCESSING
  +--> _?CYDELAY/CYLIB
  +--> _FTDI_ENABLE_REG_WRITE/FTDI_ENABLE_REG
  +--> BOOTLOADABLE_LOAD/BOOTLOADABLE

_LCRCHECKSUM/UTILS                            ----- -----  0078H 0079H  ----- -----  090BH 090DH

CMD_GET_MEASUREMENTS/COMMAND_PROCESSING       ----- -----  0067H 0067H  ----- -----  001FH 0026H
  +--> _LCRCHECKSUM/UTILS
  +--> _COMMWRITE/COMMAND_PROCESSING

CMD_GET_INPUTS/COMMAND_PROCESSING             ----- -----  ----- -----  ----- -----  001FH 0024H
  +--> _LCRCHECKSUM/UTILS
  +--> _COMMWRITE/COMMAND_PROCESSING

CMD_GET_CURRENTS/COMMAND_PROCESSING           ----- -----  ----- -----  ----- -----  001FH 0024H
  +--> _LCRCHECKSUM/UTILS
  +--> _COMMWRITE/COMMAND_PROCESSING

CMD_GET_CURR_AND_MEAS/COMMAND_PROCESSING      ----- -----  0067H 0067H  ----- -----  001FH 002AH
  +--> _LCRCHECKSUM/UTILS
  +--> _COMMWRITE/COMMAND_PROCESSING

CMD_SET_INPUTS/COMMAND_PROCESSING             ----- -----  ----- -----  ----- -----  ----- -----

CMD_SET_POS_STIFF/COMMAND_PROCESSING          ----- -----  0067H 006EH  ----- -----  ----- -----

CMD_GET_VELOCITIES/COMMAND_PROCESSING         ----- -----  0067H 0067H  ----- -----  001FH 0026H
  +--> _LCRCHECKSUM/UTILS
  +--> _COMMWRITE/COMMAND_PROCESSING

CMD_ACTIVATE/COMMAND_PROCESSING               ----- -----  ----- -----  ----- -----  ----- -----
  +--> _MOTOR_ON_OFF_WRITE/MOTOR_ON_OFF

CMD_SET_WATCHDOG/COMMAND_PROCESSING           ----- -----  ----- -----  ----- -----  ----- -----
  +--> _WATCHDOG_ENABLER_WRITE/WATCHDOG_ENABLER
  +--> _WATCHDOG_COUNTER_WRITEPERIOD/WATCHDOG_COUNTER

CMD_GET_ACTIVATE/COMMAND_PROCESSING           ----- -----  ----- -----  ----- -----  001FH 0021H
  +--> _LCRCHECKSUM/UTILS
  +--> _COMMWRITE/COMMAND_PROCESSING

CMD_SET_BAUDRATE/COMMAND_PROCESSING           ----- -----  ----- -----  ----- -----  ----- -----
  +--> _CLOCK_UART_SETDIVIDERREGISTER/CLOCK_UART

_CLOCK_UART_SETDIVIDERREGISTER/CLOCK_UAR+     ----- -----  ----- -----  ----- -----  001FH 0025H
... T
  +--> CLOCK_UART_GETSOURCEREGISTER/CLOCK_UART
  +--> CLOCK_UART_GETDIVIDERREGISTER/CLOCK_UART
  +--> CYWRITE16/CYMEM

CLOCK_UART_GETSOURCEREGISTER/CLOCK_UART       ----- -----  ----- -----  ----- -----  ----- -----

CLOCK_UART_GETDIVIDERREGISTER/CLOCK_UART      ----- -----  ----- -----  ----- -----  ----- -----
LX51 LINKER/LOCATER V4.64.0.0                                                         06/13/2017  14:44:14  PAGE 25


  +--> CYREAD16/CYMEM

SETZEROS/COMMAND_PROCESSING                   ----- -----  0067H 0067H  ----- -----  ----- -----
  +--> _SENDACKNOWLEDGMENT/COMMAND_PROCESSING

_GET_PARAM_LIST/COMMAND_PROCESSING            ----- -----  0067H 0077H  ----- -----  001FH 090AH
  +--> ?CO?COMMAND_PROCESSING
  +--> _STRLEN/STRLEN
  +--> _STRCAT/STRCAT
  +--> PRINTF/PRINTF
  +--> _LCRCHECKSUM/UTILS
  +--> _COMMWRITE/COMMAND_PROCESSING
  +--> UART_RS485_CLEARTXBUFFER/UART_RS485

_STRLEN/STRLEN                                ----- -----  ----- -----  ----- -----  ----- -----

CMD_PING/COMMAND_PROCESSING                   ----- -----  ----- -----  ----- -----  001FH 0020H
  +--> _COMMWRITE/COMMAND_PROCESSING

CMD_STORE_PARAMS/COMMAND_PROCESSING           ----- -----  0067H 006AH  ----- -----  ----- -----
  +--> _MEMSTORE/COMMAND_PROCESSING
  +--> _COMMWRITE_OLD_ID/COMMAND_PROCESSING
  +--> _SENDACKNOWLEDGMENT/COMMAND_PROCESSING

_COMMWRITE_OLD_ID/COMMAND_PROCESSING          ----- -----  006BH 006CH  ----- -----  001FH 0024H
  +--> _UART_RS485_PUTCHAR/UART_RS485
  +--> UART_RS485_READTXSTATUS/UART_RS485
  +--> _RS485_CTS_WRITE/RS485_CTS

BOOTLOADABLE_LOAD/BOOTLOADABLE                ----- -----  ----- -----  ----- -----  ----- -----
  +--> CYSOFTWARERESET/CYLIB

CYSOFTWARERESET/CYLIB                         ----- -----  ----- -----  ----- -----  ----- -----

_MOTOR_CONTROL/INTERRUPTIONS                  ----- -----  0023H 0063H  ----- -----  ----- -----
  +--> INTERRUPT_MANAGER/INTERRUPTIONS
  +--> _ABS/ABS
  +--> _MOTOR_DIR_WRITE/MOTOR_DIR
  +--> _PWM_MOTORS_WRITECOMPARE1/PWM_MOTORS
  +--> _PWM_MOTORS_WRITECOMPARE2/PWM_MOTORS

ANALOG_READ_END/INTERRUPTIONS                 ----- -----  ----- -----  ----- -----  ----- -----
  +--> ADC_STATUS_READ/ADC_STATUS
  +--> INTERRUPT_MANAGER/INTERRUPTIONS
  +--> PWM_LIMIT_SEARCH/INTERRUPTIONS
  +--> _FILTER_I1/UTILS
  +--> _FILTER_I2/UTILS

ADC_STATUS_READ/ADC_STATUS                    ----- -----  ----- -----  ----- -----  ----- -----

PWM_LIMIT_SEARCH/INTERRUPTIONS                ----- -----  0023H 0027H  ----- -----  ----- -----
  +--> ?CO?INTERRUPTIONS

?CO?INTERRUPTIONS                             ----- -----  ----- -----  ----- -----  ----- -----

_FILTER_I1/UTILS                              ----- -----  ----- -----  ----- -----  ----- -----

_FILTER_I2/UTILS                              ----- -----  ----- -----  ----- -----  ----- -----

CALIBRATION/INTERRUPTIONS                     ----- -----  ----- -----  ----- -----  ----- -----
  +--> ISR_RS485_RX_DISABLE/ISR_RS485_RX
  +--> _MOTOR_ON_OFF_WRITE/MOTOR_ON_OFF
  +--> _MEMSTORE/COMMAND_PROCESSING
  +--> ISR_RS485_RX_ENABLE/ISR_RS485_RX

LX51 LINKER/LOCATER V4.64.0.0                                                         06/13/2017  14:44:14  PAGE 26


DRIVE_CUFF/COMMAND_PROCESSING                 ----- -----  ----- -----  ----- -----  0003H 001EH
  +--> _COMMWRITE/COMMAND_PROCESSING
  +--> MY_TIMER_READCOUNTER/MY_TIMER
  +--> INTERRUPT_MANAGER/INTERRUPTIONS

FF_STATUS_READ/FF_STATUS                      ----- -----  ----- -----  ----- -----  ----- -----

_WATCHDOG_REFRESH_WRITE/WATCHDOG_REFRESH      ----- -----  ----- -----  ----- -----  ----- -----

UART_RS485_READRXSTATUS/UART_RS485            ----- -----  ----- -----  ----- -----  ----- -----

?C_INITSEG                                    ----- -----  ----- -----  ----- -----  ----- -----

*** NEW ROOT ********************************

UART_RS485_RXISR/UART_RS485_INT               ----- -----  ----- -----  ----- -----  ----- -----

*** NEW ROOT ********************************

ADC_ISR1/ADC_INT                              ----- -----  ----- -----  ----- -----  ----- -----

*** NEW ROOT ********************************

ADC_ISR2/ADC_INT                              ----- -----  ----- -----  ----- -----  ----- -----

*** NEW ROOT ********************************

ADC_ISR3/ADC_INT                              ----- -----  ----- -----  ----- -----  ----- -----

*** NEW ROOT ********************************

ADC_ISR4/ADC_INT                              ----- -----  ----- -----  ----- -----  ----- -----



PUBLIC SYMBOLS OF MODULE:  .\DP8051_Keil_951\Release\cuff_mod_firmware.omf (COMMAND_PROCESSING)


      VALUE       CLASS    TYPE      PUBLIC SYMBOL NAME
      =================================================
*DEL*:00000000H   XDATA    BYTE      ?_Bootloadable_SetFlashByte?BYTE
      0200090BH   XDATA    BYTE      ?_commWrite?BYTE
      0200001FH   XDATA    BYTE      ?_commWrite_old_id?BYTE
      02000000H   XDATA    BYTE      ?_cyconfigcpy?BYTE
      02000009H   XDATA    BYTE      ?_CyDmaChSetConfiguration?BYTE
*DEL*:00000000H   XDATA    BYTE      ?_CyDmaChStatus?BYTE
*DEL*:00000000H   XDATA    BYTE      ?_CyDmaTdGetAddress?BYTE
*DEL*:00000000H   XDATA    BYTE      ?_CyDmaTdGetConfiguration?BYTE
      02000003H   XDATA    BYTE      ?_CyDmaTdSetConfiguration?BYTE
*DEL*:00000000H   XDATA    BYTE      ?_CySpcLoadMultiByte?BYTE
      0200002BH   XDATA    BYTE      ?_CySpcLoadRow?BYTE
*DEL*:00000000H   XDATA    BYTE      ?_CySpcLoadRowFull?BYTE
      0200002BH   XDATA    BYTE      ?_CySpcWriteRow?BYTE
*DEL*:00000000H   XDATA    BYTE      ?_CyWriteRowFull?BYTE
      02000003H   XDATA    BYTE      ?_DMA_DmaInitialize?BYTE
      0200090BH   XDATA    ---       ?_PRINTF?BYTE
      0200090BH   XDATA    ---       ?_SPRINTF?BYTE
      0200090BH   XDATA    ---       ?_strcat?BYTE
      01006E4BH   CODE     ---       ?C?ADDXBP
      01006872H   CODE     ---       ?C?CASTF
      01006E25H   CODE     ---       ?C?CCASE
      01006BB6H   CODE     ---       ?C?CLDOPTR
      01006B9DH   CODE     ---       ?C?CLDPTR
      00000000H   NUMBER   ---       ?C?CODESEG
      01006F58H   CODE     ---       ?C?COPYAMD
LX51 LINKER/LOCATER V4.64.0.0                                                         06/13/2017  14:44:14  PAGE 27


      01006BE3H   CODE     ---       ?C?CSTPTR
      0100683EH   CODE     ---       ?C?FCASTC
      01006839H   CODE     ---       ?C?FCASTI
      01006834H   CODE     ---       ?C?FCASTL
      01006A3CH   CODE     ---       ?C?FPADD
      010067BDH   CODE     ---       ?C?FPCMP
      010067BBH   CODE     ---       ?C?FPCMP3
      01006930H   CODE     ---       ?C?FPCONVERT
      0100671EH   CODE     ---       ?C?FPDIV
      010068A9H   CODE     ---       ?C?FPGETOPN2
      01006615H   CODE     ---       ?C?FPMUL
      010068DEH   CODE     ---       ?C?FPNANRESULT
      010068E8H   CODE     ---       ?C?FPOVERFLOW
      010068C0H   CODE     ---       ?C?FPRESULT
      010068D4H   CODE     ---       ?C?FPRESULT2
      010068F3H   CODE     ---       ?C?FPROUND
      01006A38H   CODE     ---       ?C?FPSUB
      010068E5H   CODE     ---       ?C?FPUNDERFLOW
      01006B5DH   CODE     ---       ?C?FTNPWR
      01007053H   CODE     ---       ?C?IILDX
      01007069H   CODE     ---       ?C?ILDIX
      01006BF5H   CODE     ---       ?C?IMUL
      01006C07H   CODE     ---       ?C?ISTPTR
      01006E6FH   CODE     ---       ?C?LIMUL
      010070A3H   CODE     ---       ?C?LLDCODE
      0100707FH   CODE     ---       ?C?LLDIDATA
      01007097H   CODE     ---       ?C?LLDPDATA
      01006DBFH   CODE     ---       ?C?LLDPTR
      0100708BH   CODE     ---       ?C?LLDXDATA
      01006C26H   CODE     ---       ?C?LMUL
      01006D50H   CODE     ---       ?C?LNEG
      01006D43H   CODE     ---       ?C?LNOT
      01006DACH   CODE     ---       ?C?LSHL
      010070B3H   CODE     ---       ?C?LSTIDATA
      010070BFH   CODE     ---       ?C?LSTPDATA
      01006DDFH   CODE     ---       ?C?LSTPTR
      01006DF9H   CODE     ---       ?C?LSTXDATA
      01006E05H   CODE     ---       ?C?PLDIXDATA
      01006E1CH   CODE     ---       ?C?PSTXDATA
      01006D5EH   CODE     ---       ?C?SLCMP
      0100A611H   CODE     ---       ?C?SLDIV
      01006D98H   CODE     ---       ?C?SLSHR
      01007036H   CODE     ---       ?C?STRCPYAMD
      01006D74H   CODE     ---       ?C?ULCMP
      01006CB1H   CODE     ---       ?C?ULDIV
      01006D85H   CODE     ---       ?C?ULSHR
      00000000H   NUMBER   ---       ?C?XDATASEG
      00000000H   NUMBER   ---       ?C?XPAGE1RST
      00000093H   DATA     BYTE      ?C?XPAGE1SFR
      01009120H   CODE     ---       ?C_START
      01002600H   CODE     NEAR LAB  ?C_STARTUP
      0000000EH   DATA     ---       ?C_XBP
      01009BEBH   CODE     ---       _?CyDelay
*DEL*:00000000H   CODE     ---       _?CyDelayFreq
*DEL*:00000000H   CODE     ---       _?CyHalt
      0100B01EH   CODE     ---       _ABS
*DEL*:00000000H   CODE     ---       _ADC_AMux_FastSelect
      0100AD11H   CODE     ---       _ADC_AMux_Select
      0100AA0DH   CODE     ---       _ADC_AMux_Set
      0100A9ABH   CODE     ---       _ADC_AMux_Unset
*DEL*:00000000H   CODE     ---       _ADC_CountsTo_mVolts
*DEL*:00000000H   CODE     ---       _ADC_CountsTo_uVolts
*DEL*:00000000H   CODE     ---       _ADC_CountsTo_Volts
*DEL*:00000000H   CODE     ---       _ADC_Ext_CP_Clk_ClearModeRegister
      01008A6AH   CODE     ---       _ADC_Ext_CP_Clk_SetDividerRegister
LX51 LINKER/LOCATER V4.64.0.0                                                         06/13/2017  14:44:14  PAGE 28


      0100AFE0H   CODE     ---       _ADC_Ext_CP_Clk_SetModeRegister
*DEL*:00000000H   CODE     ---       _ADC_Ext_CP_Clk_SetSourceRegister
*DEL*:00000000H   CODE     ---       _ADC_Ext_CP_Clk_StandbyPower
*DEL*:00000000H   CODE     ---       _ADC_IsEndConversion
*DEL*:00000000H   CODE     ---       _ADC_SelectConfiguration
*DEL*:00000000H   CODE     ---       _ADC_SetBufferGain
*DEL*:00000000H   CODE     ---       _ADC_SetCoherency
*DEL*:00000000H   CODE     ---       _ADC_SetGain
*DEL*:00000000H   CODE     ---       _ADC_SetGCOR
*DEL*:00000000H   CODE     ---       _ADC_SetOffset
      0100B1B8H   CODE     ---       _ADC_SOC_Write
*DEL*:00000000H   CODE     ---       _ADC_STATUS_WriteMask
*DEL*:00000000H   CODE     ---       _ADC_theACLK_ClearModeRegister
      01008CCBH   CODE     ---       _ADC_theACLK_SetDividerRegister
      0100AFEDH   CODE     ---       _ADC_theACLK_SetModeRegister
*DEL*:00000000H   CODE     ---       _ADC_theACLK_SetPhaseRegister
*DEL*:00000000H   CODE     ---       _ADC_theACLK_SetSourceRegister
*DEL*:00000000H   CODE     ---       _ADC_theACLK_StandbyPower
*DEL*:00000000H   CODE     ---       _Bootloadable_SetFlashByte
*DEL*:00000000H   CODE     NEAR LAB  _cfg_write_bytes
*DEL*:00000000H   CODE     NEAR LAB  _cfg_write_bytes_code
      0100A0B4H   CODE     ---       _check_enc_data
*DEL*:00000000H   CODE     ---       _CLOCK_UART_ClearModeRegister
      01008B9BH   CODE     ---       _CLOCK_UART_SetDividerRegister
*DEL*:00000000H   CODE     ---       _CLOCK_UART_SetModeRegister
*DEL*:00000000H   CODE     ---       _CLOCK_UART_SetSourceRegister
*DEL*:00000000H   CODE     ---       _CLOCK_UART_StandbyPower
      01009903H   CODE     ---       _commWrite
      01009AD6H   CODE     ---       _commWrite_old_id
      0100B146H   CODE     ---       _COUNTER_ENC_SetInterruptMode
      0100B164H   CODE     ---       _COUNTER_ENC_WriteCompare
*DEL*:00000000H   CODE     ---       _COUNTER_ENC_WriteControlRegister
      0100B152H   CODE     ---       _COUNTER_ENC_WriteCounter
      0100B15EH   CODE     ---       _COUNTER_ENC_WritePeriod
*DEL*:00000000H   CODE     ---       _CyBusClk_SetDivider
      0100A912H   CODE     NEAR LAB  _cyconfigcpy
      0100AB69H   CODE     NEAR LAB  _cyconfigcpycode
*DEL*:00000000H   CODE     ---       _CyCpuClk_SetDivider
*DEL*:00000000H   CODE     NEAR LAB  _CyDelay
      0100A800H   CODE     NEAR LAB  _CyDelayCycles
      0100AA9CH   CODE     NEAR LAB  _CyDelayUs
*DEL*:00000000H   CODE     ---       _CyDmacClearError
*DEL*:00000000H   CODE     ---       _CyDmaChDisable
      0100A4EFH   CODE     ---       _CyDmaChEnable
*DEL*:00000000H   CODE     ---       _CyDmaChFree
*DEL*:00000000H   CODE     ---       _CyDmaChGetRequest
      0100A6D9H   CODE     ---       _CyDmaChPriority
*DEL*:00000000H   CODE     ---       _CyDmaChRoundRobin
      01009D7DH   CODE     ---       _CyDmaChSetConfiguration
      01009DF6H   CODE     ---       _CyDmaChSetExtendedAddress
      0100AC71H   CODE     ---       _CyDmaChSetInitialTd
*DEL*:00000000H   CODE     ---       _CyDmaChSetRequest
*DEL*:00000000H   CODE     ---       _CyDmaChStatus
*DEL*:00000000H   CODE     ---       _CyDmaClearPendingDrq
*DEL*:00000000H   CODE     ---       _CyDmaTdFree
*DEL*:00000000H   CODE     ---       _CyDmaTdGetAddress
*DEL*:00000000H   CODE     ---       _CyDmaTdGetConfiguration
      01009E6EH   CODE     ---       _CyDmaTdSetAddress
      01009C73H   CODE     ---       _CyDmaTdSetConfiguration
*DEL*:00000000H   CODE     ---       _CyEnableInts
      0100AD42H   CODE     NEAR LAB  _CyExitCriticalSection
*DEL*:00000000H   CODE     ---       _CyFlash_SetWaitCycles
*DEL*:00000000H   CODE     ---       _CyGetUniqueId
*DEL*:00000000H   CODE     ---       _CyILO_SetPowerMode
*DEL*:00000000H   CODE     ---       _CyILO_SetSource
LX51 LINKER/LOCATER V4.64.0.0                                                         06/13/2017  14:44:14  PAGE 29


*DEL*:00000000H   CODE     ---       _CyIMO_SetFreq
*DEL*:00000000H   CODE     ---       _CyIMO_SetSource
*DEL*:00000000H   CODE     ---       _CyIMO_Start
*DEL*:00000000H   CODE     ---       _CyIntGetPriority
*DEL*:00000000H   CODE     ---       _CyIntGetState
*DEL*:00000000H   CODE     ---       _CyIntGetVector
      0100ACF8H   CODE     ---       _CyIntSetPriority
      0100A35BH   CODE     ---       _CyIntSetVector
*DEL*:00000000H   CODE     ---       _CyMasterClk_SetDivider
*DEL*:00000000H   CODE     ---       _CyMasterClk_SetSource
*DEL*:00000000H   CODE     NEAR LAB  _cymemzero
*DEL*:00000000H   CODE     ---       _CyPLL_OUT_SetPQ
*DEL*:00000000H   CODE     ---       _CyPLL_OUT_SetSource
*DEL*:00000000H   CODE     ---       _CyPLL_OUT_Start
*DEL*:00000000H   CODE     ---       _CyPmAltAct
*DEL*:00000000H   CODE     ---       _CyPmCtwSetInterval
*DEL*:00000000H   CODE     ---       _CyPmFtwSetInterval
*DEL*:00000000H   CODE     ---       _CyPmHibernateEx
*DEL*:00000000H   CODE     ---       _CyPmReadStatus
*DEL*:00000000H   CODE     ---       _CyPmSleep
      0100AF2BH   CODE     NEAR LAB  _cyread16
      0100AF2DH   CODE     NEAR LAB  _cyread16_nodpx
      0100AEB2H   CODE     NEAR LAB  _cyread24
      0100AEB4H   CODE     NEAR LAB  _cyread24_nodpx
*DEL*:00000000H   CODE     NEAR LAB  _cyread32
*DEL*:00000002H   CODE     NEAR LAB  _cyread32_nodpx
      0100AFFAH   CODE     NEAR LAB  _cyread8
      0100AFFCH   CODE     NEAR LAB  _cyread8_nodpx
*DEL*:00000000H   CODE     ---       _CySetFlashEEBuffer
*DEL*:00000000H   CODE     ---       _CySpcEraseSector
      0100AA6CH   CODE     ---       _CySpcGetTemp
*DEL*:00000000H   CODE     ---       _CySpcLoadMultiByte
      01009FD0H   CODE     ---       _CySpcLoadRow
*DEL*:00000000H   CODE     ---       _CySpcLoadRowFull
      0100A1F0H   CODE     ---       _CySpcReadData
      0100A3AFH   CODE     ---       _CySpcWriteRow
*DEL*:00000000H   CODE     ---       _CyUsbClk_SetSource
*DEL*:00000000H   CODE     ---       _CyVdLvAnalogEnable
*DEL*:00000000H   CODE     ---       _CyVdLvDigitEnable
*DEL*:00000000H   CODE     ---       _CyVdStickyStatus
*DEL*:00000000H   CODE     ---       _CyWdtStart
      0100AF3AH   CODE     NEAR LAB  _cywrite16
      0100AF3CH   CODE     NEAR LAB  _cywrite16_nodpx
      0100AED7H   CODE     NEAR LAB  _cywrite24
      0100AED9H   CODE     NEAR LAB  _cywrite24_nodpx
*DEL*:00000000H   CODE     NEAR LAB  _cywrite32
*DEL*:00000002H   CODE     NEAR LAB  _cywrite32_nodpx
      0100B006H   CODE     NEAR LAB  _cywrite8
      0100B008H   CODE     NEAR LAB  _cywrite8_nodpx
*DEL*:00000000H   CODE     ---       _CyWriteRowData
*DEL*:00000000H   CODE     ---       _CyWriteRowFull
*DEL*:00000000H   CODE     ---       _CyXTAL_32KHZ_SetPowerMode
*DEL*:00000000H   CODE     ---       _CyXTAL_SetFbVoltage
*DEL*:00000000H   CODE     ---       _CyXTAL_SetStartup
*DEL*:00000000H   CODE     ---       _CyXTAL_SetWdVoltage
*DEL*:00000000H   CODE     ---       _CyXTAL_Start
      0100A53AH   CODE     ---       _DMA_DmaInitialize
      01002604H   CODE     NEAR LAB  _dma_wait
*DEL*:00000000H   CODE     ---       _EEPROM_ByteWritePos
*DEL*:00000000H   CODE     ---       _EEPROM_EraseSector
*DEL*:00000000H   CODE     ---       _EEPROM_ReadByte
*DEL*:00000000H   CODE     ---       _EEPROM_StartErase
*DEL*:00000000H   CODE     ---       _EEPROM_StartWrite
      01009562H   CODE     ---       _EEPROM_Write
*DEL*:00000000H   CODE     ---       _EEPROM_WriteByte
LX51 LINKER/LOCATER V4.64.0.0                                                         06/13/2017  14:44:14  PAGE 30


      0100787EH   CODE     ---       _encoder_reading
*DEL*:00000000H   CODE     ---       _FF_STATUS_WriteMask
      01009EE6H   CODE     ---       _filter_i1
      01009F5BH   CODE     ---       _filter_i2
*DEL*:00000000H   CODE     ---       _filter_vel_1
*DEL*:00000000H   CODE     ---       _filter_vel_2
*DEL*:00000000H   CODE     ---       _filter_vel_3
      0100B194H   CODE     ---       _FTDI_ENABLE_REG_Write
      0100261AH   CODE     ---       _get_param_list
      0100ACC6H   CODE     ---       _infoGet
      01003A2DH   CODE     ---       _infoPrepare
      0100B04BH   CODE     ---       _ISR_RS485_RX_SetPriority
      0100AF49H   CODE     ---       _ISR_RS485_RX_SetVector
      0100AC14H   CODE     ---       _ISR_RS485_RX_StartEx
      0100B0AFH   CODE     ---       _ISR_WATCHDOG_SetPriority
      0100AF9DH   CODE     ---       _ISR_WATCHDOG_SetVector
      0100AC33H   CODE     ---       _ISR_WATCHDOG_StartEx
      0100A979H   CODE     ---       _LCRChecksum
      01009641H   CODE     ---       _memStore
      01004BEAH   CODE     ---       _motor_control
      0100B1ACH   CODE     ---       _MOTOR_DIR_Write
      0100B182H   CODE     ---       _MOTOR_ON_OFF_Write
      0100B188H   CODE     ---       _MY_TIMER_SetInterruptMode
*DEL*:00000000H   CODE     ---       _MY_TIMER_WriteControlRegister
      0100B0A5H   CODE     ---       _MY_TIMER_WriteCounter
      0100B091H   CODE     ---       _MY_TIMER_WritePeriod
      0100B19AH   CODE     ---       _PACER_TIMER_SetInterruptMode
*DEL*:00000000H   CODE     ---       _PACER_TIMER_WriteControlRegister
      0100AF8FH   CODE     ---       _PACER_TIMER_WriteCounter
      0100AF81H   CODE     ---       _PACER_TIMER_WritePeriod
      01007136H   CODE     ---       _PRINTF
      0100AB1CH   CODE     ---       _PUTCHAR
      0100B13AH   CODE     ---       _PWM_MOTORS_WriteCompare1
      0100B140H   CODE     ---       _PWM_MOTORS_WriteCompare2
*DEL*:00000000H   CODE     ---       _PWM_MOTORS_WriteControlRegister
      0100B12EH   CODE     ---       _PWM_MOTORS_WriteCounter
      0100B134H   CODE     ---       _PWM_MOTORS_WritePeriod
      0100B1A6H   CODE     ---       _RESET_FF_Write
      0100B17CH   CODE     ---       _RS485_CTS_Write
      0100AD72H   CODE     ---       _sendAcknowledgment
*DEL*:00000000H   CODE     ---       _SetAnalogRoutingPumps
*DEL*:00000000H   CODE     ---       _SHIFTREG_ENC_1_GetFIFOStatus
      0100AEE9H   CODE     ---       _SHIFTREG_ENC_1_SetIntMode
*DEL*:00000000H   CODE     ---       _SHIFTREG_ENC_1_WriteRegValue
*DEL*:00000000H   CODE     ---       _SHIFTREG_ENC_2_GetFIFOStatus
      0100AEFAH   CODE     ---       _SHIFTREG_ENC_2_SetIntMode
*DEL*:00000000H   CODE     ---       _SHIFTREG_ENC_2_WriteRegValue
*DEL*:00000000H   CODE     ---       _SHIFTREG_ENC_3_GetFIFOStatus
      0100AF0BH   CODE     ---       _SHIFTREG_ENC_3_SetIntMode
*DEL*:00000000H   CODE     ---       _SHIFTREG_ENC_3_WriteRegValue
*DEL*:00000000H   CODE     ---       _SHIFTREG_ENC_4_GetFIFOStatus
*DEL*:00000000H   CODE     ---       _SHIFTREG_ENC_4_SetIntMode
*DEL*:00000000H   CODE     ---       _SHIFTREG_ENC_4_WriteRegValue
      01007130H   CODE     ---       _SPRINTF
      0100A11FH   CODE     ---       _strcat
      0100ADDEH   CODE     ---       _STRLEN
*DEL*:00000000H   CODE     ---       _UART_RS485_PutArray
      0100AFB9H   CODE     ---       _UART_RS485_PutChar
*DEL*:00000000H   CODE     ---       _UART_RS485_PutCRLF
      0100A8DEH   CODE     ---       _UART_RS485_PutString
*DEL*:00000000H   CODE     ---       _UART_RS485_SendBreak
*DEL*:00000000H   CODE     ---       _UART_RS485_SetRxAddress1
*DEL*:00000000H   CODE     ---       _UART_RS485_SetRxAddress2
*DEL*:00000000H   CODE     ---       _UART_RS485_SetRxAddressMode
*DEL*:00000000H   CODE     ---       _UART_RS485_SetRxInterruptMode
LX51 LINKER/LOCATER V4.64.0.0                                                         06/13/2017  14:44:14  PAGE 31


*DEL*:00000000H   CODE     ---       _UART_RS485_SetTxAddressMode
*DEL*:00000000H   CODE     ---       _UART_RS485_SetTxInterruptMode
*DEL*:00000000H   CODE     ---       _UART_RS485_WriteControlRegister
*DEL*:00000000H   CODE     ---       _UART_RS485_WriteTxData
      0100B1BEH   CODE     ---       _WATCHDOG_COUNTER_SetInterruptMode
*DEL*:00000000H   CODE     ---       _WATCHDOG_COUNTER_WriteControlRegister
      0100AC8FH   CODE     ---       _WATCHDOG_COUNTER_WriteCounter
      0100AFABH   CODE     ---       _WATCHDOG_COUNTER_WritePeriod
      0100B1C4H   CODE     ---       _WATCHDOG_ENABLER_Write
      0100B1CAH   CODE     ---       _WATCHDOG_REFRESH_Write
*SFR* 000000D0H.6 DATA     BIT       AC
*SFR* 000000E0H   DATA     BYTE      ACC
      0100BD0EH   CONST    ---       ADC_AMux__addrTable
      0100BD12H   CONST    ---       ADC_AMux__maskTable
      0100ABD3H   CODE     ---       ADC_AMux_Start
      02000AFBH   XDATA    ---       ADC_buf
      02000C6BH   XDATA    BYTE      ADC_Config
      02000C76H   XDATA    BYTE      ADC_convDone
      02000C77H   XDATA    LONG      ADC_CountsPerVolt
      01009B63H   CODE     ---       ADC_Enable
      0100B0B9H   CODE     ---       ADC_Ext_CP_Clk_GetDividerRegister
*DEL*:00000000H   CODE     ---       ADC_Ext_CP_Clk_GetModeRegister
      0100B0F5H   CODE     ---       ADC_Ext_CP_Clk_GetSourceRegister
*DEL*:00000000H   CODE     ---       ADC_Ext_CP_Clk_Start
*DEL*:00000000H   CODE     ---       ADC_Ext_CP_Clk_Stop
*DEL*:00000000H   CODE     ---       ADC_Ext_CP_Clk_StopBlock
*DEL*:00000000H   CODE     ---       ADC_GetResult16
*DEL*:00000000H   CODE     ---       ADC_GetResult32
*DEL*:00000000H   CODE     ---       ADC_GetResult8
      010096F3H   CODE     ---       ADC_Init
      02000C6CH   XDATA    BYTE      ADC_initVar
      0100B1E1H   CODE     ---       ADC_ISR1
      0100B1E2H   CODE     ---       ADC_ISR2
      0100B1E3H   CODE     ---       ADC_ISR3
      0100B1E4H   CODE     ---       ADC_ISR4
      02000C6DH   XDATA    LONG      ADC_Offset
*DEL*:00000000H   CODE     ---       ADC_Read16
*DEL*:00000000H   CODE     ---       ADC_Read32
*DEL*:00000000H   CODE     ---       ADC_Read8
*DEL*:00000000H   CODE     ---       ADC_ReadGCOR
*DEL*:00000000H   CODE     ---       ADC_SOC_Read
      0100ACDFH   CODE     ---       ADC_Start
*DEL*:00000000H   CODE     ---       ADC_StartConvert
      02000C72H   XDATA    BYTE      ADC_started
*DEL*:00000000H   CODE     ---       ADC_STATUS_InterruptDisable
*DEL*:00000000H   CODE     ---       ADC_STATUS_InterruptEnable
      0100B1B2H   CODE     ---       ADC_STATUS_Read
*DEL*:00000000H   CODE     ---       ADC_STATUS_ReadMask
*DEL*:00000000H   CODE     ---       ADC_Stop
      02000C71H   XDATA    BYTE      ADC_stopConversion
*DEL*:00000000H   CODE     ---       ADC_StopConvert
      0100B0C3H   CODE     ---       ADC_theACLK_GetDividerRegister
*DEL*:00000000H   CODE     ---       ADC_theACLK_GetModeRegister
*DEL*:00000000H   CODE     ---       ADC_theACLK_GetPhaseRegister
      0100B0FDH   CODE     ---       ADC_theACLK_GetSourceRegister
*DEL*:00000000H   CODE     ---       ADC_theACLK_Start
*DEL*:00000000H   CODE     ---       ADC_theACLK_Stop
*DEL*:00000000H   CODE     ---       ADC_theACLK_StopBlock
      0100927CH   CODE     ---       analog_read_end
*SFR* 000000F0H   DATA     BYTE      B
      0100B087H   CODE     ---       Bootloadable_Load
      0200093BH   XDATA    ---       c_mem
      01007FEFH   CODE     ---       calibration
      02000A38H   XDATA    BYTE      calibration_flag
      0100B055H   CODE     ---       CLOCK_UART_GetDividerRegister
LX51 LINKER/LOCATER V4.64.0.0                                                         06/13/2017  14:44:14  PAGE 32


*DEL*:00000000H   CODE     ---       CLOCK_UART_GetModeRegister
      0100B0D5H   CODE     ---       CLOCK_UART_GetSourceRegister
*DEL*:00000000H   CODE     ---       CLOCK_UART_Start
*DEL*:00000000H   CODE     ---       CLOCK_UART_Stop
*DEL*:00000000H   CODE     ---       CLOCK_UART_StopBlock
      0100A655H   CODE     ---       cmd_activate
      0100A7D0H   CODE     ---       cmd_get_activate
      01009A45H   CODE     ---       cmd_get_curr_and_meas
      0100A5CBH   CODE     ---       cmd_get_currents
      0100A18AH   CODE     ---       cmd_get_inputs
      0100A043H   CODE     ---       cmd_get_measurements
      0100A2ABH   CODE     ---       cmd_get_velocities
      0100AD2AH   CODE     ---       cmd_ping
      0100ABF4H   CODE     ---       cmd_set_baudrate
      010087F0H   CODE     ---       cmd_set_inputs
      01008685H   CODE     ---       cmd_set_pos_stiff
      0100A698H   CODE     ---       cmd_set_watchdog
      0100754EH   CODE     ---       cmd_store_params
      01008932H   CODE     ---       commProcess
      0100AFC6H   CODE     ---       COUNTER_ENC_ClearFIFO
      0100B0DDH   CODE     ---       COUNTER_ENC_Enable
      0100A8A9H   CODE     ---       COUNTER_ENC_Init
      02000C9CH   XDATA    BYTE      COUNTER_ENC_initVar
      0100B158H   CODE     ---       COUNTER_ENC_ReadCapture
*DEL*:00000000H   CODE     ---       COUNTER_ENC_ReadCompare
*DEL*:00000000H   CODE     ---       COUNTER_ENC_ReadControlRegister
*DEL*:00000000H   CODE     ---       COUNTER_ENC_ReadCounter
*DEL*:00000000H   CODE     ---       COUNTER_ENC_ReadPeriod
      0100B14CH   CODE     ---       COUNTER_ENC_ReadStatusRegister
      0100AE2DH   CODE     ---       COUNTER_ENC_Start
*DEL*:00000000H   CODE     ---       COUNTER_ENC_Stop
      00000021H.2 BIT      BIT       cuff_flag
*SFR* 000000D0H.7 DATA     BIT       CY
      02000C86H   XDATA    DWORD     cydelay_32k_ms
      02000C81H   XDATA    DWORD     cydelay_freq_hz
      02000C7CH   XDATA    DWORD     cydelay_freq_khz
      02000C80H   XDATA    BYTE      cydelay_freq_mhz
*DEL*:00000000H   CODE     ---       CyDisableInts
      0100A873H   CODE     ---       CyDmacConfigure
*DEL*:00000000H   CODE     ---       CyDmacError
*DEL*:00000000H   CODE     ---       CyDmacErrorAddress
*DEL*:00000000H   CODE     ---       CyDmaChAlloc
      0100A719H   CODE     ---       CyDmaTdAllocate
*DEL*:00000000H   CODE     ---       CyDmaTdFreeCount
*DEL*:00000000H   CODE     ---       CyEEPROM_ReadRelease
*DEL*:00000000H   CODE     ---       CyEEPROM_ReadReserve
      0100A9DCH   CODE     ---       CyEEPROM_Start
*DEL*:00000000H   CODE     ---       CyEEPROM_Stop
      0100ADB4H   CODE     NEAR LAB  CyEnterCriticalSection
      01009165H   CODE     ---       cyfitter_cfg
*DEL*:00000000H   CODE     ---       CyFlash_Start
*DEL*:00000000H   CODE     ---       CyFlash_Stop
*DEL*:00000000H   CODE     ---       CyILO_Disable33K
*DEL*:00000000H   CODE     ---       CyILO_Enable33K
*DEL*:00000000H   CODE     ---       CyILO_Start100K
*DEL*:00000000H   CODE     ---       CyILO_Start1K
*DEL*:00000000H   CODE     ---       CyILO_Stop100K
*DEL*:00000000H   CODE     ---       CyILO_Stop1K
*DEL*:00000000H   CODE     ---       CyIMO_DisableDoubler
*DEL*:00000000H   CODE     ---       CyIMO_EnableDoubler
*DEL*:00000000H   CODE     ---       CyIMO_Stop
*DEL*:00000000H   CODE     ---       CyPLL_OUT_Stop
*DEL*:00000000H   CODE     ---       CyPmHibernate
*DEL*:00000000H   CODE     ---       CyPmOppsSet
*DEL*:00000000H   CODE     ---       CyPmRestoreClocks
LX51 LINKER/LOCATER V4.64.0.0                                                         06/13/2017  14:44:14  PAGE 33


*DEL*:00000000H   CODE     ---       CyPmSaveClocks
      02000C85H   XDATA    BYTE      CyResetStatus
      0100AD5AH   CODE     ---       CySetTemp
      0100B0EDH   CODE     ---       CySoftwareReset
      0100ACABH   CODE     ---       CySpcGetAlgorithm
      0100AC52H   CODE     ---       CySpcLock
      0100ADC9H   CODE     ---       CySpcStart
*DEL*:00000000H   CODE     ---       CySpcStop
      0100B012H   CODE     ---       CySpcUnlock
*DEL*:00000000H   CODE     ---       CyVdHvAnalogDisable
*DEL*:00000000H   CODE     ---       CyVdHvAnalogEnable
*DEL*:00000000H   CODE     ---       CyVdLvAnalogDisable
*DEL*:00000000H   CODE     ---       CyVdLvDigitDisable
*DEL*:00000000H   CODE     ---       CyVdRealTimeStatus
*DEL*:00000000H   CODE     ---       CyWdtClear
*DEL*:00000000H   CODE     ---       CyXTAL_32KHZ_ReadStatus
*DEL*:00000000H   CODE     ---       CyXTAL_32KHZ_Start
*DEL*:00000000H   CODE     ---       CyXTAL_32KHZ_Stop
*DEL*:00000000H   CODE     ---       CyXTAL_DisableErrStatus
*DEL*:00000000H   CODE     ---       CyXTAL_DisableFaultRecovery
*DEL*:00000000H   CODE     ---       CyXTAL_EnableErrStatus
*DEL*:00000000H   CODE     ---       CyXTAL_EnableFaultRecovery
*DEL*:00000000H   CODE     ---       CyXTAL_ReadStatus
*DEL*:00000000H   CODE     ---       CyXTAL_Stop
      02000B22H   XDATA    BYTE      dev_pwm_limit
      02000A5CH   XDATA    LONG      dev_tension
      02000C93H   XDATA    ---       dieTemperature
      02000CA3H   XDATA    BYTE      DMA_DmaHandle
*DEL*:00000000H   CODE     ---       DMA_DmaRelease
*SFR* 00000083H   DATA     BYTE      DPH
*SFR* 00000085H   DATA     BYTE      DPH1
*SFR* 00000082H   DATA     BYTE      DPL
*SFR* 00000084H   DATA     BYTE      DPL1
*SFR* 00000086H   DATA     BYTE      DPS
*SFR* 00000093H   DATA     BYTE      DPX
*SFR* 00000095H   DATA     BYTE      DPX1
      01007DD9H   CODE     ---       drive_cuff
*SFR* 000000A8H.7 DATA     BIT       EA
      02000C99H   XDATA    ---       EEPROM_ADDR
      0100B113H   CODE     ---       EEPROM_Enable
*DEL*:00000000H   CODE     ---       EEPROM_Query
      0100B1D0H   CODE     ---       EEPROM_Start
*DEL*:00000000H   CODE     ---       EEPROM_Stop
      0100B1D4H   CODE     ---       EEPROM_UpdateTemperature
*SFR* 000000D0H.5 DATA     BIT       F0
*SFR* 000000D0H.1 DATA     BIT       F1
*DEL*:00000000H   CODE     ---       FF_STATUS_InterruptDisable
*DEL*:00000000H   CODE     ---       FF_STATUS_InterruptEnable
      0100B1A0H   CODE     ---       FF_STATUS_Read
*DEL*:00000000H   CODE     ---       FF_STATUS_ReadMask
*DEL*:00000000H   CODE     ---       FTDI_ENABLE_REG_Read
      0100937EH   CODE     ---       function_scheduler
      02000B03H   XDATA    ---       g_meas
      02000A39H   XDATA    ---       g_measOld
      020009BEH   XDATA    ---       g_mem
      020009B5H   XDATA    ---       g_ref
      02000AEEH   XDATA    ---       g_refNew
      02000A60H   XDATA    ---       g_refOld
      02000A69H   XDATA    ---       g_rx
      0100BD59H   CONST    ---       hitech_pwm_preload_values
      0100BD7DH   CONST    ---       hitech_pwm_preload_values_6v
*SFR* 000000A8H   DATA     BYTE      IE
      00000021H.5 BIT      BIT       interrupt_flag
      01008DFAH   CODE     ---       interrupt_manager
*DEL*:00000000H   CODE     ---       ISR_RS485_RX_ClearPending
LX51 LINKER/LOCATER V4.64.0.0                                                         06/13/2017  14:44:14  PAGE 34


      0100B10CH   CODE     ---       ISR_RS485_RX_Disable
      0100B105H   CODE     ---       ISR_RS485_RX_Enable
      0100B1DBH   CODE     ---       ISR_RS485_RX_ExInterrupt
*DEL*:00000000H   CODE     ---       ISR_RS485_RX_GetPriority
*DEL*:00000000H   CODE     ---       ISR_RS485_RX_GetState
*DEL*:00000000H   CODE     ---       ISR_RS485_RX_GetVector
      0100AA9AH   CODE     ---       ISR_RS485_RX_Interrupt
*DEL*:00000000H   CODE     ---       ISR_RS485_RX_SetPending
*DEL*:00000000H   CODE     ---       ISR_RS485_RX_Start
*DEL*:00000000H   CODE     ---       ISR_RS485_RX_Stop
*DEL*:00000000H   CODE     ---       ISR_WATCHDOG_ClearPending
      0100B121H   CODE     ---       ISR_WATCHDOG_Disable
      0100B11AH   CODE     ---       ISR_WATCHDOG_Enable
*DEL*:00000000H   CODE     ---       ISR_WATCHDOG_GetPriority
*DEL*:00000000H   CODE     ---       ISR_WATCHDOG_GetState
*DEL*:00000000H   CODE     ---       ISR_WATCHDOG_GetVector
      0100B1D8H   CODE     ---       ISR_WATCHDOG_Handler
      0100AA9BH   CODE     ---       ISR_WATCHDOG_Interrupt
*DEL*:00000000H   CODE     ---       ISR_WATCHDOG_SetPending
*DEL*:00000000H   CODE     ---       ISR_WATCHDOG_Start
*DEL*:00000000H   CODE     ---       ISR_WATCHDOG_Stop
      01007B73H   CODE     ---       main
      010081BAH   CODE     ---       memInit
      0100A4A2H   CODE     ---       memRecall
      0100A584H   CODE     ---       memRestore
*DEL*:00000000H   CODE     ---       MOTOR_DIR_Read
*DEL*:00000000H   CODE     ---       MOTOR_ON_OFF_Read
*SFR* 000000EAH   DATA     BYTE      MXAX
      0100AFD3H   CODE     ---       MY_TIMER_ClearFIFO
      0100B0E5H   CODE     ---       MY_TIMER_Enable
      0100AAC9H   CODE     ---       MY_TIMER_Init
      02000CA1H   XDATA    BYTE      MY_TIMER_initVar
      0100B09BH   CODE     ---       MY_TIMER_ReadCapture
*DEL*:00000000H   CODE     ---       MY_TIMER_ReadControlRegister
      0100AF1CH   CODE     ---       MY_TIMER_ReadCounter
*DEL*:00000000H   CODE     ---       MY_TIMER_ReadPeriod
      0100B18EH   CODE     ---       MY_TIMER_ReadStatusRegister
*DEL*:00000000H   CODE     ---       MY_TIMER_SoftwareCapture
      0100AE79H   CODE     ---       MY_TIMER_Start
*DEL*:00000000H   CODE     ---       MY_TIMER_Stop
*SFR* 000000D0H.2 DATA     BIT       OV
*SFR* 000000D0H   DATA     BIT       P
*SFR* 000000A0H   DATA     BYTE      P2AX
      0100AD88H   CODE     ---       PACER_TIMER_Enable
      0100A794H   CODE     ---       PACER_TIMER_Init
      02000CA2H   XDATA    BYTE      PACER_TIMER_initVar
*DEL*:00000000H   CODE     ---       PACER_TIMER_ReadCapture
*DEL*:00000000H   CODE     ---       PACER_TIMER_ReadControlRegister
*DEL*:00000000H   CODE     ---       PACER_TIMER_ReadCounter
*DEL*:00000000H   CODE     ---       PACER_TIMER_ReadPeriod
*DEL*:00000000H   CODE     ---       PACER_TIMER_ReadStatusRegister
*DEL*:00000000H   CODE     ---       PACER_TIMER_SoftwareCapture
      0100AE8CH   CODE     ---       PACER_TIMER_Start
*DEL*:00000000H   CODE     ---       PACER_TIMER_Stop
*SFR* 000000D0H   DATA     BYTE      PSW
      01008F21H   CODE     ---       pwm_limit_search
      0100B0CDH   CODE     ---       PWM_MOTORS_Enable
      0100AB43H   CODE     ---       PWM_MOTORS_Init
      02000C9BH   XDATA    BYTE      PWM_MOTORS_initVar
*DEL*:00000000H   CODE     ---       PWM_MOTORS_ReadCapture
*DEL*:00000000H   CODE     ---       PWM_MOTORS_ReadCompare1
*DEL*:00000000H   CODE     ---       PWM_MOTORS_ReadCompare2
*DEL*:00000000H   CODE     ---       PWM_MOTORS_ReadControlRegister
*DEL*:00000000H   CODE     ---       PWM_MOTORS_ReadCounter
*DEL*:00000000H   CODE     ---       PWM_MOTORS_ReadPeriod
LX51 LINKER/LOCATER V4.64.0.0                                                         06/13/2017  14:44:14  PAGE 35


      0100AE1AH   CODE     ---       PWM_MOTORS_Start
*DEL*:00000000H   CODE     ---       PWM_MOTORS_Stop
      0100BD3CH   CONST    ---       pwm_preload_values
      02000B01H   XDATA    ---       pwm_sign
*DEL*:00000000H   CODE     ---       RESET_FF_Read
      00000021H.3 BIT      BIT       reset_last_value_flag
*SFR* 000000D0H.3 DATA     BIT       RS0
*SFR* 000000D0H.4 DATA     BIT       RS1
*DEL*:00000000H   CODE     ---       RS485_CTS_Read
      01009CFAH   CODE     ---       setZeros
*SFR* 00000080H   DATA     BYTE      SFRPRT0DR
*SFR* 00000089H   DATA     BYTE      SFRPRT0PS
*SFR* 0000008AH   DATA     BYTE      SFRPRT0SEL
*SFR* 000000E8H   DATA     BYTE      SFRPRT12DR
*SFR* 000000E9H   DATA     BYTE      SFRPRT12PS
*SFR* 000000F2H   DATA     BYTE      SFRPRT12SEL
*SFR* 000000F8H   DATA     BYTE      SFRPRT15DR
*SFR* 000000F9H   DATA     BYTE      SFRPRT15PS
*SFR* 000000FAH   DATA     BYTE      SFRPRT15SEL
*SFR* 00000090H   DATA     BYTE      SFRPRT1DR
*SFR* 00000091H   DATA     BYTE      SFRPRT1PS
*SFR* 000000A2H   DATA     BYTE      SFRPRT1SEL
*SFR* 00000098H   DATA     BYTE      SFRPRT2DR
*SFR* 00000099H   DATA     BYTE      SFRPRT2PS
*SFR* 0000009AH   DATA     BYTE      SFRPRT2SEL
*SFR* 000000B0H   DATA     BYTE      SFRPRT3DR
*SFR* 000000B1H   DATA     BYTE      SFRPRT3PS
*SFR* 000000B2H   DATA     BYTE      SFRPRT3SEL
*SFR* 000000C0H   DATA     BYTE      SFRPRT4DR
*SFR* 000000C1H   DATA     BYTE      SFRPRT4PS
*SFR* 000000C2H   DATA     BYTE      SFRPRT4SEL
*SFR* 000000C8H   DATA     BYTE      SFRPRT5DR
*SFR* 000000C9H   DATA     BYTE      SFRPRT5PS
*SFR* 000000CAH   DATA     BYTE      SFRPRT5SEL
*SFR* 000000D8H   DATA     BYTE      SFRPRT6DR
*SFR* 000000D9H   DATA     BYTE      SFRPRT6PS
*SFR* 000000DAH   DATA     BYTE      SFRPRT6SEL
*DEL*:00000000H   CODE     ---       SHIFTREG_ENC_1_DisableInt
      0100B02AH   CODE     ---       SHIFTREG_ENC_1_Enable
      0100AF57H   CODE     ---       SHIFTREG_ENC_1_EnableInt
*DEL*:00000000H   CODE     ---       SHIFTREG_ENC_1_GetIntStatus
      0100B16AH   CODE     ---       SHIFTREG_ENC_1_Init
      02000C9DH   XDATA    BYTE      SHIFTREG_ENC_1_initVar
      0100B05FH   CODE     ---       SHIFTREG_ENC_1_ReadData
*DEL*:00000000H   CODE     ---       SHIFTREG_ENC_1_ReadRegValue
      0100AE40H   CODE     ---       SHIFTREG_ENC_1_Start
*DEL*:00000000H   CODE     ---       SHIFTREG_ENC_1_Stop
*DEL*:00000000H   CODE     ---       SHIFTREG_ENC_2_DisableInt
      0100B035H   CODE     ---       SHIFTREG_ENC_2_Enable
      0100AF65H   CODE     ---       SHIFTREG_ENC_2_EnableInt
*DEL*:00000000H   CODE     ---       SHIFTREG_ENC_2_GetIntStatus
      0100B170H   CODE     ---       SHIFTREG_ENC_2_Init
      02000C9EH   XDATA    BYTE      SHIFTREG_ENC_2_initVar
      0100B069H   CODE     ---       SHIFTREG_ENC_2_ReadData
*DEL*:00000000H   CODE     ---       SHIFTREG_ENC_2_ReadRegValue
      0100AE53H   CODE     ---       SHIFTREG_ENC_2_Start
*DEL*:00000000H   CODE     ---       SHIFTREG_ENC_2_Stop
*DEL*:00000000H   CODE     ---       SHIFTREG_ENC_3_DisableInt
      0100B040H   CODE     ---       SHIFTREG_ENC_3_Enable
      0100AF73H   CODE     ---       SHIFTREG_ENC_3_EnableInt
*DEL*:00000000H   CODE     ---       SHIFTREG_ENC_3_GetIntStatus
      0100B176H   CODE     ---       SHIFTREG_ENC_3_Init
      02000C9FH   XDATA    BYTE      SHIFTREG_ENC_3_initVar
      0100B073H   CODE     ---       SHIFTREG_ENC_3_ReadData
*DEL*:00000000H   CODE     ---       SHIFTREG_ENC_3_ReadRegValue
LX51 LINKER/LOCATER V4.64.0.0                                                         06/13/2017  14:44:14  PAGE 36


      0100AE66H   CODE     ---       SHIFTREG_ENC_3_Start
*DEL*:00000000H   CODE     ---       SHIFTREG_ENC_3_Stop
*DEL*:00000000H   CODE     ---       SHIFTREG_ENC_4_DisableInt
*DEL*:00000000H   CODE     ---       SHIFTREG_ENC_4_Enable
*DEL*:00000000H   CODE     ---       SHIFTREG_ENC_4_EnableInt
*DEL*:00000000H   CODE     ---       SHIFTREG_ENC_4_GetIntStatus
*DEL*:00000000H   CODE     ---       SHIFTREG_ENC_4_Init
      02000CA0H   XDATA    BYTE      SHIFTREG_ENC_4_initVar
      0100B07DH   CODE     ---       SHIFTREG_ENC_4_ReadData
*DEL*:00000000H   CODE     ---       SHIFTREG_ENC_4_ReadRegValue
*DEL*:00000000H   CODE     ---       SHIFTREG_ENC_4_Start
*DEL*:00000000H   CODE     ---       SHIFTREG_ENC_4_Stop
*SFR* 00000081H   DATA     BYTE      SP
      02000CA6H   XDATA    BYTE      SpcLockState
      01009048H   CODE     NEAR LAB  STARTUP1
      00000021H.6 BIT      BIT       tension_valid
      02000A58H   XDATA    DWORD     timer_value
      02000AF7H   XDATA    DWORD     timer_value0
      0100AA3DH   CODE     ---       UART_RS485_ClearRxBuffer
      0100AEC5H   CODE     ---       UART_RS485_ClearTxBuffer
      0100AB8FH   CODE     ---       UART_RS485_Enable
      02000C6AH   XDATA    BYTE      UART_RS485_errorStatus
*DEL*:00000000H   CODE     ---       UART_RS485_GetByte
      0100A250H   CODE     ---       UART_RS485_GetChar
      0100A453H   CODE     ---       UART_RS485_GetRxBufferSize
*DEL*:00000000H   CODE     ---       UART_RS485_GetTxBufferSize
      0100A946H   CODE     ---       UART_RS485_Init
      02000C68H   XDATA    BYTE      UART_RS485_initVar
*DEL*:00000000H   CODE     ---       UART_RS485_ReadControlRegister
*DEL*:00000000H   CODE     ---       UART_RS485_ReadRxData
      0100ADF3H   CODE     ---       UART_RS485_ReadRxStatus
      0100B128H   CODE     ---       UART_RS485_ReadTxStatus
      02000C47H   XDATA    ---       UART_RS485_rxBuffer
      02000C45H   XDATA    BYTE      UART_RS485_rxBufferLoopDetect
      02000C69H   XDATA    BYTE      UART_RS485_rxBufferOverflow
      02000C46H   XDATA    BYTE      UART_RS485_rxBufferRead
      02000C67H   XDATA    BYTE      UART_RS485_rxBufferWrite
      010097A4H   CODE     ---       UART_RS485_RXISR
      0100AE07H   CODE     ---       UART_RS485_Start
      0100ABB1H   CODE     ---       UART_RS485_Stop
      0100AD9EH   CODE     ---       WATCHDOG_COUNTER_Enable
      0100A83BH   CODE     ---       WATCHDOG_COUNTER_Init
      02000CA4H   XDATA    BYTE      WATCHDOG_COUNTER_initVar
*DEL*:00000000H   CODE     ---       WATCHDOG_COUNTER_ReadCapture
*DEL*:00000000H   CODE     ---       WATCHDOG_COUNTER_ReadControlRegister
*DEL*:00000000H   CODE     ---       WATCHDOG_COUNTER_ReadCounter
*DEL*:00000000H   CODE     ---       WATCHDOG_COUNTER_ReadPeriod
*DEL*:00000000H   CODE     ---       WATCHDOG_COUNTER_ReadStatusRegister
      0100AE9FH   CODE     ---       WATCHDOG_COUNTER_Start
*DEL*:00000000H   CODE     ---       WATCHDOG_COUNTER_Stop
*DEL*:00000000H   CODE     ---       WATCHDOG_ENABLER_Read
      00000021H.4 BIT      BIT       watchdog_flag
*DEL*:00000000H   CODE     ---       WATCHDOG_REFRESH_Read



SYMBOL TABLE OF MODULE:  .\DP8051_Keil_951\Release\cuff_mod_firmware.omf (COMMAND_PROCESSING)

      VALUE       REP       CLASS    TYPE      SYMBOL NAME
      ====================================================
      ---         MODULE    ---      ---       COMMAND_PROCESSING
      02000C99H   PUBLIC    XDATA    ---       EEPROM_ADDR
      0100ABF4H   PUBLIC    CODE     ---       cmd_set_baudrate
      0100754EH   PUBLIC    CODE     ---       cmd_store_params
      0100AD2AH   PUBLIC    CODE     ---       cmd_ping
LX51 LINKER/LOCATER V4.64.0.0                                                         06/13/2017  14:44:14  PAGE 37


      0100A7D0H   PUBLIC    CODE     ---       cmd_get_activate
      0100A698H   PUBLIC    CODE     ---       cmd_set_watchdog
      0100A655H   PUBLIC    CODE     ---       cmd_activate
      0100A2ABH   PUBLIC    CODE     ---       cmd_get_velocities
      01008685H   PUBLIC    CODE     ---       cmd_set_pos_stiff
      010087F0H   PUBLIC    CODE     ---       cmd_set_inputs
      01009A45H   PUBLIC    CODE     ---       cmd_get_curr_and_meas
      0100A5CBH   PUBLIC    CODE     ---       cmd_get_currents
      0100A18AH   PUBLIC    CODE     ---       cmd_get_inputs
      0100A043H   PUBLIC    CODE     ---       cmd_get_measurements
      010081BAH   PUBLIC    CODE     ---       memInit
      0100A584H   PUBLIC    CODE     ---       memRestore
      0100A4A2H   PUBLIC    CODE     ---       memRecall
      01009641H   PUBLIC    CODE     ---       _memStore
      0100AD72H   PUBLIC    CODE     ---       _sendAcknowledgment
      0200090BH   PUBLIC    XDATA    BYTE      ?_commWrite?BYTE
      01009903H   PUBLIC    CODE     ---       _commWrite
      0200001FH   PUBLIC    XDATA    BYTE      ?_commWrite_old_id?BYTE
      01009AD6H   PUBLIC    CODE     ---       _commWrite_old_id
      01003A2DH   PUBLIC    CODE     ---       _infoPrepare
      0100261AH   PUBLIC    CODE     ---       _get_param_list
      01009CFAH   PUBLIC    CODE     ---       setZeros
      0100ACC6H   PUBLIC    CODE     ---       _infoGet
      01007DD9H   PUBLIC    CODE     ---       drive_cuff
      01008932H   PUBLIC    CODE     ---       commProcess
      000000CAH   SFRSYM    DATA     BYTE      SFRPRT5SEL
      000000DAH   SFRSYM    DATA     BYTE      SFRPRT6SEL
      000000D0H.6 SFRSYM    DATA     BIT       AC
      000000A8H.7 SFRSYM    DATA     BIT       EA
      000000A8H   SFRSYM    DATA     BYTE      IE
      00000085H   SFRSYM    DATA     BYTE      DPH1
      00000084H   SFRSYM    DATA     BYTE      DPL1
      000000D0H.7 SFRSYM    DATA     BIT       CY
      000000A0H   SFRSYM    DATA     BYTE      P2AX
      00000095H   SFRSYM    DATA     BYTE      DPX1
      00000081H   SFRSYM    DATA     BYTE      SP
      000000D0H.2 SFRSYM    DATA     BIT       OV
      00000080H   SFRSYM    DATA     BYTE      SFRPRT0DR
      00000090H   SFRSYM    DATA     BYTE      SFRPRT1DR
      000000F2H   SFRSYM    DATA     BYTE      SFRPRT12SEL
      00000098H   SFRSYM    DATA     BYTE      SFRPRT2DR
      000000B0H   SFRSYM    DATA     BYTE      SFRPRT3DR
      000000C0H   SFRSYM    DATA     BYTE      SFRPRT4DR
      000000FAH   SFRSYM    DATA     BYTE      SFRPRT15SEL
      000000C8H   SFRSYM    DATA     BYTE      SFRPRT5DR
      000000D8H   SFRSYM    DATA     BYTE      SFRPRT6DR
      00000089H   SFRSYM    DATA     BYTE      SFRPRT0PS
      00000091H   SFRSYM    DATA     BYTE      SFRPRT1PS
      00000099H   SFRSYM    DATA     BYTE      SFRPRT2PS
      000000B1H   SFRSYM    DATA     BYTE      SFRPRT3PS
      000000C1H   SFRSYM    DATA     BYTE      SFRPRT4PS
      000000C9H   SFRSYM    DATA     BYTE      SFRPRT5PS
      000000D9H   SFRSYM    DATA     BYTE      SFRPRT6PS
      000000EAH   SFRSYM    DATA     BYTE      MXAX
      000000F0H   SFRSYM    DATA     BYTE      B
      000000E0H   SFRSYM    DATA     BYTE      ACC
      000000D0H   SFRSYM    DATA     BIT       P
      000000D0H.3 SFRSYM    DATA     BIT       RS0
      000000D0H.4 SFRSYM    DATA     BIT       RS1
      00000083H   SFRSYM    DATA     BYTE      DPH
      000000E8H   SFRSYM    DATA     BYTE      SFRPRT12DR
      00000082H   SFRSYM    DATA     BYTE      DPL
      000000F8H   SFRSYM    DATA     BYTE      SFRPRT15DR
      00000086H   SFRSYM    DATA     BYTE      DPS
      000000E9H   SFRSYM    DATA     BYTE      SFRPRT12PS
LX51 LINKER/LOCATER V4.64.0.0                                                         06/13/2017  14:44:14  PAGE 38


      00000093H   SFRSYM    DATA     BYTE      DPX
      000000F9H   SFRSYM    DATA     BYTE      SFRPRT15PS
      000000D0H.5 SFRSYM    DATA     BIT       F0
      000000D0H.1 SFRSYM    DATA     BIT       F1
      0000008AH   SFRSYM    DATA     BYTE      SFRPRT0SEL
      000000D0H   SFRSYM    DATA     BYTE      PSW
      000000A2H   SFRSYM    DATA     BYTE      SFRPRT1SEL
      0000009AH   SFRSYM    DATA     BYTE      SFRPRT2SEL
      000000B2H   SFRSYM    DATA     BYTE      SFRPRT3SEL
      000000C2H   SFRSYM    DATA     BYTE      SFRPRT4SEL
      01005D35H   SYMBOL    CODE     ---       _?ix1000
      010063F7H   SYMBOL    CODE     ---       _?ix1010
      01006312H   SYMBOL    CODE     ---       _?ix1001
      01006524H   SYMBOL    CODE     ---       _?ix1020
      01006413H   SYMBOL    CODE     ---       _?ix1011
      01006321H   SYMBOL    CODE     ---       _?ix1002
      010065B0H   SYMBOL    CODE     ---       _?ix1021
      01006430H   SYMBOL    CODE     ---       _?ix1012
      0100633DH   SYMBOL    CODE     ---       _?ix1003
      010065EBH   SYMBOL    CODE     ---       _?ix1022
      0100644BH   SYMBOL    CODE     ---       _?ix1013
      01006358H   SYMBOL    CODE     ---       _?ix1004
      0100645FH   SYMBOL    CODE     ---       _?ix1014
      01006374H   SYMBOL    CODE     ---       _?ix1005
      0100647FH   SYMBOL    CODE     ---       _?ix1015
      0100638FH   SYMBOL    CODE     ---       _?ix1006
      010064A3H   SYMBOL    CODE     ---       _?ix1016
      010063B6H   SYMBOL    CODE     ---       _?ix1007
      010064BBH   SYMBOL    CODE     ---       _?ix1017
      010063CDH   SYMBOL    CODE     ---       _?ix1008
      010064DAH   SYMBOL    CODE     ---       _?ix1018
      010063E6H   SYMBOL    CODE     ---       _?ix1009
      010064F0H   SYMBOL    CODE     ---       _?ix1019

      01008932H   BLOCK     CODE     ---       LVL=0
      01008932H   BLOCK     CODE     NEAR LAB  LVL=1
      00000066H   SYMBOL    DATA     BYTE      rx_cmd
      ---         BLOCKEND  ---      ---       LVL=1
      01008932H   LINE      CODE     ---       #67
      01008932H   LINE      CODE     ---       #71
      01008938H   LINE      CODE     ---       #75
      01008963H   LINE      CODE     ---       #77
      01008969H   LINE      CODE     ---       #79
      01008969H   LINE      CODE     ---       #81
      010089B1H   LINE      CODE     ---       #84
      010089B1H   LINE      CODE     ---       #85
      010089B4H   LINE      CODE     ---       #86
      010089B5H   LINE      CODE     ---       #90
      010089B5H   LINE      CODE     ---       #91
      010089B8H   LINE      CODE     ---       #92
      010089B9H   LINE      CODE     ---       #96
      010089B9H   LINE      CODE     ---       #97
      010089BCH   LINE      CODE     ---       #98
      010089BDH   LINE      CODE     ---       #102
      010089BDH   LINE      CODE     ---       #103
      010089C0H   LINE      CODE     ---       #104
      010089C1H   LINE      CODE     ---       #108
      010089C1H   LINE      CODE     ---       #109
      010089C4H   LINE      CODE     ---       #110
      010089C5H   LINE      CODE     ---       #114
      010089C5H   LINE      CODE     ---       #115
      010089C8H   LINE      CODE     ---       #116
      010089C9H   LINE      CODE     ---       #120
      010089C9H   LINE      CODE     ---       #121
      010089CCH   LINE      CODE     ---       #122
LX51 LINKER/LOCATER V4.64.0.0                                                         06/13/2017  14:44:14  PAGE 39


      010089CDH   LINE      CODE     ---       #125
      010089CDH   LINE      CODE     ---       #126
      010089D0H   LINE      CODE     ---       #127
      010089D1H   LINE      CODE     ---       #131
      010089D1H   LINE      CODE     ---       #132
      010089D4H   LINE      CODE     ---       #133
      010089D5H   LINE      CODE     ---       #137
      010089D5H   LINE      CODE     ---       #138
      010089D8H   LINE      CODE     ---       #139
      010089D9H   LINE      CODE     ---       #143
      010089D9H   LINE      CODE     ---       #144
      010089DCH   LINE      CODE     ---       #145
      010089DDH   LINE      CODE     ---       #149
      010089DDH   LINE      CODE     ---       #150
      010089DFH   LINE      CODE     ---       #151
      010089EAH   LINE      CODE     ---       #152
      010089EBH   LINE      CODE     ---       #156
      010089EBH   LINE      CODE     ---       #157
      010089EEH   LINE      CODE     ---       #158
      010089EFH   LINE      CODE     ---       #162
      010089EFH   LINE      CODE     ---       #163
      010089FAH   LINE      CODE     ---       #164
      010089FBH   LINE      CODE     ---       #168
      010089FBH   LINE      CODE     ---       #169
      010089FEH   LINE      CODE     ---       #170
      010089FFH   LINE      CODE     ---       #174
      010089FFH   LINE      CODE     ---       #175
      01008A02H   LINE      CODE     ---       #176
      01008A03H   LINE      CODE     ---       #180
      01008A03H   LINE      CODE     ---       #181
      01008A0DH   LINE      CODE     ---       #182
      01008A12H   LINE      CODE     ---       #183
      01008A13H   LINE      CODE     ---       #184
      01008A18H   LINE      CODE     ---       #185
      01008A18H   LINE      CODE     ---       #186
      01008A19H   LINE      CODE     ---       #190
      01008A19H   LINE      CODE     ---       #191
      01008A1FH   LINE      CODE     ---       #192
      01008A24H   LINE      CODE     ---       #193
      01008A25H   LINE      CODE     ---       #194
      01008A2AH   LINE      CODE     ---       #195
      01008A2AH   LINE      CODE     ---       #196
      01008A2BH   LINE      CODE     ---       #200
      01008A2BH   LINE      CODE     ---       #201
      01008A31H   LINE      CODE     ---       #202
      01008A36H   LINE      CODE     ---       #203
      01008A37H   LINE      CODE     ---       #204
      01008A3CH   LINE      CODE     ---       #205
      01008A3CH   LINE      CODE     ---       #206
      01008A3DH   LINE      CODE     ---       #209
      01008A3DH   LINE      CODE     ---       #210
      01008A42H   LINE      CODE     ---       #211
      01008A4CH   LINE      CODE     ---       #212
      01008A51H   LINE      CODE     ---       #213
      01008A5BH   LINE      CODE     ---       #214
      01008A5EH   LINE      CODE     ---       #215
      01008A5FH   LINE      CODE     ---       #218
      01008A5FH   LINE      CODE     ---       #219
      01008A65H   LINE      CODE     ---       #220
      01008A69H   LINE      CODE     ---       #221
      01008A69H   LINE      CODE     ---       #224
      01008A69H   LINE      CODE     ---       #225
      01008A69H   LINE      CODE     ---       #227
      01008A69H   LINE      CODE     ---       #228
      ---         BLOCKEND  ---      ---       LVL=0
LX51 LINKER/LOCATER V4.64.0.0                                                         06/13/2017  14:44:14  PAGE 40



      01007DD9H   BLOCK     CODE     ---       LVL=0
      01007DD9H   BLOCK     CODE     NEAR LAB  LVL=1
      02000003H   SYMBOL    XDATA    ---       packet_data
      00000007H   SYMBOL    DATA     BYTE      packet_lenght
      00000006H   SYMBOL    DATA     INT       curr_diff
      02000013H   SYMBOL    XDATA    LONG      aux_val
      02000017H   SYMBOL    XDATA    DWORD     t_start
      0200001BH   SYMBOL    XDATA    DWORD     t_end
      ---         BLOCKEND  ---      ---       LVL=1
      01007DD9H   LINE      CODE     ---       #237
      01007DD9H   LINE      CODE     ---       #244
      01007DDBH   LINE      CODE     ---       #245
      01007DE1H   LINE      CODE     ---       #246
      01007DE3H   LINE      CODE     ---       #247
      01007DF5H   LINE      CODE     ---       #249
      01007DFEH   LINE      CODE     ---       #250
      01007E06H   LINE      CODE     ---       #251
      01007E09H   LINE      CODE     ---       #252
      01007E0BH   LINE      CODE     ---       #253
      01007E0EH   LINE      CODE     ---       #254
      01007E0EH   LINE      CODE     ---       #255
      01007E17H   LINE      CODE     ---       #256
      01007E4CH   LINE      CODE     ---       #257
      01007E4EH   LINE      CODE     ---       #258
      01007E4EH   LINE      CODE     ---       #259
      01007E4EH   LINE      CODE     ---       #260
      01007E4EH   LINE      CODE     ---       #262
      01007E54H   LINE      CODE     ---       #263
      01007E5CH   LINE      CODE     ---       #265
      01007E6FH   LINE      CODE     ---       #266
      01007E74H   LINE      CODE     ---       #268
      01007E87H   LINE      CODE     ---       #269
      01007E8CH   LINE      CODE     ---       #271
      01007E9BH   LINE      CODE     ---       #273
      01007ED2H   LINE      CODE     ---       #274
      01007EF2H   LINE      CODE     ---       #275
      01007F0FH   LINE      CODE     ---       #277
      01007F18H   LINE      CODE     ---       #278
      01007F4CH   LINE      CODE     ---       #279
      01007F82H   LINE      CODE     ---       #281
      01007FB8H   LINE      CODE     ---       #282
      01007FEEH   LINE      CODE     ---       #283
      01007FEEH   LINE      CODE     ---       #284
      01007FEEH   LINE      CODE     ---       #285
      ---         BLOCKEND  ---      ---       LVL=0

      0100ACC6H   BLOCK     CODE     ---       LVL=0
      00000006H   SYMBOL    DATA     WORD      info_type
      0100ACC6H   BLOCK     CODE     NEAR LAB  LVL=1
      0200001FH   SYMBOL    XDATA    ---       packet_string
      ---         BLOCKEND  ---      ---       LVL=1
      0100ACC6H   LINE      CODE     ---       #291
      0100ACC6H   LINE      CODE     ---       #296
      0100ACCCH   LINE      CODE     ---       #297
      0100ACCCH   LINE      CODE     ---       #298
      0100ACD5H   LINE      CODE     ---       #299
      0100ACDEH   LINE      CODE     ---       #300
      0100ACDEH   LINE      CODE     ---       #301
      0100ACDEH   LINE      CODE     ---       #302
      0100ACDEH   LINE      CODE     ---       #303
      0100ACDEH   LINE      CODE     ---       #304
      ---         BLOCKEND  ---      ---       LVL=0

      01009CFAH   BLOCK     CODE     ---       LVL=0
LX51 LINKER/LOCATER V4.64.0.0                                                         06/13/2017  14:44:14  PAGE 41


      01009CFAH   BLOCK     CODE     NEAR LAB  LVL=1
      00000067H   SYMBOL    DATA     BYTE      i
      ---         BLOCKEND  ---      ---       LVL=1
      01009CFAH   LINE      CODE     ---       #310
      01009CFAH   LINE      CODE     ---       #311
      01009CFAH   LINE      CODE     ---       #314
      01009D04H   LINE      CODE     ---       #315
      01009D2EH   LINE      CODE     ---       #316
      01009D64H   LINE      CODE     ---       #318
      01009D71H   LINE      CODE     ---       #319
      01009D75H   LINE      CODE     ---       #320
      01009D77H   LINE      CODE     ---       #322
      01009D7CH   LINE      CODE     ---       #323
      ---         BLOCKEND  ---      ---       LVL=0

      0100261AH   BLOCK     CODE     ---       LVL=0
      0200001FH   SYMBOL    XDATA    WORD      index
      01002622H   BLOCK     CODE     NEAR LAB  LVL=1
      02000021H   SYMBOL    XDATA    ---       packet_data
      020005FEH   SYMBOL    XDATA    WORD      packet_lenght
      00000067H   SYMBOL    DATA     WORD      i
      02000600H   SYMBOL    XDATA    BYTE      string_lenght
      02000601H   SYMBOL    XDATA    LONG      aux_int
      02000605H   SYMBOL    XDATA    ---       tmp_string
      02000608H   SYMBOL    XDATA    ---       id_str
      02000617H   SYMBOL    XDATA    ---       pos_pid_str
      02000633H   SYMBOL    XDATA    ---       curr_pid_str
      0200064EH   SYMBOL    XDATA    ---       startup_str
      0200066AH   SYMBOL    XDATA    ---       input_str
      02000685H   SYMBOL    XDATA    ---       contr_str
      020006ACH   SYMBOL    XDATA    ---       res_str
      020006C3H   SYMBOL    XDATA    ---       m_off_str
      020006DCH   SYMBOL    XDATA    ---       mult_str
      020006EDH   SYMBOL    XDATA    ---       pos_lim_flag_str
      02000709H   SYMBOL    XDATA    ---       pos_lim_str
      02000726H   SYMBOL    XDATA    ---       max_step_str
      02000741H   SYMBOL    XDATA    ---       curr_limit_str
      02000755H   SYMBOL    XDATA    ---       curr_prop_gain_str
      02000775H   SYMBOL    XDATA    ---       curr_sat_str
      02000799H   SYMBOL    XDATA    ---       curr_dead_zone_str
      020007B1H   SYMBOL    XDATA    ---       cuff_activ_str
      020007D0H   SYMBOL    XDATA    ---       pow_tension_str
      020007E6H   SYMBOL    XDATA    ---       input_mode_menu
      0200081AH   SYMBOL    XDATA    ---       resolution_menu
      020008A6H   SYMBOL    XDATA    ---       control_mode_menu
      020008E1H   SYMBOL    XDATA    ---       yes_no_menu
      00000069H   SYMBOL    DATA     BYTE      id_str_len
      0000006AH   SYMBOL    DATA     BYTE      pos_pid_str_len
      0000006BH   SYMBOL    DATA     BYTE      curr_pid_str_len
      0000006CH   SYMBOL    DATA     BYTE      m_off_str_len
      0000006DH   SYMBOL    DATA     BYTE      mult_str_len
      0000006EH   SYMBOL    DATA     BYTE      pos_lim_str_len
      0000006FH   SYMBOL    DATA     BYTE      curr_limit_str_len
      00000070H   SYMBOL    DATA     BYTE      curr_prop_gain_str_len
      00000071H   SYMBOL    DATA     BYTE      curr_sat_str_len
      00000072H   SYMBOL    DATA     BYTE      curr_dead_zone_str_len
      00000073H   SYMBOL    DATA     BYTE      pow_tension_str_len
      00000074H   SYMBOL    DATA     BYTE      input_mode_menu_len
      00000075H   SYMBOL    DATA     BYTE      control_mode_menu_len
      00000076H   SYMBOL    DATA     BYTE      yes_no_menu_len
      00000077H   SYMBOL    DATA     BYTE      resolution_menu_len
      ---         BLOCKEND  ---      ---       LVL=1
      0100261AH   LINE      CODE     ---       #329
      01002622H   LINE      CODE     ---       #330
      01002622H   LINE      CODE     ---       #332
LX51 LINKER/LOCATER V4.64.0.0                                                         06/13/2017  14:44:14  PAGE 42


      01002635H   LINE      CODE     ---       #333
      0100263FH   LINE      CODE     ---       #342
      01002652H   LINE      CODE     ---       #343
      01002665H   LINE      CODE     ---       #344
      01002678H   LINE      CODE     ---       #345
      0100268BH   LINE      CODE     ---       #346
      0100269EH   LINE      CODE     ---       #347
      010026B1H   LINE      CODE     ---       #348
      010026C4H   LINE      CODE     ---       #349
      010026D7H   LINE      CODE     ---       #350
      010026EAH   LINE      CODE     ---       #351
      010026FDH   LINE      CODE     ---       #352
      01002710H   LINE      CODE     ---       #353
      01002723H   LINE      CODE     ---       #354
      01002736H   LINE      CODE     ---       #355
      01002749H   LINE      CODE     ---       #356
      0100275CH   LINE      CODE     ---       #357
      0100276FH   LINE      CODE     ---       #358
      01002782H   LINE      CODE     ---       #359
      01002795H   LINE      CODE     ---       #362
      010027A8H   LINE      CODE     ---       #363
      010027BBH   LINE      CODE     ---       #364
      010027CEH   LINE      CODE     ---       #365
      010027E1H   LINE      CODE     ---       #368
      010027ECH   LINE      CODE     ---       #369
      010027F7H   LINE      CODE     ---       #370
      01002802H   LINE      CODE     ---       #372
      0100280DH   LINE      CODE     ---       #373
      01002818H   LINE      CODE     ---       #375
      01002823H   LINE      CODE     ---       #376
      0100282EH   LINE      CODE     ---       #378
      01002839H   LINE      CODE     ---       #379
      01002844H   LINE      CODE     ---       #380
      0100284FH   LINE      CODE     ---       #381
      0100285AH   LINE      CODE     ---       #383
      01002865H   LINE      CODE     ---       #384
      01002870H   LINE      CODE     ---       #385
      0100287BH   LINE      CODE     ---       #386
      01002886H   LINE      CODE     ---       #388
      0100288CH   LINE      CODE     ---       #389
      01002890H   LINE      CODE     ---       #391
      010028E7H   LINE      CODE     ---       #392
      010028E7H   LINE      CODE     ---       #395
      010028EDH   LINE      CODE     ---       #396
      010028F0H   LINE      CODE     ---       #397
      010028F8H   LINE      CODE     ---       #398
      01002904H   LINE      CODE     ---       #399
      01002930H   LINE      CODE     ---       #403
      01002936H   LINE      CODE     ---       #404
      0100293AH   LINE      CODE     ---       #405
      01002942H   LINE      CODE     ---       #406
      01002964H   LINE      CODE     ---       #407
      01002986H   LINE      CODE     ---       #408
      010029A8H   LINE      CODE     ---       #409
      010029AAH   LINE      CODE     ---       #410
      010029AAH   LINE      CODE     ---       #411
      010029CCH   LINE      CODE     ---       #412
      010029EEH   LINE      CODE     ---       #413
      01002A10H   LINE      CODE     ---       #414
      01002A10H   LINE      CODE     ---       #415
      01002A1CH   LINE      CODE     ---       #416
      01002A48H   LINE      CODE     ---       #420
      01002A4EH   LINE      CODE     ---       #421
      01002A52H   LINE      CODE     ---       #422
      01002A5AH   LINE      CODE     ---       #423
LX51 LINKER/LOCATER V4.64.0.0                                                         06/13/2017  14:44:14  PAGE 43


      01002A7CH   LINE      CODE     ---       #424
      01002A9EH   LINE      CODE     ---       #425
      01002AC0H   LINE      CODE     ---       #426
      01002AC2H   LINE      CODE     ---       #427
      01002AC2H   LINE      CODE     ---       #428
      01002AE4H   LINE      CODE     ---       #429
      01002B06H   LINE      CODE     ---       #430
      01002B28H   LINE      CODE     ---       #431
      01002B28H   LINE      CODE     ---       #432
      01002B34H   LINE      CODE     ---       #433
      01002B60H   LINE      CODE     ---       #437
      01002B65H   LINE      CODE     ---       #438
      01002B68H   LINE      CODE     ---       #439
      01002B70H   LINE      CODE     ---       #440
      01002B75H   LINE      CODE     ---       #441
      01002B8CH   LINE      CODE     ---       #442
      01002B92H   LINE      CODE     ---       #443
      01002B94H   LINE      CODE     ---       #444
      01002B94H   LINE      CODE     ---       #445
      01002BABH   LINE      CODE     ---       #446
      01002BB1H   LINE      CODE     ---       #447
      01002BB1H   LINE      CODE     ---       #448
      01002BC0H   LINE      CODE     ---       #449
      01002BEEH   LINE      CODE     ---       #451
      01002BFEH   LINE      CODE     ---       #455
      01002C03H   LINE      CODE     ---       #456
      01002C06H   LINE      CODE     ---       #457
      01002C0EH   LINE      CODE     ---       #458
      01002C17H   LINE      CODE     ---       #459
      01002C17H   LINE      CODE     ---       #460
      01002C2EH   LINE      CODE     ---       #461
      01002C34H   LINE      CODE     ---       #462
      01002C36H   LINE      CODE     ---       #463
      01002C36H   LINE      CODE     ---       #464
      01002C4DH   LINE      CODE     ---       #465
      01002C53H   LINE      CODE     ---       #466
      01002C53H   LINE      CODE     ---       #467
      01002C53H   LINE      CODE     ---       #468
      01002C62H   LINE      CODE     ---       #469
      01002C90H   LINE      CODE     ---       #471
      01002CA0H   LINE      CODE     ---       #475
      01002CA5H   LINE      CODE     ---       #476
      01002CA8H   LINE      CODE     ---       #477
      01002CB0H   LINE      CODE     ---       #478
      01002CC0H   LINE      CODE     ---       #479
      01002CC0H   LINE      CODE     ---       #480
      01002CD7H   LINE      CODE     ---       #481
      01002CDDH   LINE      CODE     ---       #482
      01002CDFH   LINE      CODE     ---       #483
      01002CDFH   LINE      CODE     ---       #484
      01002CF6H   LINE      CODE     ---       #485
      01002CFCH   LINE      CODE     ---       #486
      01002CFEH   LINE      CODE     ---       #487
      01002CFEH   LINE      CODE     ---       #488
      01002D15H   LINE      CODE     ---       #489
      01002D1BH   LINE      CODE     ---       #490
      01002D1DH   LINE      CODE     ---       #491
      01002D1DH   LINE      CODE     ---       #492
      01002D34H   LINE      CODE     ---       #493
      01002D3AH   LINE      CODE     ---       #494
      01002D3AH   LINE      CODE     ---       #503
      01002D3AH   LINE      CODE     ---       #504
      01002D49H   LINE      CODE     ---       #505
      01002D77H   LINE      CODE     ---       #507
      01002D87H   LINE      CODE     ---       #511
LX51 LINKER/LOCATER V4.64.0.0                                                         06/13/2017  14:44:14  PAGE 44


      01002D8CH   LINE      CODE     ---       #512
      01002D90H   LINE      CODE     ---       #513
      01002D93H   LINE      CODE     ---       #514
      01002D95H   LINE      CODE     ---       #515
      01002D97H   LINE      CODE     ---       #516
      01002DA6H   LINE      CODE     ---       #517
      01002DD3H   LINE      CODE     ---       #518
      01002DEAH   LINE      CODE     ---       #519
      01002DF4H   LINE      CODE     ---       #521
      01002DFAH   LINE      CODE     ---       #522
      01002E06H   LINE      CODE     ---       #523
      01002E34H   LINE      CODE     ---       #525
      01002E44H   LINE      CODE     ---       #529
      01002E48H   LINE      CODE     ---       #530
      01002E4AH   LINE      CODE     ---       #531
      01002E5AH   LINE      CODE     ---       #532
      01002EB3H   LINE      CODE     ---       #533
      01002EBFH   LINE      CODE     ---       #534
      01002EEBH   LINE      CODE     ---       #538
      01002EF1H   LINE      CODE     ---       #539
      01002EF5H   LINE      CODE     ---       #540
      01002F05H   LINE      CODE     ---       #541
      01002F59H   LINE      CODE     ---       #542
      01002F70H   LINE      CODE     ---       #543
      01002F96H   LINE      CODE     ---       #547
      01002F9BH   LINE      CODE     ---       #548
      01002F9EH   LINE      CODE     ---       #549
      01002FA6H   LINE      CODE     ---       #550
      01002FABH   LINE      CODE     ---       #551
      01002FC2H   LINE      CODE     ---       #552
      01002FC8H   LINE      CODE     ---       #553
      01002FCAH   LINE      CODE     ---       #554
      01002FCAH   LINE      CODE     ---       #555
      01002FE1H   LINE      CODE     ---       #556
      01002FE7H   LINE      CODE     ---       #557
      01002FE7H   LINE      CODE     ---       #558
      01002FF6H   LINE      CODE     ---       #559
      01003024H   LINE      CODE     ---       #561
      01003034H   LINE      CODE     ---       #565
      01003039H   LINE      CODE     ---       #566
      0100303CH   LINE      CODE     ---       #567
      0100304FH   LINE      CODE     ---       #568
      010030ABH   LINE      CODE     ---       #569
      01003107H   LINE      CODE     ---       #570
      01003112H   LINE      CODE     ---       #571
      0100311EH   LINE      CODE     ---       #572
      0100314AH   LINE      CODE     ---       #576
      01003150H   LINE      CODE     ---       #577
      01003154H   LINE      CODE     ---       #578
      01003168H   LINE      CODE     ---       #579
      0100317CH   LINE      CODE     ---       #580
      01003193H   LINE      CODE     ---       #581
      010031B9H   LINE      CODE     ---       #585
      010031BFH   LINE      CODE     ---       #586
      010031C3H   LINE      CODE     ---       #587
      010031D2H   LINE      CODE     ---       #588
      010031DEH   LINE      CODE     ---       #589
      0100320AH   LINE      CODE     ---       #593
      01003210H   LINE      CODE     ---       #594
      01003214H   LINE      CODE     ---       #595
      01003228H   LINE      CODE     ---       #596
      01003234H   LINE      CODE     ---       #597
      01003260H   LINE      CODE     ---       #601
      01003266H   LINE      CODE     ---       #602
      0100326AH   LINE      CODE     ---       #603
LX51 LINKER/LOCATER V4.64.0.0                                                         06/13/2017  14:44:14  PAGE 45


      01003279H   LINE      CODE     ---       #604
      01003285H   LINE      CODE     ---       #605
      010032B1H   LINE      CODE     ---       #609
      010032B7H   LINE      CODE     ---       #610
      010032BBH   LINE      CODE     ---       #611
      010032CAH   LINE      CODE     ---       #612
      010032D6H   LINE      CODE     ---       #613
      01003302H   LINE      CODE     ---       #617
      01003307H   LINE      CODE     ---       #618
      0100330AH   LINE      CODE     ---       #619
      01003312H   LINE      CODE     ---       #620
      01003317H   LINE      CODE     ---       #621
      0100332EH   LINE      CODE     ---       #622
      01003334H   LINE      CODE     ---       #623
      01003336H   LINE      CODE     ---       #624
      01003336H   LINE      CODE     ---       #625
      0100334DH   LINE      CODE     ---       #626
      01003353H   LINE      CODE     ---       #627
      01003353H   LINE      CODE     ---       #628
      01003362H   LINE      CODE     ---       #629
      01003390H   LINE      CODE     ---       #631
      010033A0H   LINE      CODE     ---       #635
      010033A4H   LINE      CODE     ---       #636
      010033A8H   LINE      CODE     ---       #637
      010033B7H   LINE      CODE     ---       #638
      010033C3H   LINE      CODE     ---       #639
      010033EFH   LINE      CODE     ---       #643
      010033FBH   LINE      CODE     ---       #644
      01003427H   LINE      CODE     ---       #646
      01003433H   LINE      CODE     ---       #647
      0100345FH   LINE      CODE     ---       #649
      0100346BH   LINE      CODE     ---       #650
      01003497H   LINE      CODE     ---       #652
      010034A3H   LINE      CODE     ---       #653
      010034CFH   LINE      CODE     ---       #655
      010034F3H   LINE      CODE     ---       #656
      01003501H   LINE      CODE     ---       #657
      01003504H   LINE      CODE     ---       #658
      01003505H   LINE      CODE     ---       #661
      01003505H   LINE      CODE     ---       #662
      0100350DH   LINE      CODE     ---       #663
      0100350EH   LINE      CODE     ---       #666
      0100350EH   LINE      CODE     ---       #667
      01003516H   LINE      CODE     ---       #668
      01003537H   LINE      CODE     ---       #669
      01003558H   LINE      CODE     ---       #670
      01003579H   LINE      CODE     ---       #671
      0100357AH   LINE      CODE     ---       #672
      0100357AH   LINE      CODE     ---       #673
      0100359BH   LINE      CODE     ---       #674
      010035BCH   LINE      CODE     ---       #675
      010035DDH   LINE      CODE     ---       #676
      010035DDH   LINE      CODE     ---       #677
      010035DEH   LINE      CODE     ---       #680
      010035DEH   LINE      CODE     ---       #681
      010035E6H   LINE      CODE     ---       #682
      01003607H   LINE      CODE     ---       #683
      01003628H   LINE      CODE     ---       #684
      01003649H   LINE      CODE     ---       #685
      0100364AH   LINE      CODE     ---       #686
      0100364AH   LINE      CODE     ---       #687
      0100366BH   LINE      CODE     ---       #688
      0100368CH   LINE      CODE     ---       #689
      010036ADH   LINE      CODE     ---       #690
      010036ADH   LINE      CODE     ---       #691
LX51 LINKER/LOCATER V4.64.0.0                                                         06/13/2017  14:44:14  PAGE 46


      010036AEH   LINE      CODE     ---       #694
      010036AEH   LINE      CODE     ---       #695
      010036B4H   LINE      CODE     ---       #696
      010036BBH   LINE      CODE     ---       #698
      010036C0H   LINE      CODE     ---       #699
      010036C1H   LINE      CODE     ---       #702
      010036C1H   LINE      CODE     ---       #703
      010036C9H   LINE      CODE     ---       #704
      010036CAH   LINE      CODE     ---       #707
      010036CAH   LINE      CODE     ---       #708
      010036D2H   LINE      CODE     ---       #709
      010036D3H   LINE      CODE     ---       #712
      010036D3H   LINE      CODE     ---       #713
      010036E6H   LINE      CODE     ---       #714
      0100370CH   LINE      CODE     ---       #715
      0100370CH   LINE      CODE     ---       #718
      0100370CH   LINE      CODE     ---       #719
      0100371FH   LINE      CODE     ---       #720
      01003769H   LINE      CODE     ---       #721
      0100379BH   LINE      CODE     ---       #723
      010037A9H   LINE      CODE     ---       #724
      010037B4H   LINE      CODE     ---       #725
      010037B6H   LINE      CODE     ---       #726
      010037B7H   LINE      CODE     ---       #729
      010037B7H   LINE      CODE     ---       #730
      010037CAH   LINE      CODE     ---       #731
      0100381EH   LINE      CODE     ---       #732
      0100381EH   LINE      CODE     ---       #735
      0100381EH   LINE      CODE     ---       #736
      01003826H   LINE      CODE     ---       #737
      01003827H   LINE      CODE     ---       #740
      01003827H   LINE      CODE     ---       #741
      0100383AH   LINE      CODE     ---       #742
      01003884H   LINE      CODE     ---       #743
      010038D1H   LINE      CODE     ---       #745
      01003903H   LINE      CODE     ---       #746
      01003941H   LINE      CODE     ---       #747
      0100394CH   LINE      CODE     ---       #748
      0100394CH   LINE      CODE     ---       #751
      0100394CH   LINE      CODE     ---       #752
      01003960H   LINE      CODE     ---       #753
      01003979H   LINE      CODE     ---       #754
      0100398DH   LINE      CODE     ---       #756
      010039A1H   LINE      CODE     ---       #757
      010039BAH   LINE      CODE     ---       #758
      010039CEH   LINE      CODE     ---       #759
      010039CFH   LINE      CODE     ---       #762
      010039CFH   LINE      CODE     ---       #763
      010039DEH   LINE      CODE     ---       #764
      010039DFH   LINE      CODE     ---       #767
      010039DFH   LINE      CODE     ---       #768
      010039F3H   LINE      CODE     ---       #769
      010039F4H   LINE      CODE     ---       #772
      010039F4H   LINE      CODE     ---       #773
      01003A03H   LINE      CODE     ---       #774
      01003A04H   LINE      CODE     ---       #777
      01003A04H   LINE      CODE     ---       #778
      01003A13H   LINE      CODE     ---       #779
      01003A14H   LINE      CODE     ---       #782
      01003A14H   LINE      CODE     ---       #783
      01003A1CH   LINE      CODE     ---       #784
      01003A1DH   LINE      CODE     ---       #787
      01003A1DH   LINE      CODE     ---       #788
      01003A2CH   LINE      CODE     ---       #789
      01003A2CH   LINE      CODE     ---       #790
LX51 LINKER/LOCATER V4.64.0.0                                                         06/13/2017  14:44:14  PAGE 47


      01003A2CH   LINE      CODE     ---       #791
      ---         BLOCKEND  ---      ---       LVL=0

      01003A2DH   BLOCK     CODE     ---       LVL=0
      0200046BH   SYMBOL    XDATA    ---       info_string
      01003A38H   BLOCK     CODE     NEAR LAB  LVL=1
      00000067H   SYMBOL    DATA     INT       i
      0200046EH   SYMBOL    XDATA    ---       str
      ---         BLOCKEND  ---      ---       LVL=1
      01003A2DH   LINE      CODE     ---       #797
      01003A38H   LINE      CODE     ---       #798
      01003A38H   LINE      CODE     ---       #803
      01003A50H   LINE      CODE     ---       #804
      01003A6CH   LINE      CODE     ---       #805
      01003A88H   LINE      CODE     ---       #806
      01003AA4H   LINE      CODE     ---       #807
      01003AC0H   LINE      CODE     ---       #809
      01003ADCH   LINE      CODE     ---       #810
      01003B00H   LINE      CODE     ---       #811
      01003B1CH   LINE      CODE     ---       #812
      01003B3AH   LINE      CODE     ---       #813
      01003B56H   LINE      CODE     ---       #814
      01003B7CH   LINE      CODE     ---       #815
      01003B98H   LINE      CODE     ---       #816
      01003BBCH   LINE      CODE     ---       #817
      01003BD8H   LINE      CODE     ---       #818
      01003BF4H   LINE      CODE     ---       #820
      01003C10H   LINE      CODE     ---       #821
      01003C2CH   LINE      CODE     ---       #823
      01003C3EH   LINE      CODE     ---       #824
      01003C90H   LINE      CODE     ---       #825
      01003CACH   LINE      CODE     ---       #826
      01003CB7H   LINE      CODE     ---       #827
      01003CD3H   LINE      CODE     ---       #829
      01003CEAH   LINE      CODE     ---       #831
      01003CF2H   LINE      CODE     ---       #832
      01003D09H   LINE      CODE     ---       #833
      01003D0BH   LINE      CODE     ---       #834
      01003D22H   LINE      CODE     ---       #835
      01003D22H   LINE      CODE     ---       #836
      01003D3EH   LINE      CODE     ---       #839
      01003D5AH   LINE      CODE     ---       #840
      01003D76H   LINE      CODE     ---       #841
      01003D8BH   LINE      CODE     ---       #843
      01003DECH   LINE      CODE     ---       #844
      01003E08H   LINE      CODE     ---       #845
      01003E24H   LINE      CODE     ---       #846
      01003E2FH   LINE      CODE     ---       #847
      01003E5AH   LINE      CODE     ---       #848
      01003E76H   LINE      CODE     ---       #849
      01003E92H   LINE      CODE     ---       #851
      01003EBDH   LINE      CODE     ---       #852
      01003ED9H   LINE      CODE     ---       #853
      01003EF5H   LINE      CODE     ---       #855
      01003F20H   LINE      CODE     ---       #856
      01003F3CH   LINE      CODE     ---       #857
      01003F58H   LINE      CODE     ---       #860
      01003F74H   LINE      CODE     ---       #862
      01003F90H   LINE      CODE     ---       #863
      01003F9BH   LINE      CODE     ---       #864
      01003FD4H   LINE      CODE     ---       #865
      01003FF0H   LINE      CODE     ---       #866
      01004029H   LINE      CODE     ---       #867
      01004045H   LINE      CODE     ---       #868
      0100407EH   LINE      CODE     ---       #869
LX51 LINKER/LOCATER V4.64.0.0                                                         06/13/2017  14:44:14  PAGE 48


      0100409AH   LINE      CODE     ---       #870
      0100409DH   LINE      CODE     ---       #871
      0100409DH   LINE      CODE     ---       #872
      010040D6H   LINE      CODE     ---       #873
      010040F2H   LINE      CODE     ---       #874
      0100412BH   LINE      CODE     ---       #875
      01004147H   LINE      CODE     ---       #876
      01004180H   LINE      CODE     ---       #877
      0100419CH   LINE      CODE     ---       #878
      0100419CH   LINE      CODE     ---       #880
      010041B8H   LINE      CODE     ---       #881
      010041C3H   LINE      CODE     ---       #882
      010041FCH   LINE      CODE     ---       #883
      01004218H   LINE      CODE     ---       #884
      01004251H   LINE      CODE     ---       #885
      0100426DH   LINE      CODE     ---       #886
      010042A6H   LINE      CODE     ---       #887
      010042C2H   LINE      CODE     ---       #888
      010042C5H   LINE      CODE     ---       #889
      010042C5H   LINE      CODE     ---       #890
      010042FEH   LINE      CODE     ---       #891
      0100431AH   LINE      CODE     ---       #892
      01004353H   LINE      CODE     ---       #893
      0100436FH   LINE      CODE     ---       #894
      010043A8H   LINE      CODE     ---       #895
      010043C4H   LINE      CODE     ---       #896
      010043C4H   LINE      CODE     ---       #898
      010043E0H   LINE      CODE     ---       #900
      010043E7H   LINE      CODE     ---       #901
      01004403H   LINE      CODE     ---       #902
      01004405H   LINE      CODE     ---       #903
      01004421H   LINE      CODE     ---       #904
      01004421H   LINE      CODE     ---       #906
      0100442BH   LINE      CODE     ---       #907
      0100442BH   LINE      CODE     ---       #908
      01004447H   LINE      CODE     ---       #909
      01004449H   LINE      CODE     ---       #910
      01004449H   LINE      CODE     ---       #911
      01004465H   LINE      CODE     ---       #912
      01004465H   LINE      CODE     ---       #913
      01004465H   LINE      CODE     ---       #915
      01004481H   LINE      CODE     ---       #916
      01004492H   LINE      CODE     ---       #917
      01004492H   LINE      CODE     ---       #918
      010044AEH   LINE      CODE     ---       #919
      010044B0H   LINE      CODE     ---       #920
      010044B0H   LINE      CODE     ---       #921
      010044CCH   LINE      CODE     ---       #922
      010044CEH   LINE      CODE     ---       #923
      010044CEH   LINE      CODE     ---       #924
      010044EAH   LINE      CODE     ---       #925
      010044ECH   LINE      CODE     ---       #926
      010044ECH   LINE      CODE     ---       #927
      01004508H   LINE      CODE     ---       #928
      01004508H   LINE      CODE     ---       #935
      01004508H   LINE      CODE     ---       #937
      01004524H   LINE      CODE     ---       #938
      01004536H   LINE      CODE     ---       #939
      01004536H   LINE      CODE     ---       #941
      01004572H   LINE      CODE     ---       #942
      0100458EH   LINE      CODE     ---       #943
      010045AAH   LINE      CODE     ---       #944
      010045B5H   LINE      CODE     ---       #947
      010045D1H   LINE      CODE     ---       #948
      010045E6H   LINE      CODE     ---       #949
LX51 LINKER/LOCATER V4.64.0.0                                                         06/13/2017  14:44:14  PAGE 49


      010045E6H   LINE      CODE     ---       #951
      01004645H   LINE      CODE     ---       #952
      01004661H   LINE      CODE     ---       #953
      0100467DH   LINE      CODE     ---       #954
      01004688H   LINE      CODE     ---       #956
      010046A4H   LINE      CODE     ---       #957
      010046B9H   LINE      CODE     ---       #958
      010046B9H   LINE      CODE     ---       #960
      01004706H   LINE      CODE     ---       #961
      01004722H   LINE      CODE     ---       #962
      0100473EH   LINE      CODE     ---       #963
      01004749H   LINE      CODE     ---       #965
      01004765H   LINE      CODE     ---       #966
      01004790H   LINE      CODE     ---       #967
      010047ACH   LINE      CODE     ---       #968
      010047C8H   LINE      CODE     ---       #970
      010047E4H   LINE      CODE     ---       #971
      0100480AH   LINE      CODE     ---       #972
      01004826H   LINE      CODE     ---       #973
      01004842H   LINE      CODE     ---       #975
      0100485EH   LINE      CODE     ---       #976
      01004884H   LINE      CODE     ---       #977
      010048A0H   LINE      CODE     ---       #978
      010048BCH   LINE      CODE     ---       #980
      010048E0H   LINE      CODE     ---       #981
      010048FCH   LINE      CODE     ---       #982
      01004918H   LINE      CODE     ---       #984
      0100492DH   LINE      CODE     ---       #986
      0100498CH   LINE      CODE     ---       #987
      010049A8H   LINE      CODE     ---       #990
      010049F8H   LINE      CODE     ---       #991
      01004A14H   LINE      CODE     ---       #992
      01004A1FH   LINE      CODE     ---       #994
      01004A5AH   LINE      CODE     ---       #995
      01004A76H   LINE      CODE     ---       #996
      01004A92H   LINE      CODE     ---       #998
      01004AB8H   LINE      CODE     ---       #999
      01004AD4H   LINE      CODE     ---       #1000
      01004AF0H   LINE      CODE     ---       #1002
      01004AF6H   LINE      CODE     ---       #1003
      01004B14H   LINE      CODE     ---       #1005
      01004B30H   LINE      CODE     ---       #1007
      01004B33H   LINE      CODE     ---       #1008
      01004B51H   LINE      CODE     ---       #1010
      01004B6DH   LINE      CODE     ---       #1012
      01004BB1H   LINE      CODE     ---       #1013
      01004BCDH   LINE      CODE     ---       #1014
      01004BE9H   LINE      CODE     ---       #1015
      ---         BLOCKEND  ---      ---       LVL=0

      01009AD6H   BLOCK     CODE     ---       LVL=0
      0200001FH   SYMBOL    XDATA    ---       packet_data
      02000022H   SYMBOL    XDATA    WORD      packet_lenght
      02000024H   SYMBOL    XDATA    BYTE      old_id
      01009AE7H   BLOCK     CODE     NEAR LAB  LVL=1
      0000006BH   SYMBOL    DATA     WORD      index
      ---         BLOCKEND  ---      ---       LVL=1
      01009AD6H   LINE      CODE     ---       #1021
      01009AE7H   LINE      CODE     ---       #1022
      01009AE7H   LINE      CODE     ---       #1026
      01009AECH   LINE      CODE     ---       #1027
      01009AF1H   LINE      CODE     ---       #1030
      01009AF9H   LINE      CODE     ---       #1035
      01009B03H   LINE      CODE     ---       #1037
      01009B17H   LINE      CODE     ---       #1038
LX51 LINKER/LOCATER V4.64.0.0                                                         06/13/2017  14:44:14  PAGE 50


      01009B2FH   LINE      CODE     ---       #1039
      01009B39H   LINE      CODE     ---       #1041
      01009B3EH   LINE      CODE     ---       #1043
      01009B58H   LINE      CODE     ---       #1045
      01009B5DH   LINE      CODE     ---       #1046
      01009B62H   LINE      CODE     ---       #1047
      ---         BLOCKEND  ---      ---       LVL=0

      01009903H   BLOCK     CODE     ---       LVL=0
      0200090BH   SYMBOL    XDATA    ---       packet_data
      0200090EH   SYMBOL    XDATA    WORD      packet_lenght
      02000910H   SYMBOL    XDATA    BYTE      next
      01009914H   BLOCK     CODE     NEAR LAB  LVL=1
      00000078H   SYMBOL    DATA     WORD      index
      ---         BLOCKEND  ---      ---       LVL=1
      01009903H   LINE      CODE     ---       #1049
      01009914H   LINE      CODE     ---       #1050
      01009914H   LINE      CODE     ---       #1054
      01009919H   LINE      CODE     ---       #1055
      0100991EH   LINE      CODE     ---       #1058
      01009924H   LINE      CODE     ---       #1061
      0100992FH   LINE      CODE     ---       #1063
      01009937H   LINE      CODE     ---       #1066
      01009941H   LINE      CODE     ---       #1069
      01009955H   LINE      CODE     ---       #1070
      01009977H   LINE      CODE     ---       #1072
      0100997CH   LINE      CODE     ---       #1074
      01009996H   LINE      CODE     ---       #1076
      0100999CH   LINE      CODE     ---       #1077
      010099A1H   LINE      CODE     ---       #1078
      010099A6H   LINE      CODE     ---       #1079
      010099A6H   LINE      CODE     ---       #1080
      ---         BLOCKEND  ---      ---       LVL=0

      0100AD72H   BLOCK     CODE     ---       LVL=0
      00000007H   SYMBOL    DATA     BYTE      value
      0100AD72H   BLOCK     CODE     NEAR LAB  LVL=1
      0000006BH   SYMBOL    DATA     ---       packet_data
      ---         BLOCKEND  ---      ---       LVL=1
      0100AD72H   LINE      CODE     ---       #1086
      0100AD72H   LINE      CODE     ---       #1093
      0100AD74H   LINE      CODE     ---       #1096
      0100AD76H   LINE      CODE     ---       #1098
      0100AD87H   LINE      CODE     ---       #1099
      ---         BLOCKEND  ---      ---       LVL=0

      01009641H   BLOCK     CODE     ---       LVL=0
      0200001FH   SYMBOL    XDATA    INT       displacement
      01009649H   BLOCK     CODE     NEAR LAB  LVL=1
      00000007H   SYMBOL    DATA     BYTE      writeStatus
      02000021H   SYMBOL    XDATA    INT       i
      02000023H   SYMBOL    XDATA    INT       pages
      02000025H   SYMBOL    XDATA    BYTE      ret_val
      ---         BLOCKEND  ---      ---       LVL=1
      01009641H   LINE      CODE     ---       #1109
      01009649H   LINE      CODE     ---       #1114
      0100964FH   LINE      CODE     ---       #1116
      01009654H   LINE      CODE     ---       #1117
      01009659H   LINE      CODE     ---       #1120
      0100965CH   LINE      CODE     ---       #1122
      0100966FH   LINE      CODE     ---       #1124
      01009678H   LINE      CODE     ---       #1126
      0100969BH   LINE      CODE     ---       #1127
      010096C0H   LINE      CODE     ---       #1128
      010096C3H   LINE      CODE     ---       #1129
LX51 LINKER/LOCATER V4.64.0.0                                                         06/13/2017  14:44:14  PAGE 51


      010096C8H   LINE      CODE     ---       #1130
      010096CAH   LINE      CODE     ---       #1131
      010096CAH   LINE      CODE     ---       #1132
      010096DAH   LINE      CODE     ---       #1134
      010096EDH   LINE      CODE     ---       #1136
      010096F2H   LINE      CODE     ---       #1137
      ---         BLOCKEND  ---      ---       LVL=0

      0100A4A2H   BLOCK     CODE     ---       LVL=0
      0100A4A2H   BLOCK     CODE     NEAR LAB  LVL=1
      00000006H   SYMBOL    DATA     WORD      i
      ---         BLOCKEND  ---      ---       LVL=1
      0100A4A2H   LINE      CODE     ---       #1147
      0100A4A2H   LINE      CODE     ---       #1151
      0100A4AEH   LINE      CODE     ---       #1152
      0100A4D1H   LINE      CODE     ---       #1156
      0100A4D7H   LINE      CODE     ---       #1157
      0100A4DBH   LINE      CODE     ---       #1159
      0100A4EEH   LINE      CODE     ---       #1161
      ---         BLOCKEND  ---      ---       LVL=0

      0100A584H   BLOCK     CODE     ---       LVL=0
      0100A584H   BLOCK     CODE     NEAR LAB  LVL=1
      00000006H   SYMBOL    DATA     WORD      i
      ---         BLOCKEND  ---      ---       LVL=1
      0100A584H   LINE      CODE     ---       #1171
      0100A584H   LINE      CODE     ---       #1175
      0100A590H   LINE      CODE     ---       #1176
      0100A5BAH   LINE      CODE     ---       #1180
      0100A5C0H   LINE      CODE     ---       #1181
      0100A5C4H   LINE      CODE     ---       #1183
      0100A5CAH   LINE      CODE     ---       #1185
      ---         BLOCKEND  ---      ---       LVL=0

      010081BAH   BLOCK     CODE     ---       LVL=0
      010081BAH   BLOCK     CODE     NEAR LAB  LVL=1
      00000067H   SYMBOL    DATA     BYTE      i
      ---         BLOCKEND  ---      ---       LVL=1
      010081BAH   LINE      CODE     ---       #1194
      010081BAH   LINE      CODE     ---       #1198
      010081C0H   LINE      CODE     ---       #1199
      010081CBH   LINE      CODE     ---       #1200
      010081D6H   LINE      CODE     ---       #1201
      010081E3H   LINE      CODE     ---       #1202
      010081EFH   LINE      CODE     ---       #1203
      010081FAH   LINE      CODE     ---       #1204
      01008205H   LINE      CODE     ---       #1206
      01008213H   LINE      CODE     ---       #1207
      0100821EH   LINE      CODE     ---       #1208
      01008229H   LINE      CODE     ---       #1209
      01008235H   LINE      CODE     ---       #1210
      01008240H   LINE      CODE     ---       #1211
      0100824BH   LINE      CODE     ---       #1213
      01008250H   LINE      CODE     ---       #1214
      01008252H   LINE      CODE     ---       #1215
      01008256H   LINE      CODE     ---       #1216
      0100825BH   LINE      CODE     ---       #1218
      0100825FH   LINE      CODE     ---       #1220
      01008268H   LINE      CODE     ---       #1221
      01008282H   LINE      CODE     ---       #1222
      0100829BH   LINE      CODE     ---       #1223
      0100829FH   LINE      CODE     ---       #1225
      010082A9H   LINE      CODE     ---       #1226
      010082A9H   LINE      CODE     ---       #1227
      010082C2H   LINE      CODE     ---       #1228
LX51 LINKER/LOCATER V4.64.0.0                                                         06/13/2017  14:44:14  PAGE 52


      010082D0H   LINE      CODE     ---       #1229
      010082D4H   LINE      CODE     ---       #1231
      010082DFH   LINE      CODE     ---       #1232
      010082E6H   LINE      CODE     ---       #1233
      010082EAH   LINE      CODE     ---       #1234
      010082EEH   LINE      CODE     ---       #1235
      010082F8H   LINE      CODE     ---       #1237
      0100830CH   LINE      CODE     ---       #1238
      01008320H   LINE      CODE     ---       #1239
      01008334H   LINE      CODE     ---       #1241
      0100833BH   LINE      CODE     ---       #1243
      01008345H   LINE      CODE     ---       #1246
      0100834BH   LINE      CODE     ---       #1249
      01008364H   LINE      CODE     ---       #1250
      ---         BLOCKEND  ---      ---       LVL=0

      0100A043H   BLOCK     CODE     ---       LVL=0
      0100A043H   BLOCK     CODE     NEAR LAB  LVL=1
      00000067H   SYMBOL    DATA     BYTE      index
      0200001FH   SYMBOL    XDATA    ---       packet_data
      ---         BLOCKEND  ---      ---       LVL=1
      0100A043H   LINE      CODE     ---       #1259
      0100A043H   LINE      CODE     ---       #1274
      0100A049H   LINE      CODE     ---       #1276
      0100A053H   LINE      CODE     ---       #1277
      0100A092H   LINE      CODE     ---       #1286
      0100A0A2H   LINE      CODE     ---       #1287
      0100A0B3H   LINE      CODE     ---       #1290
      ---         BLOCKEND  ---      ---       LVL=0

      0100A18AH   BLOCK     CODE     ---       LVL=0
      0100A18AH   BLOCK     CODE     NEAR LAB  LVL=1
      0200001FH   SYMBOL    XDATA    ---       packet_data
      ---         BLOCKEND  ---      ---       LVL=1
      0100A18AH   LINE      CODE     ---       #1292
      0100A18AH   LINE      CODE     ---       #1300
      0100A190H   LINE      CODE     ---       #1302
      0100A1AFH   LINE      CODE     ---       #1303
      0100A1CEH   LINE      CODE     ---       #1307
      0100A1DEH   LINE      CODE     ---       #1309
      0100A1EFH   LINE      CODE     ---       #1311
      ---         BLOCKEND  ---      ---       LVL=0

      0100A5CBH   BLOCK     CODE     ---       LVL=0
      0100A5CBH   BLOCK     CODE     NEAR LAB  LVL=1
      0200001FH   SYMBOL    XDATA    ---       packet_data
      ---         BLOCKEND  ---      ---       LVL=1
      0100A5CBH   LINE      CODE     ---       #1313
      0100A5CBH   LINE      CODE     ---       #1321
      0100A5D1H   LINE      CODE     ---       #1323
      0100A5E0H   LINE      CODE     ---       #1324
      0100A5EFH   LINE      CODE     ---       #1328
      0100A5FFH   LINE      CODE     ---       #1330
      0100A610H   LINE      CODE     ---       #1331
      ---         BLOCKEND  ---      ---       LVL=0

      01009A45H   BLOCK     CODE     ---       LVL=0
      01009A45H   BLOCK     CODE     NEAR LAB  LVL=1
      00000067H   SYMBOL    DATA     BYTE      index
      0200001FH   SYMBOL    XDATA    ---       packet_data
      ---         BLOCKEND  ---      ---       LVL=1
      01009A45H   LINE      CODE     ---       #1333
      01009A45H   LINE      CODE     ---       #1347
      01009A4BH   LINE      CODE     ---       #1350
      01009A5AH   LINE      CODE     ---       #1351
LX51 LINKER/LOCATER V4.64.0.0                                                         06/13/2017  14:44:14  PAGE 53


      01009A69H   LINE      CODE     ---       #1354
      01009A73H   LINE      CODE     ---       #1355
      01009AB4H   LINE      CODE     ---       #1364
      01009AC4H   LINE      CODE     ---       #1365
      01009AD5H   LINE      CODE     ---       #1367
      ---         BLOCKEND  ---      ---       LVL=0

      010087F0H   BLOCK     CODE     ---       LVL=0
      010087F0H   LINE      CODE     ---       #1369
      010087F0H   LINE      CODE     ---       #1372
      01008804H   LINE      CODE     ---       #1373
      01008821H   LINE      CODE     ---       #1375
      01008835H   LINE      CODE     ---       #1376
      01008852H   LINE      CODE     ---       #1379
      0100885BH   LINE      CODE     ---       #1381
      0100887BH   LINE      CODE     ---       #1382
      0100888FH   LINE      CODE     ---       #1383
      010088B1H   LINE      CODE     ---       #1384
      010088C5H   LINE      CODE     ---       #1386
      010088E7H   LINE      CODE     ---       #1387
      010088FBH   LINE      CODE     ---       #1388
      0100891DH   LINE      CODE     ---       #1389
      01008931H   LINE      CODE     ---       #1390
      01008931H   LINE      CODE     ---       #1391
      ---         BLOCKEND  ---      ---       LVL=0

      01008685H   BLOCK     CODE     ---       LVL=0
      01008685H   BLOCK     CODE     NEAR LAB  LVL=1
      00000067H   SYMBOL    DATA     LONG      pos
      0000006BH   SYMBOL    DATA     LONG      stiff
      ---         BLOCKEND  ---      ---       LVL=1
      01008685H   LINE      CODE     ---       #1393
      01008685H   LINE      CODE     ---       #1399
      01008699H   LINE      CODE     ---       #1400
      010086ABH   LINE      CODE     ---       #1403
      010086C4H   LINE      CODE     ---       #1406
      010086F9H   LINE      CODE     ---       #1407
      01008723H   LINE      CODE     ---       #1409
      01008754H   LINE      CODE     ---       #1410
      0100877BH   LINE      CODE     ---       #1415
      010087BAH   LINE      CODE     ---       #1418
      010087D4H   LINE      CODE     ---       #1419
      010087EFH   LINE      CODE     ---       #1420
      ---         BLOCKEND  ---      ---       LVL=0

      0100A2ABH   BLOCK     CODE     ---       LVL=0
      0100A2ABH   BLOCK     CODE     NEAR LAB  LVL=1
      00000067H   SYMBOL    DATA     BYTE      index
      0200001FH   SYMBOL    XDATA    ---       packet_data
      ---         BLOCKEND  ---      ---       LVL=1
      0100A2ABH   LINE      CODE     ---       #1422
      0100A2ABH   LINE      CODE     ---       #1437
      0100A2B1H   LINE      CODE     ---       #1439
      0100A2BBH   LINE      CODE     ---       #1440
      0100A2E3H   LINE      CODE     ---       #1449
      0100A2F3H   LINE      CODE     ---       #1450
      0100A304H   LINE      CODE     ---       #1452
      ---         BLOCKEND  ---      ---       LVL=0

      0100A655H   BLOCK     CODE     ---       LVL=0
      0100A655H   LINE      CODE     ---       #1454
      0100A655H   LINE      CODE     ---       #1457
      0100A65DH   LINE      CODE     ---       #1460
      0100A667H   LINE      CODE     ---       #1461
      0100A667H   LINE      CODE     ---       #1462
LX51 LINKER/LOCATER V4.64.0.0                                                         06/13/2017  14:44:14  PAGE 54


      0100A67BH   LINE      CODE     ---       #1463
      0100A68FH   LINE      CODE     ---       #1464
      0100A68FH   LINE      CODE     ---       #1473
      0100A697H   LINE      CODE     ---       #1475
      ---         BLOCKEND  ---      ---       LVL=0

      0100A698H   BLOCK     CODE     ---       LVL=0
      0100A698H   LINE      CODE     ---       #1477
      0100A698H   LINE      CODE     ---       #1479
      0100A6A1H   LINE      CODE     ---       #1481
      0100A6A6H   LINE      CODE     ---       #1482
      0100A6ABH   LINE      CODE     ---       #1483
      0100A6ACH   LINE      CODE     ---       #1484
      0100A6ACH   LINE      CODE     ---       #1486
      0100A6B5H   LINE      CODE     ---       #1487
      0100A6B8H   LINE      CODE     ---       #1492
      0100A6D0H   LINE      CODE     ---       #1493
      0100A6D3H   LINE      CODE     ---       #1494
      0100A6D8H   LINE      CODE     ---       #1495
      0100A6D8H   LINE      CODE     ---       #1496
      ---         BLOCKEND  ---      ---       LVL=0

      0100A7D0H   BLOCK     CODE     ---       LVL=0
      0100A7D0H   BLOCK     CODE     NEAR LAB  LVL=1
      0200001FH   SYMBOL    XDATA    ---       packet_data
      ---         BLOCKEND  ---      ---       LVL=1
      0100A7D0H   LINE      CODE     ---       #1498
      0100A7D0H   LINE      CODE     ---       #1503
      0100A7D6H   LINE      CODE     ---       #1506
      0100A7DEH   LINE      CODE     ---       #1509
      0100A7EEH   LINE      CODE     ---       #1512
      0100A7FFH   LINE      CODE     ---       #1514
      ---         BLOCKEND  ---      ---       LVL=0

      0100AD2AH   BLOCK     CODE     ---       LVL=0
      0100AD2AH   BLOCK     CODE     NEAR LAB  LVL=1
      0200001FH   SYMBOL    XDATA    ---       packet_data
      ---         BLOCKEND  ---      ---       LVL=1
      0100AD2AH   LINE      CODE     ---       #1516
      0100AD2AH   LINE      CODE     ---       #1521
      0100AD2FH   LINE      CODE     ---       #1524
      0100AD31H   LINE      CODE     ---       #1527
      0100AD41H   LINE      CODE     ---       #1528
      ---         BLOCKEND  ---      ---       LVL=0

      0100754EH   BLOCK     CODE     ---       LVL=0
      0100754EH   BLOCK     CODE     NEAR LAB  LVL=1
      00000067H   SYMBOL    DATA     BYTE      packet_lenght
      00000068H   SYMBOL    DATA     ---       packet_data
      0000006AH   SYMBOL    DATA     BYTE      old_id
      ---         BLOCKEND  ---      ---       LVL=1
      0100754EH   LINE      CODE     ---       #1530
      0100754EH   LINE      CODE     ---       #1532
      01007551H   LINE      CODE     ---       #1537
      0100755AH   LINE      CODE     ---       #1539
      0100757BH   LINE      CODE     ---       #1541
      010075A7H   LINE      CODE     ---       #1543
      010075D3H   LINE      CODE     ---       #1544
      010075D3H   LINE      CODE     ---       #1546
      010075F4H   LINE      CODE     ---       #1548
      01007620H   LINE      CODE     ---       #1550
      0100764CH   LINE      CODE     ---       #1551
      0100764CH   LINE      CODE     ---       #1553
      0100766EH   LINE      CODE     ---       #1554
      010076C5H   LINE      CODE     ---       #1556
LX51 LINKER/LOCATER V4.64.0.0                                                         06/13/2017  14:44:14  PAGE 55


      010076E7H   LINE      CODE     ---       #1557
      0100773EH   LINE      CODE     ---       #1560
      01007747H   LINE      CODE     ---       #1561
      0100777BH   LINE      CODE     ---       #1562
      010077B1H   LINE      CODE     ---       #1564
      010077E7H   LINE      CODE     ---       #1565
      0100781DH   LINE      CODE     ---       #1566
      0100781DH   LINE      CODE     ---       #1567
      0100781DH   LINE      CODE     ---       #1570
      0100782AH   LINE      CODE     ---       #1571
      0100782CH   LINE      CODE     ---       #1572
      01007835H   LINE      CODE     ---       #1573
      01007838H   LINE      CODE     ---       #1574
      0100783BH   LINE      CODE     ---       #1575
      0100784FH   LINE      CODE     ---       #1576
      01007850H   LINE      CODE     ---       #1577
      01007850H   LINE      CODE     ---       #1578
      01007853H   LINE      CODE     ---       #1579
      01007855H   LINE      CODE     ---       #1580
      01007868H   LINE      CODE     ---       #1581
      01007868H   LINE      CODE     ---       #1582
      01007869H   LINE      CODE     ---       #1583
      01007869H   LINE      CODE     ---       #1584
      01007872H   LINE      CODE     ---       #1585
      01007877H   LINE      CODE     ---       #1586
      01007878H   LINE      CODE     ---       #1587
      0100787DH   LINE      CODE     ---       #1588
      0100787DH   LINE      CODE     ---       #1589
      0100787DH   LINE      CODE     ---       #1590
      ---         BLOCKEND  ---      ---       LVL=0

      0100ABF4H   BLOCK     CODE     ---       LVL=0
      0100ABF4H   LINE      CODE     ---       #1592
      0100ABF4H   LINE      CODE     ---       #1595
      0100ABFCH   LINE      CODE     ---       #1597
      0100AC00H   LINE      CODE     ---       #1598
      0100AC00H   LINE      CODE     ---       #1599
      0100AC09H   LINE      CODE     ---       #1600
      0100AC0AH   LINE      CODE     ---       #1601
      0100AC0AH   LINE      CODE     ---       #1602
      0100AC13H   LINE      CODE     ---       #1603
      0100AC13H   LINE      CODE     ---       #1604
      ---         BLOCKEND  ---      ---       LVL=0

      ---         MODULE    ---      ---       GLOBALS
      02000B22H   PUBLIC    XDATA    BYTE      dev_pwm_limit
      00000021H.6 PUBLIC    BIT      BIT       tension_valid
      00000021H.5 PUBLIC    BIT      BIT       interrupt_flag
      02000B03H   PUBLIC    XDATA    ---       g_meas
      02000B01H   PUBLIC    XDATA    ---       pwm_sign
      02000AFBH   PUBLIC    XDATA    ---       ADC_buf
      02000AF7H   PUBLIC    XDATA    DWORD     timer_value0
      00000021H.4 PUBLIC    BIT      BIT       watchdog_flag
      00000021H.3 PUBLIC    BIT      BIT       reset_last_value_flag
      02000AEEH   PUBLIC    XDATA    ---       g_refNew
      02000A69H   PUBLIC    XDATA    ---       g_rx
      02000A60H   PUBLIC    XDATA    ---       g_refOld
      02000A5CH   PUBLIC    XDATA    LONG      dev_tension
      02000A58H   PUBLIC    XDATA    DWORD     timer_value
      00000021H.2 PUBLIC    BIT      BIT       cuff_flag
      02000A39H   PUBLIC    XDATA    ---       g_measOld
      02000A38H   PUBLIC    XDATA    BYTE      calibration_flag
      020009BEH   PUBLIC    XDATA    ---       g_mem
      020009B5H   PUBLIC    XDATA    ---       g_ref
      0200093BH   PUBLIC    XDATA    ---       c_mem
LX51 LINKER/LOCATER V4.64.0.0                                                         06/13/2017  14:44:14  PAGE 56


      000000CAH   SFRSYM    DATA     BYTE      SFRPRT5SEL
      000000DAH   SFRSYM    DATA     BYTE      SFRPRT6SEL
      000000D0H.6 SFRSYM    DATA     BIT       AC
      000000A8H.7 SFRSYM    DATA     BIT       EA
      000000A8H   SFRSYM    DATA     BYTE      IE
      00000085H   SFRSYM    DATA     BYTE      DPH1
      00000084H   SFRSYM    DATA     BYTE      DPL1
      000000D0H.7 SFRSYM    DATA     BIT       CY
      000000A0H   SFRSYM    DATA     BYTE      P2AX
      00000095H   SFRSYM    DATA     BYTE      DPX1
      00000081H   SFRSYM    DATA     BYTE      SP
      000000D0H.2 SFRSYM    DATA     BIT       OV
      00000080H   SFRSYM    DATA     BYTE      SFRPRT0DR
      00000090H   SFRSYM    DATA     BYTE      SFRPRT1DR
      000000F2H   SFRSYM    DATA     BYTE      SFRPRT12SEL
      00000098H   SFRSYM    DATA     BYTE      SFRPRT2DR
      000000B0H   SFRSYM    DATA     BYTE      SFRPRT3DR
      000000C0H   SFRSYM    DATA     BYTE      SFRPRT4DR
      000000FAH   SFRSYM    DATA     BYTE      SFRPRT15SEL
      000000C8H   SFRSYM    DATA     BYTE      SFRPRT5DR
      000000D8H   SFRSYM    DATA     BYTE      SFRPRT6DR
      00000089H   SFRSYM    DATA     BYTE      SFRPRT0PS
      00000091H   SFRSYM    DATA     BYTE      SFRPRT1PS
      00000099H   SFRSYM    DATA     BYTE      SFRPRT2PS
      000000B1H   SFRSYM    DATA     BYTE      SFRPRT3PS
      000000C1H   SFRSYM    DATA     BYTE      SFRPRT4PS
      000000C9H   SFRSYM    DATA     BYTE      SFRPRT5PS
      000000D9H   SFRSYM    DATA     BYTE      SFRPRT6PS
      000000EAH   SFRSYM    DATA     BYTE      MXAX
      000000F0H   SFRSYM    DATA     BYTE      B
      000000E0H   SFRSYM    DATA     BYTE      ACC
      000000D0H   SFRSYM    DATA     BIT       P
      000000D0H.3 SFRSYM    DATA     BIT       RS0
      000000D0H.4 SFRSYM    DATA     BIT       RS1
      00000083H   SFRSYM    DATA     BYTE      DPH
      000000E8H   SFRSYM    DATA     BYTE      SFRPRT12DR
      00000082H   SFRSYM    DATA     BYTE      DPL
      000000F8H   SFRSYM    DATA     BYTE      SFRPRT15DR
      00000086H   SFRSYM    DATA     BYTE      DPS
      000000E9H   SFRSYM    DATA     BYTE      SFRPRT12PS
      00000093H   SFRSYM    DATA     BYTE      DPX
      000000F9H   SFRSYM    DATA     BYTE      SFRPRT15PS
      000000D0H.5 SFRSYM    DATA     BIT       F0
      000000D0H.1 SFRSYM    DATA     BIT       F1
      0000008AH   SFRSYM    DATA     BYTE      SFRPRT0SEL
      000000D0H   SFRSYM    DATA     BYTE      PSW
      000000A2H   SFRSYM    DATA     BYTE      SFRPRT1SEL
      0000009AH   SFRSYM    DATA     BYTE      SFRPRT2SEL
      000000B2H   SFRSYM    DATA     BYTE      SFRPRT3SEL
      000000C2H   SFRSYM    DATA     BYTE      SFRPRT4SEL

      ---         MODULE    ---      ---       MAIN
      01007B73H   PUBLIC    CODE     ---       main
      000000CAH   SFRSYM    DATA     BYTE      SFRPRT5SEL
      000000DAH   SFRSYM    DATA     BYTE      SFRPRT6SEL
      000000D0H.6 SFRSYM    DATA     BIT       AC
      000000A8H.7 SFRSYM    DATA     BIT       EA
      000000A8H   SFRSYM    DATA     BYTE      IE
      00000085H   SFRSYM    DATA     BYTE      DPH1
      00000084H   SFRSYM    DATA     BYTE      DPL1
      000000D0H.7 SFRSYM    DATA     BIT       CY
      000000A0H   SFRSYM    DATA     BYTE      P2AX
      00000095H   SFRSYM    DATA     BYTE      DPX1
      00000081H   SFRSYM    DATA     BYTE      SP
      000000D0H.2 SFRSYM    DATA     BIT       OV
LX51 LINKER/LOCATER V4.64.0.0                                                         06/13/2017  14:44:14  PAGE 57


      00000080H   SFRSYM    DATA     BYTE      SFRPRT0DR
      00000090H   SFRSYM    DATA     BYTE      SFRPRT1DR
      000000F2H   SFRSYM    DATA     BYTE      SFRPRT12SEL
      00000098H   SFRSYM    DATA     BYTE      SFRPRT2DR
      000000B0H   SFRSYM    DATA     BYTE      SFRPRT3DR
      000000C0H   SFRSYM    DATA     BYTE      SFRPRT4DR
      000000FAH   SFRSYM    DATA     BYTE      SFRPRT15SEL
      000000C8H   SFRSYM    DATA     BYTE      SFRPRT5DR
      000000D8H   SFRSYM    DATA     BYTE      SFRPRT6DR
      00000089H   SFRSYM    DATA     BYTE      SFRPRT0PS
      00000091H   SFRSYM    DATA     BYTE      SFRPRT1PS
      00000099H   SFRSYM    DATA     BYTE      SFRPRT2PS
      000000B1H   SFRSYM    DATA     BYTE      SFRPRT3PS
      000000C1H   SFRSYM    DATA     BYTE      SFRPRT4PS
      000000C9H   SFRSYM    DATA     BYTE      SFRPRT5PS
      000000D9H   SFRSYM    DATA     BYTE      SFRPRT6PS
      000000EAH   SFRSYM    DATA     BYTE      MXAX
      000000F0H   SFRSYM    DATA     BYTE      B
      000000E0H   SFRSYM    DATA     BYTE      ACC
      000000D0H   SFRSYM    DATA     BIT       P
      000000D0H.3 SFRSYM    DATA     BIT       RS0
      000000D0H.4 SFRSYM    DATA     BIT       RS1
      00000083H   SFRSYM    DATA     BYTE      DPH
      000000E8H   SFRSYM    DATA     BYTE      SFRPRT12DR
      00000082H   SFRSYM    DATA     BYTE      DPL
      000000F8H   SFRSYM    DATA     BYTE      SFRPRT15DR
      00000086H   SFRSYM    DATA     BYTE      DPS
      000000E9H   SFRSYM    DATA     BYTE      SFRPRT12PS
      00000093H   SFRSYM    DATA     BYTE      DPX
      000000F9H   SFRSYM    DATA     BYTE      SFRPRT15PS
      000000D0H.5 SFRSYM    DATA     BIT       F0
      000000D0H.1 SFRSYM    DATA     BIT       F1
      0000008AH   SFRSYM    DATA     BYTE      SFRPRT0SEL
      000000D0H   SFRSYM    DATA     BYTE      PSW
      000000A2H   SFRSYM    DATA     BYTE      SFRPRT1SEL
      0000009AH   SFRSYM    DATA     BYTE      SFRPRT2SEL
      000000B2H   SFRSYM    DATA     BYTE      SFRPRT3SEL
      000000C2H   SFRSYM    DATA     BYTE      SFRPRT4SEL

      01007B73H   BLOCK     CODE     ---       LVL=0
      01007B73H   BLOCK     CODE     NEAR LAB  LVL=1
      02000000H   SYMBOL    XDATA    BYTE      i
      02000001H   SYMBOL    XDATA    BYTE      DMA_Chan
      02000002H   SYMBOL    XDATA    ---       DMA_TD
      ---         BLOCKEND  ---      ---       LVL=1
      01007B73H   LINE      CODE     ---       #77
      01007B73H   LINE      CODE     ---       #91
      01007B76H   LINE      CODE     ---       #92
      01007B79H   LINE      CODE     ---       #96
      01007B82H   LINE      CODE     ---       #97
      01007B87H   LINE      CODE     ---       #101
      01007B8AH   LINE      CODE     ---       #102
      01007B8DH   LINE      CODE     ---       #103
      01007B90H   LINE      CODE     ---       #105
      01007B93H   LINE      CODE     ---       #106
      01007B96H   LINE      CODE     ---       #108
      01007B9DH   LINE      CODE     ---       #112
      01007BA0H   LINE      CODE     ---       #114
      01007BA7H   LINE      CODE     ---       #118
      01007BAAH   LINE      CODE     ---       #119
      01007BAFH   LINE      CODE     ---       #120
      01007BB4H   LINE      CODE     ---       #121
      01007BB9H   LINE      CODE     ---       #122
      01007BBEH   LINE      CODE     ---       #127
      01007BC1H   LINE      CODE     ---       #128
LX51 LINKER/LOCATER V4.64.0.0                                                         06/13/2017  14:44:14  PAGE 58


      01007BC4H   LINE      CODE     ---       #129
      01007BC7H   LINE      CODE     ---       #130
      01007BCAH   LINE      CODE     ---       #139
      01007BCDH   LINE      CODE     ---       #140
      01007BD2H   LINE      CODE     ---       #143
      01007BE7H   LINE      CODE     ---       #144
      01007BEFH   LINE      CODE     ---       #145
      01007BFFH   LINE      CODE     ---       #146
      01007C16H   LINE      CODE     ---       #147
      01007C21H   LINE      CODE     ---       #149
      01007C2BH   LINE      CODE     ---       #151
      01007C30H   LINE      CODE     ---       #155
      01007C33H   LINE      CODE     ---       #156
      01007C36H   LINE      CODE     ---       #158
      01007C3EH   LINE      CODE     ---       #162
      01007C47H   LINE      CODE     ---       #165
      01007C57H   LINE      CODE     ---       #166
      01007C6FH   LINE      CODE     ---       #169
      01007C7FH   LINE      CODE     ---       #170
      01007C96H   LINE      CODE     ---       #171
      01007CA2H   LINE      CODE     ---       #172
      01007CA4H   LINE      CODE     ---       #176
      01007CACH   LINE      CODE     ---       #179
      01007CB3H   LINE      CODE     ---       #180
      01007CB7H   LINE      CODE     ---       #183
      01007CD7H   LINE      CODE     ---       #184
      01007CE0H   LINE      CODE     ---       #185
      01007CE7H   LINE      CODE     ---       #187
      01007CECH   LINE      CODE     ---       #189
      01007CFBH   LINE      CODE     ---       #190
      01007D00H   LINE      CODE     ---       #191
      01007D31H   LINE      CODE     ---       #192
      01007D39H   LINE      CODE     ---       #194
      01007D42H   LINE      CODE     ---       #195
      01007D49H   LINE      CODE     ---       #197
      01007D4EH   LINE      CODE     ---       #199
      01007D61H   LINE      CODE     ---       #201
      01007D69H   LINE      CODE     ---       #203
      01007D6EH   LINE      CODE     ---       #204
      01007D70H   LINE      CODE     ---       #206
      01007D78H   LINE      CODE     ---       #207
      01007D7DH   LINE      CODE     ---       #208
      01007D7FH   LINE      CODE     ---       #212
      01007D85H   LINE      CODE     ---       #213
      01007D8CH   LINE      CODE     ---       #215
      01007D91H   LINE      CODE     ---       #219
      01007D91H   LINE      CODE     ---       #220
      01007D91H   LINE      CODE     ---       #222
      01007D96H   LINE      CODE     ---       #225
      01007D99H   LINE      CODE     ---       #228
      01007D9FH   LINE      CODE     ---       #230
      01007DA2H   LINE      CODE     ---       #232
      01007DA7H   LINE      CODE     ---       #234
      01007DA9H   LINE      CODE     ---       #235
      01007DABH   LINE      CODE     ---       #237
      01007DAEH   LINE      CODE     ---       #238
      01007DB0H   LINE      CODE     ---       #240
      01007DB0H   LINE      CODE     ---       #241
      01007DB3H   LINE      CODE     ---       #243
      01007DB8H   LINE      CODE     ---       #245
      01007DBDH   LINE      CODE     ---       #246
      01007DBDH   LINE      CODE     ---       #247
      01007DBDH   LINE      CODE     ---       #248
      01007DBFH   LINE      CODE     ---       #251
      01007DC4H   LINE      CODE     ---       #254
LX51 LINKER/LOCATER V4.64.0.0                                                         06/13/2017  14:44:14  PAGE 59


      01007DCCH   LINE      CODE     ---       #256
      01007DD3H   LINE      CODE     ---       #257
      01007DD6H   LINE      CODE     ---       #258
      01007DD8H   LINE      CODE     ---       #259
      01007DD8H   LINE      CODE     ---       #260
      ---         BLOCKEND  ---      ---       LVL=0

      ---         MODULE    ---      ---       UTILS
      0100A979H   PUBLIC    CODE     ---       _LCRChecksum
      0100A0B4H   PUBLIC    CODE     ---       _check_enc_data
      01009F5BH   PUBLIC    CODE     ---       _filter_i2
      01009EE6H   PUBLIC    CODE     ---       _filter_i1
      000000CAH   SFRSYM    DATA     BYTE      SFRPRT5SEL
      000000DAH   SFRSYM    DATA     BYTE      SFRPRT6SEL
      000000D0H.6 SFRSYM    DATA     BIT       AC
      000000A8H.7 SFRSYM    DATA     BIT       EA
      000000A8H   SFRSYM    DATA     BYTE      IE
      00000085H   SFRSYM    DATA     BYTE      DPH1
      00000084H   SFRSYM    DATA     BYTE      DPL1
      000000D0H.7 SFRSYM    DATA     BIT       CY
      000000A0H   SFRSYM    DATA     BYTE      P2AX
      00000095H   SFRSYM    DATA     BYTE      DPX1
      00000081H   SFRSYM    DATA     BYTE      SP
      000000D0H.2 SFRSYM    DATA     BIT       OV
      00000080H   SFRSYM    DATA     BYTE      SFRPRT0DR
      00000090H   SFRSYM    DATA     BYTE      SFRPRT1DR
      000000F2H   SFRSYM    DATA     BYTE      SFRPRT12SEL
      00000098H   SFRSYM    DATA     BYTE      SFRPRT2DR
      000000B0H   SFRSYM    DATA     BYTE      SFRPRT3DR
      000000C0H   SFRSYM    DATA     BYTE      SFRPRT4DR
      000000FAH   SFRSYM    DATA     BYTE      SFRPRT15SEL
      000000C8H   SFRSYM    DATA     BYTE      SFRPRT5DR
      000000D8H   SFRSYM    DATA     BYTE      SFRPRT6DR
      00000089H   SFRSYM    DATA     BYTE      SFRPRT0PS
      00000091H   SFRSYM    DATA     BYTE      SFRPRT1PS
      00000099H   SFRSYM    DATA     BYTE      SFRPRT2PS
      000000B1H   SFRSYM    DATA     BYTE      SFRPRT3PS
      000000C1H   SFRSYM    DATA     BYTE      SFRPRT4PS
      000000C9H   SFRSYM    DATA     BYTE      SFRPRT5PS
      000000D9H   SFRSYM    DATA     BYTE      SFRPRT6PS
      000000EAH   SFRSYM    DATA     BYTE      MXAX
      000000F0H   SFRSYM    DATA     BYTE      B
      000000E0H   SFRSYM    DATA     BYTE      ACC
      000000D0H   SFRSYM    DATA     BIT       P
      000000D0H.3 SFRSYM    DATA     BIT       RS0
      000000D0H.4 SFRSYM    DATA     BIT       RS1
      00000083H   SFRSYM    DATA     BYTE      DPH
      000000E8H   SFRSYM    DATA     BYTE      SFRPRT12DR
      00000082H   SFRSYM    DATA     BYTE      DPL
      000000F8H   SFRSYM    DATA     BYTE      SFRPRT15DR
      00000086H   SFRSYM    DATA     BYTE      DPS
      000000E9H   SFRSYM    DATA     BYTE      SFRPRT12PS
      00000093H   SFRSYM    DATA     BYTE      DPX
      000000F9H   SFRSYM    DATA     BYTE      SFRPRT15PS
      000000D0H.5 SFRSYM    DATA     BIT       F0
      000000D0H.1 SFRSYM    DATA     BIT       F1
      0000008AH   SFRSYM    DATA     BYTE      SFRPRT0SEL
      000000D0H   SFRSYM    DATA     BYTE      PSW
      000000A2H   SFRSYM    DATA     BYTE      SFRPRT1SEL
      0000009AH   SFRSYM    DATA     BYTE      SFRPRT2SEL
      000000B2H   SFRSYM    DATA     BYTE      SFRPRT3SEL
      000000C2H   SFRSYM    DATA     BYTE      SFRPRT4SEL

      01009EE6H   BLOCK     CODE     ---       LVL=0
      00000004H   SYMBOL    DATA     LONG      new_value
LX51 LINKER/LOCATER V4.64.0.0                                                         06/13/2017  14:44:14  PAGE 60


      01009EE6H   BLOCK     CODE     NEAR LAB  LVL=1
      02000C1CH   SYMBOL    XDATA    LONG      old_value
      02000C20H   SYMBOL    XDATA    LONG      aux
      ---         BLOCKEND  ---      ---       LVL=1
      01009EE6H   LINE      CODE     ---       #56
      01009EE6H   LINE      CODE     ---       #60
      01009F33H   LINE      CODE     ---       #62
      01009F47H   LINE      CODE     ---       #64
      01009F5AH   LINE      CODE     ---       #65
      ---         BLOCKEND  ---      ---       LVL=0

      01009F5BH   BLOCK     CODE     ---       LVL=0
      00000004H   SYMBOL    DATA     LONG      new_value
      01009F5BH   BLOCK     CODE     NEAR LAB  LVL=1
      02000C24H   SYMBOL    XDATA    LONG      old_value
      02000C28H   SYMBOL    XDATA    LONG      aux
      ---         BLOCKEND  ---      ---       LVL=1
      01009F5BH   LINE      CODE     ---       #67
      01009F5BH   LINE      CODE     ---       #71
      01009FA8H   LINE      CODE     ---       #73
      01009FBCH   LINE      CODE     ---       #75
      01009FCFH   LINE      CODE     ---       #76
      ---         BLOCKEND  ---      ---       LVL=0
      00000004H   SYMBOL    DATA     LONG      new_value
      02000C2CH   SYMBOL    XDATA    LONG      old_value
      02000C30H   SYMBOL    XDATA    LONG      aux
      00000004H   SYMBOL    DATA     LONG      new_value
      02000C34H   SYMBOL    XDATA    LONG      old_value
      02000C38H   SYMBOL    XDATA    LONG      aux
      00000004H   SYMBOL    DATA     LONG      new_value
      02000C3CH   SYMBOL    XDATA    LONG      old_value
      02000C40H   SYMBOL    XDATA    LONG      aux

      0100A0B4H   BLOCK     CODE     ---       LVL=0
      00000001H   SYMBOL    DATA     ---       value
      0100A0B4H   BLOCK     CODE     NEAR LAB  LVL=1
      00000010H   SYMBOL    IDATA    ---       p
      00000024H   SYMBOL    DATA     BYTE      a
      ---         BLOCKEND  ---      ---       LVL=1
      0100A0B4H   LINE      CODE     ---       #122
      0100A0B4H   LINE      CODE     ---       #124
      0100A0BEH   LINE      CODE     ---       #125
      0100A0C3H   LINE      CODE     ---       #127
      0100A0D7H   LINE      CODE     ---       #128
      0100A0EBH   LINE      CODE     ---       #129
      0100A0FFH   LINE      CODE     ---       #130
      0100A10CH   LINE      CODE     ---       #132
      0100A11EH   LINE      CODE     ---       #134
      ---         BLOCKEND  ---      ---       LVL=0

      0100A979H   BLOCK     CODE     ---       LVL=0
      0200090BH   SYMBOL    XDATA    ---       data_array
      00000005H   SYMBOL    DATA     BYTE      data_length
      0100A984H   BLOCK     CODE     NEAR LAB  LVL=1
      00000078H   SYMBOL    DATA     BYTE      i
      00000079H   SYMBOL    DATA     BYTE      checksum
      ---         BLOCKEND  ---      ---       LVL=1
      0100A979H   LINE      CODE     ---       #143
      0100A984H   LINE      CODE     ---       #146
      0100A987H   LINE      CODE     ---       #148
      0100A98FH   LINE      CODE     ---       #149
      0100A9A8H   LINE      CODE     ---       #151
      0100A9AAH   LINE      CODE     ---       #152
      ---         BLOCKEND  ---      ---       LVL=0

LX51 LINKER/LOCATER V4.64.0.0                                                         06/13/2017  14:44:14  PAGE 61


      ---         MODULE    ---      ---       INTERRUPTIONS
      0100BD7DH   PUBLIC    CONST    ---       hitech_pwm_preload_values_6v
      0100BD59H   PUBLIC    CONST    ---       hitech_pwm_preload_values
      0100BD3CH   PUBLIC    CONST    ---       pwm_preload_values
      01008F21H   PUBLIC    CODE     ---       pwm_limit_search
      01007FEFH   PUBLIC    CODE     ---       calibration
      0100787EH   PUBLIC    CODE     ---       _encoder_reading
      0100927CH   PUBLIC    CODE     ---       analog_read_end
      01004BEAH   PUBLIC    CODE     ---       _motor_control
      0100937EH   PUBLIC    CODE     ---       function_scheduler
      01008DFAH   PUBLIC    CODE     ---       interrupt_manager
      0100B1DBH   PUBLIC    CODE     ---       ISR_RS485_RX_ExInterrupt
      0100B1D8H   PUBLIC    CODE     ---       ISR_WATCHDOG_Handler
      000000CAH   SFRSYM    DATA     BYTE      SFRPRT5SEL
      000000DAH   SFRSYM    DATA     BYTE      SFRPRT6SEL
      000000D0H.6 SFRSYM    DATA     BIT       AC
      000000A8H.7 SFRSYM    DATA     BIT       EA
      000000A8H   SFRSYM    DATA     BYTE      IE
      00000085H   SFRSYM    DATA     BYTE      DPH1
      00000084H   SFRSYM    DATA     BYTE      DPL1
      000000D0H.7 SFRSYM    DATA     BIT       CY
      000000A0H   SFRSYM    DATA     BYTE      P2AX
      00000095H   SFRSYM    DATA     BYTE      DPX1
      00000081H   SFRSYM    DATA     BYTE      SP
      000000D0H.2 SFRSYM    DATA     BIT       OV
      00000080H   SFRSYM    DATA     BYTE      SFRPRT0DR
      00000090H   SFRSYM    DATA     BYTE      SFRPRT1DR
      000000F2H   SFRSYM    DATA     BYTE      SFRPRT12SEL
      00000098H   SFRSYM    DATA     BYTE      SFRPRT2DR
      000000B0H   SFRSYM    DATA     BYTE      SFRPRT3DR
      000000C0H   SFRSYM    DATA     BYTE      SFRPRT4DR
      000000FAH   SFRSYM    DATA     BYTE      SFRPRT15SEL
      000000C8H   SFRSYM    DATA     BYTE      SFRPRT5DR
      000000D8H   SFRSYM    DATA     BYTE      SFRPRT6DR
      00000089H   SFRSYM    DATA     BYTE      SFRPRT0PS
      00000091H   SFRSYM    DATA     BYTE      SFRPRT1PS
      00000099H   SFRSYM    DATA     BYTE      SFRPRT2PS
      000000B1H   SFRSYM    DATA     BYTE      SFRPRT3PS
      000000C1H   SFRSYM    DATA     BYTE      SFRPRT4PS
      000000C9H   SFRSYM    DATA     BYTE      SFRPRT5PS
      000000D9H   SFRSYM    DATA     BYTE      SFRPRT6PS
      000000EAH   SFRSYM    DATA     BYTE      MXAX
      000000F0H   SFRSYM    DATA     BYTE      B
      000000E0H   SFRSYM    DATA     BYTE      ACC
      000000D0H   SFRSYM    DATA     BIT       P
      000000D0H.3 SFRSYM    DATA     BIT       RS0
      000000D0H.4 SFRSYM    DATA     BIT       RS1
      00000083H   SFRSYM    DATA     BYTE      DPH
      000000E8H   SFRSYM    DATA     BYTE      SFRPRT12DR
      00000082H   SFRSYM    DATA     BYTE      DPL
      000000F8H   SFRSYM    DATA     BYTE      SFRPRT15DR
      00000086H   SFRSYM    DATA     BYTE      DPS
      000000E9H   SFRSYM    DATA     BYTE      SFRPRT12PS
      00000093H   SFRSYM    DATA     BYTE      DPX
      000000F9H   SFRSYM    DATA     BYTE      SFRPRT15PS
      000000D0H.5 SFRSYM    DATA     BIT       F0
      000000D0H.1 SFRSYM    DATA     BIT       F1
      0000008AH   SFRSYM    DATA     BYTE      SFRPRT0SEL
      000000D0H   SFRSYM    DATA     BYTE      PSW
      000000A2H   SFRSYM    DATA     BYTE      SFRPRT1SEL
      0000009AH   SFRSYM    DATA     BYTE      SFRPRT2SEL
      000000B2H   SFRSYM    DATA     BYTE      SFRPRT3SEL
      000000C2H   SFRSYM    DATA     BYTE      SFRPRT4SEL

      0100B1D8H   BLOCK     CODE     ---       LVL=0
LX51 LINKER/LOCATER V4.64.0.0                                                         06/13/2017  14:44:14  PAGE 62


      0100B1D8H   LINE      CODE     ---       #161
      0100B1D8H   LINE      CODE     ---       #165
      0100B1DAH   LINE      CODE     ---       #167
      ---         BLOCKEND  ---      ---       LVL=0

      0100B1DBH   BLOCK     CODE     ---       LVL=0
      0100B1DBH   LINE      CODE     ---       #173
      0100B1DBH   LINE      CODE     ---       #177
      0100B1DDH   LINE      CODE     ---       #179
      ---         BLOCKEND  ---      ---       LVL=0

      01008DFAH   BLOCK     CODE     ---       LVL=0
      01008DFAH   BLOCK     CODE     NEAR LAB  LVL=1
      00000008H   SYMBOL    DATA     BYTE      state
      00000009H   SYMBOL    DATA     BYTE      data_packet_index
      0000000AH   SYMBOL    DATA     BYTE      data_packet_length
      02000B23H   SYMBOL    XDATA    ---       data_packet_buffer
      0000000BH   SYMBOL    DATA     ---       rx_queue
      00000064H   SYMBOL    DATA     BYTE      rx_data
      00000020H.0 SYMBOL    BIT      BIT       rx_data_type
      00000065H   SYMBOL    DATA     BYTE      package_count
      ---         BLOCKEND  ---      ---       LVL=1
      01008DFAH   LINE      CODE     ---       #196
      01008DFAH   LINE      CODE     ---       #212
      01008DFDH   LINE      CODE     ---       #218
      01008E10H   LINE      CODE     ---       #222
      01008E15H   LINE      CODE     ---       #224
      01008E2DH   LINE      CODE     ---       #226
      01008E2DH   LINE      CODE     ---       #228
      01008E30H   LINE      CODE     ---       #229
      01008E33H   LINE      CODE     ---       #230
      01008E36H   LINE      CODE     ---       #233
      01008E40H   LINE      CODE     ---       #234
      01008E43H   LINE      CODE     ---       #235
      01008E45H   LINE      CODE     ---       #236
      01008E47H   LINE      CODE     ---       #237
      01008E4AH   LINE      CODE     ---       #238
      01008E4CH   LINE      CODE     ---       #239
      01008E5CH   LINE      CODE     ---       #242
      01008E61H   LINE      CODE     ---       #243
      01008E63H   LINE      CODE     ---       #246
      01008E63H   LINE      CODE     ---       #249
      01008E6FH   LINE      CODE     ---       #250
      01008E73H   LINE      CODE     ---       #252
      01008E75H   LINE      CODE     ---       #254
      01008E78H   LINE      CODE     ---       #255
      01008E7BH   LINE      CODE     ---       #256
      01008E7DH   LINE      CODE     ---       #259
      01008E7DH   LINE      CODE     ---       #262
      01008E80H   LINE      CODE     ---       #264
      01008E87H   LINE      CODE     ---       #265
      01008E8AH   LINE      CODE     ---       #266
      01008E8CH   LINE      CODE     ---       #267
      01008E96H   LINE      CODE     ---       #268
      01008E99H   LINE      CODE     ---       #269
      01008E9BH   LINE      CODE     ---       #270
      01008E9EH   LINE      CODE     ---       #271
      01008EA1H   LINE      CODE     ---       #273
      01008EA4H   LINE      CODE     ---       #274
      01008EAAH   LINE      CODE     ---       #276
      01008EADH   LINE      CODE     ---       #277
      01008EADH   LINE      CODE     ---       #278
      01008EB0H   LINE      CODE     ---       #281
      01008EB0H   LINE      CODE     ---       #283
      01008EBEH   LINE      CODE     ---       #284
LX51 LINKER/LOCATER V4.64.0.0                                                         06/13/2017  14:44:14  PAGE 63


      01008EC0H   LINE      CODE     ---       #287
      01008ECAH   LINE      CODE     ---       #289
      01008ECDH   LINE      CODE     ---       #291
      01008EE0H   LINE      CODE     ---       #292
      01008EE9H   LINE      CODE     ---       #293
      01008EEFH   LINE      CODE     ---       #294
      01008EF2H   LINE      CODE     ---       #295
      01008EF2H   LINE      CODE     ---       #297
      01008EF5H   LINE      CODE     ---       #298
      01008EF7H   LINE      CODE     ---       #299
      01008EF9H   LINE      CODE     ---       #300
      01008EFBH   LINE      CODE     ---       #302
      01008EFBH   LINE      CODE     ---       #303
      01008EFEH   LINE      CODE     ---       #306
      01008EFEH   LINE      CODE     ---       #307
      01008F07H   LINE      CODE     ---       #308
      01008F09H   LINE      CODE     ---       #309
      01008F0BH   LINE      CODE     ---       #310
      01008F10H   LINE      CODE     ---       #311
      01008F15H   LINE      CODE     ---       #312
      01008F18H   LINE      CODE     ---       #313
      01008F1AH   LINE      CODE     ---       #314
      01008F1AH   LINE      CODE     ---       #315
      01008F1DH   LINE      CODE     ---       #316
      01008F1DH   LINE      CODE     ---       #317
      01008F20H   LINE      CODE     ---       #318
      ---         BLOCKEND  ---      ---       LVL=0

      0100937EH   BLOCK     CODE     ---       LVL=0
      0100937EH   BLOCK     CODE     NEAR LAB  LVL=1
      02000BA3H   SYMBOL    XDATA    WORD      counter_calibration
      ---         BLOCKEND  ---      ---       LVL=1
      0100937EH   LINE      CODE     ---       #328
      0100937EH   LINE      CODE     ---       #334
      01009387H   LINE      CODE     ---       #336
      0100938CH   LINE      CODE     ---       #340
      0100938FH   LINE      CODE     ---       #341
      01009391H   LINE      CODE     ---       #342
      01009394H   LINE      CODE     ---       #343
      01009394H   LINE      CODE     ---       #347
      0100939AH   LINE      CODE     ---       #351
      0100939DH   LINE      CODE     ---       #352
      0100939FH   LINE      CODE     ---       #353
      010093A2H   LINE      CODE     ---       #354
      010093A2H   LINE      CODE     ---       #356
      010093A9H   LINE      CODE     ---       #360
      010093ACH   LINE      CODE     ---       #361
      010093AEH   LINE      CODE     ---       #362
      010093B1H   LINE      CODE     ---       #363
      010093B1H   LINE      CODE     ---       #365
      010093B8H   LINE      CODE     ---       #369
      010093BBH   LINE      CODE     ---       #370
      010093BDH   LINE      CODE     ---       #371
      010093C0H   LINE      CODE     ---       #372
      010093C0H   LINE      CODE     ---       #376
      010093C5H   LINE      CODE     ---       #380
      010093C8H   LINE      CODE     ---       #381
      010093CAH   LINE      CODE     ---       #382
      010093CDH   LINE      CODE     ---       #383
      010093CDH   LINE      CODE     ---       #385
      010093D2H   LINE      CODE     ---       #389
      010093D5H   LINE      CODE     ---       #390
      010093D7H   LINE      CODE     ---       #391
      010093DAH   LINE      CODE     ---       #392
      010093DAH   LINE      CODE     ---       #396
LX51 LINKER/LOCATER V4.64.0.0                                                         06/13/2017  14:44:14  PAGE 64


      010093DDH   LINE      CODE     ---       #401
      010093E9H   LINE      CODE     ---       #402
      010093F5H   LINE      CODE     ---       #403
      010093F8H   LINE      CODE     ---       #404
      010093FFH   LINE      CODE     ---       #405
      010093FFH   LINE      CODE     ---       #406
      0100940DH   LINE      CODE     ---       #407
      0100940DH   LINE      CODE     ---       #410
      01009410H   LINE      CODE     ---       #411
      01009412H   LINE      CODE     ---       #412
      01009415H   LINE      CODE     ---       #413
      01009415H   LINE      CODE     ---       #415
      01009418H   LINE      CODE     ---       #416
      0100941BH   LINE      CODE     ---       #418
      0100941EH   LINE      CODE     ---       #419
      01009420H   LINE      CODE     ---       #420
      01009423H   LINE      CODE     ---       #421
      01009423H   LINE      CODE     ---       #426
      01009436H   LINE      CODE     ---       #427
      01009449H   LINE      CODE     ---       #430
      0100945CH   LINE      CODE     ---       #432
      0100945FH   LINE      CODE     ---       #433
      01009461H   LINE      CODE     ---       #434
      01009464H   LINE      CODE     ---       #435
      01009464H   LINE      CODE     ---       #439
      0100946DH   LINE      CODE     ---       #440
      01009478H   LINE      CODE     ---       #442
      ---         BLOCKEND  ---      ---       LVL=0

      01004BEAH   BLOCK     CODE     ---       LVL=0
      00000007H   SYMBOL    DATA     BYTE      idx
      01004BEAH   BLOCK     CODE     NEAR LAB  LVL=1
      00000023H   SYMBOL    DATA     BYTE      index
      00000024H   SYMBOL    DATA     LONG      curr_ref
      00000028H   SYMBOL    DATA     LONG      pwm_input
      0000002CH   SYMBOL    DATA     LONG      pos_error
      00000030H   SYMBOL    DATA     LONG      curr_error
      00000034H   SYMBOL    DATA     LONG      k_p
      00000038H   SYMBOL    DATA     LONG      k_i
      0000003CH   SYMBOL    DATA     LONG      k_d
      00000040H   SYMBOL    DATA     LONG      k_p_c
      00000044H   SYMBOL    DATA     LONG      k_i_c
      00000048H   SYMBOL    DATA     LONG      k_d_c
      0000004CH   SYMBOL    DATA     LONG      k_p_dl
      00000050H   SYMBOL    DATA     LONG      k_i_dl
      00000054H   SYMBOL    DATA     LONG      k_d_dl
      00000058H   SYMBOL    DATA     LONG      k_p_c_dl
      0000005CH   SYMBOL    DATA     LONG      k_i_c_dl
      00000060H   SYMBOL    DATA     LONG      k_d_c_dl
      00000021H.7 SYMBOL    BIT      BIT       dirM0
      00000022H.0 SYMBOL    BIT      BIT       dirM1
      02000BA5H   SYMBOL    XDATA    ---       prev_curr
      02000BADH   SYMBOL    XDATA    ---       pos_error_sum
      02000BB5H   SYMBOL    XDATA    ---       curr_error_sum
      ---         BLOCKEND  ---      ---       LVL=1
      01004BEAH   LINE      CODE     ---       #449
      01004BEAH   LINE      CODE     ---       #451
      01004BECH   LINE      CODE     ---       #455
      01004BF5H   LINE      CODE     ---       #461
      01004C0AH   LINE      CODE     ---       #462
      01004C1DH   LINE      CODE     ---       #463
      01004C30H   LINE      CODE     ---       #465
      01004C43H   LINE      CODE     ---       #466
      01004C56H   LINE      CODE     ---       #467
      01004C69H   LINE      CODE     ---       #469
LX51 LINKER/LOCATER V4.64.0.0                                                         06/13/2017  14:44:14  PAGE 65


      01004C7CH   LINE      CODE     ---       #470
      01004C8FH   LINE      CODE     ---       #471
      01004CA2H   LINE      CODE     ---       #473
      01004CB5H   LINE      CODE     ---       #474
      01004CC8H   LINE      CODE     ---       #475
      01004CDBH   LINE      CODE     ---       #487
      01004CE5H   LINE      CODE     ---       #490
      01004D02H   LINE      CODE     ---       #491
      01004D02H   LINE      CODE     ---       #502
      01004D45H   LINE      CODE     ---       #504
      01004D48H   LINE      CODE     ---       #505
      01004D4AH   LINE      CODE     ---       #506
      01004D4DH   LINE      CODE     ---       #507
      01004D4DH   LINE      CODE     ---       #510
      01004D80H   LINE      CODE     ---       #513
      01004DA8H   LINE      CODE     ---       #514
      01004DC4H   LINE      CODE     ---       #515
      01004DC4H   LINE      CODE     ---       #516
      01004DECH   LINE      CODE     ---       #517
      01004E06H   LINE      CODE     ---       #518
      01004E06H   LINE      CODE     ---       #520
      01004E09H   LINE      CODE     ---       #521
      01004E0BH   LINE      CODE     ---       #522
      01004E0EH   LINE      CODE     ---       #523
      01004E0EH   LINE      CODE     ---       #525
      01004E17H   LINE      CODE     ---       #527
      01004E29H   LINE      CODE     ---       #529
      01004E4CH   LINE      CODE     ---       #530
      01004E73H   LINE      CODE     ---       #532
      01004E93H   LINE      CODE     ---       #533
      01004E93H   LINE      CODE     ---       #535
      01004E96H   LINE      CODE     ---       #536
      01004E98H   LINE      CODE     ---       #537
      01004E9BH   LINE      CODE     ---       #538
      01004E9BH   LINE      CODE     ---       #541
      01004EAEH   LINE      CODE     ---       #542
      01004EF1H   LINE      CODE     ---       #545
      01004F04H   LINE      CODE     ---       #546
      01004F67H   LINE      CODE     ---       #549
      01004F6AH   LINE      CODE     ---       #550
      01004F6CH   LINE      CODE     ---       #551
      01004F6FH   LINE      CODE     ---       #552
      01004F6FH   LINE      CODE     ---       #557
      01004F73H   LINE      CODE     ---       #558
      01004F85H   LINE      CODE     ---       #559
      01004F8AH   LINE      CODE     ---       #562
      01004F8CH   LINE      CODE     ---       #564
      01004F8FH   LINE      CODE     ---       #565
      01004FA2H   LINE      CODE     ---       #566
      01004FA7H   LINE      CODE     ---       #569
      01004FA9H   LINE      CODE     ---       #571
      01004FA9H   LINE      CODE     ---       #573
      01004FACH   LINE      CODE     ---       #575
      01004FACH   LINE      CODE     ---       #585
      01004FEFH   LINE      CODE     ---       #587
      01005022H   LINE      CODE     ---       #589
      01005025H   LINE      CODE     ---       #590
      01005027H   LINE      CODE     ---       #591
      0100502AH   LINE      CODE     ---       #592
      0100502AH   LINE      CODE     ---       #595
      01005052H   LINE      CODE     ---       #596
      0100506EH   LINE      CODE     ---       #597
      0100506EH   LINE      CODE     ---       #598
      01005096H   LINE      CODE     ---       #599
      010050B0H   LINE      CODE     ---       #600
LX51 LINKER/LOCATER V4.64.0.0                                                         06/13/2017  14:44:14  PAGE 66


      010050B0H   LINE      CODE     ---       #603
      010050B9H   LINE      CODE     ---       #605
      010050BCH   LINE      CODE     ---       #606
      010050BEH   LINE      CODE     ---       #607
      010050C1H   LINE      CODE     ---       #608
      010050C1H   LINE      CODE     ---       #611
      010050D4H   LINE      CODE     ---       #612
      010050FAH   LINE      CODE     ---       #615
      0100510DH   LINE      CODE     ---       #616
      01005145H   LINE      CODE     ---       #619
      01005158H   LINE      CODE     ---       #620
      010051BBH   LINE      CODE     ---       #622
      010051BEH   LINE      CODE     ---       #623
      010051C0H   LINE      CODE     ---       #624
      010051C3H   LINE      CODE     ---       #625
      010051C3H   LINE      CODE     ---       #628
      010051DFH   LINE      CODE     ---       #629
      010051F5H   LINE      CODE     ---       #630
      010051F5H   LINE      CODE     ---       #631
      01005217H   LINE      CODE     ---       #632
      01005231H   LINE      CODE     ---       #633
      01005231H   LINE      CODE     ---       #635
      01005234H   LINE      CODE     ---       #636
      01005236H   LINE      CODE     ---       #637
      01005239H   LINE      CODE     ---       #638
      01005239H   LINE      CODE     ---       #641
      01005269H   LINE      CODE     ---       #643
      0100529CH   LINE      CODE     ---       #645
      010052C4H   LINE      CODE     ---       #646
      010052E0H   LINE      CODE     ---       #647
      010052E0H   LINE      CODE     ---       #648
      01005308H   LINE      CODE     ---       #649
      01005322H   LINE      CODE     ---       #650
      01005322H   LINE      CODE     ---       #652
      01005325H   LINE      CODE     ---       #653
      01005327H   LINE      CODE     ---       #654
      0100532AH   LINE      CODE     ---       #655
      0100532AH   LINE      CODE     ---       #659
      01005333H   LINE      CODE     ---       #662
      01005345H   LINE      CODE     ---       #663
      0100536BH   LINE      CODE     ---       #666
      0100537EH   LINE      CODE     ---       #667
      010053B6H   LINE      CODE     ---       #670
      010053C9H   LINE      CODE     ---       #671
      0100542DH   LINE      CODE     ---       #674
      01005457H   LINE      CODE     ---       #676
      0100545AH   LINE      CODE     ---       #677
      0100545CH   LINE      CODE     ---       #678
      0100545FH   LINE      CODE     ---       #679
      0100545FH   LINE      CODE     ---       #681
      01005463H   LINE      CODE     ---       #682
      01005475H   LINE      CODE     ---       #683
      0100547AH   LINE      CODE     ---       #686
      0100547CH   LINE      CODE     ---       #688
      0100547FH   LINE      CODE     ---       #689
      01005492H   LINE      CODE     ---       #690
      01005497H   LINE      CODE     ---       #693
      01005499H   LINE      CODE     ---       #695
      01005499H   LINE      CODE     ---       #697
      0100549CH   LINE      CODE     ---       #699
      0100549CH   LINE      CODE     ---       #702
      010054CFH   LINE      CODE     ---       #705
      010054EBH   LINE      CODE     ---       #706
      010054FFH   LINE      CODE     ---       #709
      0100552AH   LINE      CODE     ---       #712
LX51 LINKER/LOCATER V4.64.0.0                                                         06/13/2017  14:44:14  PAGE 67


      0100555DH   LINE      CODE     ---       #715
      01005585H   LINE      CODE     ---       #716
      010055A1H   LINE      CODE     ---       #717
      010055A1H   LINE      CODE     ---       #718
      010055C6H   LINE      CODE     ---       #719
      010055DDH   LINE      CODE     ---       #720
      010055DDH   LINE      CODE     ---       #723
      010055E6H   LINE      CODE     ---       #726
      010055F8H   LINE      CODE     ---       #727
      01005624H   LINE      CODE     ---       #731
      01005637H   LINE      CODE     ---       #732
      01005674H   LINE      CODE     ---       #735
      01005687H   LINE      CODE     ---       #736
      010056EBH   LINE      CODE     ---       #739
      010056FEH   LINE      CODE     ---       #740
      01005707H   LINE      CODE     ---       #743
      01005731H   LINE      CODE     ---       #745
      01005735H   LINE      CODE     ---       #746
      01005747H   LINE      CODE     ---       #747
      0100574CH   LINE      CODE     ---       #750
      0100574EH   LINE      CODE     ---       #752
      01005751H   LINE      CODE     ---       #753
      01005764H   LINE      CODE     ---       #754
      01005768H   LINE      CODE     ---       #757
      0100576AH   LINE      CODE     ---       #759
      0100576AH   LINE      CODE     ---       #761
      0100576CH   LINE      CODE     ---       #763
      0100576CH   LINE      CODE     ---       #765
      0100579FH   LINE      CODE     ---       #767
      010057A3H   LINE      CODE     ---       #768
      010057B5H   LINE      CODE     ---       #769
      010057B9H   LINE      CODE     ---       #772
      010057BBH   LINE      CODE     ---       #774
      010057BDH   LINE      CODE     ---       #775
      010057D0H   LINE      CODE     ---       #776
      010057D4H   LINE      CODE     ---       #779
      010057D6H   LINE      CODE     ---       #781
      010057D6H   LINE      CODE     ---       #783
      010057D6H   LINE      CODE     ---       #785
      010057D6H   LINE      CODE     ---       #786
      010057D6H   LINE      CODE     ---       #787
      010057D6H   LINE      CODE     ---       #789
      010057D9H   LINE      CODE     ---       #790
      010057DBH   LINE      CODE     ---       #791
      010057DEH   LINE      CODE     ---       #792
      010057DEH   LINE      CODE     ---       #795
      010057F2H   LINE      CODE     ---       #796
      010057FCH   LINE      CODE     ---       #797
      01005811H   LINE      CODE     ---       #798
      0100581CH   LINE      CODE     ---       #800
      0100581FH   LINE      CODE     ---       #801
      01005821H   LINE      CODE     ---       #802
      01005824H   LINE      CODE     ---       #803
      01005824H   LINE      CODE     ---       #806
      0100582CH   LINE      CODE     ---       #807
      01005863H   LINE      CODE     ---       #811
      01005866H   LINE      CODE     ---       #812
      01005869H   LINE      CODE     ---       #813
      01005870H   LINE      CODE     ---       #815
      01005875H   LINE      CODE     ---       #816
      01005877H   LINE      CODE     ---       #817
      01005877H   LINE      CODE     ---       #818
      0100587AH   LINE      CODE     ---       #819
      01005881H   LINE      CODE     ---       #821
      01005886H   LINE      CODE     ---       #822
LX51 LINKER/LOCATER V4.64.0.0                                                         06/13/2017  14:44:14  PAGE 68


      01005886H   LINE      CODE     ---       #824
      01005889H   LINE      CODE     ---       #825
      0100588BH   LINE      CODE     ---       #826
      0100588EH   LINE      CODE     ---       #827
      0100588EH   LINE      CODE     ---       #829
      01005892H   LINE      CODE     ---       #830
      010058CCH   LINE      CODE     ---       #831
      010058D6H   LINE      CODE     ---       #832
      010058D8H   LINE      CODE     ---       #833
      010058D8H   LINE      CODE     ---       #834
      01005913H   LINE      CODE     ---       #835
      0100591DH   LINE      CODE     ---       #836
      0100591DH   LINE      CODE     ---       #838
      01005920H   LINE      CODE     ---       #839
      01005922H   LINE      CODE     ---       #840
      01005925H   LINE      CODE     ---       #841
      01005925H   LINE      CODE     ---       #842
      ---         BLOCKEND  ---      ---       LVL=0

      0100927CH   BLOCK     CODE     ---       LVL=0
      0100927CH   LINE      CODE     ---       #848
      0100927CH   LINE      CODE     ---       #869
      01009282H   LINE      CODE     ---       #870
      01009285H   LINE      CODE     ---       #871
      01009287H   LINE      CODE     ---       #872
      0100928AH   LINE      CODE     ---       #873
      0100928AH   LINE      CODE     ---       #874
      0100928CH   LINE      CODE     ---       #877
      010092B4H   LINE      CODE     ---       #879
      010092B7H   LINE      CODE     ---       #880
      010092B9H   LINE      CODE     ---       #881
      010092BCH   LINE      CODE     ---       #882
      010092BCH   LINE      CODE     ---       #886
      010092D8H   LINE      CODE     ---       #889
      010092DBH   LINE      CODE     ---       #893
      010092DEH   LINE      CODE     ---       #894
      010092E0H   LINE      CODE     ---       #895
      010092E3H   LINE      CODE     ---       #896
      010092E3H   LINE      CODE     ---       #899
      01009322H   LINE      CODE     ---       #903
      01009325H   LINE      CODE     ---       #904
      01009327H   LINE      CODE     ---       #905
      0100932AH   LINE      CODE     ---       #906
      0100932AH   LINE      CODE     ---       #907
      01009369H   LINE      CODE     ---       #911
      0100936CH   LINE      CODE     ---       #912
      0100936EH   LINE      CODE     ---       #913
      01009371H   LINE      CODE     ---       #914
      01009371H   LINE      CODE     ---       #915
      01009372H   LINE      CODE     ---       #916
      01009372H   LINE      CODE     ---       #917
      01009379H   LINE      CODE     ---       #918
      0100937DH   LINE      CODE     ---       #919
      0100937DH   LINE      CODE     ---       #920
      ---         BLOCKEND  ---      ---       LVL=0

      0100787EH   BLOCK     CODE     ---       LVL=0
      00000007H   SYMBOL    DATA     BYTE      idx
      02000003H   SYMBOL    XDATA    BYTE      flag
      01007883H   BLOCK     CODE     NEAR LAB  LVL=1
      00000023H   SYMBOL    DATA     BYTE      index
      00000003H   SYMBOL    DATA     BYTE      jj
      02000004H   SYMBOL    XDATA    DWORD     data_encoder
      02000008H   SYMBOL    XDATA    LONG      value_encoder
      0200000CH   SYMBOL    XDATA    LONG      aux
LX51 LINKER/LOCATER V4.64.0.0                                                         06/13/2017  14:44:14  PAGE 69


      02000BBDH   SYMBOL    XDATA    ---       last_value_encoder
      02000BC9H   SYMBOL    XDATA    ---       error
      00000022H.1 SYMBOL    BIT      BIT       only_first_time
      ---         BLOCKEND  ---      ---       LVL=1
      0100787EH   LINE      CODE     ---       #926
      01007883H   LINE      CODE     ---       #927
      01007883H   LINE      CODE     ---       #928
      01007885H   LINE      CODE     ---       #946
      0100788FH   LINE      CODE     ---       #949
      01007892H   LINE      CODE     ---       #950
      0100789AH   LINE      CODE     ---       #951
      010078B0H   LINE      CODE     ---       #952
      010078B2H   LINE      CODE     ---       #953
      010078B4H   LINE      CODE     ---       #954
      010078B4H   LINE      CODE     ---       #957
      010078B8H   LINE      CODE     ---       #958
      010078CBH   LINE      CODE     ---       #959
      010078CBH   LINE      CODE     ---       #960
      010078D0H   LINE      CODE     ---       #961
      010078E3H   LINE      CODE     ---       #962
      010078E3H   LINE      CODE     ---       #963
      010078E8H   LINE      CODE     ---       #964
      010078FBH   LINE      CODE     ---       #966
      0100790CH   LINE      CODE     ---       #967
      0100790CH   LINE      CODE     ---       #968
      0100790CH   LINE      CODE     ---       #970
      0100791AH   LINE      CODE     ---       #971
      01007920H   LINE      CODE     ---       #972
      0100794DH   LINE      CODE     ---       #974
      01007998H   LINE      CODE     ---       #977
      0100799BH   LINE      CODE     ---       #978
      010079BBH   LINE      CODE     ---       #980
      010079C0H   LINE      CODE     ---       #981
      010079C2H   LINE      CODE     ---       #982
      010079C2H   LINE      CODE     ---       #985
      010079F9H   LINE      CODE     ---       #1005
      01007A13H   LINE      CODE     ---       #1006
      01007A23H   LINE      CODE     ---       #1007
      01007A23H   LINE      CODE     ---       #1008
      01007A3FH   LINE      CODE     ---       #1009
      01007A4FH   LINE      CODE     ---       #1010
      01007A4FH   LINE      CODE     ---       #1011
      01007A69H   LINE      CODE     ---       #1012
      01007A77H   LINE      CODE     ---       #1013
      01007A8BH   LINE      CODE     ---       #1016
      01007A8BH   LINE      CODE     ---       #1017
      01007A8BH   LINE      CODE     ---       #1018
      01007A8BH   LINE      CODE     ---       #1020
      01007A98H   LINE      CODE     ---       #1022
      01007AB8H   LINE      CODE     ---       #1024
      01007AF4H   LINE      CODE     ---       #1026
      01007B1AH   LINE      CODE     ---       #1027
      01007B52H   LINE      CODE     ---       #1029
      01007B72H   LINE      CODE     ---       #1030
      01007B72H   LINE      CODE     ---       #1052
      ---         BLOCKEND  ---      ---       LVL=0

      01007FEFH   BLOCK     CODE     ---       LVL=0
      01007FEFH   BLOCK     CODE     NEAR LAB  LVL=1
      02000BCCH   SYMBOL    XDATA    LONG      old_k_p
      02000BD0H   SYMBOL    XDATA    LONG      old_k_i
      02000BD4H   SYMBOL    XDATA    LONG      old_k_d
      02000BD8H   SYMBOL    XDATA    BYTE      pause_counter
      ---         BLOCKEND  ---      ---       LVL=1
      01007FEFH   LINE      CODE     ---       #1059
LX51 LINKER/LOCATER V4.64.0.0                                                         06/13/2017  14:44:14  PAGE 70


      01007FEFH   LINE      CODE     ---       #1060
      01007FEFH   LINE      CODE     ---       #1067
      01008010H   LINE      CODE     ---       #1068
      01008010H   LINE      CODE     ---       #1069
      01008013H   LINE      CODE     ---       #1072
      01008027H   LINE      CODE     ---       #1073
      0100803BH   LINE      CODE     ---       #1074
      0100804FH   LINE      CODE     ---       #1077
      0100805AH   LINE      CODE     ---       #1078
      01008065H   LINE      CODE     ---       #1081
      0100806DH   LINE      CODE     ---       #1082
      01008072H   LINE      CODE     ---       #1083
      01008072H   LINE      CODE     ---       #1086
      01008078H   LINE      CODE     ---       #1087
      01008079H   LINE      CODE     ---       #1089
      01008079H   LINE      CODE     ---       #1090
      0100807FH   LINE      CODE     ---       #1092
      01008087H   LINE      CODE     ---       #1093
      01008088H   LINE      CODE     ---       #1096
      01008094H   LINE      CODE     ---       #1097
      0100809FH   LINE      CODE     ---       #1098
      010080ACH   LINE      CODE     ---       #1100
      010080B2H   LINE      CODE     ---       #1101
      010080B2H   LINE      CODE     ---       #1102
      010080B3H   LINE      CODE     ---       #1104
      010080B3H   LINE      CODE     ---       #1106
      010080D2H   LINE      CODE     ---       #1107
      010080F5H   LINE      CODE     ---       #1110
      01008119H   LINE      CODE     ---       #1112
      0100812CH   LINE      CODE     ---       #1115
      01008140H   LINE      CODE     ---       #1116
      01008154H   LINE      CODE     ---       #1117
      01008168H   LINE      CODE     ---       #1120
      01008173H   LINE      CODE     ---       #1121
      0100817EH   LINE      CODE     ---       #1124
      01008184H   LINE      CODE     ---       #1125
      01008184H   LINE      CODE     ---       #1126
      01008185H   LINE      CODE     ---       #1128
      01008185H   LINE      CODE     ---       #1129
      0100818BH   LINE      CODE     ---       #1131
      01008190H   LINE      CODE     ---       #1132
      01008191H   LINE      CODE     ---       #1134
      01008197H   LINE      CODE     ---       #1135
      01008197H   LINE      CODE     ---       #1136
      01008198H   LINE      CODE     ---       #1138
      01008198H   LINE      CODE     ---       #1140
      010081A0H   LINE      CODE     ---       #1141
      010081A4H   LINE      CODE     ---       #1142
      010081A4H   LINE      CODE     ---       #1145
      010081ABH   LINE      CODE     ---       #1146
      010081B1H   LINE      CODE     ---       #1148
      010081B6H   LINE      CODE     ---       #1150
      010081B9H   LINE      CODE     ---       #1151
      010081B9H   LINE      CODE     ---       #1153
      010081B9H   LINE      CODE     ---       #1154
      010081B9H   LINE      CODE     ---       #1155
      010081B9H   LINE      CODE     ---       #1156
      010081B9H   LINE      CODE     ---       #1157
      ---         BLOCKEND  ---      ---       LVL=0

      01008F21H   BLOCK     CODE     ---       LVL=0
      01008F21H   BLOCK     CODE     NEAR LAB  LVL=1
      00000023H   SYMBOL    DATA     BYTE      index
      00000024H   SYMBOL    DATA     WORD      max_tension
      00000026H   SYMBOL    DATA     WORD      max_tension_6v_mod
LX51 LINKER/LOCATER V4.64.0.0                                                         06/13/2017  14:44:14  PAGE 71


      ---         BLOCKEND  ---      ---       LVL=1
      01008F21H   LINE      CODE     ---       #1164
      01008F21H   LINE      CODE     ---       #1167
      01008F27H   LINE      CODE     ---       #1168
      01008F2DH   LINE      CODE     ---       #1170
      01008F3CH   LINE      CODE     ---       #1172
      01008F56H   LINE      CODE     ---       #1173
      01008F5CH   LINE      CODE     ---       #1175
      01008F5CH   LINE      CODE     ---       #1176
      01008F7BH   LINE      CODE     ---       #1177
      01008F82H   LINE      CODE     ---       #1178
      01008F82H   LINE      CODE     ---       #1179
      01008FB0H   LINE      CODE     ---       #1180
      01008FB9H   LINE      CODE     ---       #1181
      01008FB9H   LINE      CODE     ---       #1182
      01008FB9H   LINE      CODE     ---       #1183
      01008FBAH   LINE      CODE     ---       #1184
      01008FBAH   LINE      CODE     ---       #1186
      01008FD5H   LINE      CODE     ---       #1187
      01008FDBH   LINE      CODE     ---       #1188
      01008FDBH   LINE      CODE     ---       #1189
      01008FFAH   LINE      CODE     ---       #1190
      01009001H   LINE      CODE     ---       #1191
      01009001H   LINE      CODE     ---       #1192
      01009024H   LINE      CODE     ---       #1193
      01009033H   LINE      CODE     ---       #1194
      0100903DH   LINE      CODE     ---       #1196
      01009047H   LINE      CODE     ---       #1197
      01009047H   LINE      CODE     ---       #1198
      01009047H   LINE      CODE     ---       #1199
      01009047H   LINE      CODE     ---       #1200
      ---         BLOCKEND  ---      ---       LVL=0

      ---         MODULE    ---      ---       UART_RS485
      02000C6AH   PUBLIC    XDATA    BYTE      UART_RS485_errorStatus
      02000C69H   PUBLIC    XDATA    BYTE      UART_RS485_rxBufferOverflow
      02000C68H   PUBLIC    XDATA    BYTE      UART_RS485_initVar
      02000C67H   PUBLIC    XDATA    BYTE      UART_RS485_rxBufferWrite
      02000C47H   PUBLIC    XDATA    ---       UART_RS485_rxBuffer
      02000C46H   PUBLIC    XDATA    BYTE      UART_RS485_rxBufferRead
      02000C45H   PUBLIC    XDATA    BYTE      UART_RS485_rxBufferLoopDetect
      0100AEC5H   PUBLIC    CODE     ---       UART_RS485_ClearTxBuffer
      0100A8DEH   PUBLIC    CODE     ---       _UART_RS485_PutString
      0100AFB9H   PUBLIC    CODE     ---       _UART_RS485_PutChar
      0100B128H   PUBLIC    CODE     ---       UART_RS485_ReadTxStatus
      0100AA3DH   PUBLIC    CODE     ---       UART_RS485_ClearRxBuffer
      0100A453H   PUBLIC    CODE     ---       UART_RS485_GetRxBufferSize
      0100A250H   PUBLIC    CODE     ---       UART_RS485_GetChar
      0100ADF3H   PUBLIC    CODE     ---       UART_RS485_ReadRxStatus
      0100ABB1H   PUBLIC    CODE     ---       UART_RS485_Stop
      0100AB8FH   PUBLIC    CODE     ---       UART_RS485_Enable
      0100A946H   PUBLIC    CODE     ---       UART_RS485_Init
      0100AE07H   PUBLIC    CODE     ---       UART_RS485_Start
      000000CAH   SFRSYM    DATA     BYTE      SFRPRT5SEL
      000000DAH   SFRSYM    DATA     BYTE      SFRPRT6SEL
      000000D0H.6 SFRSYM    DATA     BIT       AC
      000000A8H.7 SFRSYM    DATA     BIT       EA
      000000A8H   SFRSYM    DATA     BYTE      IE
      00000085H   SFRSYM    DATA     BYTE      DPH1
      00000084H   SFRSYM    DATA     BYTE      DPL1
      000000D0H.7 SFRSYM    DATA     BIT       CY
      000000A0H   SFRSYM    DATA     BYTE      P2AX
      00000095H   SFRSYM    DATA     BYTE      DPX1
      00000081H   SFRSYM    DATA     BYTE      SP
      000000D0H.2 SFRSYM    DATA     BIT       OV
LX51 LINKER/LOCATER V4.64.0.0                                                         06/13/2017  14:44:14  PAGE 72


      00000080H   SFRSYM    DATA     BYTE      SFRPRT0DR
      00000090H   SFRSYM    DATA     BYTE      SFRPRT1DR
      000000F2H   SFRSYM    DATA     BYTE      SFRPRT12SEL
      00000098H   SFRSYM    DATA     BYTE      SFRPRT2DR
      000000B0H   SFRSYM    DATA     BYTE      SFRPRT3DR
      000000C0H   SFRSYM    DATA     BYTE      SFRPRT4DR
      000000FAH   SFRSYM    DATA     BYTE      SFRPRT15SEL
      000000C8H   SFRSYM    DATA     BYTE      SFRPRT5DR
      000000D8H   SFRSYM    DATA     BYTE      SFRPRT6DR
      00000089H   SFRSYM    DATA     BYTE      SFRPRT0PS
      00000091H   SFRSYM    DATA     BYTE      SFRPRT1PS
      00000099H   SFRSYM    DATA     BYTE      SFRPRT2PS
      000000B1H   SFRSYM    DATA     BYTE      SFRPRT3PS
      000000C1H   SFRSYM    DATA     BYTE      SFRPRT4PS
      000000C9H   SFRSYM    DATA     BYTE      SFRPRT5PS
      000000D9H   SFRSYM    DATA     BYTE      SFRPRT6PS
      000000EAH   SFRSYM    DATA     BYTE      MXAX
      000000F0H   SFRSYM    DATA     BYTE      B
      000000E0H   SFRSYM    DATA     BYTE      ACC
      000000D0H   SFRSYM    DATA     BIT       P
      000000D0H.3 SFRSYM    DATA     BIT       RS0
      000000D0H.4 SFRSYM    DATA     BIT       RS1
      00000083H   SFRSYM    DATA     BYTE      DPH
      000000E8H   SFRSYM    DATA     BYTE      SFRPRT12DR
      00000082H   SFRSYM    DATA     BYTE      DPL
      000000F8H   SFRSYM    DATA     BYTE      SFRPRT15DR
      00000086H   SFRSYM    DATA     BYTE      DPS
      000000E9H   SFRSYM    DATA     BYTE      SFRPRT12PS
      00000093H   SFRSYM    DATA     BYTE      DPX
      000000F9H   SFRSYM    DATA     BYTE      SFRPRT15PS
      000000D0H.5 SFRSYM    DATA     BIT       F0
      000000D0H.1 SFRSYM    DATA     BIT       F1
      0000008AH   SFRSYM    DATA     BYTE      SFRPRT0SEL
      000000D0H   SFRSYM    DATA     BYTE      PSW
      000000A2H   SFRSYM    DATA     BYTE      SFRPRT1SEL
      0000009AH   SFRSYM    DATA     BYTE      SFRPRT2SEL
      000000B2H   SFRSYM    DATA     BYTE      SFRPRT3SEL
      000000C2H   SFRSYM    DATA     BYTE      SFRPRT4SEL

      0100AE07H   BLOCK     CODE     ---       LVL=0
      0100AE07H   LINE      CODE     ---       #76
      0100AE07H   LINE      CODE     ---       #77
      0100AE07H   LINE      CODE     ---       #79
      0100AE0DH   LINE      CODE     ---       #80
      0100AE0DH   LINE      CODE     ---       #81
      0100AE10H   LINE      CODE     ---       #82
      0100AE16H   LINE      CODE     ---       #83
      0100AE16H   LINE      CODE     ---       #85
      0100AE19H   LINE      CODE     ---       #86
      ---         BLOCKEND  ---      ---       LVL=0

      0100A946H   BLOCK     CODE     ---       LVL=0
      0100A946H   LINE      CODE     ---       #106
      0100A946H   LINE      CODE     ---       #107
      0100A946H   LINE      CODE     ---       #112
      0100A94FH   LINE      CODE     ---       #113
      0100A956H   LINE      CODE     ---       #114
      0100A95BH   LINE      CODE     ---       #124
      0100A961H   LINE      CODE     ---       #126
      0100A967H   LINE      CODE     ---       #138
      0100A96DH   LINE      CODE     ---       #139
      0100A973H   LINE      CODE     ---       #150
      0100A978H   LINE      CODE     ---       #160
      ---         BLOCKEND  ---      ---       LVL=0

LX51 LINKER/LOCATER V4.64.0.0                                                         06/13/2017  14:44:14  PAGE 73


      0100AB8FH   BLOCK     CODE     ---       LVL=0
      0100AB8FH   BLOCK     CODE     NEAR LAB  LVL=1
      00000007H   SYMBOL    DATA     BYTE      enableInterrupts
      ---         BLOCKEND  ---      ---       LVL=1
      0100AB8FH   LINE      CODE     ---       #183
      0100AB8FH   LINE      CODE     ---       #184
      0100AB8FH   LINE      CODE     ---       #186
      0100AB92H   LINE      CODE     ---       #190
      0100AB99H   LINE      CODE     ---       #193
      0100ABA0H   LINE      CODE     ---       #196
      0100ABA6H   LINE      CODE     ---       #211
      0100ABADH   LINE      CODE     ---       #222
      0100ABB0H   LINE      CODE     ---       #223
      ---         BLOCKEND  ---      ---       LVL=0

      0100ABB1H   BLOCK     CODE     ---       LVL=0
      0100ABB1H   BLOCK     CODE     NEAR LAB  LVL=1
      00000007H   SYMBOL    DATA     BYTE      enableInterrupts
      ---         BLOCKEND  ---      ---       LVL=1
      0100ABB1H   LINE      CODE     ---       #240
      0100ABB1H   LINE      CODE     ---       #241
      0100ABB1H   LINE      CODE     ---       #243
      0100ABB4H   LINE      CODE     ---       #247
      0100ABBBH   LINE      CODE     ---       #262
      0100ABC2H   LINE      CODE     ---       #265
      0100ABC8H   LINE      CODE     ---       #270
      0100ABCFH   LINE      CODE     ---       #277
      0100ABD2H   LINE      CODE     ---       #278
      ---         BLOCKEND  ---      ---       LVL=0
      00000007H   SYMBOL    DATA     BYTE      intSrc
      00000007H   SYMBOL    DATA     BYTE      rxData
      00000006H   SYMBOL    DATA     BYTE      locRxBufferRead
      00000005H   SYMBOL    DATA     BYTE      locRxBufferWrite

      0100ADF3H   BLOCK     CODE     ---       LVL=0
      0100ADF3H   BLOCK     CODE     NEAR LAB  LVL=1
      00000007H   SYMBOL    DATA     BYTE      status
      ---         BLOCKEND  ---      ---       LVL=1
      0100ADF3H   LINE      CODE     ---       #485
      0100ADF3H   LINE      CODE     ---       #486
      0100ADF3H   LINE      CODE     ---       #489
      0100ADFAH   LINE      CODE     ---       #492
      0100AE00H   LINE      CODE     ---       #493
      0100AE00H   LINE      CODE     ---       #494
      0100AE04H   LINE      CODE     ---       #495
      0100AE06H   LINE      CODE     ---       #496
      0100AE06H   LINE      CODE     ---       #499
      0100AE06H   LINE      CODE     ---       #500
      ---         BLOCKEND  ---      ---       LVL=0

      0100A250H   BLOCK     CODE     ---       LVL=0
      0100A250H   BLOCK     CODE     NEAR LAB  LVL=1
      00000007H   SYMBOL    DATA     BYTE      rxData
      00000006H   SYMBOL    DATA     BYTE      rxStatus
      00000006H   SYMBOL    DATA     BYTE      locRxBufferRead
      00000005H   SYMBOL    DATA     BYTE      locRxBufferWrite
      ---         BLOCKEND  ---      ---       LVL=1
      0100A250H   LINE      CODE     ---       #532
      0100A250H   LINE      CODE     ---       #533
      0100A250H   LINE      CODE     ---       #534
      0100A252H   LINE      CODE     ---       #542
      0100A258H   LINE      CODE     ---       #544
      0100A25DH   LINE      CODE     ---       #545
      0100A262H   LINE      CODE     ---       #547
      0100A26CH   LINE      CODE     ---       #548
LX51 LINKER/LOCATER V4.64.0.0                                                         06/13/2017  14:44:14  PAGE 74


      0100A26CH   LINE      CODE     ---       #549
      0100A278H   LINE      CODE     ---       #550
      0100A279H   LINE      CODE     ---       #551
      0100A27FH   LINE      CODE     ---       #552
      0100A27FH   LINE      CODE     ---       #553
      0100A281H   LINE      CODE     ---       #554
      0100A281H   LINE      CODE     ---       #556
      0100A286H   LINE      CODE     ---       #558
      0100A28CH   LINE      CODE     ---       #559
      0100A28CH   LINE      CODE     ---       #560
      0100A28EH   LINE      CODE     ---       #575
      0100A28EH   LINE      CODE     ---       #577
      0100A290H   LINE      CODE     ---       #579
      0100A295H   LINE      CODE     ---       #580
      0100A298H   LINE      CODE     ---       #581
      0100A298H   LINE      CODE     ---       #582
      0100A29DH   LINE      CODE     ---       #585
      0100A2A2H   LINE      CODE     ---       #586
      0100A2A2H   LINE      CODE     ---       #587
      0100A2A4H   LINE      CODE     ---       #588
      0100A2A4H   LINE      CODE     ---       #589
      0100A2A4H   LINE      CODE     ---       #590
      0100A2A4H   LINE      CODE     ---       #592
      0100A2AAH   LINE      CODE     ---       #611
      0100A2AAH   LINE      CODE     ---       #612
      ---         BLOCKEND  ---      ---       LVL=0
      00000002H   SYMBOL    DATA     WORD      locErrorStatus

      0100A453H   BLOCK     CODE     ---       LVL=0
      0100A453H   BLOCK     CODE     NEAR LAB  LVL=1
      00000007H   SYMBOL    DATA     BYTE      size
      ---         BLOCKEND  ---      ---       LVL=1
      0100A453H   LINE      CODE     ---       #683
      0100A453H   LINE      CODE     ---       #685
      0100A453H   LINE      CODE     ---       #691
      0100A459H   LINE      CODE     ---       #693
      0100A465H   LINE      CODE     ---       #694
      0100A465H   LINE      CODE     ---       #695
      0100A46BH   LINE      CODE     ---       #696
      0100A46BH   LINE      CODE     ---       #697
      0100A46DH   LINE      CODE     ---       #698
      0100A46FH   LINE      CODE     ---       #700
      0100A46FH   LINE      CODE     ---       #701
      0100A471H   LINE      CODE     ---       #702
      0100A471H   LINE      CODE     ---       #703
      0100A473H   LINE      CODE     ---       #704
      0100A480H   LINE      CODE     ---       #705
      0100A480H   LINE      CODE     ---       #706
      0100A489H   LINE      CODE     ---       #707
      0100A48BH   LINE      CODE     ---       #709
      0100A48BH   LINE      CODE     ---       #710
      0100A49BH   LINE      CODE     ---       #711
      0100A49BH   LINE      CODE     ---       #713
      0100A4A1H   LINE      CODE     ---       #722
      0100A4A1H   LINE      CODE     ---       #723
      ---         BLOCKEND  ---      ---       LVL=0

      0100AA3DH   BLOCK     CODE     ---       LVL=0
      0100AA3DH   BLOCK     CODE     NEAR LAB  LVL=1
      00000007H   SYMBOL    DATA     BYTE      enableInterrupts
      ---         BLOCKEND  ---      ---       LVL=1
      0100AA3DH   LINE      CODE     ---       #757
      0100AA3DH   LINE      CODE     ---       #758
      0100AA3DH   LINE      CODE     ---       #762
      0100AA40H   LINE      CODE     ---       #763
LX51 LINKER/LOCATER V4.64.0.0                                                         06/13/2017  14:44:14  PAGE 75


      0100AA47H   LINE      CODE     ---       #764
      0100AA4BH   LINE      CODE     ---       #765
      0100AA4EH   LINE      CODE     ---       #770
      0100AA54H   LINE      CODE     ---       #772
      0100AA59H   LINE      CODE     ---       #773
      0100AA5DH   LINE      CODE     ---       #774
      0100AA61H   LINE      CODE     ---       #775
      0100AA65H   LINE      CODE     ---       #777
      0100AA6BH   LINE      CODE     ---       #781
      ---         BLOCKEND  ---      ---       LVL=0
      00000007H   SYMBOL    DATA     BYTE      address
      00000007H   SYMBOL    DATA     BYTE      address
      00000007H   SYMBOL    DATA     BYTE      intSrc
      00000007H   SYMBOL    DATA     BYTE      txDataByte

      0100B128H   BLOCK     CODE     ---       LVL=0
      0100B128H   LINE      CODE     ---       #1003
      0100B128H   LINE      CODE     ---       #1004
      0100B128H   LINE      CODE     ---       #1005
      0100B12DH   LINE      CODE     ---       #1006
      ---         BLOCKEND  ---      ---       LVL=0

      0100AFB9H   BLOCK     CODE     ---       LVL=0
      00000007H   SYMBOL    DATA     BYTE      txDataByte
      0100AFB9H   LINE      CODE     ---       #1041
      0100AFB9H   LINE      CODE     ---       #1042
      0100AFB9H   LINE      CODE     ---       #1107
      0100AFC0H   LINE      CODE     ---       #1108
      0100AFC0H   LINE      CODE     ---       #1110
      0100AFC0H   LINE      CODE     ---       #1113
      0100AFC5H   LINE      CODE     ---       #1116
      ---         BLOCKEND  ---      ---       LVL=0

      0100A8DEH   BLOCK     CODE     ---       LVL=0
      0200046BH   SYMBOL    XDATA    ---       string
      0100A8E9H   BLOCK     CODE     NEAR LAB  LVL=1
      00000004H   SYMBOL    DATA     WORD      bufIndex
      ---         BLOCKEND  ---      ---       LVL=1
      0100A8DEH   LINE      CODE     ---       #1145
      0100A8E9H   LINE      CODE     ---       #1146
      0100A8E9H   LINE      CODE     ---       #1147
      0100A8ECH   LINE      CODE     ---       #1150
      0100A8F2H   LINE      CODE     ---       #1151
      0100A8F2H   LINE      CODE     ---       #1153
      0100A907H   LINE      CODE     ---       #1154
      0100A907H   LINE      CODE     ---       #1155
      0100A90AH   LINE      CODE     ---       #1156
      0100A90FH   LINE      CODE     ---       #1157
      0100A911H   LINE      CODE     ---       #1158
      0100A911H   LINE      CODE     ---       #1159
      ---         BLOCKEND  ---      ---       LVL=0
      00000005H   SYMBOL    DATA     BYTE      byteCount
      00000006H   SYMBOL    DATA     BYTE      bufIndex
      00000007H   SYMBOL    DATA     BYTE      txDataByte
      00000007H   SYMBOL    DATA     BYTE      size

      0100AEC5H   BLOCK     CODE     ---       LVL=0
      0100AEC5H   BLOCK     CODE     NEAR LAB  LVL=1
      00000007H   SYMBOL    DATA     BYTE      enableInterrupts
      ---         BLOCKEND  ---      ---       LVL=1
      0100AEC5H   LINE      CODE     ---       #1354
      0100AEC5H   LINE      CODE     ---       #1355
      0100AEC5H   LINE      CODE     ---       #1358
      0100AEC8H   LINE      CODE     ---       #1360
      0100AECFH   LINE      CODE     ---       #1361
LX51 LINKER/LOCATER V4.64.0.0                                                         06/13/2017  14:44:14  PAGE 76


      0100AED3H   LINE      CODE     ---       #1362
      0100AED6H   LINE      CODE     ---       #1376
      ---         BLOCKEND  ---      ---       LVL=0
      00000007H   SYMBOL    DATA     BYTE      retMode
      02000C44H   SYMBOL    XDATA    BYTE      txPeriod

      ---         MODULE    ---      ---       PWM_MOTORS
      02000C9BH   PUBLIC    XDATA    BYTE      PWM_MOTORS_initVar
      0100B140H   PUBLIC    CODE     ---       _PWM_MOTORS_WriteCompare2
      0100B13AH   PUBLIC    CODE     ---       _PWM_MOTORS_WriteCompare1
      0100B134H   PUBLIC    CODE     ---       _PWM_MOTORS_WritePeriod
      0100B12EH   PUBLIC    CODE     ---       _PWM_MOTORS_WriteCounter
      0100B0CDH   PUBLIC    CODE     ---       PWM_MOTORS_Enable
      0100AB43H   PUBLIC    CODE     ---       PWM_MOTORS_Init
      0100AE1AH   PUBLIC    CODE     ---       PWM_MOTORS_Start
      000000CAH   SFRSYM    DATA     BYTE      SFRPRT5SEL
      000000DAH   SFRSYM    DATA     BYTE      SFRPRT6SEL
      000000D0H.6 SFRSYM    DATA     BIT       AC
      000000A8H.7 SFRSYM    DATA     BIT       EA
      000000A8H   SFRSYM    DATA     BYTE      IE
      00000085H   SFRSYM    DATA     BYTE      DPH1
      00000084H   SFRSYM    DATA     BYTE      DPL1
      000000D0H.7 SFRSYM    DATA     BIT       CY
      000000A0H   SFRSYM    DATA     BYTE      P2AX
      00000095H   SFRSYM    DATA     BYTE      DPX1
      00000081H   SFRSYM    DATA     BYTE      SP
      000000D0H.2 SFRSYM    DATA     BIT       OV
      00000080H   SFRSYM    DATA     BYTE      SFRPRT0DR
      00000090H   SFRSYM    DATA     BYTE      SFRPRT1DR
      000000F2H   SFRSYM    DATA     BYTE      SFRPRT12SEL
      00000098H   SFRSYM    DATA     BYTE      SFRPRT2DR
      000000B0H   SFRSYM    DATA     BYTE      SFRPRT3DR
      000000C0H   SFRSYM    DATA     BYTE      SFRPRT4DR
      000000FAH   SFRSYM    DATA     BYTE      SFRPRT15SEL
      000000C8H   SFRSYM    DATA     BYTE      SFRPRT5DR
      000000D8H   SFRSYM    DATA     BYTE      SFRPRT6DR
      00000089H   SFRSYM    DATA     BYTE      SFRPRT0PS
      00000091H   SFRSYM    DATA     BYTE      SFRPRT1PS
      00000099H   SFRSYM    DATA     BYTE      SFRPRT2PS
      000000B1H   SFRSYM    DATA     BYTE      SFRPRT3PS
      000000C1H   SFRSYM    DATA     BYTE      SFRPRT4PS
      000000C9H   SFRSYM    DATA     BYTE      SFRPRT5PS
      000000D9H   SFRSYM    DATA     BYTE      SFRPRT6PS
      000000EAH   SFRSYM    DATA     BYTE      MXAX
      000000F0H   SFRSYM    DATA     BYTE      B
      000000E0H   SFRSYM    DATA     BYTE      ACC
      000000D0H   SFRSYM    DATA     BIT       P
      000000D0H.3 SFRSYM    DATA     BIT       RS0
      000000D0H.4 SFRSYM    DATA     BIT       RS1
      00000083H   SFRSYM    DATA     BYTE      DPH
      000000E8H   SFRSYM    DATA     BYTE      SFRPRT12DR
      00000082H   SFRSYM    DATA     BYTE      DPL
      000000F8H   SFRSYM    DATA     BYTE      SFRPRT15DR
      00000086H   SFRSYM    DATA     BYTE      DPS
      000000E9H   SFRSYM    DATA     BYTE      SFRPRT12PS
      00000093H   SFRSYM    DATA     BYTE      DPX
      000000F9H   SFRSYM    DATA     BYTE      SFRPRT15PS
      000000D0H.5 SFRSYM    DATA     BIT       F0
      000000D0H.1 SFRSYM    DATA     BIT       F1
      0000008AH   SFRSYM    DATA     BYTE      SFRPRT0SEL
      000000D0H   SFRSYM    DATA     BYTE      PSW
      000000A2H   SFRSYM    DATA     BYTE      SFRPRT1SEL
      0000009AH   SFRSYM    DATA     BYTE      SFRPRT2SEL
      000000B2H   SFRSYM    DATA     BYTE      SFRPRT3SEL
      000000C2H   SFRSYM    DATA     BYTE      SFRPRT4SEL
LX51 LINKER/LOCATER V4.64.0.0                                                         06/13/2017  14:44:14  PAGE 77



      0100AE1AH   BLOCK     CODE     ---       LVL=0
      0100AE1AH   LINE      CODE     ---       #55
      0100AE1AH   LINE      CODE     ---       #56
      0100AE1AH   LINE      CODE     ---       #58
      0100AE20H   LINE      CODE     ---       #59
      0100AE20H   LINE      CODE     ---       #60
      0100AE23H   LINE      CODE     ---       #61
      0100AE29H   LINE      CODE     ---       #62
      0100AE29H   LINE      CODE     ---       #63
      0100AE2CH   LINE      CODE     ---       #65
      ---         BLOCKEND  ---      ---       LVL=0

      0100AB43H   BLOCK     CODE     ---       LVL=0
      0100AB43H   BLOCK     CODE     NEAR LAB  LVL=1
      00000007H   SYMBOL    DATA     BYTE      ctrl
      ---         BLOCKEND  ---      ---       LVL=1
      0100AB43H   LINE      CODE     ---       #84
      0100AB43H   LINE      CODE     ---       #85
      0100AB43H   LINE      CODE     ---       #118
      0100AB4AH   LINE      CODE     ---       #120
      0100AB4DH   LINE      CODE     ---       #126
      0100AB54H   LINE      CODE     ---       #133
      0100AB59H   LINE      CODE     ---       #136
      0100AB5EH   LINE      CODE     ---       #141
      0100AB63H   LINE      CODE     ---       #142
      0100AB68H   LINE      CODE     ---       #179
      ---         BLOCKEND  ---      ---       LVL=0

      0100B0CDH   BLOCK     CODE     ---       LVL=0
      0100B0CDH   LINE      CODE     ---       #199
      0100B0CDH   LINE      CODE     ---       #200
      0100B0CDH   LINE      CODE     ---       #209
      0100B0D4H   LINE      CODE     ---       #211
      ---         BLOCKEND  ---      ---       LVL=0

      0100B12EH   BLOCK     CODE     ---       LVL=0
      00000007H   SYMBOL    DATA     BYTE      counter
      0100B12EH   LINE      CODE     ---       #403
      0100B12EH   LINE      CODE     ---       #405
      0100B12EH   LINE      CODE     ---       #406
      0100B133H   LINE      CODE     ---       #407
      ---         BLOCKEND  ---      ---       LVL=0

      0100B134H   BLOCK     CODE     ---       LVL=0
      00000007H   SYMBOL    DATA     BYTE      period
      0100B134H   LINE      CODE     ---       #482
      0100B134H   LINE      CODE     ---       #483
      0100B134H   LINE      CODE     ---       #487
      0100B139H   LINE      CODE     ---       #489
      ---         BLOCKEND  ---      ---       LVL=0

      0100B13AH   BLOCK     CODE     ---       LVL=0
      00000007H   SYMBOL    DATA     BYTE      compare
      0100B13AH   LINE      CODE     ---       #555
      0100B13AH   LINE      CODE     ---       #557
      0100B13AH   LINE      CODE     ---       #561
      0100B13FH   LINE      CODE     ---       #563
      ---         BLOCKEND  ---      ---       LVL=0

      0100B140H   BLOCK     CODE     ---       LVL=0
      00000007H   SYMBOL    DATA     BYTE      compare
      0100B140H   LINE      CODE     ---       #584
      0100B140H   LINE      CODE     ---       #586
      0100B140H   LINE      CODE     ---       #590
LX51 LINKER/LOCATER V4.64.0.0                                                         06/13/2017  14:44:14  PAGE 78


      0100B145H   LINE      CODE     ---       #592
      ---         BLOCKEND  ---      ---       LVL=0
      00000007H   SYMBOL    DATA     BYTE      result
      00000007H   SYMBOL    DATA     BYTE      control

      ---         MODULE    ---      ---       ISR_RS485_RX
      0100B10CH   PUBLIC    CODE     ---       ISR_RS485_RX_Disable
      0100B105H   PUBLIC    CODE     ---       ISR_RS485_RX_Enable
      0100B04BH   PUBLIC    CODE     ---       _ISR_RS485_RX_SetPriority
      0100AF49H   PUBLIC    CODE     ---       _ISR_RS485_RX_SetVector
      0100AA9AH   PUBLIC    CODE     ---       ISR_RS485_RX_Interrupt
      0100AC14H   PUBLIC    CODE     ---       _ISR_RS485_RX_StartEx
      000000CAH   SFRSYM    DATA     BYTE      SFRPRT5SEL
      000000DAH   SFRSYM    DATA     BYTE      SFRPRT6SEL
      000000D0H.6 SFRSYM    DATA     BIT       AC
      000000A8H.7 SFRSYM    DATA     BIT       EA
      000000A8H   SFRSYM    DATA     BYTE      IE
      00000085H   SFRSYM    DATA     BYTE      DPH1
      00000084H   SFRSYM    DATA     BYTE      DPL1
      000000D0H.7 SFRSYM    DATA     BIT       CY
      000000A0H   SFRSYM    DATA     BYTE      P2AX
      00000095H   SFRSYM    DATA     BYTE      DPX1
      00000081H   SFRSYM    DATA     BYTE      SP
      000000D0H.2 SFRSYM    DATA     BIT       OV
      00000080H   SFRSYM    DATA     BYTE      SFRPRT0DR
      00000090H   SFRSYM    DATA     BYTE      SFRPRT1DR
      000000F2H   SFRSYM    DATA     BYTE      SFRPRT12SEL
      00000098H   SFRSYM    DATA     BYTE      SFRPRT2DR
      000000B0H   SFRSYM    DATA     BYTE      SFRPRT3DR
      000000C0H   SFRSYM    DATA     BYTE      SFRPRT4DR
      000000FAH   SFRSYM    DATA     BYTE      SFRPRT15SEL
      000000C8H   SFRSYM    DATA     BYTE      SFRPRT5DR
      000000D8H   SFRSYM    DATA     BYTE      SFRPRT6DR
      00000089H   SFRSYM    DATA     BYTE      SFRPRT0PS
      00000091H   SFRSYM    DATA     BYTE      SFRPRT1PS
      00000099H   SFRSYM    DATA     BYTE      SFRPRT2PS
      000000B1H   SFRSYM    DATA     BYTE      SFRPRT3PS
      000000C1H   SFRSYM    DATA     BYTE      SFRPRT4PS
      000000C9H   SFRSYM    DATA     BYTE      SFRPRT5PS
      000000D9H   SFRSYM    DATA     BYTE      SFRPRT6PS
      000000EAH   SFRSYM    DATA     BYTE      MXAX
      000000F0H   SFRSYM    DATA     BYTE      B
      000000E0H   SFRSYM    DATA     BYTE      ACC
      000000D0H   SFRSYM    DATA     BIT       P
      000000D0H.3 SFRSYM    DATA     BIT       RS0
      000000D0H.4 SFRSYM    DATA     BIT       RS1
      00000083H   SFRSYM    DATA     BYTE      DPH
      000000E8H   SFRSYM    DATA     BYTE      SFRPRT12DR
      00000082H   SFRSYM    DATA     BYTE      DPL
      000000F8H   SFRSYM    DATA     BYTE      SFRPRT15DR
      00000086H   SFRSYM    DATA     BYTE      DPS
      000000E9H   SFRSYM    DATA     BYTE      SFRPRT12PS
      00000093H   SFRSYM    DATA     BYTE      DPX
      000000F9H   SFRSYM    DATA     BYTE      SFRPRT15PS
      000000D0H.5 SFRSYM    DATA     BIT       F0
      000000D0H.1 SFRSYM    DATA     BIT       F1
      0000008AH   SFRSYM    DATA     BYTE      SFRPRT0SEL
      000000D0H   SFRSYM    DATA     BYTE      PSW
      000000A2H   SFRSYM    DATA     BYTE      SFRPRT1SEL
      0000009AH   SFRSYM    DATA     BYTE      SFRPRT2SEL
      000000B2H   SFRSYM    DATA     BYTE      SFRPRT3SEL
      000000C2H   SFRSYM    DATA     BYTE      SFRPRT4SEL

      0100AC14H   BLOCK     CODE     ---       LVL=0
      02000003H   SYMBOL    XDATA    ---       address
LX51 LINKER/LOCATER V4.64.0.0                                                         06/13/2017  14:44:14  PAGE 79


      0100AC14H   LINE      CODE     ---       #94
      0100AC1CH   LINE      CODE     ---       #95
      0100AC1CH   LINE      CODE     ---       #97
      0100AC1FH   LINE      CODE     ---       #100
      0100AC2AH   LINE      CODE     ---       #103
      0100AC2FH   LINE      CODE     ---       #106
      0100AC32H   LINE      CODE     ---       #107
      ---         BLOCKEND  ---      ---       LVL=0

      0100AA9AH   BLOCK     CODE     ---       LVL=0
      0100AA9AH   LINE      CODE     ---       #151
      0100AA9AH   LINE      CODE     ---       #168
      ---         BLOCKEND  ---      ---       LVL=0

      0100AF49H   BLOCK     CODE     ---       LVL=0
      00000006H   SYMBOL    DATA     ---       address
      0100AF49H   LINE      CODE     ---       #198
      0100AF49H   LINE      CODE     ---       #199
      0100AF49H   LINE      CODE     ---       #200
      0100AF56H   LINE      CODE     ---       #201
      ---         BLOCKEND  ---      ---       LVL=0

      0100B04BH   BLOCK     CODE     ---       LVL=0
      00000007H   SYMBOL    DATA     BYTE      priority
      0100B04BH   LINE      CODE     ---       #248
      0100B04BH   LINE      CODE     ---       #249
      0100B04BH   LINE      CODE     ---       #250
      0100B054H   LINE      CODE     ---       #251
      ---         BLOCKEND  ---      ---       LVL=0
      00000007H   SYMBOL    DATA     BYTE      priority

      0100B105H   BLOCK     CODE     ---       LVL=0
      0100B105H   LINE      CODE     ---       #297
      0100B105H   LINE      CODE     ---       #298
      0100B105H   LINE      CODE     ---       #300
      0100B10BH   LINE      CODE     ---       #301
      ---         BLOCKEND  ---      ---       LVL=0

      0100B10CH   BLOCK     CODE     ---       LVL=0
      0100B10CH   LINE      CODE     ---       #339
      0100B10CH   LINE      CODE     ---       #340
      0100B10CH   LINE      CODE     ---       #342
      0100B112H   LINE      CODE     ---       #343
      ---         BLOCKEND  ---      ---       LVL=0

      ---         MODULE    ---      ---       CLOCK_UART
      0100B0D5H   PUBLIC    CODE     ---       CLOCK_UART_GetSourceRegister
      0100B055H   PUBLIC    CODE     ---       CLOCK_UART_GetDividerRegister
      01008B9BH   PUBLIC    CODE     ---       _CLOCK_UART_SetDividerRegister
      00000007H   SYMBOL    DATA     BYTE      state

      01008B9BH   BLOCK     CODE     ---       LVL=0
      0200001FH   SYMBOL    XDATA    WORD      clkDivider
      02000021H   SYMBOL    XDATA    BYTE      restart
      01008BA6H   BLOCK     CODE     NEAR LAB  LVL=1
      02000022H   SYMBOL    XDATA    BYTE      enabled
      02000023H   SYMBOL    XDATA    BYTE      currSrc
      02000024H   SYMBOL    XDATA    WORD      oldDivider
      ---         BLOCKEND  ---      ---       LVL=1
      01008B9BH   LINE      CODE     ---       #193
      01008BA6H   LINE      CODE     ---       #195
      01008BA6H   LINE      CODE     ---       #198
      01008BAEH   LINE      CODE     ---       #199
      01008BB9H   LINE      CODE     ---       #201
      01008BCBH   LINE      CODE     ---       #202
LX51 LINKER/LOCATER V4.64.0.0                                                         06/13/2017  14:44:14  PAGE 80


      01008BCBH   LINE      CODE     ---       #203
      01008BD5H   LINE      CODE     ---       #205
      01008BE6H   LINE      CODE     ---       #206
      01008BE6H   LINE      CODE     ---       #208
      01008BEAH   LINE      CODE     ---       #209
      01008BEAH   LINE      CODE     ---       #213
      01008BF3H   LINE      CODE     ---       #214
      01008BFAH   LINE      CODE     ---       #215
      01008BFBH   LINE      CODE     ---       #217
      01008BFBH   LINE      CODE     ---       #220
      01008C02H   LINE      CODE     ---       #221
      01008C13H   LINE      CODE     ---       #222
      01008C13H   LINE      CODE     ---       #223
      01008C14H   LINE      CODE     ---       #225
      01008C14H   LINE      CODE     ---       #227
      01008C1AH   LINE      CODE     ---       #228
      01008C1AH   LINE      CODE     ---       #229
      01008C1FH   LINE      CODE     ---       #236
      01008C24H   LINE      CODE     ---       #237
      01008C29H   LINE      CODE     ---       #240
      01008C30H   LINE      CODE     ---       #243
      01008C42H   LINE      CODE     ---       #244
      01008C42H   LINE      CODE     ---       #246
      01008C53H   LINE      CODE     ---       #247
      01008C59H   LINE      CODE     ---       #250
      01008C61H   LINE      CODE     ---       #253
      01008C68H   LINE      CODE     ---       #257
      01008C6DH   LINE      CODE     ---       #259
      01008C6DH   LINE      CODE     ---       #260
      01008C6DH   LINE      CODE     ---       #263
      01008C75H   LINE      CODE     ---       #264
      01008C75H   LINE      CODE     ---       #266
      01008C86H   LINE      CODE     ---       #268
      01008C99H   LINE      CODE     ---       #269
      01008CA3H   LINE      CODE     ---       #270
      01008CA4H   LINE      CODE     ---       #272
      01008CA4H   LINE      CODE     ---       #274
      01008CB5H   LINE      CODE     ---       #275
      01008CCAH   LINE      CODE     ---       #276
      01008CCAH   LINE      CODE     ---       #277
      01008CCAH   LINE      CODE     ---       #278
      01008CCAH   LINE      CODE     ---       #279
      ---         BLOCKEND  ---      ---       LVL=0

      0100B055H   BLOCK     CODE     ---       LVL=0
      0100B055H   LINE      CODE     ---       #297
      0100B055H   LINE      CODE     ---       #298
      0100B055H   LINE      CODE     ---       #299
      0100B05EH   LINE      CODE     ---       #300
      ---         BLOCKEND  ---      ---       LVL=0
      00000007H   SYMBOL    DATA     BYTE      modeBitMask
      00000007H   SYMBOL    DATA     BYTE      modeBitMask
      00000007H   SYMBOL    DATA     BYTE      oldSrc

      0100B0D5H   BLOCK     CODE     ---       LVL=0
      0100B0D5H   LINE      CODE     ---       #464
      0100B0D5H   LINE      CODE     ---       #465
      0100B0D5H   LINE      CODE     ---       #466
      0100B0DCH   LINE      CODE     ---       #467
      ---         BLOCKEND  ---      ---       LVL=0

      ---         MODULE    ---      ---       COUNTER_ENC
      02000C9CH   PUBLIC    XDATA    BYTE      COUNTER_ENC_initVar
      0100AFC6H   PUBLIC    CODE     ---       COUNTER_ENC_ClearFIFO
      0100B164H   PUBLIC    CODE     ---       _COUNTER_ENC_WriteCompare
LX51 LINKER/LOCATER V4.64.0.0                                                         06/13/2017  14:44:14  PAGE 81


      0100B15EH   PUBLIC    CODE     ---       _COUNTER_ENC_WritePeriod
      0100B158H   PUBLIC    CODE     ---       COUNTER_ENC_ReadCapture
      0100B152H   PUBLIC    CODE     ---       _COUNTER_ENC_WriteCounter
      0100B14CH   PUBLIC    CODE     ---       COUNTER_ENC_ReadStatusRegister
      0100B146H   PUBLIC    CODE     ---       _COUNTER_ENC_SetInterruptMode
      0100AE2DH   PUBLIC    CODE     ---       COUNTER_ENC_Start
      0100B0DDH   PUBLIC    CODE     ---       COUNTER_ENC_Enable
      0100A8A9H   PUBLIC    CODE     ---       COUNTER_ENC_Init
      000000CAH   SFRSYM    DATA     BYTE      SFRPRT5SEL
      000000DAH   SFRSYM    DATA     BYTE      SFRPRT6SEL
      000000D0H.6 SFRSYM    DATA     BIT       AC
      000000A8H.7 SFRSYM    DATA     BIT       EA
      000000A8H   SFRSYM    DATA     BYTE      IE
      00000085H   SFRSYM    DATA     BYTE      DPH1
      00000084H   SFRSYM    DATA     BYTE      DPL1
      000000D0H.7 SFRSYM    DATA     BIT       CY
      000000A0H   SFRSYM    DATA     BYTE      P2AX
      00000095H   SFRSYM    DATA     BYTE      DPX1
      00000081H   SFRSYM    DATA     BYTE      SP
      000000D0H.2 SFRSYM    DATA     BIT       OV
      00000080H   SFRSYM    DATA     BYTE      SFRPRT0DR
      00000090H   SFRSYM    DATA     BYTE      SFRPRT1DR
      000000F2H   SFRSYM    DATA     BYTE      SFRPRT12SEL
      00000098H   SFRSYM    DATA     BYTE      SFRPRT2DR
      000000B0H   SFRSYM    DATA     BYTE      SFRPRT3DR
      000000C0H   SFRSYM    DATA     BYTE      SFRPRT4DR
      000000FAH   SFRSYM    DATA     BYTE      SFRPRT15SEL
      000000C8H   SFRSYM    DATA     BYTE      SFRPRT5DR
      000000D8H   SFRSYM    DATA     BYTE      SFRPRT6DR
      00000089H   SFRSYM    DATA     BYTE      SFRPRT0PS
      00000091H   SFRSYM    DATA     BYTE      SFRPRT1PS
      00000099H   SFRSYM    DATA     BYTE      SFRPRT2PS
      000000B1H   SFRSYM    DATA     BYTE      SFRPRT3PS
      000000C1H   SFRSYM    DATA     BYTE      SFRPRT4PS
      000000C9H   SFRSYM    DATA     BYTE      SFRPRT5PS
      000000D9H   SFRSYM    DATA     BYTE      SFRPRT6PS
      000000EAH   SFRSYM    DATA     BYTE      MXAX
      000000F0H   SFRSYM    DATA     BYTE      B
      000000E0H   SFRSYM    DATA     BYTE      ACC
      000000D0H   SFRSYM    DATA     BIT       P
      000000D0H.3 SFRSYM    DATA     BIT       RS0
      000000D0H.4 SFRSYM    DATA     BIT       RS1
      00000083H   SFRSYM    DATA     BYTE      DPH
      000000E8H   SFRSYM    DATA     BYTE      SFRPRT12DR
      00000082H   SFRSYM    DATA     BYTE      DPL
      000000F8H   SFRSYM    DATA     BYTE      SFRPRT15DR
      00000086H   SFRSYM    DATA     BYTE      DPS
      000000E9H   SFRSYM    DATA     BYTE      SFRPRT12PS
      00000093H   SFRSYM    DATA     BYTE      DPX
      000000F9H   SFRSYM    DATA     BYTE      SFRPRT15PS
      000000D0H.5 SFRSYM    DATA     BIT       F0
      000000D0H.1 SFRSYM    DATA     BIT       F1
      0000008AH   SFRSYM    DATA     BYTE      SFRPRT0SEL
      000000D0H   SFRSYM    DATA     BYTE      PSW
      000000A2H   SFRSYM    DATA     BYTE      SFRPRT1SEL
      0000009AH   SFRSYM    DATA     BYTE      SFRPRT2SEL
      000000B2H   SFRSYM    DATA     BYTE      SFRPRT3SEL
      000000C2H   SFRSYM    DATA     BYTE      SFRPRT4SEL

      0100A8A9H   BLOCK     CODE     ---       LVL=0
      0100A8A9H   BLOCK     CODE     NEAR LAB  LVL=1
      00000007H   SYMBOL    DATA     BYTE      ctrl
      00000007H   SYMBOL    DATA     BYTE      COUNTER_ENC_interruptState
      ---         BLOCKEND  ---      ---       LVL=1
      0100A8A9H   LINE      CODE     ---       #37
LX51 LINKER/LOCATER V4.64.0.0                                                         06/13/2017  14:44:14  PAGE 82


      0100A8A9H   LINE      CODE     ---       #38
      0100A8A9H   LINE      CODE     ---       #79
      0100A8B0H   LINE      CODE     ---       #80
      0100A8B1H   LINE      CODE     ---       #83
      0100A8B5H   LINE      CODE     ---       #88
      0100A8B6H   LINE      CODE     ---       #96
      0100A8B9H   LINE      CODE     ---       #100
      0100A8BEH   LINE      CODE     ---       #102
      0100A8C3H   LINE      CODE     ---       #104
      0100A8C8H   LINE      CODE     ---       #108
      0100A8CBH   LINE      CODE     ---       #110
      0100A8D0H   LINE      CODE     ---       #115
      0100A8D3H   LINE      CODE     ---       #117
      0100A8DAH   LINE      CODE     ---       #120
      0100A8DDH   LINE      CODE     ---       #123
      ---         BLOCKEND  ---      ---       LVL=0

      0100B0DDH   BLOCK     CODE     ---       LVL=0
      0100B0DDH   LINE      CODE     ---       #143
      0100B0DDH   LINE      CODE     ---       #144
      0100B0DDH   LINE      CODE     ---       #155
      0100B0E4H   LINE      CODE     ---       #158
      ---         BLOCKEND  ---      ---       LVL=0

      0100AE2DH   BLOCK     CODE     ---       LVL=0
      0100AE2DH   LINE      CODE     ---       #178
      0100AE2DH   LINE      CODE     ---       #179
      0100AE2DH   LINE      CODE     ---       #180
      0100AE33H   LINE      CODE     ---       #181
      0100AE33H   LINE      CODE     ---       #182
      0100AE36H   LINE      CODE     ---       #184
      0100AE3CH   LINE      CODE     ---       #185
      0100AE3CH   LINE      CODE     ---       #188
      0100AE3FH   LINE      CODE     ---       #189
      ---         BLOCKEND  ---      ---       LVL=0

      0100B146H   BLOCK     CODE     ---       LVL=0
      00000007H   SYMBOL    DATA     BYTE      interruptsMask
      0100B146H   LINE      CODE     ---       #237
      0100B146H   LINE      CODE     ---       #238
      0100B146H   LINE      CODE     ---       #239
      0100B14BH   LINE      CODE     ---       #240
      ---         BLOCKEND  ---      ---       LVL=0

      0100B14CH   BLOCK     CODE     ---       LVL=0
      0100B14CH   LINE      CODE     ---       #261
      0100B14CH   LINE      CODE     ---       #262
      0100B14CH   LINE      CODE     ---       #263
      0100B151H   LINE      CODE     ---       #264
      ---         BLOCKEND  ---      ---       LVL=0
      00000007H   SYMBOL    DATA     BYTE      control

      0100B152H   BLOCK     CODE     ---       LVL=0
      00000007H   SYMBOL    DATA     BYTE      counter
      0100B152H   LINE      CODE     ---       #326
      0100B152H   LINE      CODE     ---       #328
      0100B152H   LINE      CODE     ---       #337
      0100B157H   LINE      CODE     ---       #339
      ---         BLOCKEND  ---      ---       LVL=0

      0100B158H   BLOCK     CODE     ---       LVL=0
      0100B158H   LINE      CODE     ---       #390
      0100B158H   LINE      CODE     ---       #391
      0100B158H   LINE      CODE     ---       #395
      0100B15DH   LINE      CODE     ---       #397
LX51 LINKER/LOCATER V4.64.0.0                                                         06/13/2017  14:44:14  PAGE 83


      ---         BLOCKEND  ---      ---       LVL=0

      0100B15EH   BLOCK     CODE     ---       LVL=0
      00000007H   SYMBOL    DATA     BYTE      period
      0100B15EH   LINE      CODE     ---       #415
      0100B15EH   LINE      CODE     ---       #416
      0100B15EH   LINE      CODE     ---       #420
      0100B163H   LINE      CODE     ---       #422
      ---         BLOCKEND  ---      ---       LVL=0

      0100B164H   BLOCK     CODE     ---       LVL=0
      00000007H   SYMBOL    DATA     BYTE      compare
      0100B164H   LINE      CODE     ---       #465
      0100B164H   LINE      CODE     ---       #467
      0100B164H   LINE      CODE     ---       #471
      0100B169H   LINE      CODE     ---       #473
      ---         BLOCKEND  ---      ---       LVL=0

      0100AFC6H   BLOCK     CODE     ---       LVL=0
      0100AFC6H   LINE      CODE     ---       #558
      0100AFC6H   LINE      CODE     ---       #559
      0100AFC6H   LINE      CODE     ---       #561
      0100AFCDH   LINE      CODE     ---       #562
      0100AFCDH   LINE      CODE     ---       #563
      0100AFD0H   LINE      CODE     ---       #564
      0100AFD2H   LINE      CODE     ---       #566
      ---         BLOCKEND  ---      ---       LVL=0

      ---         MODULE    ---      ---       SHIFTREG_ENC_1
      02000C9DH   PUBLIC    XDATA    BYTE      SHIFTREG_ENC_1_initVar
      0100B05FH   PUBLIC    CODE     ---       SHIFTREG_ENC_1_ReadData
      0100AEE9H   PUBLIC    CODE     ---       _SHIFTREG_ENC_1_SetIntMode
      0100AF57H   PUBLIC    CODE     ---       SHIFTREG_ENC_1_EnableInt
      0100B16AH   PUBLIC    CODE     ---       SHIFTREG_ENC_1_Init
      0100B02AH   PUBLIC    CODE     ---       SHIFTREG_ENC_1_Enable
      0100AE40H   PUBLIC    CODE     ---       SHIFTREG_ENC_1_Start
      000000CAH   SFRSYM    DATA     BYTE      SFRPRT5SEL
      000000DAH   SFRSYM    DATA     BYTE      SFRPRT6SEL
      000000D0H.6 SFRSYM    DATA     BIT       AC
      000000A8H.7 SFRSYM    DATA     BIT       EA
      000000A8H   SFRSYM    DATA     BYTE      IE
      00000085H   SFRSYM    DATA     BYTE      DPH1
      00000084H   SFRSYM    DATA     BYTE      DPL1
      000000D0H.7 SFRSYM    DATA     BIT       CY
      000000A0H   SFRSYM    DATA     BYTE      P2AX
      00000095H   SFRSYM    DATA     BYTE      DPX1
      00000081H   SFRSYM    DATA     BYTE      SP
      000000D0H.2 SFRSYM    DATA     BIT       OV
      00000080H   SFRSYM    DATA     BYTE      SFRPRT0DR
      00000090H   SFRSYM    DATA     BYTE      SFRPRT1DR
      000000F2H   SFRSYM    DATA     BYTE      SFRPRT12SEL
      00000098H   SFRSYM    DATA     BYTE      SFRPRT2DR
      000000B0H   SFRSYM    DATA     BYTE      SFRPRT3DR
      000000C0H   SFRSYM    DATA     BYTE      SFRPRT4DR
      000000FAH   SFRSYM    DATA     BYTE      SFRPRT15SEL
      000000C8H   SFRSYM    DATA     BYTE      SFRPRT5DR
      000000D8H   SFRSYM    DATA     BYTE      SFRPRT6DR
      00000089H   SFRSYM    DATA     BYTE      SFRPRT0PS
      00000091H   SFRSYM    DATA     BYTE      SFRPRT1PS
      00000099H   SFRSYM    DATA     BYTE      SFRPRT2PS
      000000B1H   SFRSYM    DATA     BYTE      SFRPRT3PS
      000000C1H   SFRSYM    DATA     BYTE      SFRPRT4PS
      000000C9H   SFRSYM    DATA     BYTE      SFRPRT5PS
      000000D9H   SFRSYM    DATA     BYTE      SFRPRT6PS
      000000EAH   SFRSYM    DATA     BYTE      MXAX
LX51 LINKER/LOCATER V4.64.0.0                                                         06/13/2017  14:44:14  PAGE 84


      000000F0H   SFRSYM    DATA     BYTE      B
      000000E0H   SFRSYM    DATA     BYTE      ACC
      000000D0H   SFRSYM    DATA     BIT       P
      000000D0H.3 SFRSYM    DATA     BIT       RS0
      000000D0H.4 SFRSYM    DATA     BIT       RS1
      00000083H   SFRSYM    DATA     BYTE      DPH
      000000E8H   SFRSYM    DATA     BYTE      SFRPRT12DR
      00000082H   SFRSYM    DATA     BYTE      DPL
      000000F8H   SFRSYM    DATA     BYTE      SFRPRT15DR
      00000086H   SFRSYM    DATA     BYTE      DPS
      000000E9H   SFRSYM    DATA     BYTE      SFRPRT12PS
      00000093H   SFRSYM    DATA     BYTE      DPX
      000000F9H   SFRSYM    DATA     BYTE      SFRPRT15PS
      000000D0H.5 SFRSYM    DATA     BIT       F0
      000000D0H.1 SFRSYM    DATA     BIT       F1
      0000008AH   SFRSYM    DATA     BYTE      SFRPRT0SEL
      000000D0H   SFRSYM    DATA     BYTE      PSW
      000000A2H   SFRSYM    DATA     BYTE      SFRPRT1SEL
      0000009AH   SFRSYM    DATA     BYTE      SFRPRT2SEL
      000000B2H   SFRSYM    DATA     BYTE      SFRPRT3SEL
      000000C2H   SFRSYM    DATA     BYTE      SFRPRT4SEL

      0100AE40H   BLOCK     CODE     ---       LVL=0
      0100AE40H   LINE      CODE     ---       #43
      0100AE40H   LINE      CODE     ---       #44
      0100AE40H   LINE      CODE     ---       #45
      0100AE46H   LINE      CODE     ---       #46
      0100AE46H   LINE      CODE     ---       #47
      0100AE49H   LINE      CODE     ---       #48
      0100AE4FH   LINE      CODE     ---       #49
      0100AE4FH   LINE      CODE     ---       #51
      0100AE52H   LINE      CODE     ---       #52
      ---         BLOCKEND  ---      ---       LVL=0

      0100B02AH   BLOCK     CODE     ---       LVL=0
      0100B02AH   LINE      CODE     ---       #69
      0100B02AH   LINE      CODE     ---       #70
      0100B02AH   LINE      CODE     ---       #73
      0100B031H   LINE      CODE     ---       #75
      0100B034H   LINE      CODE     ---       #76
      ---         BLOCKEND  ---      ---       LVL=0

      0100B16AH   BLOCK     CODE     ---       LVL=0
      0100B16AH   LINE      CODE     ---       #93
      0100B16AH   LINE      CODE     ---       #94
      0100B16AH   LINE      CODE     ---       #95
      0100B16FH   LINE      CODE     ---       #96
      ---         BLOCKEND  ---      ---       LVL=0

      0100AF57H   BLOCK     CODE     ---       LVL=0
      0100AF57H   BLOCK     CODE     NEAR LAB  LVL=1
      00000007H   SYMBOL    DATA     BYTE      interruptState
      ---         BLOCKEND  ---      ---       LVL=1
      0100AF57H   LINE      CODE     ---       #135
      0100AF57H   LINE      CODE     ---       #136
      0100AF57H   LINE      CODE     ---       #139
      0100AF5AH   LINE      CODE     ---       #140
      0100AF61H   LINE      CODE     ---       #141
      0100AF64H   LINE      CODE     ---       #142
      ---         BLOCKEND  ---      ---       LVL=0
      00000007H   SYMBOL    DATA     BYTE      interruptState
      00000007H   SYMBOL    DATA     BYTE      fifoId
      00000005H   SYMBOL    DATA     BYTE      result

      0100AEE9H   BLOCK     CODE     ---       LVL=0
LX51 LINKER/LOCATER V4.64.0.0                                                         06/13/2017  14:44:14  PAGE 85


      00000007H   SYMBOL    DATA     BYTE      interruptSource
      0100AEE9H   LINE      CODE     ---       #261
      0100AEE9H   LINE      CODE     ---       #262
      0100AEE9H   LINE      CODE     ---       #263
      0100AEF0H   LINE      CODE     ---       #264
      0100AEF9H   LINE      CODE     ---       #265
      ---         BLOCKEND  ---      ---       LVL=0
      00000004H   SYMBOL    DATA     DWORD     shiftData

      0100B05FH   BLOCK     CODE     ---       LVL=0
      0100B05FH   LINE      CODE     ---       #366
      0100B05FH   LINE      CODE     ---       #367
      0100B05FH   LINE      CODE     ---       #368
      0100B068H   LINE      CODE     ---       #369
      ---         BLOCKEND  ---      ---       LVL=0

      ---         MODULE    ---      ---       SHIFTREG_ENC_2
      02000C9EH   PUBLIC    XDATA    BYTE      SHIFTREG_ENC_2_initVar
      0100B069H   PUBLIC    CODE     ---       SHIFTREG_ENC_2_ReadData
      0100AEFAH   PUBLIC    CODE     ---       _SHIFTREG_ENC_2_SetIntMode
      0100AF65H   PUBLIC    CODE     ---       SHIFTREG_ENC_2_EnableInt
      0100B170H   PUBLIC    CODE     ---       SHIFTREG_ENC_2_Init
      0100B035H   PUBLIC    CODE     ---       SHIFTREG_ENC_2_Enable
      0100AE53H   PUBLIC    CODE     ---       SHIFTREG_ENC_2_Start
      000000CAH   SFRSYM    DATA     BYTE      SFRPRT5SEL
      000000DAH   SFRSYM    DATA     BYTE      SFRPRT6SEL
      000000D0H.6 SFRSYM    DATA     BIT       AC
      000000A8H.7 SFRSYM    DATA     BIT       EA
      000000A8H   SFRSYM    DATA     BYTE      IE
      00000085H   SFRSYM    DATA     BYTE      DPH1
      00000084H   SFRSYM    DATA     BYTE      DPL1
      000000D0H.7 SFRSYM    DATA     BIT       CY
      000000A0H   SFRSYM    DATA     BYTE      P2AX
      00000095H   SFRSYM    DATA     BYTE      DPX1
      00000081H   SFRSYM    DATA     BYTE      SP
      000000D0H.2 SFRSYM    DATA     BIT       OV
      00000080H   SFRSYM    DATA     BYTE      SFRPRT0DR
      00000090H   SFRSYM    DATA     BYTE      SFRPRT1DR
      000000F2H   SFRSYM    DATA     BYTE      SFRPRT12SEL
      00000098H   SFRSYM    DATA     BYTE      SFRPRT2DR
      000000B0H   SFRSYM    DATA     BYTE      SFRPRT3DR
      000000C0H   SFRSYM    DATA     BYTE      SFRPRT4DR
      000000FAH   SFRSYM    DATA     BYTE      SFRPRT15SEL
      000000C8H   SFRSYM    DATA     BYTE      SFRPRT5DR
      000000D8H   SFRSYM    DATA     BYTE      SFRPRT6DR
      00000089H   SFRSYM    DATA     BYTE      SFRPRT0PS
      00000091H   SFRSYM    DATA     BYTE      SFRPRT1PS
      00000099H   SFRSYM    DATA     BYTE      SFRPRT2PS
      000000B1H   SFRSYM    DATA     BYTE      SFRPRT3PS
      000000C1H   SFRSYM    DATA     BYTE      SFRPRT4PS
      000000C9H   SFRSYM    DATA     BYTE      SFRPRT5PS
      000000D9H   SFRSYM    DATA     BYTE      SFRPRT6PS
      000000EAH   SFRSYM    DATA     BYTE      MXAX
      000000F0H   SFRSYM    DATA     BYTE      B
      000000E0H   SFRSYM    DATA     BYTE      ACC
      000000D0H   SFRSYM    DATA     BIT       P
      000000D0H.3 SFRSYM    DATA     BIT       RS0
      000000D0H.4 SFRSYM    DATA     BIT       RS1
      00000083H   SFRSYM    DATA     BYTE      DPH
      000000E8H   SFRSYM    DATA     BYTE      SFRPRT12DR
      00000082H   SFRSYM    DATA     BYTE      DPL
      000000F8H   SFRSYM    DATA     BYTE      SFRPRT15DR
      00000086H   SFRSYM    DATA     BYTE      DPS
      000000E9H   SFRSYM    DATA     BYTE      SFRPRT12PS
      00000093H   SFRSYM    DATA     BYTE      DPX
LX51 LINKER/LOCATER V4.64.0.0                                                         06/13/2017  14:44:14  PAGE 86


      000000F9H   SFRSYM    DATA     BYTE      SFRPRT15PS
      000000D0H.5 SFRSYM    DATA     BIT       F0
      000000D0H.1 SFRSYM    DATA     BIT       F1
      0000008AH   SFRSYM    DATA     BYTE      SFRPRT0SEL
      000000D0H   SFRSYM    DATA     BYTE      PSW
      000000A2H   SFRSYM    DATA     BYTE      SFRPRT1SEL
      0000009AH   SFRSYM    DATA     BYTE      SFRPRT2SEL
      000000B2H   SFRSYM    DATA     BYTE      SFRPRT3SEL
      000000C2H   SFRSYM    DATA     BYTE      SFRPRT4SEL

      0100AE53H   BLOCK     CODE     ---       LVL=0
      0100AE53H   LINE      CODE     ---       #43
      0100AE53H   LINE      CODE     ---       #44
      0100AE53H   LINE      CODE     ---       #45
      0100AE59H   LINE      CODE     ---       #46
      0100AE59H   LINE      CODE     ---       #47
      0100AE5CH   LINE      CODE     ---       #48
      0100AE62H   LINE      CODE     ---       #49
      0100AE62H   LINE      CODE     ---       #51
      0100AE65H   LINE      CODE     ---       #52
      ---         BLOCKEND  ---      ---       LVL=0

      0100B035H   BLOCK     CODE     ---       LVL=0
      0100B035H   LINE      CODE     ---       #69
      0100B035H   LINE      CODE     ---       #70
      0100B035H   LINE      CODE     ---       #73
      0100B03CH   LINE      CODE     ---       #75
      0100B03FH   LINE      CODE     ---       #76
      ---         BLOCKEND  ---      ---       LVL=0

      0100B170H   BLOCK     CODE     ---       LVL=0
      0100B170H   LINE      CODE     ---       #93
      0100B170H   LINE      CODE     ---       #94
      0100B170H   LINE      CODE     ---       #95
      0100B175H   LINE      CODE     ---       #96
      ---         BLOCKEND  ---      ---       LVL=0

      0100AF65H   BLOCK     CODE     ---       LVL=0
      0100AF65H   BLOCK     CODE     NEAR LAB  LVL=1
      00000007H   SYMBOL    DATA     BYTE      interruptState
      ---         BLOCKEND  ---      ---       LVL=1
      0100AF65H   LINE      CODE     ---       #135
      0100AF65H   LINE      CODE     ---       #136
      0100AF65H   LINE      CODE     ---       #139
      0100AF68H   LINE      CODE     ---       #140
      0100AF6FH   LINE      CODE     ---       #141
      0100AF72H   LINE      CODE     ---       #142
      ---         BLOCKEND  ---      ---       LVL=0
      00000007H   SYMBOL    DATA     BYTE      interruptState
      00000007H   SYMBOL    DATA     BYTE      fifoId
      00000005H   SYMBOL    DATA     BYTE      result

      0100AEFAH   BLOCK     CODE     ---       LVL=0
      00000007H   SYMBOL    DATA     BYTE      interruptSource
      0100AEFAH   LINE      CODE     ---       #261
      0100AEFAH   LINE      CODE     ---       #262
      0100AEFAH   LINE      CODE     ---       #263
      0100AF01H   LINE      CODE     ---       #264
      0100AF0AH   LINE      CODE     ---       #265
      ---         BLOCKEND  ---      ---       LVL=0
      00000004H   SYMBOL    DATA     DWORD     shiftData

      0100B069H   BLOCK     CODE     ---       LVL=0
      0100B069H   LINE      CODE     ---       #366
      0100B069H   LINE      CODE     ---       #367
LX51 LINKER/LOCATER V4.64.0.0                                                         06/13/2017  14:44:14  PAGE 87


      0100B069H   LINE      CODE     ---       #368
      0100B072H   LINE      CODE     ---       #369
      ---         BLOCKEND  ---      ---       LVL=0

      ---         MODULE    ---      ---       SHIFTREG_ENC_3
      02000C9FH   PUBLIC    XDATA    BYTE      SHIFTREG_ENC_3_initVar
      0100B073H   PUBLIC    CODE     ---       SHIFTREG_ENC_3_ReadData
      0100AF0BH   PUBLIC    CODE     ---       _SHIFTREG_ENC_3_SetIntMode
      0100AF73H   PUBLIC    CODE     ---       SHIFTREG_ENC_3_EnableInt
      0100B176H   PUBLIC    CODE     ---       SHIFTREG_ENC_3_Init
      0100B040H   PUBLIC    CODE     ---       SHIFTREG_ENC_3_Enable
      0100AE66H   PUBLIC    CODE     ---       SHIFTREG_ENC_3_Start
      000000CAH   SFRSYM    DATA     BYTE      SFRPRT5SEL
      000000DAH   SFRSYM    DATA     BYTE      SFRPRT6SEL
      000000D0H.6 SFRSYM    DATA     BIT       AC
      000000A8H.7 SFRSYM    DATA     BIT       EA
      000000A8H   SFRSYM    DATA     BYTE      IE
      00000085H   SFRSYM    DATA     BYTE      DPH1
      00000084H   SFRSYM    DATA     BYTE      DPL1
      000000D0H.7 SFRSYM    DATA     BIT       CY
      000000A0H   SFRSYM    DATA     BYTE      P2AX
      00000095H   SFRSYM    DATA     BYTE      DPX1
      00000081H   SFRSYM    DATA     BYTE      SP
      000000D0H.2 SFRSYM    DATA     BIT       OV
      00000080H   SFRSYM    DATA     BYTE      SFRPRT0DR
      00000090H   SFRSYM    DATA     BYTE      SFRPRT1DR
      000000F2H   SFRSYM    DATA     BYTE      SFRPRT12SEL
      00000098H   SFRSYM    DATA     BYTE      SFRPRT2DR
      000000B0H   SFRSYM    DATA     BYTE      SFRPRT3DR
      000000C0H   SFRSYM    DATA     BYTE      SFRPRT4DR
      000000FAH   SFRSYM    DATA     BYTE      SFRPRT15SEL
      000000C8H   SFRSYM    DATA     BYTE      SFRPRT5DR
      000000D8H   SFRSYM    DATA     BYTE      SFRPRT6DR
      00000089H   SFRSYM    DATA     BYTE      SFRPRT0PS
      00000091H   SFRSYM    DATA     BYTE      SFRPRT1PS
      00000099H   SFRSYM    DATA     BYTE      SFRPRT2PS
      000000B1H   SFRSYM    DATA     BYTE      SFRPRT3PS
      000000C1H   SFRSYM    DATA     BYTE      SFRPRT4PS
      000000C9H   SFRSYM    DATA     BYTE      SFRPRT5PS
      000000D9H   SFRSYM    DATA     BYTE      SFRPRT6PS
      000000EAH   SFRSYM    DATA     BYTE      MXAX
      000000F0H   SFRSYM    DATA     BYTE      B
      000000E0H   SFRSYM    DATA     BYTE      ACC
      000000D0H   SFRSYM    DATA     BIT       P
      000000D0H.3 SFRSYM    DATA     BIT       RS0
      000000D0H.4 SFRSYM    DATA     BIT       RS1
      00000083H   SFRSYM    DATA     BYTE      DPH
      000000E8H   SFRSYM    DATA     BYTE      SFRPRT12DR
      00000082H   SFRSYM    DATA     BYTE      DPL
      000000F8H   SFRSYM    DATA     BYTE      SFRPRT15DR
      00000086H   SFRSYM    DATA     BYTE      DPS
      000000E9H   SFRSYM    DATA     BYTE      SFRPRT12PS
      00000093H   SFRSYM    DATA     BYTE      DPX
      000000F9H   SFRSYM    DATA     BYTE      SFRPRT15PS
      000000D0H.5 SFRSYM    DATA     BIT       F0
      000000D0H.1 SFRSYM    DATA     BIT       F1
      0000008AH   SFRSYM    DATA     BYTE      SFRPRT0SEL
      000000D0H   SFRSYM    DATA     BYTE      PSW
      000000A2H   SFRSYM    DATA     BYTE      SFRPRT1SEL
      0000009AH   SFRSYM    DATA     BYTE      SFRPRT2SEL
      000000B2H   SFRSYM    DATA     BYTE      SFRPRT3SEL
      000000C2H   SFRSYM    DATA     BYTE      SFRPRT4SEL

      0100AE66H   BLOCK     CODE     ---       LVL=0
      0100AE66H   LINE      CODE     ---       #43
LX51 LINKER/LOCATER V4.64.0.0                                                         06/13/2017  14:44:14  PAGE 88


      0100AE66H   LINE      CODE     ---       #44
      0100AE66H   LINE      CODE     ---       #45
      0100AE6CH   LINE      CODE     ---       #46
      0100AE6CH   LINE      CODE     ---       #47
      0100AE6FH   LINE      CODE     ---       #48
      0100AE75H   LINE      CODE     ---       #49
      0100AE75H   LINE      CODE     ---       #51
      0100AE78H   LINE      CODE     ---       #52
      ---         BLOCKEND  ---      ---       LVL=0

      0100B040H   BLOCK     CODE     ---       LVL=0
      0100B040H   LINE      CODE     ---       #69
      0100B040H   LINE      CODE     ---       #70
      0100B040H   LINE      CODE     ---       #73
      0100B047H   LINE      CODE     ---       #75
      0100B04AH   LINE      CODE     ---       #76
      ---         BLOCKEND  ---      ---       LVL=0

      0100B176H   BLOCK     CODE     ---       LVL=0
      0100B176H   LINE      CODE     ---       #93
      0100B176H   LINE      CODE     ---       #94
      0100B176H   LINE      CODE     ---       #95
      0100B17BH   LINE      CODE     ---       #96
      ---         BLOCKEND  ---      ---       LVL=0

      0100AF73H   BLOCK     CODE     ---       LVL=0
      0100AF73H   BLOCK     CODE     NEAR LAB  LVL=1
      00000007H   SYMBOL    DATA     BYTE      interruptState
      ---         BLOCKEND  ---      ---       LVL=1
      0100AF73H   LINE      CODE     ---       #135
      0100AF73H   LINE      CODE     ---       #136
      0100AF73H   LINE      CODE     ---       #139
      0100AF76H   LINE      CODE     ---       #140
      0100AF7DH   LINE      CODE     ---       #141
      0100AF80H   LINE      CODE     ---       #142
      ---         BLOCKEND  ---      ---       LVL=0
      00000007H   SYMBOL    DATA     BYTE      interruptState
      00000007H   SYMBOL    DATA     BYTE      fifoId
      00000005H   SYMBOL    DATA     BYTE      result

      0100AF0BH   BLOCK     CODE     ---       LVL=0
      00000007H   SYMBOL    DATA     BYTE      interruptSource
      0100AF0BH   LINE      CODE     ---       #261
      0100AF0BH   LINE      CODE     ---       #262
      0100AF0BH   LINE      CODE     ---       #263
      0100AF12H   LINE      CODE     ---       #264
      0100AF1BH   LINE      CODE     ---       #265
      ---         BLOCKEND  ---      ---       LVL=0
      00000004H   SYMBOL    DATA     DWORD     shiftData

      0100B073H   BLOCK     CODE     ---       LVL=0
      0100B073H   LINE      CODE     ---       #366
      0100B073H   LINE      CODE     ---       #367
      0100B073H   LINE      CODE     ---       #368
      0100B07CH   LINE      CODE     ---       #369
      ---         BLOCKEND  ---      ---       LVL=0

      ---         MODULE    ---      ---       EEPROM
      01009562H   PUBLIC    CODE     ---       _EEPROM_Write
      0100B1D4H   PUBLIC    CODE     ---       EEPROM_UpdateTemperature
      0100B1D0H   PUBLIC    CODE     ---       EEPROM_Start
      0100B113H   PUBLIC    CODE     ---       EEPROM_Enable
      000000CAH   SFRSYM    DATA     BYTE      SFRPRT5SEL
      000000DAH   SFRSYM    DATA     BYTE      SFRPRT6SEL
      000000D0H.6 SFRSYM    DATA     BIT       AC
LX51 LINKER/LOCATER V4.64.0.0                                                         06/13/2017  14:44:14  PAGE 89


      000000A8H.7 SFRSYM    DATA     BIT       EA
      000000A8H   SFRSYM    DATA     BYTE      IE
      00000085H   SFRSYM    DATA     BYTE      DPH1
      00000084H   SFRSYM    DATA     BYTE      DPL1
      000000D0H.7 SFRSYM    DATA     BIT       CY
      000000A0H   SFRSYM    DATA     BYTE      P2AX
      00000095H   SFRSYM    DATA     BYTE      DPX1
      00000081H   SFRSYM    DATA     BYTE      SP
      000000D0H.2 SFRSYM    DATA     BIT       OV
      00000080H   SFRSYM    DATA     BYTE      SFRPRT0DR
      00000090H   SFRSYM    DATA     BYTE      SFRPRT1DR
      000000F2H   SFRSYM    DATA     BYTE      SFRPRT12SEL
      00000098H   SFRSYM    DATA     BYTE      SFRPRT2DR
      000000B0H   SFRSYM    DATA     BYTE      SFRPRT3DR
      000000C0H   SFRSYM    DATA     BYTE      SFRPRT4DR
      000000FAH   SFRSYM    DATA     BYTE      SFRPRT15SEL
      000000C8H   SFRSYM    DATA     BYTE      SFRPRT5DR
      000000D8H   SFRSYM    DATA     BYTE      SFRPRT6DR
      00000089H   SFRSYM    DATA     BYTE      SFRPRT0PS
      00000091H   SFRSYM    DATA     BYTE      SFRPRT1PS
      00000099H   SFRSYM    DATA     BYTE      SFRPRT2PS
      000000B1H   SFRSYM    DATA     BYTE      SFRPRT3PS
      000000C1H   SFRSYM    DATA     BYTE      SFRPRT4PS
      000000C9H   SFRSYM    DATA     BYTE      SFRPRT5PS
      000000D9H   SFRSYM    DATA     BYTE      SFRPRT6PS
      000000EAH   SFRSYM    DATA     BYTE      MXAX
      000000F0H   SFRSYM    DATA     BYTE      B
      000000E0H   SFRSYM    DATA     BYTE      ACC
      000000D0H   SFRSYM    DATA     BIT       P
      000000D0H.3 SFRSYM    DATA     BIT       RS0
      000000D0H.4 SFRSYM    DATA     BIT       RS1
      00000083H   SFRSYM    DATA     BYTE      DPH
      000000E8H   SFRSYM    DATA     BYTE      SFRPRT12DR
      00000082H   SFRSYM    DATA     BYTE      DPL
      000000F8H   SFRSYM    DATA     BYTE      SFRPRT15DR
      00000086H   SFRSYM    DATA     BYTE      DPS
      000000E9H   SFRSYM    DATA     BYTE      SFRPRT12PS
      00000093H   SFRSYM    DATA     BYTE      DPX
      000000F9H   SFRSYM    DATA     BYTE      SFRPRT15PS
      000000D0H.5 SFRSYM    DATA     BIT       F0
      000000D0H.1 SFRSYM    DATA     BIT       F1
      0000008AH   SFRSYM    DATA     BYTE      SFRPRT0SEL
      000000D0H   SFRSYM    DATA     BYTE      PSW
      000000A2H   SFRSYM    DATA     BYTE      SFRPRT1SEL
      0000009AH   SFRSYM    DATA     BYTE      SFRPRT2SEL
      000000B2H   SFRSYM    DATA     BYTE      SFRPRT3SEL
      000000C2H   SFRSYM    DATA     BYTE      SFRPRT4SEL

      0100B113H   BLOCK     CODE     ---       LVL=0
      0100B113H   LINE      CODE     ---       #33
      0100B113H   LINE      CODE     ---       #34
      0100B113H   LINE      CODE     ---       #36
      0100B116H   LINE      CODE     ---       #39
      0100B119H   LINE      CODE     ---       #40
      ---         BLOCKEND  ---      ---       LVL=0

      0100B1D0H   BLOCK     CODE     ---       LVL=0
      0100B1D0H   LINE      CODE     ---       #57
      0100B1D0H   LINE      CODE     ---       #58
      0100B1D0H   LINE      CODE     ---       #59
      0100B1D3H   LINE      CODE     ---       #60
      ---         BLOCKEND  ---      ---       LVL=0

      0100B1D4H   BLOCK     CODE     ---       LVL=0
      0100B1D4H   LINE      CODE     ---       #247
LX51 LINKER/LOCATER V4.64.0.0                                                         06/13/2017  14:44:14  PAGE 90


      0100B1D4H   LINE      CODE     ---       #248
      0100B1D4H   LINE      CODE     ---       #249
      0100B1D7H   LINE      CODE     ---       #250
      ---         BLOCKEND  ---      ---       LVL=0

      01009562H   BLOCK     CODE     ---       LVL=0
      02000026H   SYMBOL    XDATA    ---       rowData
      02000029H   SYMBOL    XDATA    BYTE      rowNumber
      01009570H   BLOCK     CODE     NEAR LAB  LVL=1
      0200002AH   SYMBOL    XDATA    BYTE      status
      ---         BLOCKEND  ---      ---       LVL=1
      01009562H   LINE      CODE     ---       #345
      01009570H   LINE      CODE     ---       #346
      01009570H   LINE      CODE     ---       #349
      01009573H   LINE      CODE     ---       #351
      0100957FH   LINE      CODE     ---       #352
      0100957FH   LINE      CODE     ---       #354
      01009588H   LINE      CODE     ---       #355
      01009588H   LINE      CODE     ---       #357
      0100958EH   LINE      CODE     ---       #360
      010095ACH   LINE      CODE     ---       #361
      010095ACH   LINE      CODE     ---       #362
      010095B4H   LINE      CODE     ---       #363
      010095B4H   LINE      CODE     ---       #365
      010095B4H   LINE      CODE     ---       #368
      010095CAH   LINE      CODE     ---       #369
      010095CAH   LINE      CODE     ---       #370
      010095CEH   LINE      CODE     ---       #371
      010095CEH   LINE      CODE     ---       #374
      010095D4H   LINE      CODE     ---       #375
      010095D4H   LINE      CODE     ---       #376
      010095F0H   LINE      CODE     ---       #378
      010095F0H   LINE      CODE     ---       #380
      010095F6H   LINE      CODE     ---       #382
      010095FEH   LINE      CODE     ---       #383
      010095FEH   LINE      CODE     ---       #385
      010095FEH   LINE      CODE     ---       #388
      01009614H   LINE      CODE     ---       #389
      01009614H   LINE      CODE     ---       #390
      01009618H   LINE      CODE     ---       #391
      01009618H   LINE      CODE     ---       #392
      0100961AH   LINE      CODE     ---       #394
      0100961AH   LINE      CODE     ---       #395
      01009620H   LINE      CODE     ---       #396
      01009620H   LINE      CODE     ---       #397
      01009622H   LINE      CODE     ---       #399
      01009622H   LINE      CODE     ---       #400
      01009628H   LINE      CODE     ---       #401
      01009628H   LINE      CODE     ---       #402
      01009628H   LINE      CODE     ---       #405
      0100962BH   LINE      CODE     ---       #406
      0100962DH   LINE      CODE     ---       #408
      0100962DH   LINE      CODE     ---       #409
      01009633H   LINE      CODE     ---       #410
      01009633H   LINE      CODE     ---       #411
      01009635H   LINE      CODE     ---       #413
      01009635H   LINE      CODE     ---       #414
      0100963BH   LINE      CODE     ---       #415
      0100963BH   LINE      CODE     ---       #417
      01009640H   LINE      CODE     ---       #418
      ---         BLOCKEND  ---      ---       LVL=0

      ---         MODULE    ---      ---       SHIFTREG_ENC_4
      02000CA0H   PUBLIC    XDATA    BYTE      SHIFTREG_ENC_4_initVar
      0100B07DH   PUBLIC    CODE     ---       SHIFTREG_ENC_4_ReadData
LX51 LINKER/LOCATER V4.64.0.0                                                         06/13/2017  14:44:14  PAGE 91


      000000CAH   SFRSYM    DATA     BYTE      SFRPRT5SEL
      000000DAH   SFRSYM    DATA     BYTE      SFRPRT6SEL
      000000D0H.6 SFRSYM    DATA     BIT       AC
      000000A8H.7 SFRSYM    DATA     BIT       EA
      000000A8H   SFRSYM    DATA     BYTE      IE
      00000085H   SFRSYM    DATA     BYTE      DPH1
      00000084H   SFRSYM    DATA     BYTE      DPL1
      000000D0H.7 SFRSYM    DATA     BIT       CY
      000000A0H   SFRSYM    DATA     BYTE      P2AX
      00000095H   SFRSYM    DATA     BYTE      DPX1
      00000081H   SFRSYM    DATA     BYTE      SP
      000000D0H.2 SFRSYM    DATA     BIT       OV
      00000080H   SFRSYM    DATA     BYTE      SFRPRT0DR
      00000090H   SFRSYM    DATA     BYTE      SFRPRT1DR
      000000F2H   SFRSYM    DATA     BYTE      SFRPRT12SEL
      00000098H   SFRSYM    DATA     BYTE      SFRPRT2DR
      000000B0H   SFRSYM    DATA     BYTE      SFRPRT3DR
      000000C0H   SFRSYM    DATA     BYTE      SFRPRT4DR
      000000FAH   SFRSYM    DATA     BYTE      SFRPRT15SEL
      000000C8H   SFRSYM    DATA     BYTE      SFRPRT5DR
      000000D8H   SFRSYM    DATA     BYTE      SFRPRT6DR
      00000089H   SFRSYM    DATA     BYTE      SFRPRT0PS
      00000091H   SFRSYM    DATA     BYTE      SFRPRT1PS
      00000099H   SFRSYM    DATA     BYTE      SFRPRT2PS
      000000B1H   SFRSYM    DATA     BYTE      SFRPRT3PS
      000000C1H   SFRSYM    DATA     BYTE      SFRPRT4PS
      000000C9H   SFRSYM    DATA     BYTE      SFRPRT5PS
      000000D9H   SFRSYM    DATA     BYTE      SFRPRT6PS
      000000EAH   SFRSYM    DATA     BYTE      MXAX
      000000F0H   SFRSYM    DATA     BYTE      B
      000000E0H   SFRSYM    DATA     BYTE      ACC
      000000D0H   SFRSYM    DATA     BIT       P
      000000D0H.3 SFRSYM    DATA     BIT       RS0
      000000D0H.4 SFRSYM    DATA     BIT       RS1
      00000083H   SFRSYM    DATA     BYTE      DPH
      000000E8H   SFRSYM    DATA     BYTE      SFRPRT12DR
      00000082H   SFRSYM    DATA     BYTE      DPL
      000000F8H   SFRSYM    DATA     BYTE      SFRPRT15DR
      00000086H   SFRSYM    DATA     BYTE      DPS
      000000E9H   SFRSYM    DATA     BYTE      SFRPRT12PS
      00000093H   SFRSYM    DATA     BYTE      DPX
      000000F9H   SFRSYM    DATA     BYTE      SFRPRT15PS
      000000D0H.5 SFRSYM    DATA     BIT       F0
      000000D0H.1 SFRSYM    DATA     BIT       F1
      0000008AH   SFRSYM    DATA     BYTE      SFRPRT0SEL
      000000D0H   SFRSYM    DATA     BYTE      PSW
      000000A2H   SFRSYM    DATA     BYTE      SFRPRT1SEL
      0000009AH   SFRSYM    DATA     BYTE      SFRPRT2SEL
      000000B2H   SFRSYM    DATA     BYTE      SFRPRT3SEL
      000000C2H   SFRSYM    DATA     BYTE      SFRPRT4SEL
      00000007H   SYMBOL    DATA     BYTE      interruptState
      00000007H   SYMBOL    DATA     BYTE      interruptState
      00000007H   SYMBOL    DATA     BYTE      fifoId
      00000005H   SYMBOL    DATA     BYTE      result
      00000007H   SYMBOL    DATA     BYTE      interruptSource
      00000004H   SYMBOL    DATA     DWORD     shiftData

      0100B07DH   BLOCK     CODE     ---       LVL=0
      0100B07DH   LINE      CODE     ---       #366
      0100B07DH   LINE      CODE     ---       #367
      0100B07DH   LINE      CODE     ---       #368
      0100B086H   LINE      CODE     ---       #369
      ---         BLOCKEND  ---      ---       LVL=0

      ---         MODULE    ---      ---       RS485_CTS
LX51 LINKER/LOCATER V4.64.0.0                                                         06/13/2017  14:44:14  PAGE 92


      0100B17CH   PUBLIC    CODE     ---       _RS485_CTS_Write

      0100B17CH   BLOCK     CODE     ---       LVL=0
      00000007H   SYMBOL    DATA     BYTE      control
      0100B17CH   LINE      CODE     ---       #37
      0100B17CH   LINE      CODE     ---       #38
      0100B17CH   LINE      CODE     ---       #39
      0100B181H   LINE      CODE     ---       #40
      ---         BLOCKEND  ---      ---       LVL=0

      ---         MODULE    ---      ---       MOTOR_ON_OFF
      0100B182H   PUBLIC    CODE     ---       _MOTOR_ON_OFF_Write

      0100B182H   BLOCK     CODE     ---       LVL=0
      00000007H   SYMBOL    DATA     BYTE      control
      0100B182H   LINE      CODE     ---       #37
      0100B182H   LINE      CODE     ---       #38
      0100B182H   LINE      CODE     ---       #39
      0100B187H   LINE      CODE     ---       #40
      ---         BLOCKEND  ---      ---       LVL=0

      ---         MODULE    ---      ---       BOOTLOADABLE
      0100B087H   PUBLIC    CODE     ---       Bootloadable_Load
      000000CAH   SFRSYM    DATA     BYTE      SFRPRT5SEL
      000000DAH   SFRSYM    DATA     BYTE      SFRPRT6SEL
      000000D0H.6 SFRSYM    DATA     BIT       AC
      000000A8H.7 SFRSYM    DATA     BIT       EA
      000000A8H   SFRSYM    DATA     BYTE      IE
      00000085H   SFRSYM    DATA     BYTE      DPH1
      00000084H   SFRSYM    DATA     BYTE      DPL1
      000000D0H.7 SFRSYM    DATA     BIT       CY
      000000A0H   SFRSYM    DATA     BYTE      P2AX
      00000095H   SFRSYM    DATA     BYTE      DPX1
      00000081H   SFRSYM    DATA     BYTE      SP
      000000D0H.2 SFRSYM    DATA     BIT       OV
      00000080H   SFRSYM    DATA     BYTE      SFRPRT0DR
      00000090H   SFRSYM    DATA     BYTE      SFRPRT1DR
      000000F2H   SFRSYM    DATA     BYTE      SFRPRT12SEL
      00000098H   SFRSYM    DATA     BYTE      SFRPRT2DR
      000000B0H   SFRSYM    DATA     BYTE      SFRPRT3DR
      000000C0H   SFRSYM    DATA     BYTE      SFRPRT4DR
      000000FAH   SFRSYM    DATA     BYTE      SFRPRT15SEL
      000000C8H   SFRSYM    DATA     BYTE      SFRPRT5DR
      000000D8H   SFRSYM    DATA     BYTE      SFRPRT6DR
      00000089H   SFRSYM    DATA     BYTE      SFRPRT0PS
      00000091H   SFRSYM    DATA     BYTE      SFRPRT1PS
      00000099H   SFRSYM    DATA     BYTE      SFRPRT2PS
      000000B1H   SFRSYM    DATA     BYTE      SFRPRT3PS
      000000C1H   SFRSYM    DATA     BYTE      SFRPRT4PS
      000000C9H   SFRSYM    DATA     BYTE      SFRPRT5PS
      000000D9H   SFRSYM    DATA     BYTE      SFRPRT6PS
      000000EAH   SFRSYM    DATA     BYTE      MXAX
      000000F0H   SFRSYM    DATA     BYTE      B
      000000E0H   SFRSYM    DATA     BYTE      ACC
      000000D0H   SFRSYM    DATA     BIT       P
      000000D0H.3 SFRSYM    DATA     BIT       RS0
      000000D0H.4 SFRSYM    DATA     BIT       RS1
      00000083H   SFRSYM    DATA     BYTE      DPH
      000000E8H   SFRSYM    DATA     BYTE      SFRPRT12DR
      00000082H   SFRSYM    DATA     BYTE      DPL
      000000F8H   SFRSYM    DATA     BYTE      SFRPRT15DR
      00000086H   SFRSYM    DATA     BYTE      DPS
      000000E9H   SFRSYM    DATA     BYTE      SFRPRT12PS
      00000093H   SFRSYM    DATA     BYTE      DPX
      000000F9H   SFRSYM    DATA     BYTE      SFRPRT15PS
LX51 LINKER/LOCATER V4.64.0.0                                                         06/13/2017  14:44:14  PAGE 93


      000000D0H.5 SFRSYM    DATA     BIT       F0
      000000D0H.1 SFRSYM    DATA     BIT       F1
      0000008AH   SFRSYM    DATA     BYTE      SFRPRT0SEL
      000000D0H   SFRSYM    DATA     BYTE      PSW
      000000A2H   SFRSYM    DATA     BYTE      SFRPRT1SEL
      0000009AH   SFRSYM    DATA     BYTE      SFRPRT2SEL
      000000B2H   SFRSYM    DATA     BYTE      SFRPRT3SEL
      000000C2H   SFRSYM    DATA     BYTE      SFRPRT4SEL

      0100B087H   BLOCK     CODE     ---       LVL=0
      0100B087H   LINE      CODE     ---       #41
      0100B087H   LINE      CODE     ---       #42
      0100B087H   LINE      CODE     ---       #44
      0100B08DH   LINE      CODE     ---       #46
      0100B090H   LINE      CODE     ---       #47
      ---         BLOCKEND  ---      ---       LVL=0
      00000002H   SYMBOL    DATA     WORD      idx

      ---         MODULE    ---      ---       MY_TIMER
      02000CA1H   PUBLIC    XDATA    BYTE      MY_TIMER_initVar
      0100AFD3H   PUBLIC    CODE     ---       MY_TIMER_ClearFIFO
      0100AF1CH   PUBLIC    CODE     ---       MY_TIMER_ReadCounter
      0100B0A5H   PUBLIC    CODE     ---       _MY_TIMER_WriteCounter
      0100B09BH   PUBLIC    CODE     ---       MY_TIMER_ReadCapture
      0100B091H   PUBLIC    CODE     ---       _MY_TIMER_WritePeriod
      0100B18EH   PUBLIC    CODE     ---       MY_TIMER_ReadStatusRegister
      0100B188H   PUBLIC    CODE     ---       _MY_TIMER_SetInterruptMode
      0100AE79H   PUBLIC    CODE     ---       MY_TIMER_Start
      0100B0E5H   PUBLIC    CODE     ---       MY_TIMER_Enable
      0100AAC9H   PUBLIC    CODE     ---       MY_TIMER_Init
      000000CAH   SFRSYM    DATA     BYTE      SFRPRT5SEL
      000000DAH   SFRSYM    DATA     BYTE      SFRPRT6SEL
      000000D0H.6 SFRSYM    DATA     BIT       AC
      000000A8H.7 SFRSYM    DATA     BIT       EA
      000000A8H   SFRSYM    DATA     BYTE      IE
      00000085H   SFRSYM    DATA     BYTE      DPH1
      00000084H   SFRSYM    DATA     BYTE      DPL1
      000000D0H.7 SFRSYM    DATA     BIT       CY
      000000A0H   SFRSYM    DATA     BYTE      P2AX
      00000095H   SFRSYM    DATA     BYTE      DPX1
      00000081H   SFRSYM    DATA     BYTE      SP
      000000D0H.2 SFRSYM    DATA     BIT       OV
      00000080H   SFRSYM    DATA     BYTE      SFRPRT0DR
      00000090H   SFRSYM    DATA     BYTE      SFRPRT1DR
      000000F2H   SFRSYM    DATA     BYTE      SFRPRT12SEL
      00000098H   SFRSYM    DATA     BYTE      SFRPRT2DR
      000000B0H   SFRSYM    DATA     BYTE      SFRPRT3DR
      000000C0H   SFRSYM    DATA     BYTE      SFRPRT4DR
      000000FAH   SFRSYM    DATA     BYTE      SFRPRT15SEL
      000000C8H   SFRSYM    DATA     BYTE      SFRPRT5DR
      000000D8H   SFRSYM    DATA     BYTE      SFRPRT6DR
      00000089H   SFRSYM    DATA     BYTE      SFRPRT0PS
      00000091H   SFRSYM    DATA     BYTE      SFRPRT1PS
      00000099H   SFRSYM    DATA     BYTE      SFRPRT2PS
      000000B1H   SFRSYM    DATA     BYTE      SFRPRT3PS
      000000C1H   SFRSYM    DATA     BYTE      SFRPRT4PS
      000000C9H   SFRSYM    DATA     BYTE      SFRPRT5PS
      000000D9H   SFRSYM    DATA     BYTE      SFRPRT6PS
      000000EAH   SFRSYM    DATA     BYTE      MXAX
      000000F0H   SFRSYM    DATA     BYTE      B
      000000E0H   SFRSYM    DATA     BYTE      ACC
      000000D0H   SFRSYM    DATA     BIT       P
      000000D0H.3 SFRSYM    DATA     BIT       RS0
      000000D0H.4 SFRSYM    DATA     BIT       RS1
      00000083H   SFRSYM    DATA     BYTE      DPH
LX51 LINKER/LOCATER V4.64.0.0                                                         06/13/2017  14:44:14  PAGE 94


      000000E8H   SFRSYM    DATA     BYTE      SFRPRT12DR
      00000082H   SFRSYM    DATA     BYTE      DPL
      000000F8H   SFRSYM    DATA     BYTE      SFRPRT15DR
      00000086H   SFRSYM    DATA     BYTE      DPS
      000000E9H   SFRSYM    DATA     BYTE      SFRPRT12PS
      00000093H   SFRSYM    DATA     BYTE      DPX
      000000F9H   SFRSYM    DATA     BYTE      SFRPRT15PS
      000000D0H.5 SFRSYM    DATA     BIT       F0
      000000D0H.1 SFRSYM    DATA     BIT       F1
      0000008AH   SFRSYM    DATA     BYTE      SFRPRT0SEL
      000000D0H   SFRSYM    DATA     BYTE      PSW
      000000A2H   SFRSYM    DATA     BYTE      SFRPRT1SEL
      0000009AH   SFRSYM    DATA     BYTE      SFRPRT2SEL
      000000B2H   SFRSYM    DATA     BYTE      SFRPRT3SEL
      000000C2H   SFRSYM    DATA     BYTE      SFRPRT4SEL

      0100AAC9H   BLOCK     CODE     ---       LVL=0
      0100AAC9H   BLOCK     CODE     NEAR LAB  LVL=1
      00000007H   SYMBOL    DATA     BYTE      MY_TIMER_interruptState
      ---         BLOCKEND  ---      ---       LVL=1
      0100AAC9H   LINE      CODE     ---       #43
      0100AAC9H   LINE      CODE     ---       #44
      0100AAC9H   LINE      CODE     ---       #118
      0100AAD4H   LINE      CODE     ---       #119
      0100AADFH   LINE      CODE     ---       #142
      0100AAE2H   LINE      CODE     ---       #145
      0100AAE9H   LINE      CODE     ---       #148
      0100AAECH   LINE      CODE     ---       #159
      0100AAEFH   LINE      CODE     ---       #162
      0100AAF4H   LINE      CODE     ---       #163
      ---         BLOCKEND  ---      ---       LVL=0

      0100B0E5H   BLOCK     CODE     ---       LVL=0
      0100B0E5H   LINE      CODE     ---       #180
      0100B0E5H   LINE      CODE     ---       #181
      0100B0E5H   LINE      CODE     ---       #190
      0100B0ECH   LINE      CODE     ---       #192
      ---         BLOCKEND  ---      ---       LVL=0

      0100AE79H   BLOCK     CODE     ---       LVL=0
      0100AE79H   LINE      CODE     ---       #215
      0100AE79H   LINE      CODE     ---       #216
      0100AE79H   LINE      CODE     ---       #217
      0100AE7FH   LINE      CODE     ---       #218
      0100AE7FH   LINE      CODE     ---       #219
      0100AE82H   LINE      CODE     ---       #221
      0100AE88H   LINE      CODE     ---       #222
      0100AE88H   LINE      CODE     ---       #225
      0100AE8BH   LINE      CODE     ---       #226
      ---         BLOCKEND  ---      ---       LVL=0

      0100B188H   BLOCK     CODE     ---       LVL=0
      00000007H   SYMBOL    DATA     BYTE      interruptMode
      0100B188H   LINE      CODE     ---       #279
      0100B188H   LINE      CODE     ---       #280
      0100B188H   LINE      CODE     ---       #281
      0100B18DH   LINE      CODE     ---       #282
      ---         BLOCKEND  ---      ---       LVL=0

      0100B18EH   BLOCK     CODE     ---       LVL=0
      0100B18EH   LINE      CODE     ---       #333
      0100B18EH   LINE      CODE     ---       #334
      0100B18EH   LINE      CODE     ---       #335
      0100B193H   LINE      CODE     ---       #336
      ---         BLOCKEND  ---      ---       LVL=0
LX51 LINKER/LOCATER V4.64.0.0                                                         06/13/2017  14:44:14  PAGE 95


      00000007H   SYMBOL    DATA     BYTE      control

      0100B091H   BLOCK     CODE     ---       LVL=0
      00000004H   SYMBOL    DATA     DWORD     period
      0100B091H   LINE      CODE     ---       #431
      0100B091H   LINE      CODE     ---       #432
      0100B091H   LINE      CODE     ---       #437
      0100B09AH   LINE      CODE     ---       #439
      ---         BLOCKEND  ---      ---       LVL=0

      0100B09BH   BLOCK     CODE     ---       LVL=0
      0100B09BH   LINE      CODE     ---       #456
      0100B09BH   LINE      CODE     ---       #457
      0100B09BH   LINE      CODE     ---       #461
      0100B0A4H   LINE      CODE     ---       #463
      ---         BLOCKEND  ---      ---       LVL=0

      0100B0A5H   BLOCK     CODE     ---       LVL=0
      00000004H   SYMBOL    DATA     DWORD     counter
      0100B0A5H   LINE      CODE     ---       #480
      0100B0A5H   LINE      CODE     ---       #481
      0100B0A5H   LINE      CODE     ---       #489
      0100B0AEH   LINE      CODE     ---       #491
      ---         BLOCKEND  ---      ---       LVL=0

      0100AF1CH   BLOCK     CODE     ---       LVL=0
      0100AF1CH   LINE      CODE     ---       #508
      0100AF1CH   LINE      CODE     ---       #509
      0100AF1CH   LINE      CODE     ---       #516
      0100AF21H   LINE      CODE     ---       #523
      0100AF2AH   LINE      CODE     ---       #525
      ---         BLOCKEND  ---      ---       LVL=0

      0100AFD3H   BLOCK     CODE     ---       LVL=0
      0100AFD3H   LINE      CODE     ---       #763
      0100AFD3H   LINE      CODE     ---       #764
      0100AFD3H   LINE      CODE     ---       #765
      0100AFDAH   LINE      CODE     ---       #766
      0100AFDAH   LINE      CODE     ---       #767
      0100AFDDH   LINE      CODE     ---       #768
      0100AFDFH   LINE      CODE     ---       #769
      ---         BLOCKEND  ---      ---       LVL=0

      ---         MODULE    ---      ---       FTDI_ENABLE_REG
      0100B194H   PUBLIC    CODE     ---       _FTDI_ENABLE_REG_Write

      0100B194H   BLOCK     CODE     ---       LVL=0
      00000007H   SYMBOL    DATA     BYTE      control
      0100B194H   LINE      CODE     ---       #37
      0100B194H   LINE      CODE     ---       #38
      0100B194H   LINE      CODE     ---       #39
      0100B199H   LINE      CODE     ---       #40
      ---         BLOCKEND  ---      ---       LVL=0

      ---         MODULE    ---      ---       PACER_TIMER
      02000CA2H   PUBLIC    XDATA    BYTE      PACER_TIMER_initVar
      0100AF8FH   PUBLIC    CODE     ---       _PACER_TIMER_WriteCounter
      0100AF81H   PUBLIC    CODE     ---       _PACER_TIMER_WritePeriod
      0100B19AH   PUBLIC    CODE     ---       _PACER_TIMER_SetInterruptMode
      0100AE8CH   PUBLIC    CODE     ---       PACER_TIMER_Start
      0100AD88H   PUBLIC    CODE     ---       PACER_TIMER_Enable
      0100A794H   PUBLIC    CODE     ---       PACER_TIMER_Init
      000000CAH   SFRSYM    DATA     BYTE      SFRPRT5SEL
      000000DAH   SFRSYM    DATA     BYTE      SFRPRT6SEL
      000000D0H.6 SFRSYM    DATA     BIT       AC
LX51 LINKER/LOCATER V4.64.0.0                                                         06/13/2017  14:44:14  PAGE 96


      000000A8H.7 SFRSYM    DATA     BIT       EA
      000000A8H   SFRSYM    DATA     BYTE      IE
      00000085H   SFRSYM    DATA     BYTE      DPH1
      00000084H   SFRSYM    DATA     BYTE      DPL1
      000000D0H.7 SFRSYM    DATA     BIT       CY
      000000A0H   SFRSYM    DATA     BYTE      P2AX
      00000095H   SFRSYM    DATA     BYTE      DPX1
      00000081H   SFRSYM    DATA     BYTE      SP
      000000D0H.2 SFRSYM    DATA     BIT       OV
      00000080H   SFRSYM    DATA     BYTE      SFRPRT0DR
      00000090H   SFRSYM    DATA     BYTE      SFRPRT1DR
      000000F2H   SFRSYM    DATA     BYTE      SFRPRT12SEL
      00000098H   SFRSYM    DATA     BYTE      SFRPRT2DR
      000000B0H   SFRSYM    DATA     BYTE      SFRPRT3DR
      000000C0H   SFRSYM    DATA     BYTE      SFRPRT4DR
      000000FAH   SFRSYM    DATA     BYTE      SFRPRT15SEL
      000000C8H   SFRSYM    DATA     BYTE      SFRPRT5DR
      000000D8H   SFRSYM    DATA     BYTE      SFRPRT6DR
      00000089H   SFRSYM    DATA     BYTE      SFRPRT0PS
      00000091H   SFRSYM    DATA     BYTE      SFRPRT1PS
      00000099H   SFRSYM    DATA     BYTE      SFRPRT2PS
      000000B1H   SFRSYM    DATA     BYTE      SFRPRT3PS
      000000C1H   SFRSYM    DATA     BYTE      SFRPRT4PS
      000000C9H   SFRSYM    DATA     BYTE      SFRPRT5PS
      000000D9H   SFRSYM    DATA     BYTE      SFRPRT6PS
      000000EAH   SFRSYM    DATA     BYTE      MXAX
      000000F0H   SFRSYM    DATA     BYTE      B
      000000E0H   SFRSYM    DATA     BYTE      ACC
      000000D0H   SFRSYM    DATA     BIT       P
      000000D0H.3 SFRSYM    DATA     BIT       RS0
      000000D0H.4 SFRSYM    DATA     BIT       RS1
      00000083H   SFRSYM    DATA     BYTE      DPH
      000000E8H   SFRSYM    DATA     BYTE      SFRPRT12DR
      00000082H   SFRSYM    DATA     BYTE      DPL
      000000F8H   SFRSYM    DATA     BYTE      SFRPRT15DR
      00000086H   SFRSYM    DATA     BYTE      DPS
      000000E9H   SFRSYM    DATA     BYTE      SFRPRT12PS
      00000093H   SFRSYM    DATA     BYTE      DPX
      000000F9H   SFRSYM    DATA     BYTE      SFRPRT15PS
      000000D0H.5 SFRSYM    DATA     BIT       F0
      000000D0H.1 SFRSYM    DATA     BIT       F1
      0000008AH   SFRSYM    DATA     BYTE      SFRPRT0SEL
      000000D0H   SFRSYM    DATA     BYTE      PSW
      000000A2H   SFRSYM    DATA     BYTE      SFRPRT1SEL
      0000009AH   SFRSYM    DATA     BYTE      SFRPRT2SEL
      000000B2H   SFRSYM    DATA     BYTE      SFRPRT3SEL
      000000C2H   SFRSYM    DATA     BYTE      SFRPRT4SEL

      0100A794H   BLOCK     CODE     ---       LVL=0
      0100A794H   LINE      CODE     ---       #43
      0100A794H   LINE      CODE     ---       #44
      0100A794H   LINE      CODE     ---       #52
      0100A79BH   LINE      CODE     ---       #60
      0100A7A2H   LINE      CODE     ---       #106
      0100A7A9H   LINE      CODE     ---       #107
      0100A7ADH   LINE      CODE     ---       #110
      0100A7B1H   LINE      CODE     ---       #111
      0100A7B5H   LINE      CODE     ---       #114
      0100A7BCH   LINE      CODE     ---       #118
      0100A7C3H   LINE      CODE     ---       #119
      0100A7CAH   LINE      CODE     ---       #162
      0100A7CFH   LINE      CODE     ---       #163
      ---         BLOCKEND  ---      ---       LVL=0

      0100AD88H   BLOCK     CODE     ---       LVL=0
LX51 LINKER/LOCATER V4.64.0.0                                                         06/13/2017  14:44:14  PAGE 97


      0100AD88H   LINE      CODE     ---       #180
      0100AD88H   LINE      CODE     ---       #181
      0100AD88H   LINE      CODE     ---       #184
      0100AD8FH   LINE      CODE     ---       #185
      0100AD96H   LINE      CODE     ---       #190
      0100AD9DH   LINE      CODE     ---       #192
      ---         BLOCKEND  ---      ---       LVL=0

      0100AE8CH   BLOCK     CODE     ---       LVL=0
      0100AE8CH   LINE      CODE     ---       #215
      0100AE8CH   LINE      CODE     ---       #216
      0100AE8CH   LINE      CODE     ---       #217
      0100AE92H   LINE      CODE     ---       #218
      0100AE92H   LINE      CODE     ---       #219
      0100AE95H   LINE      CODE     ---       #221
      0100AE9BH   LINE      CODE     ---       #222
      0100AE9BH   LINE      CODE     ---       #225
      0100AE9EH   LINE      CODE     ---       #226
      ---         BLOCKEND  ---      ---       LVL=0

      0100B19AH   BLOCK     CODE     ---       LVL=0
      00000007H   SYMBOL    DATA     BYTE      interruptMode
      0100B19AH   LINE      CODE     ---       #279
      0100B19AH   LINE      CODE     ---       #280
      0100B19AH   LINE      CODE     ---       #281
      0100B19FH   LINE      CODE     ---       #282
      ---         BLOCKEND  ---      ---       LVL=0
      00000007H   SYMBOL    DATA     BYTE      control

      0100AF81H   BLOCK     CODE     ---       LVL=0
      00000006H   SYMBOL    DATA     WORD      period
      0100AF81H   BLOCK     CODE     NEAR LAB  LVL=1
      00000006H   SYMBOL    DATA     WORD      period_temp
      ---         BLOCKEND  ---      ---       LVL=1
      0100AF81H   LINE      CODE     ---       #431
      0100AF81H   LINE      CODE     ---       #432
      0100AF81H   LINE      CODE     ---       #434
      0100AF81H   LINE      CODE     ---       #435
      0100AF8EH   LINE      CODE     ---       #439
      ---         BLOCKEND  ---      ---       LVL=0

      0100AF8FH   BLOCK     CODE     ---       LVL=0
      00000006H   SYMBOL    DATA     WORD      counter
      0100AF8FH   LINE      CODE     ---       #480
      0100AF8FH   LINE      CODE     ---       #481
      0100AF8FH   LINE      CODE     ---       #486
      0100AF9CH   LINE      CODE     ---       #491
      ---         BLOCKEND  ---      ---       LVL=0

      ---         MODULE    ---      ---       FF_STATUS
      0100B1A0H   PUBLIC    CODE     ---       FF_STATUS_Read
      000000CAH   SFRSYM    DATA     BYTE      SFRPRT5SEL
      000000DAH   SFRSYM    DATA     BYTE      SFRPRT6SEL
      000000D0H.6 SFRSYM    DATA     BIT       AC
      000000A8H.7 SFRSYM    DATA     BIT       EA
      000000A8H   SFRSYM    DATA     BYTE      IE
      00000085H   SFRSYM    DATA     BYTE      DPH1
      00000084H   SFRSYM    DATA     BYTE      DPL1
      000000D0H.7 SFRSYM    DATA     BIT       CY
      000000A0H   SFRSYM    DATA     BYTE      P2AX
      00000095H   SFRSYM    DATA     BYTE      DPX1
      00000081H   SFRSYM    DATA     BYTE      SP
      000000D0H.2 SFRSYM    DATA     BIT       OV
      00000080H   SFRSYM    DATA     BYTE      SFRPRT0DR
      00000090H   SFRSYM    DATA     BYTE      SFRPRT1DR
LX51 LINKER/LOCATER V4.64.0.0                                                         06/13/2017  14:44:14  PAGE 98


      000000F2H   SFRSYM    DATA     BYTE      SFRPRT12SEL
      00000098H   SFRSYM    DATA     BYTE      SFRPRT2DR
      000000B0H   SFRSYM    DATA     BYTE      SFRPRT3DR
      000000C0H   SFRSYM    DATA     BYTE      SFRPRT4DR
      000000FAH   SFRSYM    DATA     BYTE      SFRPRT15SEL
      000000C8H   SFRSYM    DATA     BYTE      SFRPRT5DR
      000000D8H   SFRSYM    DATA     BYTE      SFRPRT6DR
      00000089H   SFRSYM    DATA     BYTE      SFRPRT0PS
      00000091H   SFRSYM    DATA     BYTE      SFRPRT1PS
      00000099H   SFRSYM    DATA     BYTE      SFRPRT2PS
      000000B1H   SFRSYM    DATA     BYTE      SFRPRT3PS
      000000C1H   SFRSYM    DATA     BYTE      SFRPRT4PS
      000000C9H   SFRSYM    DATA     BYTE      SFRPRT5PS
      000000D9H   SFRSYM    DATA     BYTE      SFRPRT6PS
      000000EAH   SFRSYM    DATA     BYTE      MXAX
      000000F0H   SFRSYM    DATA     BYTE      B
      000000E0H   SFRSYM    DATA     BYTE      ACC
      000000D0H   SFRSYM    DATA     BIT       P
      000000D0H.3 SFRSYM    DATA     BIT       RS0
      000000D0H.4 SFRSYM    DATA     BIT       RS1
      00000083H   SFRSYM    DATA     BYTE      DPH
      000000E8H   SFRSYM    DATA     BYTE      SFRPRT12DR
      00000082H   SFRSYM    DATA     BYTE      DPL
      000000F8H   SFRSYM    DATA     BYTE      SFRPRT15DR
      00000086H   SFRSYM    DATA     BYTE      DPS
      000000E9H   SFRSYM    DATA     BYTE      SFRPRT12PS
      00000093H   SFRSYM    DATA     BYTE      DPX
      000000F9H   SFRSYM    DATA     BYTE      SFRPRT15PS
      000000D0H.5 SFRSYM    DATA     BIT       F0
      000000D0H.1 SFRSYM    DATA     BIT       F1
      0000008AH   SFRSYM    DATA     BYTE      SFRPRT0SEL
      000000D0H   SFRSYM    DATA     BYTE      PSW
      000000A2H   SFRSYM    DATA     BYTE      SFRPRT1SEL
      0000009AH   SFRSYM    DATA     BYTE      SFRPRT2SEL
      000000B2H   SFRSYM    DATA     BYTE      SFRPRT3SEL
      000000C2H   SFRSYM    DATA     BYTE      SFRPRT4SEL

      0100B1A0H   BLOCK     CODE     ---       LVL=0
      0100B1A0H   LINE      CODE     ---       #37
      0100B1A0H   LINE      CODE     ---       #38
      0100B1A0H   LINE      CODE     ---       #39
      0100B1A5H   LINE      CODE     ---       #40
      ---         BLOCKEND  ---      ---       LVL=0
      00000007H   SYMBOL    DATA     BYTE      interruptState
      00000007H   SYMBOL    DATA     BYTE      interruptState
      00000007H   SYMBOL    DATA     BYTE      mask

      ---         MODULE    ---      ---       RESET_FF
      0100B1A6H   PUBLIC    CODE     ---       _RESET_FF_Write

      0100B1A6H   BLOCK     CODE     ---       LVL=0
      00000007H   SYMBOL    DATA     BYTE      control
      0100B1A6H   LINE      CODE     ---       #37
      0100B1A6H   LINE      CODE     ---       #38
      0100B1A6H   LINE      CODE     ---       #39
      0100B1ABH   LINE      CODE     ---       #40
      ---         BLOCKEND  ---      ---       LVL=0

      ---         MODULE    ---      ---       MOTOR_DIR
      0100B1ACH   PUBLIC    CODE     ---       _MOTOR_DIR_Write

      0100B1ACH   BLOCK     CODE     ---       LVL=0
      00000007H   SYMBOL    DATA     BYTE      control
      0100B1ACH   LINE      CODE     ---       #37
      0100B1ACH   LINE      CODE     ---       #38
LX51 LINKER/LOCATER V4.64.0.0                                                         06/13/2017  14:44:14  PAGE 99


      0100B1ACH   LINE      CODE     ---       #39
      0100B1B1H   LINE      CODE     ---       #40
      ---         BLOCKEND  ---      ---       LVL=0

      ---         MODULE    ---      ---       ADC_STATUS
      0100B1B2H   PUBLIC    CODE     ---       ADC_STATUS_Read
      000000CAH   SFRSYM    DATA     BYTE      SFRPRT5SEL
      000000DAH   SFRSYM    DATA     BYTE      SFRPRT6SEL
      000000D0H.6 SFRSYM    DATA     BIT       AC
      000000A8H.7 SFRSYM    DATA     BIT       EA
      000000A8H   SFRSYM    DATA     BYTE      IE
      00000085H   SFRSYM    DATA     BYTE      DPH1
      00000084H   SFRSYM    DATA     BYTE      DPL1
      000000D0H.7 SFRSYM    DATA     BIT       CY
      000000A0H   SFRSYM    DATA     BYTE      P2AX
      00000095H   SFRSYM    DATA     BYTE      DPX1
      00000081H   SFRSYM    DATA     BYTE      SP
      000000D0H.2 SFRSYM    DATA     BIT       OV
      00000080H   SFRSYM    DATA     BYTE      SFRPRT0DR
      00000090H   SFRSYM    DATA     BYTE      SFRPRT1DR
      000000F2H   SFRSYM    DATA     BYTE      SFRPRT12SEL
      00000098H   SFRSYM    DATA     BYTE      SFRPRT2DR
      000000B0H   SFRSYM    DATA     BYTE      SFRPRT3DR
      000000C0H   SFRSYM    DATA     BYTE      SFRPRT4DR
      000000FAH   SFRSYM    DATA     BYTE      SFRPRT15SEL
      000000C8H   SFRSYM    DATA     BYTE      SFRPRT5DR
      000000D8H   SFRSYM    DATA     BYTE      SFRPRT6DR
      00000089H   SFRSYM    DATA     BYTE      SFRPRT0PS
      00000091H   SFRSYM    DATA     BYTE      SFRPRT1PS
      00000099H   SFRSYM    DATA     BYTE      SFRPRT2PS
      000000B1H   SFRSYM    DATA     BYTE      SFRPRT3PS
      000000C1H   SFRSYM    DATA     BYTE      SFRPRT4PS
      000000C9H   SFRSYM    DATA     BYTE      SFRPRT5PS
      000000D9H   SFRSYM    DATA     BYTE      SFRPRT6PS
      000000EAH   SFRSYM    DATA     BYTE      MXAX
      000000F0H   SFRSYM    DATA     BYTE      B
      000000E0H   SFRSYM    DATA     BYTE      ACC
      000000D0H   SFRSYM    DATA     BIT       P
      000000D0H.3 SFRSYM    DATA     BIT       RS0
      000000D0H.4 SFRSYM    DATA     BIT       RS1
      00000083H   SFRSYM    DATA     BYTE      DPH
      000000E8H   SFRSYM    DATA     BYTE      SFRPRT12DR
      00000082H   SFRSYM    DATA     BYTE      DPL
      000000F8H   SFRSYM    DATA     BYTE      SFRPRT15DR
      00000086H   SFRSYM    DATA     BYTE      DPS
      000000E9H   SFRSYM    DATA     BYTE      SFRPRT12PS
      00000093H   SFRSYM    DATA     BYTE      DPX
      000000F9H   SFRSYM    DATA     BYTE      SFRPRT15PS
      000000D0H.5 SFRSYM    DATA     BIT       F0
      000000D0H.1 SFRSYM    DATA     BIT       F1
      0000008AH   SFRSYM    DATA     BYTE      SFRPRT0SEL
      000000D0H   SFRSYM    DATA     BYTE      PSW
      000000A2H   SFRSYM    DATA     BYTE      SFRPRT1SEL
      0000009AH   SFRSYM    DATA     BYTE      SFRPRT2SEL
      000000B2H   SFRSYM    DATA     BYTE      SFRPRT3SEL
      000000C2H   SFRSYM    DATA     BYTE      SFRPRT4SEL

      0100B1B2H   BLOCK     CODE     ---       LVL=0
      0100B1B2H   LINE      CODE     ---       #37
      0100B1B2H   LINE      CODE     ---       #38
      0100B1B2H   LINE      CODE     ---       #39
      0100B1B7H   LINE      CODE     ---       #40
      ---         BLOCKEND  ---      ---       LVL=0
      00000007H   SYMBOL    DATA     BYTE      interruptState
      00000007H   SYMBOL    DATA     BYTE      interruptState
LX51 LINKER/LOCATER V4.64.0.0                                                         06/13/2017  14:44:14  PAGE 100


      00000007H   SYMBOL    DATA     BYTE      mask

      ---         MODULE    ---      ---       ADC
      02000C77H   PUBLIC    XDATA    LONG      ADC_CountsPerVolt
      02000C76H   PUBLIC    XDATA    BYTE      ADC_convDone
      02000C72H   PUBLIC    XDATA    BYTE      ADC_started
      02000C71H   PUBLIC    XDATA    BYTE      ADC_stopConversion
      02000C6DH   PUBLIC    XDATA    LONG      ADC_Offset
      02000C6CH   PUBLIC    XDATA    BYTE      ADC_initVar
      02000C6BH   PUBLIC    XDATA    BYTE      ADC_Config
      0100ACDFH   PUBLIC    CODE     ---       ADC_Start
      01009B63H   PUBLIC    CODE     ---       ADC_Enable
      010096F3H   PUBLIC    CODE     ---       ADC_Init
      000000CAH   SFRSYM    DATA     BYTE      SFRPRT5SEL
      000000DAH   SFRSYM    DATA     BYTE      SFRPRT6SEL
      000000D0H.6 SFRSYM    DATA     BIT       AC
      000000A8H.7 SFRSYM    DATA     BIT       EA
      000000A8H   SFRSYM    DATA     BYTE      IE
      00000085H   SFRSYM    DATA     BYTE      DPH1
      00000084H   SFRSYM    DATA     BYTE      DPL1
      000000D0H.7 SFRSYM    DATA     BIT       CY
      000000A0H   SFRSYM    DATA     BYTE      P2AX
      00000095H   SFRSYM    DATA     BYTE      DPX1
      00000081H   SFRSYM    DATA     BYTE      SP
      000000D0H.2 SFRSYM    DATA     BIT       OV
      00000080H   SFRSYM    DATA     BYTE      SFRPRT0DR
      00000090H   SFRSYM    DATA     BYTE      SFRPRT1DR
      000000F2H   SFRSYM    DATA     BYTE      SFRPRT12SEL
      00000098H   SFRSYM    DATA     BYTE      SFRPRT2DR
      000000B0H   SFRSYM    DATA     BYTE      SFRPRT3DR
      000000C0H   SFRSYM    DATA     BYTE      SFRPRT4DR
      000000FAH   SFRSYM    DATA     BYTE      SFRPRT15SEL
      000000C8H   SFRSYM    DATA     BYTE      SFRPRT5DR
      000000D8H   SFRSYM    DATA     BYTE      SFRPRT6DR
      00000089H   SFRSYM    DATA     BYTE      SFRPRT0PS
      00000091H   SFRSYM    DATA     BYTE      SFRPRT1PS
      00000099H   SFRSYM    DATA     BYTE      SFRPRT2PS
      000000B1H   SFRSYM    DATA     BYTE      SFRPRT3PS
      000000C1H   SFRSYM    DATA     BYTE      SFRPRT4PS
      000000C9H   SFRSYM    DATA     BYTE      SFRPRT5PS
      000000D9H   SFRSYM    DATA     BYTE      SFRPRT6PS
      000000EAH   SFRSYM    DATA     BYTE      MXAX
      000000F0H   SFRSYM    DATA     BYTE      B
      000000E0H   SFRSYM    DATA     BYTE      ACC
      000000D0H   SFRSYM    DATA     BIT       P
      000000D0H.3 SFRSYM    DATA     BIT       RS0
      000000D0H.4 SFRSYM    DATA     BIT       RS1
      00000083H   SFRSYM    DATA     BYTE      DPH
      000000E8H   SFRSYM    DATA     BYTE      SFRPRT12DR
      00000082H   SFRSYM    DATA     BYTE      DPL
      000000F8H   SFRSYM    DATA     BYTE      SFRPRT15DR
      00000086H   SFRSYM    DATA     BYTE      DPS
      000000E9H   SFRSYM    DATA     BYTE      SFRPRT12PS
      00000093H   SFRSYM    DATA     BYTE      DPX
      000000F9H   SFRSYM    DATA     BYTE      SFRPRT15PS
      000000D0H.5 SFRSYM    DATA     BIT       F0
      000000D0H.1 SFRSYM    DATA     BIT       F1
      0000008AH   SFRSYM    DATA     BYTE      SFRPRT0SEL
      000000D0H   SFRSYM    DATA     BYTE      PSW
      000000A2H   SFRSYM    DATA     BYTE      SFRPRT1SEL
      0000009AH   SFRSYM    DATA     BYTE      SFRPRT2SEL
      000000B2H   SFRSYM    DATA     BYTE      SFRPRT3SEL
      000000C2H   SFRSYM    DATA     BYTE      SFRPRT4SEL
      01009855H   SYMBOL    CODE     ---       _ADC_InitConfig
      01008365H   SYMBOL    CODE     ---       _ADC_GainCompensation
LX51 LINKER/LOCATER V4.64.0.0                                                         06/13/2017  14:44:14  PAGE 101


      0100A757H   SYMBOL    CODE     ---       _ADC_SetDSMRef0Reg
      02000C73H   SYMBOL    XDATA    ---       ADC_gcor

      010096F3H   BLOCK     CODE     ---       LVL=0
      010096F3H   LINE      CODE     ---       #91
      010096F3H   LINE      CODE     ---       #92
      010096F3H   LINE      CODE     ---       #94
      010096F9H   LINE      CODE     ---       #95
      010096FEH   LINE      CODE     ---       #97
      01009703H   LINE      CODE     ---       #101
      01009708H   LINE      CODE     ---       #106
      0100970FH   LINE      CODE     ---       #110
      01009715H   LINE      CODE     ---       #111
      01009718H   LINE      CODE     ---       #112
      0100971CH   LINE      CODE     ---       #113
      01009723H   LINE      CODE     ---       #114
      01009728H   LINE      CODE     ---       #116
      0100972CH   LINE      CODE     ---       #117
      0100972EH   LINE      CODE     ---       #119
      01009734H   LINE      CODE     ---       #120
      01009737H   LINE      CODE     ---       #124
      0100973BH   LINE      CODE     ---       #126
      01009741H   LINE      CODE     ---       #127
      01009744H   LINE      CODE     ---       #128
      01009749H   LINE      CODE     ---       #130
      0100974FH   LINE      CODE     ---       #133
      01009766H   LINE      CODE     ---       #161
      0100977CH   LINE      CODE     ---       #162
      0100979BH   LINE      CODE     ---       #165
      010097A3H   LINE      CODE     ---       #166
      ---         BLOCKEND  ---      ---       LVL=0

      01009B63H   BLOCK     CODE     ---       LVL=0
      01009B63H   BLOCK     CODE     NEAR LAB  LVL=1
      02000003H   SYMBOL    XDATA    BYTE      config
      02000004H   SYMBOL    XDATA    BYTE      enableInterrupts
      ---         BLOCKEND  ---      ---       LVL=1
      01009B63H   LINE      CODE     ---       #184
      01009B63H   LINE      CODE     ---       #185
      01009B63H   LINE      CODE     ---       #188
      01009B6BH   LINE      CODE     ---       #191
      01009B73H   LINE      CODE     ---       #194
      01009B7AH   LINE      CODE     ---       #195
      01009B7EH   LINE      CODE     ---       #198
      01009B85H   LINE      CODE     ---       #199
      01009B89H   LINE      CODE     ---       #202
      01009B90H   LINE      CODE     ---       #203
      01009B95H   LINE      CODE     ---       #205
      01009B9CH   LINE      CODE     ---       #265
      01009B9CH   LINE      CODE     ---       #266
      01009B9CH   LINE      CODE     ---       #268
      01009B9CH   LINE      CODE     ---       #271
      01009BA3H   LINE      CODE     ---       #274
      01009BAAH   LINE      CODE     ---       #275
      01009BAFH   LINE      CODE     ---       #278
      01009BB6H   LINE      CODE     ---       #281
      01009BBCH   LINE      CODE     ---       #285
      01009BC3H   LINE      CODE     ---       #286
      01009BCAH   LINE      CODE     ---       #290
      01009BD1H   LINE      CODE     ---       #291
      01009BD8H   LINE      CODE     ---       #295
      01009BDEH   LINE      CODE     ---       #297
      01009BE2H   LINE      CODE     ---       #300
      01009BEAH   LINE      CODE     ---       #302
      ---         BLOCKEND  ---      ---       LVL=0
LX51 LINKER/LOCATER V4.64.0.0                                                         06/13/2017  14:44:14  PAGE 102



      0100ACDFH   BLOCK     CODE     ---       LVL=0
      0100ACDFH   LINE      CODE     ---       #329
      0100ACDFH   LINE      CODE     ---       #330
      0100ACDFH   LINE      CODE     ---       #331
      0100ACE5H   LINE      CODE     ---       #332
      0100ACE5H   LINE      CODE     ---       #333
      0100ACEBH   LINE      CODE     ---       #334
      0100ACEBH   LINE      CODE     ---       #335
      0100ACEEH   LINE      CODE     ---       #336
      0100ACEEH   LINE      CODE     ---       #337
      0100ACF4H   LINE      CODE     ---       #338
      0100ACF4H   LINE      CODE     ---       #341
      0100ACF7H   LINE      CODE     ---       #342
      ---         BLOCKEND  ---      ---       LVL=0
      00000007H   SYMBOL    DATA     BYTE      gain
      00000006H   SYMBOL    DATA     BYTE      tmpReg
      00000007H   SYMBOL    DATA     BYTE      coherency
      00000006H   SYMBOL    DATA     BYTE      tmpReg
      00000004H   SYMBOL    DATA     WORD      gcorValue
      00000007H   SYMBOL    DATA     BYTE      retMode
      00000006H   SYMBOL    DATA     BYTE      status
      00000006H   SYMBOL    DATA     CHAR      result
      00000007H   SYMBOL    DATA     BYTE      coherency
      00000004H   SYMBOL    DATA     LONG      offset
      00000004H   SYMBOL    DATA     LONG      adcGain
      00000006H   SYMBOL    DATA     INT       mVolts
      00000004H   SYMBOL    DATA     FLOAT     Volts
      00000004H   SYMBOL    DATA     LONG      uVolts

      01009855H   BLOCK     CODE     ---       LVL=0
      00000007H   SYMBOL    DATA     BYTE      config
      01009855H   LINE      CODE     ---       #1242
      01009855H   LINE      CODE     ---       #1243
      01009855H   LINE      CODE     ---       #1244
      0100985AH   LINE      CODE     ---       #1246
      01009862H   LINE      CODE     ---       #1247
      01009862H   LINE      CODE     ---       #1249
      01009868H   LINE      CODE     ---       #1250
      0100986EH   LINE      CODE     ---       #1251
      01009872H   LINE      CODE     ---       #1252
      01009875H   LINE      CODE     ---       #1253
      01009877H   LINE      CODE     ---       #1254
      0100987BH   LINE      CODE     ---       #1255
      01009880H   LINE      CODE     ---       #1256
      01009882H   LINE      CODE     ---       #1257
      01009884H   LINE      CODE     ---       #1258
      01009889H   LINE      CODE     ---       #1260
      0100988FH   LINE      CODE     ---       #1261
      01009893H   LINE      CODE     ---       #1262
      01009897H   LINE      CODE     ---       #1263
      0100989AH   LINE      CODE     ---       #1264
      010098A0H   LINE      CODE     ---       #1265
      010098A4H   LINE      CODE     ---       #1266
      010098A8H   LINE      CODE     ---       #1267
      010098ADH   LINE      CODE     ---       #1268
      010098B1H   LINE      CODE     ---       #1269
      010098B5H   LINE      CODE     ---       #1270
      010098B9H   LINE      CODE     ---       #1272
      010098BEH   LINE      CODE     ---       #1273
      010098C4H   LINE      CODE     ---       #1274
      010098C7H   LINE      CODE     ---       #1276
      010098CCH   LINE      CODE     ---       #1277
      010098CEH   LINE      CODE     ---       #1278
      010098D1H   LINE      CODE     ---       #1279
LX51 LINKER/LOCATER V4.64.0.0                                                         06/13/2017  14:44:14  PAGE 103


      010098D5H   LINE      CODE     ---       #1288
      010098DAH   LINE      CODE     ---       #1300
      010098E7H   LINE      CODE     ---       #1302
      010098F0H   LINE      CODE     ---       #1306
      010098F9H   LINE      CODE     ---       #1311
      01009902H   LINE      CODE     ---       #1313
      01009902H   LINE      CODE     ---       #1526
      ---         BLOCKEND  ---      ---       LVL=0

      01008365H   BLOCK     CODE     ---       LVL=0
      00000007H   SYMBOL    DATA     BYTE      inputRange
      02000004H   SYMBOL    XDATA    WORD      idealDecGain
      02000006H   SYMBOL    XDATA    WORD      idealOddDecGain
      02000008H   SYMBOL    XDATA    BYTE      resolution
      02000009H   SYMBOL    XDATA    BYTE      config
      01008373H   BLOCK     CODE     NEAR LAB  LVL=1
      0200000AH   SYMBOL    XDATA    CHAR      flash
      00000004H   SYMBOL    DATA     LONG      normalised
      00000004H   SYMBOL    DATA     WORD      gcorValue
      00000004H   SYMBOL    DATA     DWORD     gcorTmp
      ---         BLOCKEND  ---      ---       LVL=1
      01008365H   LINE      CODE     ---       #1617
      01008373H   LINE      CODE     ---       #1619
      01008373H   LINE      CODE     ---       #1625
      01008389H   LINE      CODE     ---       #1626
      01008389H   LINE      CODE     ---       #1627
      010083A3H   LINE      CODE     ---       #1628
      010083A3H   LINE      CODE     ---       #1629
      010083A3H   LINE      CODE     ---       #1630
      010083A3H   LINE      CODE     ---       #1632
      010083ACH   LINE      CODE     ---       #1633
      010083ACH   LINE      CODE     ---       #1634
      010083BAH   LINE      CODE     ---       #1635
      010083BDH   LINE      CODE     ---       #1637
      010083BDH   LINE      CODE     ---       #1638
      010083CBH   LINE      CODE     ---       #1639
      010083CBH   LINE      CODE     ---       #1640
      010083CEH   LINE      CODE     ---       #1642
      010083CEH   LINE      CODE     ---       #1644
      010083D7H   LINE      CODE     ---       #1645
      010083D7H   LINE      CODE     ---       #1646
      010083E5H   LINE      CODE     ---       #1647
      010083E7H   LINE      CODE     ---       #1649
      010083E7H   LINE      CODE     ---       #1650
      010083F5H   LINE      CODE     ---       #1651
      010083F5H   LINE      CODE     ---       #1652
      010083F7H   LINE      CODE     ---       #1654
      010083F7H   LINE      CODE     ---       #1656
      01008400H   LINE      CODE     ---       #1657
      01008400H   LINE      CODE     ---       #1658
      0100840EH   LINE      CODE     ---       #1659
      01008410H   LINE      CODE     ---       #1661
      01008410H   LINE      CODE     ---       #1662
      0100841EH   LINE      CODE     ---       #1663
      0100841EH   LINE      CODE     ---       #1664
      01008420H   LINE      CODE     ---       #1666
      01008420H   LINE      CODE     ---       #1668
      01008429H   LINE      CODE     ---       #1669
      01008429H   LINE      CODE     ---       #1670
      01008437H   LINE      CODE     ---       #1671
      01008439H   LINE      CODE     ---       #1673
      01008439H   LINE      CODE     ---       #1674
      01008447H   LINE      CODE     ---       #1675
      01008447H   LINE      CODE     ---       #1676
      01008449H   LINE      CODE     ---       #1678
LX51 LINKER/LOCATER V4.64.0.0                                                         06/13/2017  14:44:14  PAGE 104


      01008449H   LINE      CODE     ---       #1679
      0100844EH   LINE      CODE     ---       #1680
      0100844EH   LINE      CODE     ---       #1681
      0100844EH   LINE      CODE     ---       #1684
      01008481H   LINE      CODE     ---       #1685
      01008494H   LINE      CODE     ---       #1686
      010084A1H   LINE      CODE     ---       #1688
      010084AAH   LINE      CODE     ---       #1689
      010084AAH   LINE      CODE     ---       #1690
      010084C1H   LINE      CODE     ---       #1691
      010084D7H   LINE      CODE     ---       #1692
      010084D9H   LINE      CODE     ---       #1694
      010084D9H   LINE      CODE     ---       #1696
      010084EDH   LINE      CODE     ---       #1697
      010084EDH   LINE      CODE     ---       #1700
      01008505H   LINE      CODE     ---       #1701
      01008505H   LINE      CODE     ---       #1703
      01008505H   LINE      CODE     ---       #1706
      01008505H   LINE      CODE     ---       #1707
      ---         BLOCKEND  ---      ---       LVL=0

      0100A757H   BLOCK     CODE     ---       LVL=0
      02000003H   SYMBOL    XDATA    BYTE      value
      0100A75CH   BLOCK     CODE     NEAR LAB  LVL=1
      02000004H   SYMBOL    XDATA    BYTE      enableInterrupts
      ---         BLOCKEND  ---      ---       LVL=1
      0100A757H   LINE      CODE     ---       #1724
      0100A75CH   LINE      CODE     ---       #1725
      0100A75CH   LINE      CODE     ---       #1727
      0100A764H   LINE      CODE     ---       #1730
      0100A76BH   LINE      CODE     ---       #1731
      0100A770H   LINE      CODE     ---       #1732
      0100A778H   LINE      CODE     ---       #1735
      0100A77FH   LINE      CODE     ---       #1737
      0100A786H   LINE      CODE     ---       #1738
      0100A78BH   LINE      CODE     ---       #1740
      0100A793H   LINE      CODE     ---       #1741
      ---         BLOCKEND  ---      ---       LVL=0
      00000007H   SYMBOL    DATA     CHAR      result
      00000006H   SYMBOL    DATA     INT       result
      00000004H   SYMBOL    DATA     LONG      result

      ---         MODULE    ---      ---       DMA_DMA
      02000CA3H   PUBLIC    XDATA    BYTE      DMA_DmaHandle
      02000003H   PUBLIC    XDATA    BYTE      ?_DMA_DmaInitialize?BYTE
      0100A53AH   PUBLIC    CODE     ---       _DMA_DmaInitialize
      000000CAH   SFRSYM    DATA     BYTE      SFRPRT5SEL
      000000DAH   SFRSYM    DATA     BYTE      SFRPRT6SEL
      000000D0H.6 SFRSYM    DATA     BIT       AC
      000000A8H.7 SFRSYM    DATA     BIT       EA
      000000A8H   SFRSYM    DATA     BYTE      IE
      00000085H   SFRSYM    DATA     BYTE      DPH1
      00000084H   SFRSYM    DATA     BYTE      DPL1
      000000D0H.7 SFRSYM    DATA     BIT       CY
      000000A0H   SFRSYM    DATA     BYTE      P2AX
      00000095H   SFRSYM    DATA     BYTE      DPX1
      00000081H   SFRSYM    DATA     BYTE      SP
      000000D0H.2 SFRSYM    DATA     BIT       OV
      00000080H   SFRSYM    DATA     BYTE      SFRPRT0DR
      00000090H   SFRSYM    DATA     BYTE      SFRPRT1DR
      000000F2H   SFRSYM    DATA     BYTE      SFRPRT12SEL
      00000098H   SFRSYM    DATA     BYTE      SFRPRT2DR
      000000B0H   SFRSYM    DATA     BYTE      SFRPRT3DR
      000000C0H   SFRSYM    DATA     BYTE      SFRPRT4DR
      000000FAH   SFRSYM    DATA     BYTE      SFRPRT15SEL
LX51 LINKER/LOCATER V4.64.0.0                                                         06/13/2017  14:44:14  PAGE 105


      000000C8H   SFRSYM    DATA     BYTE      SFRPRT5DR
      000000D8H   SFRSYM    DATA     BYTE      SFRPRT6DR
      00000089H   SFRSYM    DATA     BYTE      SFRPRT0PS
      00000091H   SFRSYM    DATA     BYTE      SFRPRT1PS
      00000099H   SFRSYM    DATA     BYTE      SFRPRT2PS
      000000B1H   SFRSYM    DATA     BYTE      SFRPRT3PS
      000000C1H   SFRSYM    DATA     BYTE      SFRPRT4PS
      000000C9H   SFRSYM    DATA     BYTE      SFRPRT5PS
      000000D9H   SFRSYM    DATA     BYTE      SFRPRT6PS
      000000EAH   SFRSYM    DATA     BYTE      MXAX
      000000F0H   SFRSYM    DATA     BYTE      B
      000000E0H   SFRSYM    DATA     BYTE      ACC
      000000D0H   SFRSYM    DATA     BIT       P
      000000D0H.3 SFRSYM    DATA     BIT       RS0
      000000D0H.4 SFRSYM    DATA     BIT       RS1
      00000083H   SFRSYM    DATA     BYTE      DPH
      000000E8H   SFRSYM    DATA     BYTE      SFRPRT12DR
      00000082H   SFRSYM    DATA     BYTE      DPL
      000000F8H   SFRSYM    DATA     BYTE      SFRPRT15DR
      00000086H   SFRSYM    DATA     BYTE      DPS
      000000E9H   SFRSYM    DATA     BYTE      SFRPRT12PS
      00000093H   SFRSYM    DATA     BYTE      DPX
      000000F9H   SFRSYM    DATA     BYTE      SFRPRT15PS
      000000D0H.5 SFRSYM    DATA     BIT       F0
      000000D0H.1 SFRSYM    DATA     BIT       F1
      0000008AH   SFRSYM    DATA     BYTE      SFRPRT0SEL
      000000D0H   SFRSYM    DATA     BYTE      PSW
      000000A2H   SFRSYM    DATA     BYTE      SFRPRT1SEL
      0000009AH   SFRSYM    DATA     BYTE      SFRPRT2SEL
      000000B2H   SFRSYM    DATA     BYTE      SFRPRT3SEL
      000000C2H   SFRSYM    DATA     BYTE      SFRPRT4SEL

      0100A53AH   BLOCK     CODE     ---       LVL=0
      00000007H   SYMBOL    DATA     BYTE      BurstCount
      00000006H   SYMBOL    DATA     BYTE      ReqestPerBurst
      02000005H   SYMBOL    XDATA    WORD      UpperSrcAddress
      02000007H   SYMBOL    XDATA    WORD      UpperDestAddress
      0100A53AH   LINE      CODE     ---       #97
      0100A544H   LINE      CODE     ---       #98
      0100A544H   LINE      CODE     ---       #101
      0100A54AH   LINE      CODE     ---       #109
      0100A55EH   LINE      CODE     ---       #112
      0100A574H   LINE      CODE     ---       #115
      0100A57EH   LINE      CODE     ---       #117
      0100A583H   LINE      CODE     ---       #118
      ---         BLOCKEND  ---      ---       LVL=0

      ---         MODULE    ---      ---       ADC_SOC
      0100B1B8H   PUBLIC    CODE     ---       _ADC_SOC_Write

      0100B1B8H   BLOCK     CODE     ---       LVL=0
      00000007H   SYMBOL    DATA     BYTE      control
      0100B1B8H   LINE      CODE     ---       #37
      0100B1B8H   LINE      CODE     ---       #38
      0100B1B8H   LINE      CODE     ---       #39
      0100B1BDH   LINE      CODE     ---       #40
      ---         BLOCKEND  ---      ---       LVL=0

      ---         MODULE    ---      ---       ISR_WATCHDOG
      0100B121H   PUBLIC    CODE     ---       ISR_WATCHDOG_Disable
      0100B11AH   PUBLIC    CODE     ---       ISR_WATCHDOG_Enable
      0100B0AFH   PUBLIC    CODE     ---       _ISR_WATCHDOG_SetPriority
      0100AF9DH   PUBLIC    CODE     ---       _ISR_WATCHDOG_SetVector
      0100AA9BH   PUBLIC    CODE     ---       ISR_WATCHDOG_Interrupt
      0100AC33H   PUBLIC    CODE     ---       _ISR_WATCHDOG_StartEx
LX51 LINKER/LOCATER V4.64.0.0                                                         06/13/2017  14:44:14  PAGE 106


      000000CAH   SFRSYM    DATA     BYTE      SFRPRT5SEL
      000000DAH   SFRSYM    DATA     BYTE      SFRPRT6SEL
      000000D0H.6 SFRSYM    DATA     BIT       AC
      000000A8H.7 SFRSYM    DATA     BIT       EA
      000000A8H   SFRSYM    DATA     BYTE      IE
      00000085H   SFRSYM    DATA     BYTE      DPH1
      00000084H   SFRSYM    DATA     BYTE      DPL1
      000000D0H.7 SFRSYM    DATA     BIT       CY
      000000A0H   SFRSYM    DATA     BYTE      P2AX
      00000095H   SFRSYM    DATA     BYTE      DPX1
      00000081H   SFRSYM    DATA     BYTE      SP
      000000D0H.2 SFRSYM    DATA     BIT       OV
      00000080H   SFRSYM    DATA     BYTE      SFRPRT0DR
      00000090H   SFRSYM    DATA     BYTE      SFRPRT1DR
      000000F2H   SFRSYM    DATA     BYTE      SFRPRT12SEL
      00000098H   SFRSYM    DATA     BYTE      SFRPRT2DR
      000000B0H   SFRSYM    DATA     BYTE      SFRPRT3DR
      000000C0H   SFRSYM    DATA     BYTE      SFRPRT4DR
      000000FAH   SFRSYM    DATA     BYTE      SFRPRT15SEL
      000000C8H   SFRSYM    DATA     BYTE      SFRPRT5DR
      000000D8H   SFRSYM    DATA     BYTE      SFRPRT6DR
      00000089H   SFRSYM    DATA     BYTE      SFRPRT0PS
      00000091H   SFRSYM    DATA     BYTE      SFRPRT1PS
      00000099H   SFRSYM    DATA     BYTE      SFRPRT2PS
      000000B1H   SFRSYM    DATA     BYTE      SFRPRT3PS
      000000C1H   SFRSYM    DATA     BYTE      SFRPRT4PS
      000000C9H   SFRSYM    DATA     BYTE      SFRPRT5PS
      000000D9H   SFRSYM    DATA     BYTE      SFRPRT6PS
      000000EAH   SFRSYM    DATA     BYTE      MXAX
      000000F0H   SFRSYM    DATA     BYTE      B
      000000E0H   SFRSYM    DATA     BYTE      ACC
      000000D0H   SFRSYM    DATA     BIT       P
      000000D0H.3 SFRSYM    DATA     BIT       RS0
      000000D0H.4 SFRSYM    DATA     BIT       RS1
      00000083H   SFRSYM    DATA     BYTE      DPH
      000000E8H   SFRSYM    DATA     BYTE      SFRPRT12DR
      00000082H   SFRSYM    DATA     BYTE      DPL
      000000F8H   SFRSYM    DATA     BYTE      SFRPRT15DR
      00000086H   SFRSYM    DATA     BYTE      DPS
      000000E9H   SFRSYM    DATA     BYTE      SFRPRT12PS
      00000093H   SFRSYM    DATA     BYTE      DPX
      000000F9H   SFRSYM    DATA     BYTE      SFRPRT15PS
      000000D0H.5 SFRSYM    DATA     BIT       F0
      000000D0H.1 SFRSYM    DATA     BIT       F1
      0000008AH   SFRSYM    DATA     BYTE      SFRPRT0SEL
      000000D0H   SFRSYM    DATA     BYTE      PSW
      000000A2H   SFRSYM    DATA     BYTE      SFRPRT1SEL
      0000009AH   SFRSYM    DATA     BYTE      SFRPRT2SEL
      000000B2H   SFRSYM    DATA     BYTE      SFRPRT3SEL
      000000C2H   SFRSYM    DATA     BYTE      SFRPRT4SEL

      0100AC33H   BLOCK     CODE     ---       LVL=0
      02000003H   SYMBOL    XDATA    ---       address
      0100AC33H   LINE      CODE     ---       #94
      0100AC3BH   LINE      CODE     ---       #95
      0100AC3BH   LINE      CODE     ---       #97
      0100AC3EH   LINE      CODE     ---       #100
      0100AC49H   LINE      CODE     ---       #103
      0100AC4EH   LINE      CODE     ---       #106
      0100AC51H   LINE      CODE     ---       #107
      ---         BLOCKEND  ---      ---       LVL=0

      0100AA9BH   BLOCK     CODE     ---       LVL=0
      0100AA9BH   LINE      CODE     ---       #151
      0100AA9BH   LINE      CODE     ---       #168
LX51 LINKER/LOCATER V4.64.0.0                                                         06/13/2017  14:44:14  PAGE 107


      ---         BLOCKEND  ---      ---       LVL=0

      0100AF9DH   BLOCK     CODE     ---       LVL=0
      00000006H   SYMBOL    DATA     ---       address
      0100AF9DH   LINE      CODE     ---       #198
      0100AF9DH   LINE      CODE     ---       #199
      0100AF9DH   LINE      CODE     ---       #200
      0100AFAAH   LINE      CODE     ---       #201
      ---         BLOCKEND  ---      ---       LVL=0

      0100B0AFH   BLOCK     CODE     ---       LVL=0
      00000007H   SYMBOL    DATA     BYTE      priority
      0100B0AFH   LINE      CODE     ---       #248
      0100B0AFH   LINE      CODE     ---       #249
      0100B0AFH   LINE      CODE     ---       #250
      0100B0B8H   LINE      CODE     ---       #251
      ---         BLOCKEND  ---      ---       LVL=0
      00000007H   SYMBOL    DATA     BYTE      priority

      0100B11AH   BLOCK     CODE     ---       LVL=0
      0100B11AH   LINE      CODE     ---       #297
      0100B11AH   LINE      CODE     ---       #298
      0100B11AH   LINE      CODE     ---       #300
      0100B120H   LINE      CODE     ---       #301
      ---         BLOCKEND  ---      ---       LVL=0

      0100B121H   BLOCK     CODE     ---       LVL=0
      0100B121H   LINE      CODE     ---       #339
      0100B121H   LINE      CODE     ---       #340
      0100B121H   LINE      CODE     ---       #342
      0100B127H   LINE      CODE     ---       #343
      ---         BLOCKEND  ---      ---       LVL=0

      ---         MODULE    ---      ---       WATCHDOG_COUNTER
      02000CA4H   PUBLIC    XDATA    BYTE      WATCHDOG_COUNTER_initVar
      0100AFABH   PUBLIC    CODE     ---       _WATCHDOG_COUNTER_WritePeriod
      0100AC8FH   PUBLIC    CODE     ---       _WATCHDOG_COUNTER_WriteCounter
      0100B1BEH   PUBLIC    CODE     ---       _WATCHDOG_COUNTER_SetInterruptMode
      0100AE9FH   PUBLIC    CODE     ---       WATCHDOG_COUNTER_Start
      0100AD9EH   PUBLIC    CODE     ---       WATCHDOG_COUNTER_Enable
      0100A83BH   PUBLIC    CODE     ---       WATCHDOG_COUNTER_Init
      000000CAH   SFRSYM    DATA     BYTE      SFRPRT5SEL
      000000DAH   SFRSYM    DATA     BYTE      SFRPRT6SEL
      000000D0H.6 SFRSYM    DATA     BIT       AC
      000000A8H.7 SFRSYM    DATA     BIT       EA
      000000A8H   SFRSYM    DATA     BYTE      IE
      00000085H   SFRSYM    DATA     BYTE      DPH1
      00000084H   SFRSYM    DATA     BYTE      DPL1
      000000D0H.7 SFRSYM    DATA     BIT       CY
      000000A0H   SFRSYM    DATA     BYTE      P2AX
      00000095H   SFRSYM    DATA     BYTE      DPX1
      00000081H   SFRSYM    DATA     BYTE      SP
      000000D0H.2 SFRSYM    DATA     BIT       OV
      00000080H   SFRSYM    DATA     BYTE      SFRPRT0DR
      00000090H   SFRSYM    DATA     BYTE      SFRPRT1DR
      000000F2H   SFRSYM    DATA     BYTE      SFRPRT12SEL
      00000098H   SFRSYM    DATA     BYTE      SFRPRT2DR
      000000B0H   SFRSYM    DATA     BYTE      SFRPRT3DR
      000000C0H   SFRSYM    DATA     BYTE      SFRPRT4DR
      000000FAH   SFRSYM    DATA     BYTE      SFRPRT15SEL
      000000C8H   SFRSYM    DATA     BYTE      SFRPRT5DR
      000000D8H   SFRSYM    DATA     BYTE      SFRPRT6DR
      00000089H   SFRSYM    DATA     BYTE      SFRPRT0PS
      00000091H   SFRSYM    DATA     BYTE      SFRPRT1PS
      00000099H   SFRSYM    DATA     BYTE      SFRPRT2PS
LX51 LINKER/LOCATER V4.64.0.0                                                         06/13/2017  14:44:14  PAGE 108


      000000B1H   SFRSYM    DATA     BYTE      SFRPRT3PS
      000000C1H   SFRSYM    DATA     BYTE      SFRPRT4PS
      000000C9H   SFRSYM    DATA     BYTE      SFRPRT5PS
      000000D9H   SFRSYM    DATA     BYTE      SFRPRT6PS
      000000EAH   SFRSYM    DATA     BYTE      MXAX
      000000F0H   SFRSYM    DATA     BYTE      B
      000000E0H   SFRSYM    DATA     BYTE      ACC
      000000D0H   SFRSYM    DATA     BIT       P
      000000D0H.3 SFRSYM    DATA     BIT       RS0
      000000D0H.4 SFRSYM    DATA     BIT       RS1
      00000083H   SFRSYM    DATA     BYTE      DPH
      000000E8H   SFRSYM    DATA     BYTE      SFRPRT12DR
      00000082H   SFRSYM    DATA     BYTE      DPL
      000000F8H   SFRSYM    DATA     BYTE      SFRPRT15DR
      00000086H   SFRSYM    DATA     BYTE      DPS
      000000E9H   SFRSYM    DATA     BYTE      SFRPRT12PS
      00000093H   SFRSYM    DATA     BYTE      DPX
      000000F9H   SFRSYM    DATA     BYTE      SFRPRT15PS
      000000D0H.5 SFRSYM    DATA     BIT       F0
      000000D0H.1 SFRSYM    DATA     BIT       F1
      0000008AH   SFRSYM    DATA     BYTE      SFRPRT0SEL
      000000D0H   SFRSYM    DATA     BYTE      PSW
      000000A2H   SFRSYM    DATA     BYTE      SFRPRT1SEL
      0000009AH   SFRSYM    DATA     BYTE      SFRPRT2SEL
      000000B2H   SFRSYM    DATA     BYTE      SFRPRT3SEL
      000000C2H   SFRSYM    DATA     BYTE      SFRPRT4SEL

      0100A83BH   BLOCK     CODE     ---       LVL=0
      0100A83BH   LINE      CODE     ---       #37
      0100A83BH   LINE      CODE     ---       #38
      0100A83BH   LINE      CODE     ---       #50
      0100A842H   LINE      CODE     ---       #57
      0100A849H   LINE      CODE     ---       #66
      0100A850H   LINE      CODE     ---       #69
      0100A857H   LINE      CODE     ---       #70
      0100A85BH   LINE      CODE     ---       #73
      0100A85FH   LINE      CODE     ---       #74
      0100A863H   LINE      CODE     ---       #100
      0100A868H   LINE      CODE     ---       #102
      0100A86DH   LINE      CODE     ---       #104
      0100A872H   LINE      CODE     ---       #123
      ---         BLOCKEND  ---      ---       LVL=0

      0100AD9EH   BLOCK     CODE     ---       LVL=0
      0100AD9EH   LINE      CODE     ---       #143
      0100AD9EH   LINE      CODE     ---       #144
      0100AD9EH   LINE      CODE     ---       #147
      0100ADA5H   LINE      CODE     ---       #148
      0100ADACH   LINE      CODE     ---       #155
      0100ADB3H   LINE      CODE     ---       #158
      ---         BLOCKEND  ---      ---       LVL=0

      0100AE9FH   BLOCK     CODE     ---       LVL=0
      0100AE9FH   LINE      CODE     ---       #178
      0100AE9FH   LINE      CODE     ---       #179
      0100AE9FH   LINE      CODE     ---       #180
      0100AEA5H   LINE      CODE     ---       #181
      0100AEA5H   LINE      CODE     ---       #182
      0100AEA8H   LINE      CODE     ---       #184
      0100AEAEH   LINE      CODE     ---       #185
      0100AEAEH   LINE      CODE     ---       #188
      0100AEB1H   LINE      CODE     ---       #189
      ---         BLOCKEND  ---      ---       LVL=0

      0100B1BEH   BLOCK     CODE     ---       LVL=0
LX51 LINKER/LOCATER V4.64.0.0                                                         06/13/2017  14:44:14  PAGE 109


      00000007H   SYMBOL    DATA     BYTE      interruptsMask
      0100B1BEH   LINE      CODE     ---       #237
      0100B1BEH   LINE      CODE     ---       #238
      0100B1BEH   LINE      CODE     ---       #239
      0100B1C3H   LINE      CODE     ---       #240
      ---         BLOCKEND  ---      ---       LVL=0
      00000007H   SYMBOL    DATA     BYTE      control

      0100AC8FH   BLOCK     CODE     ---       LVL=0
      00000007H   SYMBOL    DATA     BYTE      counter
      0100AC8FH   LINE      CODE     ---       #326
      0100AC8FH   LINE      CODE     ---       #328
      0100AC8FH   LINE      CODE     ---       #333
      0100AC96H   LINE      CODE     ---       #334
      0100ACA3H   LINE      CODE     ---       #335
      0100ACAAH   LINE      CODE     ---       #339
      ---         BLOCKEND  ---      ---       LVL=0

      0100AFABH   BLOCK     CODE     ---       LVL=0
      00000007H   SYMBOL    DATA     BYTE      period
      0100AFABH   LINE      CODE     ---       #415
      0100AFABH   LINE      CODE     ---       #416
      0100AFABH   LINE      CODE     ---       #418
      0100AFB8H   LINE      CODE     ---       #422
      ---         BLOCKEND  ---      ---       LVL=0

      ---         MODULE    ---      ---       WATCHDOG_ENABLER
      0100B1C4H   PUBLIC    CODE     ---       _WATCHDOG_ENABLER_Write

      0100B1C4H   BLOCK     CODE     ---       LVL=0
      00000007H   SYMBOL    DATA     BYTE      control
      0100B1C4H   LINE      CODE     ---       #37
      0100B1C4H   LINE      CODE     ---       #38
      0100B1C4H   LINE      CODE     ---       #39
      0100B1C9H   LINE      CODE     ---       #40
      ---         BLOCKEND  ---      ---       LVL=0

      ---         MODULE    ---      ---       WATCHDOG_REFRESH
      0100B1CAH   PUBLIC    CODE     ---       _WATCHDOG_REFRESH_Write

      0100B1CAH   BLOCK     CODE     ---       LVL=0
      00000007H   SYMBOL    DATA     BYTE      control
      0100B1CAH   LINE      CODE     ---       #37
      0100B1CAH   LINE      CODE     ---       #38
      0100B1CAH   LINE      CODE     ---       #39
      0100B1CFH   LINE      CODE     ---       #40
      ---         BLOCKEND  ---      ---       LVL=0

      ---         MODULE    ---      ---       CYDMAC
      01009E6EH   PUBLIC    CODE     ---       _CyDmaTdSetAddress
      02000003H   PUBLIC    XDATA    BYTE      ?_CyDmaTdSetConfiguration?BYTE
      01009C73H   PUBLIC    CODE     ---       _CyDmaTdSetConfiguration
      0100A719H   PUBLIC    CODE     ---       CyDmaTdAllocate
      02000009H   PUBLIC    XDATA    BYTE      ?_CyDmaChSetConfiguration?BYTE
      01009D7DH   PUBLIC    CODE     ---       _CyDmaChSetConfiguration
      0100AC71H   PUBLIC    CODE     ---       _CyDmaChSetInitialTd
      01009DF6H   PUBLIC    CODE     ---       _CyDmaChSetExtendedAddress
      0100A6D9H   PUBLIC    CODE     ---       _CyDmaChPriority
      0100A4EFH   PUBLIC    CODE     ---       _CyDmaChEnable
      0100A873H   PUBLIC    CODE     ---       CyDmacConfigure
      000000CAH   SFRSYM    DATA     BYTE      SFRPRT5SEL
      000000DAH   SFRSYM    DATA     BYTE      SFRPRT6SEL
      000000D0H.6 SFRSYM    DATA     BIT       AC
      000000A8H.7 SFRSYM    DATA     BIT       EA
      000000A8H   SFRSYM    DATA     BYTE      IE
LX51 LINKER/LOCATER V4.64.0.0                                                         06/13/2017  14:44:14  PAGE 110


      00000085H   SFRSYM    DATA     BYTE      DPH1
      00000084H   SFRSYM    DATA     BYTE      DPL1
      000000D0H.7 SFRSYM    DATA     BIT       CY
      000000A0H   SFRSYM    DATA     BYTE      P2AX
      00000095H   SFRSYM    DATA     BYTE      DPX1
      00000081H   SFRSYM    DATA     BYTE      SP
      000000D0H.2 SFRSYM    DATA     BIT       OV
      00000080H   SFRSYM    DATA     BYTE      SFRPRT0DR
      00000090H   SFRSYM    DATA     BYTE      SFRPRT1DR
      000000F2H   SFRSYM    DATA     BYTE      SFRPRT12SEL
      00000098H   SFRSYM    DATA     BYTE      SFRPRT2DR
      000000B0H   SFRSYM    DATA     BYTE      SFRPRT3DR
      000000C0H   SFRSYM    DATA     BYTE      SFRPRT4DR
      000000FAH   SFRSYM    DATA     BYTE      SFRPRT15SEL
      000000C8H   SFRSYM    DATA     BYTE      SFRPRT5DR
      000000D8H   SFRSYM    DATA     BYTE      SFRPRT6DR
      00000089H   SFRSYM    DATA     BYTE      SFRPRT0PS
      00000091H   SFRSYM    DATA     BYTE      SFRPRT1PS
      00000099H   SFRSYM    DATA     BYTE      SFRPRT2PS
      000000B1H   SFRSYM    DATA     BYTE      SFRPRT3PS
      000000C1H   SFRSYM    DATA     BYTE      SFRPRT4PS
      000000C9H   SFRSYM    DATA     BYTE      SFRPRT5PS
      000000D9H   SFRSYM    DATA     BYTE      SFRPRT6PS
      000000EAH   SFRSYM    DATA     BYTE      MXAX
      000000F0H   SFRSYM    DATA     BYTE      B
      000000E0H   SFRSYM    DATA     BYTE      ACC
      000000D0H   SFRSYM    DATA     BIT       P
      000000D0H.3 SFRSYM    DATA     BIT       RS0
      000000D0H.4 SFRSYM    DATA     BIT       RS1
      00000083H   SFRSYM    DATA     BYTE      DPH
      000000E8H   SFRSYM    DATA     BYTE      SFRPRT12DR
      00000082H   SFRSYM    DATA     BYTE      DPL
      000000F8H   SFRSYM    DATA     BYTE      SFRPRT15DR
      00000086H   SFRSYM    DATA     BYTE      DPS
      000000E9H   SFRSYM    DATA     BYTE      SFRPRT12PS
      00000093H   SFRSYM    DATA     BYTE      DPX
      000000F9H   SFRSYM    DATA     BYTE      SFRPRT15PS
      000000D0H.5 SFRSYM    DATA     BIT       F0
      000000D0H.1 SFRSYM    DATA     BIT       F1
      0000008AH   SFRSYM    DATA     BYTE      SFRPRT0SEL
      000000D0H   SFRSYM    DATA     BYTE      PSW
      000000A2H   SFRSYM    DATA     BYTE      SFRPRT1SEL
      0000009AH   SFRSYM    DATA     BYTE      SFRPRT2SEL
      000000B2H   SFRSYM    DATA     BYTE      SFRPRT3SEL
      000000C2H   SFRSYM    DATA     BYTE      SFRPRT4SEL
      02000C8AH   SYMBOL    XDATA    DWORD     CyDmaChannels
      02000C8EH   SYMBOL    XDATA    BYTE      CyDmaTdFreeIndex
      02000C8FH   SYMBOL    XDATA    BYTE      CyDmaTdCurrentNumber

      0100A873H   BLOCK     CODE     ---       LVL=0
      0100A873H   BLOCK     CODE     NEAR LAB  LVL=1
      00000007H   SYMBOL    DATA     BYTE      dmaIndex
      ---         BLOCKEND  ---      ---       LVL=1
      0100A873H   LINE      CODE     ---       #61
      0100A873H   LINE      CODE     ---       #62
      0100A873H   LINE      CODE     ---       #66
      0100A879H   LINE      CODE     ---       #67
      0100A87CH   LINE      CODE     ---       #70
      0100A881H   LINE      CODE     ---       #71
      0100A881H   LINE      CODE     ---       #72
      0100A894H   LINE      CODE     ---       #73
      0100A897H   LINE      CODE     ---       #76
      0100A8A8H   LINE      CODE     ---       #77
      ---         BLOCKEND  ---      ---       LVL=0
      00000007H   SYMBOL    DATA     BYTE      error
LX51 LINKER/LOCATER V4.64.0.0                                                         06/13/2017  14:44:14  PAGE 111



      0100A4EFH   BLOCK     CODE     ---       LVL=0
      00000007H   SYMBOL    DATA     BYTE      chHandle
      00000005H   SYMBOL    DATA     BYTE      preserveTds
      0100A4EFH   BLOCK     CODE     NEAR LAB  LVL=1
      00000006H   SYMBOL    DATA     BYTE      status
      ---         BLOCKEND  ---      ---       LVL=1
      0100A4EFH   LINE      CODE     ---       #304
      0100A4EFH   LINE      CODE     ---       #305
      0100A4EFH   LINE      CODE     ---       #306
      0100A4F1H   LINE      CODE     ---       #308
      0100A4F7H   LINE      CODE     ---       #309
      0100A4F7H   LINE      CODE     ---       #310
      0100A4FAH   LINE      CODE     ---       #311
      0100A4FAH   LINE      CODE     ---       #315
      0100A50DH   LINE      CODE     ---       #316
      0100A50FH   LINE      CODE     ---       #318
      0100A50FH   LINE      CODE     ---       #320
      0100A522H   LINE      CODE     ---       #321
      0100A522H   LINE      CODE     ---       #324
      0100A535H   LINE      CODE     ---       #326
      0100A537H   LINE      CODE     ---       #327
      0100A537H   LINE      CODE     ---       #329
      0100A539H   LINE      CODE     ---       #330
      ---         BLOCKEND  ---      ---       LVL=0
      00000007H   SYMBOL    DATA     BYTE      chHandle
      00000006H   SYMBOL    DATA     BYTE      status
      00000007H   SYMBOL    DATA     BYTE      chHandle
      00000006H   SYMBOL    DATA     BYTE      status

      0100A6D9H   BLOCK     CODE     ---       LVL=0
      00000004H   SYMBOL    DATA     BYTE      chHandle
      00000005H   SYMBOL    DATA     BYTE      priority
      0100A6DBH   BLOCK     CODE     NEAR LAB  LVL=1
      00000002H   SYMBOL    DATA     BYTE      value
      00000003H   SYMBOL    DATA     BYTE      status
      ---         BLOCKEND  ---      ---       LVL=1
      0100A6D9H   LINE      CODE     ---       #429
      0100A6DBH   LINE      CODE     ---       #430
      0100A6DBH   LINE      CODE     ---       #432
      0100A6DDH   LINE      CODE     ---       #434
      0100A6E3H   LINE      CODE     ---       #435
      0100A6E3H   LINE      CODE     ---       #436
      0100A6F6H   LINE      CODE     ---       #438
      0100A714H   LINE      CODE     ---       #440
      0100A716H   LINE      CODE     ---       #441
      0100A716H   LINE      CODE     ---       #443
      0100A718H   LINE      CODE     ---       #444
      ---         BLOCKEND  ---      ---       LVL=0

      01009DF6H   BLOCK     CODE     ---       LVL=0
      02000009H   SYMBOL    XDATA    BYTE      chHandle
      0200000AH   SYMBOL    XDATA    WORD      source
      0200000CH   SYMBOL    XDATA    WORD      destination
      01009E09H   BLOCK     CODE     NEAR LAB  LVL=1
      0200000EH   SYMBOL    XDATA    BYTE      status
      0200000FH   SYMBOL    XDATA    ---       convert
      ---         BLOCKEND  ---      ---       LVL=1
      01009DF6H   LINE      CODE     ---       #470
      01009E09H   LINE      CODE     ---       #472
      01009E09H   LINE      CODE     ---       #473
      01009E0FH   LINE      CODE     ---       #492
      01009E15H   LINE      CODE     ---       #493
      01009E15H   LINE      CODE     ---       #495
      01009E2CH   LINE      CODE     ---       #496
LX51 LINKER/LOCATER V4.64.0.0                                                         06/13/2017  14:44:14  PAGE 112


      01009E3CH   LINE      CODE     ---       #499
      01009E53H   LINE      CODE     ---       #500
      01009E63H   LINE      CODE     ---       #501
      01009E68H   LINE      CODE     ---       #502
      01009E68H   LINE      CODE     ---       #504
      01009E6DH   LINE      CODE     ---       #505
      ---         BLOCKEND  ---      ---       LVL=0

      0100AC71H   BLOCK     CODE     ---       LVL=0
      00000007H   SYMBOL    DATA     BYTE      chHandle
      00000005H   SYMBOL    DATA     BYTE      startTd
      0100AC71H   BLOCK     CODE     NEAR LAB  LVL=1
      00000006H   SYMBOL    DATA     BYTE      status
      ---         BLOCKEND  ---      ---       LVL=1
      0100AC71H   LINE      CODE     ---       #529
      0100AC71H   LINE      CODE     ---       #530
      0100AC71H   LINE      CODE     ---       #531
      0100AC73H   LINE      CODE     ---       #533
      0100AC79H   LINE      CODE     ---       #534
      0100AC79H   LINE      CODE     ---       #535
      0100AC8AH   LINE      CODE     ---       #536
      0100AC8CH   LINE      CODE     ---       #537
      0100AC8CH   LINE      CODE     ---       #539
      0100AC8EH   LINE      CODE     ---       #540
      ---         BLOCKEND  ---      ---       LVL=0
      00000007H   SYMBOL    DATA     BYTE      chHandle
      00000005H   SYMBOL    DATA     BYTE      request
      00000006H   SYMBOL    DATA     BYTE      status
      00000007H   SYMBOL    DATA     BYTE      chHandle
      00000003H   SYMBOL    DATA     BYTE      status
      00000007H   SYMBOL    DATA     BYTE      chHandle
      00000006H   SYMBOL    DATA     BYTE      status

      01009D7DH   BLOCK     CODE     ---       LVL=0
      00000004H   SYMBOL    DATA     BYTE      chHandle
      00000005H   SYMBOL    DATA     BYTE      burstCount
      00000003H   SYMBOL    DATA     BYTE      requestPerBurst
      0200000CH   SYMBOL    XDATA    BYTE      tdDone0
      0200000DH   SYMBOL    XDATA    BYTE      tdDone1
      0200000EH   SYMBOL    XDATA    BYTE      tdStop
      01009D7FH   BLOCK     CODE     NEAR LAB  LVL=1
      00000002H   SYMBOL    DATA     BYTE      status
      ---         BLOCKEND  ---      ---       LVL=1
      01009D7DH   LINE      CODE     ---       #716
      01009D7FH   LINE      CODE     ---       #718
      01009D7FH   LINE      CODE     ---       #719
      01009D81H   LINE      CODE     ---       #721
      01009D87H   LINE      CODE     ---       #722
      01009D87H   LINE      CODE     ---       #723
      01009DA5H   LINE      CODE     ---       #724
      01009DC9H   LINE      CODE     ---       #725
      01009DE1H   LINE      CODE     ---       #726
      01009DF2H   LINE      CODE     ---       #728
      01009DF3H   LINE      CODE     ---       #729
      01009DF3H   LINE      CODE     ---       #731
      01009DF5H   LINE      CODE     ---       #732
      ---         BLOCKEND  ---      ---       LVL=0

      0100A719H   BLOCK     CODE     ---       LVL=0
      0100A719H   BLOCK     CODE     NEAR LAB  LVL=1
      00000007H   SYMBOL    DATA     BYTE      interruptState
      02000003H   SYMBOL    XDATA    BYTE      element
      ---         BLOCKEND  ---      ---       LVL=1
      0100A719H   LINE      CODE     ---       #752
      0100A719H   LINE      CODE     ---       #753
LX51 LINKER/LOCATER V4.64.0.0                                                         06/13/2017  14:44:14  PAGE 113


      0100A719H   LINE      CODE     ---       #755
      0100A71FH   LINE      CODE     ---       #758
      0100A722H   LINE      CODE     ---       #760
      0100A72BH   LINE      CODE     ---       #761
      0100A72BH   LINE      CODE     ---       #763
      0100A734H   LINE      CODE     ---       #766
      0100A73AH   LINE      CODE     ---       #769
      0100A74EH   LINE      CODE     ---       #770
      0100A74EH   LINE      CODE     ---       #773
      0100A751H   LINE      CODE     ---       #775
      0100A756H   LINE      CODE     ---       #776
      ---         BLOCKEND  ---      ---       LVL=0

      01009C73H   BLOCK     CODE     ---       LVL=0
      02000003H   SYMBOL    XDATA    BYTE      tdHandle
      02000004H   SYMBOL    XDATA    WORD      transferCount
      02000006H   SYMBOL    XDATA    BYTE      nextTd
      02000007H   SYMBOL    XDATA    BYTE      configuration
      01009C83H   BLOCK     CODE     NEAR LAB  LVL=1
      02000008H   SYMBOL    XDATA    BYTE      status
      01009C98H   BLOCK     CODE     NEAR LAB  LVL=2
      02000009H   SYMBOL    XDATA    ---       convert
      ---         BLOCKEND  ---      ---       LVL=2
      ---         BLOCKEND  ---      ---       LVL=1
      01009C73H   LINE      CODE     ---       #891
      01009C83H   LINE      CODE     ---       #893
      01009C83H   LINE      CODE     ---       #894
      01009C89H   LINE      CODE     ---       #896
      01009C98H   LINE      CODE     ---       #897
      01009C98H   LINE      CODE     ---       #899
      01009CAFH   LINE      CODE     ---       #900
      01009CBFH   LINE      CODE     ---       #903
      01009CD9H   LINE      CODE     ---       #906
      01009CEFH   LINE      CODE     ---       #908
      01009CF4H   LINE      CODE     ---       #909
      01009CF4H   LINE      CODE     ---       #911
      01009CF9H   LINE      CODE     ---       #912
      ---         BLOCKEND  ---      ---       LVL=0

      01009E6EH   BLOCK     CODE     ---       LVL=0
      02000003H   SYMBOL    XDATA    BYTE      tdHandle
      02000004H   SYMBOL    XDATA    WORD      source
      02000006H   SYMBOL    XDATA    WORD      destination
      01009E81H   BLOCK     CODE     NEAR LAB  LVL=1
      02000008H   SYMBOL    XDATA    BYTE      status
      02000009H   SYMBOL    XDATA    ---       convert
      ---         BLOCKEND  ---      ---       LVL=1
      01009E6EH   LINE      CODE     ---       #1010
      01009E81H   LINE      CODE     ---       #1011
      01009E81H   LINE      CODE     ---       #1012
      01009E87H   LINE      CODE     ---       #1015
      01009E8DH   LINE      CODE     ---       #1016
      01009E8DH   LINE      CODE     ---       #1018
      01009EA4H   LINE      CODE     ---       #1019
      01009EB4H   LINE      CODE     ---       #1022
      01009ECBH   LINE      CODE     ---       #1023
      01009EDBH   LINE      CODE     ---       #1025
      01009EE0H   LINE      CODE     ---       #1026
      01009EE0H   LINE      CODE     ---       #1028
      01009EE5H   LINE      CODE     ---       #1029
      ---         BLOCKEND  ---      ---       LVL=0
      00000007H   SYMBOL    DATA     BYTE      chHandle
      00000005H   SYMBOL    DATA     BYTE      enableRR
      00000006H   SYMBOL    DATA     BYTE      status

LX51 LINKER/LOCATER V4.64.0.0                                                         06/13/2017  14:44:14  PAGE 114


      ---         MODULE    ---      ---       CYLIB
      02000C86H   PUBLIC    XDATA    DWORD     cydelay_32k_ms
      02000C85H   PUBLIC    XDATA    BYTE      CyResetStatus
      02000C81H   PUBLIC    XDATA    DWORD     cydelay_freq_hz
      02000C80H   PUBLIC    XDATA    BYTE      cydelay_freq_mhz
      02000C7CH   PUBLIC    XDATA    DWORD     cydelay_freq_khz
      0100ACF8H   PUBLIC    CODE     ---       _CyIntSetPriority
      0100A35BH   PUBLIC    CODE     ---       _CyIntSetVector
      01009BEBH   PUBLIC    CODE     ---       _?CyDelay
      0100B0EDH   PUBLIC    CODE     ---       CySoftwareReset
      000000CAH   SFRSYM    DATA     BYTE      SFRPRT5SEL
      000000DAH   SFRSYM    DATA     BYTE      SFRPRT6SEL
      000000D0H.6 SFRSYM    DATA     BIT       AC
      000000A8H.7 SFRSYM    DATA     BIT       EA
      000000A8H   SFRSYM    DATA     BYTE      IE
      00000085H   SFRSYM    DATA     BYTE      DPH1
      00000084H   SFRSYM    DATA     BYTE      DPL1
      000000D0H.7 SFRSYM    DATA     BIT       CY
      000000A0H   SFRSYM    DATA     BYTE      P2AX
      00000095H   SFRSYM    DATA     BYTE      DPX1
      00000081H   SFRSYM    DATA     BYTE      SP
      000000D0H.2 SFRSYM    DATA     BIT       OV
      00000080H   SFRSYM    DATA     BYTE      SFRPRT0DR
      00000090H   SFRSYM    DATA     BYTE      SFRPRT1DR
      000000F2H   SFRSYM    DATA     BYTE      SFRPRT12SEL
      00000098H   SFRSYM    DATA     BYTE      SFRPRT2DR
      000000B0H   SFRSYM    DATA     BYTE      SFRPRT3DR
      000000C0H   SFRSYM    DATA     BYTE      SFRPRT4DR
      000000FAH   SFRSYM    DATA     BYTE      SFRPRT15SEL
      000000C8H   SFRSYM    DATA     BYTE      SFRPRT5DR
      000000D8H   SFRSYM    DATA     BYTE      SFRPRT6DR
      00000089H   SFRSYM    DATA     BYTE      SFRPRT0PS
      00000091H   SFRSYM    DATA     BYTE      SFRPRT1PS
      00000099H   SFRSYM    DATA     BYTE      SFRPRT2PS
      000000B1H   SFRSYM    DATA     BYTE      SFRPRT3PS
      000000C1H   SFRSYM    DATA     BYTE      SFRPRT4PS
      000000C9H   SFRSYM    DATA     BYTE      SFRPRT5PS
      000000D9H   SFRSYM    DATA     BYTE      SFRPRT6PS
      000000EAH   SFRSYM    DATA     BYTE      MXAX
      000000F0H   SFRSYM    DATA     BYTE      B
      000000E0H   SFRSYM    DATA     BYTE      ACC
      000000D0H   SFRSYM    DATA     BIT       P
      000000D0H.3 SFRSYM    DATA     BIT       RS0
      000000D0H.4 SFRSYM    DATA     BIT       RS1
      00000083H   SFRSYM    DATA     BYTE      DPH
      000000E8H   SFRSYM    DATA     BYTE      SFRPRT12DR
      00000082H   SFRSYM    DATA     BYTE      DPL
      000000F8H   SFRSYM    DATA     BYTE      SFRPRT15DR
      00000086H   SFRSYM    DATA     BYTE      DPS
      000000E9H   SFRSYM    DATA     BYTE      SFRPRT12PS
      00000093H   SFRSYM    DATA     BYTE      DPX
      000000F9H   SFRSYM    DATA     BYTE      SFRPRT15PS
      000000D0H.5 SFRSYM    DATA     BIT       F0
      000000D0H.1 SFRSYM    DATA     BIT       F1
      0000008AH   SFRSYM    DATA     BYTE      SFRPRT0SEL
      000000D0H   SFRSYM    DATA     BYTE      PSW
      000000A2H   SFRSYM    DATA     BYTE      SFRPRT1SEL
      0000009AH   SFRSYM    DATA     BYTE      SFRPRT2SEL
      000000B2H   SFRSYM    DATA     BYTE      SFRPRT3SEL
      000000C2H   SFRSYM    DATA     BYTE      SFRPRT4SEL
      00000007H   SYMBOL    DATA     BYTE      wait
      00000007H   SYMBOL    DATA     BYTE      pDiv
      00000005H   SYMBOL    DATA     BYTE      qDiv
      00000003H   SYMBOL    DATA     BYTE      current
      00000007H   SYMBOL    DATA     BYTE      source
LX51 LINKER/LOCATER V4.64.0.0                                                         06/13/2017  14:44:14  PAGE 115


      00000007H   SYMBOL    DATA     BYTE      wait
      00000007H   SYMBOL    DATA     BYTE      poweredOn
      00000006H   SYMBOL    DATA     BYTE      freq
      00000007H   SYMBOL    DATA     BYTE      source
      00000007H   SYMBOL    DATA     BYTE      source
      00000007H   SYMBOL    DATA     BYTE      divider
      00000006H   SYMBOL    DATA     WORD      divider
      00000005H   SYMBOL    DATA     BYTE      masterClkDiv
      00000006H   SYMBOL    DATA     WORD      busClkDiv
      00000001H   SYMBOL    DATA     BYTE      interruptState
      00000007H   SYMBOL    DATA     BYTE      divider
      00000007H   SYMBOL    DATA     BYTE      source
      00000007H   SYMBOL    DATA     BYTE      source
      00000007H   SYMBOL    DATA     BYTE      mode
      00000006H   SYMBOL    DATA     BYTE      state
      00000007H   SYMBOL    DATA     BYTE      mode
      00000007H   SYMBOL    DATA     BYTE      wait
      00000007H   SYMBOL    DATA     BYTE      setting
      00000007H   SYMBOL    DATA     BYTE      setting
      00000007H   SYMBOL    DATA     BYTE      setting
      00000000H   SYMBOL    XSTK     BYTE      reason

      0100B0EDH   BLOCK     CODE     ---       LVL=0
      0100B0EDH   LINE      CODE     ---       #1666
      0100B0EDH   LINE      CODE     ---       #1667
      0100B0EDH   LINE      CODE     ---       #1668
      0100B0F4H   LINE      CODE     ---       #1669
      ---         BLOCKEND  ---      ---       LVL=0

      01009BEBH   BLOCK     CODE     ---       LVL=0
      00000000H   SYMBOL    XSTK     DWORD     milliseconds
      01009BEBH   LINE      CODE     ---       #1692
      01009BF4H   LINE      CODE     ---       #1694
      01009C0AH   LINE      CODE     ---       #1695
      01009C0AH   LINE      CODE     ---       #1700
      01009C1BH   LINE      CODE     ---       #1701
      01009C45H   LINE      CODE     ---       #1702
      01009C47H   LINE      CODE     ---       #1704
      01009C6CH   LINE      CODE     ---       #1705
      ---         BLOCKEND  ---      ---       LVL=0
      00000000H   SYMBOL    XSTK     DWORD     freq
      00000007H   SYMBOL    DATA     BYTE      ticks
      00000005H   SYMBOL    DATA     BYTE      lpMode
      02000C7BH   SYMBOL    XDATA    BYTE      interruptStatus
      00000005H   SYMBOL    DATA     BYTE      interruptState
      00000005H   SYMBOL    DATA     BYTE      interruptState
      00000003H   SYMBOL    DATA     BYTE      interruptState

      0100A35BH   BLOCK     CODE     ---       LVL=0
      02000003H   SYMBOL    XDATA    BYTE      number
      02000004H   SYMBOL    XDATA    ---       address
      0100A368H   BLOCK     CODE     NEAR LAB  LVL=1
      02000006H   SYMBOL    XDATA    ---       oldIsr
      ---         BLOCKEND  ---      ---       LVL=1
      0100A35BH   LINE      CODE     ---       #2641
      0100A368H   LINE      CODE     ---       #2642
      0100A368H   LINE      CODE     ---       #2648
      0100A386H   LINE      CODE     ---       #2652
      0100A3A6H   LINE      CODE     ---       #2654
      0100A3AEH   LINE      CODE     ---       #2655
      ---         BLOCKEND  ---      ---       LVL=0
      00000007H   SYMBOL    DATA     BYTE      number

      0100ACF8H   BLOCK     CODE     ---       LVL=0
      00000004H   SYMBOL    DATA     BYTE      number
LX51 LINKER/LOCATER V4.64.0.0                                                         06/13/2017  14:44:14  PAGE 116


      00000005H   SYMBOL    DATA     BYTE      priority
      0100ACF8H   LINE      CODE     ---       #2696
      0100ACFAH   LINE      CODE     ---       #2697
      0100ACFAH   LINE      CODE     ---       #2702
      0100AD10H   LINE      CODE     ---       #2704
      ---         BLOCKEND  ---      ---       LVL=0
      00000007H   SYMBOL    DATA     BYTE      number
      00000007H   SYMBOL    DATA     BYTE      priority
      00000005H   SYMBOL    DATA     BYTE      number
      00000006H   SYMBOL    DATA     ---       stateReg

      ---         MODULE    ---      ---       ?C_STARTUP
      00000000H   PUBLIC    NUMBER   ---       ?C?XPAGE1RST
      00000093H   PUBLIC    DATA     BYTE      ?C?XPAGE1SFR
      01002600H   PUBLIC    CODE     NEAR LAB  ?C_STARTUP
      01009048H   PUBLIC    CODE     NEAR LAB  STARTUP1
      01002604H   PUBLIC    CODE     NEAR LAB  _dma_wait

      ---         MODULE    ---      ---       CYFITTER_CFG
      0100BD12H   PUBLIC    CONST    ---       ADC_AMux__maskTable
      0100BD0EH   PUBLIC    CONST    ---       ADC_AMux__addrTable
      01009165H   PUBLIC    CODE     ---       cyfitter_cfg
      0100A9ABH   PUBLIC    CODE     ---       _ADC_AMux_Unset
      0100AA0DH   PUBLIC    CODE     ---       _ADC_AMux_Set
      000000CAH   SFRSYM    DATA     BYTE      SFRPRT5SEL
      000000DAH   SFRSYM    DATA     BYTE      SFRPRT6SEL
      000000D0H.6 SFRSYM    DATA     BIT       AC
      000000A8H.7 SFRSYM    DATA     BIT       EA
      000000A8H   SFRSYM    DATA     BYTE      IE
      00000085H   SFRSYM    DATA     BYTE      DPH1
      00000084H   SFRSYM    DATA     BYTE      DPL1
      000000D0H.7 SFRSYM    DATA     BIT       CY
      000000A0H   SFRSYM    DATA     BYTE      P2AX
      00000095H   SFRSYM    DATA     BYTE      DPX1
      00000081H   SFRSYM    DATA     BYTE      SP
      000000D0H.2 SFRSYM    DATA     BIT       OV
      00000080H   SFRSYM    DATA     BYTE      SFRPRT0DR
      00000090H   SFRSYM    DATA     BYTE      SFRPRT1DR
      000000F2H   SFRSYM    DATA     BYTE      SFRPRT12SEL
      00000098H   SFRSYM    DATA     BYTE      SFRPRT2DR
      000000B0H   SFRSYM    DATA     BYTE      SFRPRT3DR
      000000C0H   SFRSYM    DATA     BYTE      SFRPRT4DR
      000000FAH   SFRSYM    DATA     BYTE      SFRPRT15SEL
      000000C8H   SFRSYM    DATA     BYTE      SFRPRT5DR
      000000D8H   SFRSYM    DATA     BYTE      SFRPRT6DR
      00000089H   SFRSYM    DATA     BYTE      SFRPRT0PS
      00000091H   SFRSYM    DATA     BYTE      SFRPRT1PS
      00000099H   SFRSYM    DATA     BYTE      SFRPRT2PS
      000000B1H   SFRSYM    DATA     BYTE      SFRPRT3PS
      000000C1H   SFRSYM    DATA     BYTE      SFRPRT4PS
      000000C9H   SFRSYM    DATA     BYTE      SFRPRT5PS
      000000D9H   SFRSYM    DATA     BYTE      SFRPRT6PS
      000000EAH   SFRSYM    DATA     BYTE      MXAX
      000000F0H   SFRSYM    DATA     BYTE      B
      000000E0H   SFRSYM    DATA     BYTE      ACC
      000000D0H   SFRSYM    DATA     BIT       P
      000000D0H.3 SFRSYM    DATA     BIT       RS0
      000000D0H.4 SFRSYM    DATA     BIT       RS1
      00000083H   SFRSYM    DATA     BYTE      DPH
      000000E8H   SFRSYM    DATA     BYTE      SFRPRT12DR
      00000082H   SFRSYM    DATA     BYTE      DPL
      000000F8H   SFRSYM    DATA     BYTE      SFRPRT15DR
      00000086H   SFRSYM    DATA     BYTE      DPS
      000000E9H   SFRSYM    DATA     BYTE      SFRPRT12PS
      00000093H   SFRSYM    DATA     BYTE      DPX
LX51 LINKER/LOCATER V4.64.0.0                                                         06/13/2017  14:44:14  PAGE 117


      000000F9H   SFRSYM    DATA     BYTE      SFRPRT15PS
      000000D0H.5 SFRSYM    DATA     BIT       F0
      000000D0H.1 SFRSYM    DATA     BIT       F1
      0000008AH   SFRSYM    DATA     BYTE      SFRPRT0SEL
      000000D0H   SFRSYM    DATA     BYTE      PSW
      000000A2H   SFRSYM    DATA     BYTE      SFRPRT1SEL
      0000009AH   SFRSYM    DATA     BYTE      SFRPRT2SEL
      000000B2H   SFRSYM    DATA     BYTE      SFRPRT3SEL
      000000C2H   SFRSYM    DATA     BYTE      SFRPRT4SEL
      01008506H   SYMBOL    CODE     ---       ClockSetup
      0100B1DEH   SYMBOL    CODE     ---       _CyClockStartupError
      0100AAF5H   SYMBOL    CODE     ---       AnalogSetDefault
      01009479H   SYMBOL    CODE     ---       cfg_dma_init

      0100B1DEH   BLOCK     CODE     ---       LVL=0
      02000000H   SYMBOL    XDATA    BYTE      errorCode
      0100B1DEH   LINE      CODE     ---       #72
      0100B1DEH   LINE      CODE     ---       #73
      0100B1DEH   LINE      CODE     ---       #75
      0100B1DEH   LINE      CODE     ---       #87
      ---         BLOCKEND  ---      ---       LVL=0

      01009479H   BLOCK     CODE     ---       LVL=0
      01009479H   BLOCK     CODE     NEAR LAB  LVL=1
      0100B1E5H   SYMBOL    CONST    ---       BS_UDB_2_4_HV_ROUTING_VAL
      0100B265H   SYMBOL    CONST    ---       BS_UDBSWITCH_0_5_VAL
      0100B2E5H   SYMBOL    CONST    ---       BS_UDB_1_5_HV_ROUTING_VAL
      0100B365H   SYMBOL    CONST    ---       BS_UDBSWITCH_1_5_VAL
      0100B3E5H   SYMBOL    CONST    ---       BS_UDB_2_5_HV_ROUTING_VAL
      0100B465H   SYMBOL    CONST    ---       BS_DSI3_0_HV_ROUTING_VAL
      0100B4E5H   SYMBOL    CONST    ---       BS_DSISWITCH_1_1_VAL
      0100B565H   SYMBOL    CONST    ---       BS_DSI3_1_HV_ROUTING_VAL
      0100B5E5H   SYMBOL    CONST    ---       BS_DSISWITCH_1_2_VAL
      0100B665H   SYMBOL    CONST    ---       BS_DSI3_2_HV_ROUTING_VAL
      0100B6E5H   SYMBOL    CONST    ---       BS_DSISWITCH_1_3_VAL
      0100B765H   SYMBOL    CONST    ---       BS_DSI3_3_HV_ROUTING_VAL
      0100B7E5H   SYMBOL    CONST    ---       BS_DSISWITCH_1_4_VAL
      0100B865H   SYMBOL    CONST    ---       BS_DSI3_4_HV_ROUTING_VAL
      0100B8E5H   SYMBOL    CONST    ---       BS_DSISWITCH_1_5_VAL
      0100B965H   SYMBOL    CONST    ---       BS_DSI3_5_HV_ROUTING_VAL
      0100B9E5H   SYMBOL    CONST    ---       CH1_ADDR_DATA0
      0100B9EDH   SYMBOL    CONST    ---       CH2_ADDR_DATA0
      0100B9F5H   SYMBOL    CONST    ---       CH4_ADDR_DATA0
      0100B9FDH   SYMBOL    CONST    ---       CH5_ADDR_DATA0
      0100BA05H   SYMBOL    CONST    ---       CH6_ADDR_DATA0
      0100BA0DH   SYMBOL    CONST    ---       DMA_TD_START_CMD
      02000C95H   SYMBOL    XDATA    DWORD     DMA_ZERO_VAL
      0100BA12H   SYMBOL    CONST    ---       CFG_TD_LIST0
      ---         BLOCKEND  ---      ---       LVL=1
      01009479H   LINE      CODE     ---       #309
      01009479H   LINE      CODE     ---       #310
      01009479H   LINE      CODE     ---       #617
      01009484H   LINE      CODE     ---       #618
      0100948AH   LINE      CODE     ---       #619
      01009490H   LINE      CODE     ---       #620
      01009495H   LINE      CODE     ---       #621
      010094A1H   LINE      CODE     ---       #622
      010094A7H   LINE      CODE     ---       #623
      010094ABH   LINE      CODE     ---       #624
      010094CDH   LINE      CODE     ---       #625
      010094DAH   LINE      CODE     ---       #626
      010094E7H   LINE      CODE     ---       #627
      010094F3H   LINE      CODE     ---       #628
      010094F9H   LINE      CODE     ---       #629
      010094FEH   LINE      CODE     ---       #630
LX51 LINKER/LOCATER V4.64.0.0                                                         06/13/2017  14:44:14  PAGE 118


      01009504H   LINE      CODE     ---       #631
      0100950AH   LINE      CODE     ---       #632
      01009510H   LINE      CODE     ---       #634
      01009510H   LINE      CODE     ---       #635
      01009516H   LINE      CODE     ---       #636
      01009516H   LINE      CODE     ---       #639
      0100951EH   LINE      CODE     ---       #640
      01009526H   LINE      CODE     ---       #641
      0100952EH   LINE      CODE     ---       #642
      01009536H   LINE      CODE     ---       #643
      0100953EH   LINE      CODE     ---       #644
      01009546H   LINE      CODE     ---       #647
      01009561H   LINE      CODE     ---       #649
      ---         BLOCKEND  ---      ---       LVL=0

      01008506H   BLOCK     CODE     ---       LVL=0
      01008506H   BLOCK     CODE     NEAR LAB  LVL=1
      0100BD0AH   SYMBOL    CONST    ---       BS_CYDEV_CLKDIST_ACFG0_CFG0_VAL
      02000000H   SYMBOL    XDATA    DWORD     timeout
      02000004H   SYMBOL    XDATA    BYTE      pllLock
      ---         BLOCKEND  ---      ---       LVL=1
      01008506H   LINE      CODE     ---       #667
      01008506H   LINE      CODE     ---       #668
      01008506H   LINE      CODE     ---       #678
      01008513H   LINE      CODE     ---       #679
      01008519H   LINE      CODE     ---       #680
      01008525H   LINE      CODE     ---       #681
      0100852BH   LINE      CODE     ---       #682
      01008538H   LINE      CODE     ---       #683
      0100853EH   LINE      CODE     ---       #684
      0100854BH   LINE      CODE     ---       #685
      01008551H   LINE      CODE     ---       #686
      0100855EH   LINE      CODE     ---       #687
      01008564H   LINE      CODE     ---       #688
      01008571H   LINE      CODE     ---       #689
      01008577H   LINE      CODE     ---       #692
      01008588H   LINE      CODE     ---       #695
      0100858EH   LINE      CODE     ---       #698
      01008594H   LINE      CODE     ---       #699
      010085A2H   LINE      CODE     ---       #702
      010085AFH   LINE      CODE     ---       #703
      010085BCH   LINE      CODE     ---       #705
      010085C1H   LINE      CODE     ---       #706
      010085E6H   LINE      CODE     ---       #707
      010085E6H   LINE      CODE     ---       #708
      010085F7H   LINE      CODE     ---       #709
      01008601H   LINE      CODE     ---       #710
      01008629H   LINE      CODE     ---       #712
      01008637H   LINE      CODE     ---       #713
      01008637H   LINE      CODE     ---       #714
      0100863CH   LINE      CODE     ---       #715
      0100863CH   LINE      CODE     ---       #718
      01008649H   LINE      CODE     ---       #719
      0100864FH   LINE      CODE     ---       #720
      01008654H   LINE      CODE     ---       #721
      0100865AH   LINE      CODE     ---       #722
      0100865FH   LINE      CODE     ---       #725
      01008663H   LINE      CODE     ---       #726
      01008669H   LINE      CODE     ---       #727
      0100866FH   LINE      CODE     ---       #729
      01008676H   LINE      CODE     ---       #730
      0100867DH   LINE      CODE     ---       #731
      01008684H   LINE      CODE     ---       #732
      ---         BLOCKEND  ---      ---       LVL=0

LX51 LINKER/LOCATER V4.64.0.0                                                         06/13/2017  14:44:14  PAGE 119


      0100AAF5H   BLOCK     CODE     ---       LVL=0
      0100AAF5H   BLOCK     CODE     NEAR LAB  LVL=1
      00000007H   SYMBOL    DATA     BYTE      bg_xover_inl_trim
      ---         BLOCKEND  ---      ---       LVL=1
      0100AAF5H   LINE      CODE     ---       #754
      0100AAF5H   LINE      CODE     ---       #755
      0100AAF5H   LINE      CODE     ---       #756
      0100AAFEH   LINE      CODE     ---       #757
      0100AB05H   LINE      CODE     ---       #758
      0100AB0BH   LINE      CODE     ---       #759
      0100AB11H   LINE      CODE     ---       #760
      0100AB15H   LINE      CODE     ---       #761
      0100AB1BH   LINE      CODE     ---       #762
      ---         BLOCKEND  ---      ---       LVL=0
      00000007H   SYMBOL    DATA     BYTE      enabled
      00000006H   SYMBOL    DATA     BYTE      regValue

      0100AA0DH   BLOCK     CODE     ---       LVL=0
      00000007H   SYMBOL    DATA     BYTE      channel
      0100AA0DH   LINE      CODE     ---       #824
      0100AA0DH   LINE      CODE     ---       #825
      0100AA0DH   LINE      CODE     ---       #826
      0100AA13H   LINE      CODE     ---       #827
      0100AA13H   LINE      CODE     ---       #828
      0100AA3CH   LINE      CODE     ---       #829
      0100AA3CH   LINE      CODE     ---       #830
      ---         BLOCKEND  ---      ---       LVL=0

      0100A9ABH   BLOCK     CODE     ---       LVL=0
      00000007H   SYMBOL    DATA     BYTE      channel
      0100A9ABH   LINE      CODE     ---       #846
      0100A9ABH   LINE      CODE     ---       #847
      0100A9ABH   LINE      CODE     ---       #848
      0100A9B1H   LINE      CODE     ---       #849
      0100A9B1H   LINE      CODE     ---       #850
      0100A9DBH   LINE      CODE     ---       #851
      0100A9DBH   LINE      CODE     ---       #852
      ---         BLOCKEND  ---      ---       LVL=0

      01009165H   BLOCK     CODE     ---       LVL=0
      01009165H   BLOCK     CODE     NEAR LAB  LVL=1
      0100BD14H   SYMBOL    CONST    ---       BS_IOPINS0_7_VAL
      0100BD1CH   SYMBOL    CONST    ---       BS_IOPINS0_8_VAL
      0100BD26H   SYMBOL    CONST    ---       BS_IOPINS0_1_VAL
      0100BD30H   SYMBOL    CONST    ---       BS_IOPINS0_2_VAL
      0100BD38H   SYMBOL    CONST    ---       BS_PHUB_CFGMEM10_VAL
      ---         BLOCKEND  ---      ---       LVL=1
      01009165H   LINE      CODE     ---       #873
      01009165H   LINE      CODE     ---       #874
      01009165H   LINE      CODE     ---       #896
      0100917BH   LINE      CODE     ---       #898
      0100917BH   LINE      CODE     ---       #899
      0100917EH   LINE      CODE     ---       #902
      01009184H   LINE      CODE     ---       #903
      01009195H   LINE      CODE     ---       #906
      010091ABH   LINE      CODE     ---       #907
      010091C1H   LINE      CODE     ---       #910
      010091C8H   LINE      CODE     ---       #911
      010091CFH   LINE      CODE     ---       #912
      010091CFH   LINE      CODE     ---       #916
      010091E7H   LINE      CODE     ---       #917
      010091F8H   LINE      CODE     ---       #918
      01009209H   LINE      CODE     ---       #919
      0100921AH   LINE      CODE     ---       #920
      0100922BH   LINE      CODE     ---       #921
LX51 LINKER/LOCATER V4.64.0.0                                                         06/13/2017  14:44:14  PAGE 120


      01009231H   LINE      CODE     ---       #923
      01009238H   LINE      CODE     ---       #924
      01009241H   LINE      CODE     ---       #925
      01009241H   LINE      CODE     ---       #926
      01009247H   LINE      CODE     ---       #927
      01009247H   LINE      CODE     ---       #931
      0100924DH   LINE      CODE     ---       #933
      01009250H   LINE      CODE     ---       #936
      01009253H   LINE      CODE     ---       #939
      01009274H   LINE      CODE     ---       #940
      0100927BH   LINE      CODE     ---       #941
      ---         BLOCKEND  ---      ---       LVL=0

      ---         MODULE    ---      ---       UART_RS485_INT
      010097A4H   PUBLIC    CODE     ---       UART_RS485_RXISR
      000000CAH   SFRSYM    DATA     BYTE      SFRPRT5SEL
      000000DAH   SFRSYM    DATA     BYTE      SFRPRT6SEL
      000000D0H.6 SFRSYM    DATA     BIT       AC
      000000A8H.7 SFRSYM    DATA     BIT       EA
      000000A8H   SFRSYM    DATA     BYTE      IE
      00000085H   SFRSYM    DATA     BYTE      DPH1
      00000084H   SFRSYM    DATA     BYTE      DPL1
      000000D0H.7 SFRSYM    DATA     BIT       CY
      000000A0H   SFRSYM    DATA     BYTE      P2AX
      00000095H   SFRSYM    DATA     BYTE      DPX1
      00000081H   SFRSYM    DATA     BYTE      SP
      000000D0H.2 SFRSYM    DATA     BIT       OV
      00000080H   SFRSYM    DATA     BYTE      SFRPRT0DR
      00000090H   SFRSYM    DATA     BYTE      SFRPRT1DR
      000000F2H   SFRSYM    DATA     BYTE      SFRPRT12SEL
      00000098H   SFRSYM    DATA     BYTE      SFRPRT2DR
      000000B0H   SFRSYM    DATA     BYTE      SFRPRT3DR
      000000C0H   SFRSYM    DATA     BYTE      SFRPRT4DR
      000000FAH   SFRSYM    DATA     BYTE      SFRPRT15SEL
      000000C8H   SFRSYM    DATA     BYTE      SFRPRT5DR
      000000D8H   SFRSYM    DATA     BYTE      SFRPRT6DR
      00000089H   SFRSYM    DATA     BYTE      SFRPRT0PS
      00000091H   SFRSYM    DATA     BYTE      SFRPRT1PS
      00000099H   SFRSYM    DATA     BYTE      SFRPRT2PS
      000000B1H   SFRSYM    DATA     BYTE      SFRPRT3PS
      000000C1H   SFRSYM    DATA     BYTE      SFRPRT4PS
      000000C9H   SFRSYM    DATA     BYTE      SFRPRT5PS
      000000D9H   SFRSYM    DATA     BYTE      SFRPRT6PS
      000000EAH   SFRSYM    DATA     BYTE      MXAX
      000000F0H   SFRSYM    DATA     BYTE      B
      000000E0H   SFRSYM    DATA     BYTE      ACC
      000000D0H   SFRSYM    DATA     BIT       P
      000000D0H.3 SFRSYM    DATA     BIT       RS0
      000000D0H.4 SFRSYM    DATA     BIT       RS1
      00000083H   SFRSYM    DATA     BYTE      DPH
      000000E8H   SFRSYM    DATA     BYTE      SFRPRT12DR
      00000082H   SFRSYM    DATA     BYTE      DPL
      000000F8H   SFRSYM    DATA     BYTE      SFRPRT15DR
      00000086H   SFRSYM    DATA     BYTE      DPS
      000000E9H   SFRSYM    DATA     BYTE      SFRPRT12PS
      00000093H   SFRSYM    DATA     BYTE      DPX
      000000F9H   SFRSYM    DATA     BYTE      SFRPRT15PS
      000000D0H.5 SFRSYM    DATA     BIT       F0
      000000D0H.1 SFRSYM    DATA     BIT       F1
      0000008AH   SFRSYM    DATA     BYTE      SFRPRT0SEL
      000000D0H   SFRSYM    DATA     BYTE      PSW
      000000A2H   SFRSYM    DATA     BYTE      SFRPRT1SEL
      0000009AH   SFRSYM    DATA     BYTE      SFRPRT2SEL
      000000B2H   SFRSYM    DATA     BYTE      SFRPRT3SEL
      000000C2H   SFRSYM    DATA     BYTE      SFRPRT4SEL
LX51 LINKER/LOCATER V4.64.0.0                                                         06/13/2017  14:44:14  PAGE 121



      010097A4H   BLOCK     CODE     ---       LVL=0
      010097C7H   BLOCK     CODE     NEAR LAB  LVL=1
      00000006H   SYMBOL    DATA     BYTE      readData
      00000007H   SYMBOL    DATA     BYTE      readStatus
      00000003H   SYMBOL    DATA     BYTE      increment_pointer
      00000002H   SYMBOL    DATA     BYTE      int_en
      ---         BLOCKEND  ---      ---       LVL=1
      010097A4H   LINE      CODE     ---       #59
      010097C7H   LINE      CODE     ---       #63
      010097C9H   LINE      CODE     ---       #79
      010097CDH   LINE      CODE     ---       #80
      010097D5H   LINE      CODE     ---       #84
      010097D5H   LINE      CODE     ---       #86
      010097DAH   LINE      CODE     ---       #90
      010097DBH   LINE      CODE     ---       #95
      010097E0H   LINE      CODE     ---       #96
      010097E0H   LINE      CODE     ---       #101
      010097E6H   LINE      CODE     ---       #109
      010097E6H   LINE      CODE     ---       #111
      010097EAH   LINE      CODE     ---       #112
      010097EAH   LINE      CODE     ---       #114
      010097EFH   LINE      CODE     ---       #141
      010097FEH   LINE      CODE     ---       #142
      01009800H   LINE      CODE     ---       #146
      01009803H   LINE      CODE     ---       #147
      01009803H   LINE      CODE     ---       #148
      01009809H   LINE      CODE     ---       #149
      01009809H   LINE      CODE     ---       #150
      0100980FH   LINE      CODE     ---       #151
      0100980FH   LINE      CODE     ---       #153
      01009815H   LINE      CODE     ---       #156
      0100981BH   LINE      CODE     ---       #157
      0100981BH   LINE      CODE     ---       #158
      0100981DH   LINE      CODE     ---       #159
      0100981DH   LINE      CODE     ---       #162
      01009829H   LINE      CODE     ---       #163
      01009829H   LINE      CODE     ---       #164
      0100982FH   LINE      CODE     ---       #172
      0100982FH   LINE      CODE     ---       #173
      0100982FH   LINE      CODE     ---       #174
      0100982FH   LINE      CODE     ---       #175
      01009833H   LINE      CODE     ---       #187
      0100983AH   LINE      CODE     ---       #189
      ---         BLOCKEND  ---      ---       LVL=0

      ---         MODULE    ---      ---       ADC_INT
      0100B1E4H   PUBLIC    CODE     ---       ADC_ISR4
      0100B1E3H   PUBLIC    CODE     ---       ADC_ISR3
      0100B1E2H   PUBLIC    CODE     ---       ADC_ISR2
      0100B1E1H   PUBLIC    CODE     ---       ADC_ISR1
      000000CAH   SFRSYM    DATA     BYTE      SFRPRT5SEL
      000000DAH   SFRSYM    DATA     BYTE      SFRPRT6SEL
      000000D0H.6 SFRSYM    DATA     BIT       AC
      000000A8H.7 SFRSYM    DATA     BIT       EA
      000000A8H   SFRSYM    DATA     BYTE      IE
      00000085H   SFRSYM    DATA     BYTE      DPH1
      00000084H   SFRSYM    DATA     BYTE      DPL1
      000000D0H.7 SFRSYM    DATA     BIT       CY
      000000A0H   SFRSYM    DATA     BYTE      P2AX
      00000095H   SFRSYM    DATA     BYTE      DPX1
      00000081H   SFRSYM    DATA     BYTE      SP
      000000D0H.2 SFRSYM    DATA     BIT       OV
      00000080H   SFRSYM    DATA     BYTE      SFRPRT0DR
      00000090H   SFRSYM    DATA     BYTE      SFRPRT1DR
LX51 LINKER/LOCATER V4.64.0.0                                                         06/13/2017  14:44:14  PAGE 122


      000000F2H   SFRSYM    DATA     BYTE      SFRPRT12SEL
      00000098H   SFRSYM    DATA     BYTE      SFRPRT2DR
      000000B0H   SFRSYM    DATA     BYTE      SFRPRT3DR
      000000C0H   SFRSYM    DATA     BYTE      SFRPRT4DR
      000000FAH   SFRSYM    DATA     BYTE      SFRPRT15SEL
      000000C8H   SFRSYM    DATA     BYTE      SFRPRT5DR
      000000D8H   SFRSYM    DATA     BYTE      SFRPRT6DR
      00000089H   SFRSYM    DATA     BYTE      SFRPRT0PS
      00000091H   SFRSYM    DATA     BYTE      SFRPRT1PS
      00000099H   SFRSYM    DATA     BYTE      SFRPRT2PS
      000000B1H   SFRSYM    DATA     BYTE      SFRPRT3PS
      000000C1H   SFRSYM    DATA     BYTE      SFRPRT4PS
      000000C9H   SFRSYM    DATA     BYTE      SFRPRT5PS
      000000D9H   SFRSYM    DATA     BYTE      SFRPRT6PS
      000000EAH   SFRSYM    DATA     BYTE      MXAX
      000000F0H   SFRSYM    DATA     BYTE      B
      000000E0H   SFRSYM    DATA     BYTE      ACC
      000000D0H   SFRSYM    DATA     BIT       P
      000000D0H.3 SFRSYM    DATA     BIT       RS0
      000000D0H.4 SFRSYM    DATA     BIT       RS1
      00000083H   SFRSYM    DATA     BYTE      DPH
      000000E8H   SFRSYM    DATA     BYTE      SFRPRT12DR
      00000082H   SFRSYM    DATA     BYTE      DPL
      000000F8H   SFRSYM    DATA     BYTE      SFRPRT15DR
      00000086H   SFRSYM    DATA     BYTE      DPS
      000000E9H   SFRSYM    DATA     BYTE      SFRPRT12PS
      00000093H   SFRSYM    DATA     BYTE      DPX
      000000F9H   SFRSYM    DATA     BYTE      SFRPRT15PS
      000000D0H.5 SFRSYM    DATA     BIT       F0
      000000D0H.1 SFRSYM    DATA     BIT       F1
      0000008AH   SFRSYM    DATA     BYTE      SFRPRT0SEL
      000000D0H   SFRSYM    DATA     BYTE      PSW
      000000A2H   SFRSYM    DATA     BYTE      SFRPRT1SEL
      0000009AH   SFRSYM    DATA     BYTE      SFRPRT2SEL
      000000B2H   SFRSYM    DATA     BYTE      SFRPRT3SEL
      000000C2H   SFRSYM    DATA     BYTE      SFRPRT4SEL

      0100B1E1H   BLOCK     CODE     ---       LVL=0
      0100B1E1H   LINE      CODE     ---       #51
      0100B1E1H   LINE      CODE     ---       #81
      ---         BLOCKEND  ---      ---       LVL=0

      0100B1E2H   BLOCK     CODE     ---       LVL=0
      0100B1E2H   LINE      CODE     ---       #101
      0100B1E2H   LINE      CODE     ---       #131
      ---         BLOCKEND  ---      ---       LVL=0

      0100B1E3H   BLOCK     CODE     ---       LVL=0
      0100B1E3H   LINE      CODE     ---       #151
      0100B1E3H   LINE      CODE     ---       #181
      ---         BLOCKEND  ---      ---       LVL=0

      0100B1E4H   BLOCK     CODE     ---       LVL=0
      0100B1E4H   LINE      CODE     ---       #201
      0100B1E4H   LINE      CODE     ---       #231
      ---         BLOCKEND  ---      ---       LVL=0

      ---         MODULE    ---      ---       ADC_AMUX
      0100AD11H   PUBLIC    CODE     ---       _ADC_AMux_Select
      0100ABD3H   PUBLIC    CODE     ---       ADC_AMux_Start
      02000CA5H   SYMBOL    XDATA    BYTE      ADC_AMux_lastChannel

      0100ABD3H   BLOCK     CODE     ---       LVL=0
      0100ABD3H   BLOCK     CODE     NEAR LAB  LVL=1
      02000004H   SYMBOL    XDATA    BYTE      chan
LX51 LINKER/LOCATER V4.64.0.0                                                         06/13/2017  14:44:14  PAGE 123


      ---         BLOCKEND  ---      ---       LVL=1
      0100ABD3H   LINE      CODE     ---       #36
      0100ABD3H   LINE      CODE     ---       #37
      0100ABD3H   LINE      CODE     ---       #40
      0100ABE2H   LINE      CODE     ---       #41
      0100ABE2H   LINE      CODE     ---       #43
      0100ABE5H   LINE      CODE     ---       #48
      0100ABEDH   LINE      CODE     ---       #50
      0100ABF3H   LINE      CODE     ---       #51
      ---         BLOCKEND  ---      ---       LVL=0

      0100AD11H   BLOCK     CODE     ---       LVL=0
      02000003H   SYMBOL    XDATA    BYTE      channel
      0100AD11H   LINE      CODE     ---       #69
      0100AD16H   LINE      CODE     ---       #70
      0100AD16H   LINE      CODE     ---       #71
      0100AD19H   LINE      CODE     ---       #72
      0100AD21H   LINE      CODE     ---       #73
      0100AD29H   LINE      CODE     ---       #74
      ---         BLOCKEND  ---      ---       LVL=0

      ---         MODULE    ---      ---       ADC_EXT_CP_CLK
      0100B0F5H   PUBLIC    CODE     ---       ADC_Ext_CP_Clk_GetSourceRegister
      0100AFE0H   PUBLIC    CODE     ---       _ADC_Ext_CP_Clk_SetModeRegister
      0100B0B9H   PUBLIC    CODE     ---       ADC_Ext_CP_Clk_GetDividerRegister
      01008A6AH   PUBLIC    CODE     ---       _ADC_Ext_CP_Clk_SetDividerRegister
      00000007H   SYMBOL    DATA     BYTE      state

      01008A6AH   BLOCK     CODE     ---       LVL=0
      02000003H   SYMBOL    XDATA    WORD      clkDivider
      02000005H   SYMBOL    XDATA    BYTE      restart
      01008A75H   BLOCK     CODE     NEAR LAB  LVL=1
      02000006H   SYMBOL    XDATA    BYTE      enabled
      02000007H   SYMBOL    XDATA    BYTE      currSrc
      02000008H   SYMBOL    XDATA    WORD      oldDivider
      ---         BLOCKEND  ---      ---       LVL=1
      01008A6AH   LINE      CODE     ---       #193
      01008A75H   LINE      CODE     ---       #195
      01008A75H   LINE      CODE     ---       #198
      01008A7DH   LINE      CODE     ---       #199
      01008A88H   LINE      CODE     ---       #201
      01008A9AH   LINE      CODE     ---       #202
      01008A9AH   LINE      CODE     ---       #203
      01008AA4H   LINE      CODE     ---       #205
      01008AB5H   LINE      CODE     ---       #206
      01008AB5H   LINE      CODE     ---       #208
      01008AB9H   LINE      CODE     ---       #209
      01008AB9H   LINE      CODE     ---       #213
      01008AC2H   LINE      CODE     ---       #214
      01008AC9H   LINE      CODE     ---       #215
      01008ACAH   LINE      CODE     ---       #217
      01008ACAH   LINE      CODE     ---       #220
      01008AD1H   LINE      CODE     ---       #221
      01008AE2H   LINE      CODE     ---       #222
      01008AE2H   LINE      CODE     ---       #223
      01008AE3H   LINE      CODE     ---       #225
      01008AE3H   LINE      CODE     ---       #227
      01008AE9H   LINE      CODE     ---       #228
      01008AE9H   LINE      CODE     ---       #229
      01008AEEH   LINE      CODE     ---       #236
      01008AF4H   LINE      CODE     ---       #237
      01008AF9H   LINE      CODE     ---       #240
      01008B00H   LINE      CODE     ---       #243
      01008B12H   LINE      CODE     ---       #244
      01008B12H   LINE      CODE     ---       #246
LX51 LINKER/LOCATER V4.64.0.0                                                         06/13/2017  14:44:14  PAGE 124


      01008B23H   LINE      CODE     ---       #247
      01008B29H   LINE      CODE     ---       #250
      01008B31H   LINE      CODE     ---       #253
      01008B38H   LINE      CODE     ---       #257
      01008B3DH   LINE      CODE     ---       #259
      01008B3DH   LINE      CODE     ---       #260
      01008B3DH   LINE      CODE     ---       #263
      01008B45H   LINE      CODE     ---       #264
      01008B45H   LINE      CODE     ---       #266
      01008B56H   LINE      CODE     ---       #268
      01008B69H   LINE      CODE     ---       #269
      01008B73H   LINE      CODE     ---       #270
      01008B74H   LINE      CODE     ---       #272
      01008B74H   LINE      CODE     ---       #274
      01008B85H   LINE      CODE     ---       #275
      01008B9AH   LINE      CODE     ---       #276
      01008B9AH   LINE      CODE     ---       #277
      01008B9AH   LINE      CODE     ---       #278
      01008B9AH   LINE      CODE     ---       #279
      ---         BLOCKEND  ---      ---       LVL=0

      0100B0B9H   BLOCK     CODE     ---       LVL=0
      0100B0B9H   LINE      CODE     ---       #297
      0100B0B9H   LINE      CODE     ---       #298
      0100B0B9H   LINE      CODE     ---       #299
      0100B0C2H   LINE      CODE     ---       #300
      ---         BLOCKEND  ---      ---       LVL=0

      0100AFE0H   BLOCK     CODE     ---       LVL=0
      00000007H   SYMBOL    DATA     BYTE      modeBitMask
      0100AFE0H   LINE      CODE     ---       #332
      0100AFE0H   LINE      CODE     ---       #333
      0100AFE0H   LINE      CODE     ---       #334
      0100AFECH   LINE      CODE     ---       #335
      ---         BLOCKEND  ---      ---       LVL=0
      00000007H   SYMBOL    DATA     BYTE      modeBitMask
      00000007H   SYMBOL    DATA     BYTE      oldSrc

      0100B0F5H   BLOCK     CODE     ---       LVL=0
      0100B0F5H   LINE      CODE     ---       #464
      0100B0F5H   LINE      CODE     ---       #465
      0100B0F5H   LINE      CODE     ---       #466
      0100B0FCH   LINE      CODE     ---       #467
      ---         BLOCKEND  ---      ---       LVL=0

      ---         MODULE    ---      ---       ADC_THEACLK
      0100B0FDH   PUBLIC    CODE     ---       ADC_theACLK_GetSourceRegister
      0100AFEDH   PUBLIC    CODE     ---       _ADC_theACLK_SetModeRegister
      0100B0C3H   PUBLIC    CODE     ---       ADC_theACLK_GetDividerRegister
      01008CCBH   PUBLIC    CODE     ---       _ADC_theACLK_SetDividerRegister
      00000007H   SYMBOL    DATA     BYTE      state

      01008CCBH   BLOCK     CODE     ---       LVL=0
      02000003H   SYMBOL    XDATA    WORD      clkDivider
      02000005H   SYMBOL    XDATA    BYTE      restart
      01008CD6H   BLOCK     CODE     NEAR LAB  LVL=1
      02000006H   SYMBOL    XDATA    BYTE      enabled
      02000007H   SYMBOL    XDATA    BYTE      currSrc
      02000008H   SYMBOL    XDATA    WORD      oldDivider
      ---         BLOCKEND  ---      ---       LVL=1
      01008CCBH   LINE      CODE     ---       #193
      01008CD6H   LINE      CODE     ---       #195
      01008CD6H   LINE      CODE     ---       #198
      01008CDEH   LINE      CODE     ---       #199
      01008CE9H   LINE      CODE     ---       #201
LX51 LINKER/LOCATER V4.64.0.0                                                         06/13/2017  14:44:14  PAGE 125


      01008CFBH   LINE      CODE     ---       #202
      01008CFBH   LINE      CODE     ---       #203
      01008D05H   LINE      CODE     ---       #205
      01008D16H   LINE      CODE     ---       #206
      01008D16H   LINE      CODE     ---       #208
      01008D1AH   LINE      CODE     ---       #209
      01008D1AH   LINE      CODE     ---       #213
      01008D22H   LINE      CODE     ---       #214
      01008D29H   LINE      CODE     ---       #215
      01008D2AH   LINE      CODE     ---       #217
      01008D2AH   LINE      CODE     ---       #220
      01008D31H   LINE      CODE     ---       #221
      01008D42H   LINE      CODE     ---       #222
      01008D42H   LINE      CODE     ---       #223
      01008D43H   LINE      CODE     ---       #225
      01008D43H   LINE      CODE     ---       #227
      01008D49H   LINE      CODE     ---       #228
      01008D49H   LINE      CODE     ---       #229
      01008D4EH   LINE      CODE     ---       #233
      01008D53H   LINE      CODE     ---       #234
      01008D58H   LINE      CODE     ---       #240
      01008D5FH   LINE      CODE     ---       #243
      01008D71H   LINE      CODE     ---       #244
      01008D71H   LINE      CODE     ---       #246
      01008D82H   LINE      CODE     ---       #247
      01008D88H   LINE      CODE     ---       #250
      01008D90H   LINE      CODE     ---       #253
      01008D97H   LINE      CODE     ---       #257
      01008D9CH   LINE      CODE     ---       #259
      01008D9CH   LINE      CODE     ---       #260
      01008D9CH   LINE      CODE     ---       #263
      01008DA4H   LINE      CODE     ---       #264
      01008DA4H   LINE      CODE     ---       #266
      01008DB5H   LINE      CODE     ---       #268
      01008DC8H   LINE      CODE     ---       #269
      01008DD2H   LINE      CODE     ---       #270
      01008DD3H   LINE      CODE     ---       #272
      01008DD3H   LINE      CODE     ---       #274
      01008DE4H   LINE      CODE     ---       #275
      01008DF9H   LINE      CODE     ---       #276
      01008DF9H   LINE      CODE     ---       #277
      01008DF9H   LINE      CODE     ---       #278
      01008DF9H   LINE      CODE     ---       #279
      ---         BLOCKEND  ---      ---       LVL=0

      0100B0C3H   BLOCK     CODE     ---       LVL=0
      0100B0C3H   LINE      CODE     ---       #297
      0100B0C3H   LINE      CODE     ---       #298
      0100B0C3H   LINE      CODE     ---       #299
      0100B0CCH   LINE      CODE     ---       #300
      ---         BLOCKEND  ---      ---       LVL=0

      0100AFEDH   BLOCK     CODE     ---       LVL=0
      00000007H   SYMBOL    DATA     BYTE      modeBitMask
      0100AFEDH   LINE      CODE     ---       #332
      0100AFEDH   LINE      CODE     ---       #333
      0100AFEDH   LINE      CODE     ---       #334
      0100AFF9H   LINE      CODE     ---       #335
      ---         BLOCKEND  ---      ---       LVL=0
      00000007H   SYMBOL    DATA     BYTE      modeBitMask
      00000007H   SYMBOL    DATA     BYTE      oldSrc

      0100B0FDH   BLOCK     CODE     ---       LVL=0
      0100B0FDH   LINE      CODE     ---       #464
      0100B0FDH   LINE      CODE     ---       #465
LX51 LINKER/LOCATER V4.64.0.0                                                         06/13/2017  14:44:14  PAGE 126


      0100B0FDH   LINE      CODE     ---       #466
      0100B104H   LINE      CODE     ---       #467
      ---         BLOCKEND  ---      ---       LVL=0
      00000007H   SYMBOL    DATA     BYTE      clkPhase

      ---         MODULE    ---      ---       CYBOOTASMKEIL
      0100ADB4H   PUBLIC    CODE     NEAR LAB  CyEnterCriticalSection
      0100A800H   PUBLIC    CODE     NEAR LAB  _CyDelayCycles
      0100AA9CH   PUBLIC    CODE     NEAR LAB  _CyDelayUs
      0100AD42H   PUBLIC    CODE     NEAR LAB  _CyExitCriticalSection

      ---         MODULE    ---      ---       CYFLASH
      02000C93H   PUBLIC    XDATA    ---       dieTemperature
      0100A9DCH   PUBLIC    CODE     ---       CyEEPROM_Start
      0100AD5AH   PUBLIC    CODE     ---       CySetTemp
      000000CAH   SFRSYM    DATA     BYTE      SFRPRT5SEL
      000000DAH   SFRSYM    DATA     BYTE      SFRPRT6SEL
      000000D0H.6 SFRSYM    DATA     BIT       AC
      000000A8H.7 SFRSYM    DATA     BIT       EA
      000000A8H   SFRSYM    DATA     BYTE      IE
      00000085H   SFRSYM    DATA     BYTE      DPH1
      00000084H   SFRSYM    DATA     BYTE      DPL1
      000000D0H.7 SFRSYM    DATA     BIT       CY
      000000A0H   SFRSYM    DATA     BYTE      P2AX
      00000095H   SFRSYM    DATA     BYTE      DPX1
      00000081H   SFRSYM    DATA     BYTE      SP
      000000D0H.2 SFRSYM    DATA     BIT       OV
      00000080H   SFRSYM    DATA     BYTE      SFRPRT0DR
      00000090H   SFRSYM    DATA     BYTE      SFRPRT1DR
      000000F2H   SFRSYM    DATA     BYTE      SFRPRT12SEL
      00000098H   SFRSYM    DATA     BYTE      SFRPRT2DR
      000000B0H   SFRSYM    DATA     BYTE      SFRPRT3DR
      000000C0H   SFRSYM    DATA     BYTE      SFRPRT4DR
      000000FAH   SFRSYM    DATA     BYTE      SFRPRT15SEL
      000000C8H   SFRSYM    DATA     BYTE      SFRPRT5DR
      000000D8H   SFRSYM    DATA     BYTE      SFRPRT6DR
      00000089H   SFRSYM    DATA     BYTE      SFRPRT0PS
      00000091H   SFRSYM    DATA     BYTE      SFRPRT1PS
      00000099H   SFRSYM    DATA     BYTE      SFRPRT2PS
      000000B1H   SFRSYM    DATA     BYTE      SFRPRT3PS
      000000C1H   SFRSYM    DATA     BYTE      SFRPRT4PS
      000000C9H   SFRSYM    DATA     BYTE      SFRPRT5PS
      000000D9H   SFRSYM    DATA     BYTE      SFRPRT6PS
      000000EAH   SFRSYM    DATA     BYTE      MXAX
      000000F0H   SFRSYM    DATA     BYTE      B
      000000E0H   SFRSYM    DATA     BYTE      ACC
      000000D0H   SFRSYM    DATA     BIT       P
      000000D0H.3 SFRSYM    DATA     BIT       RS0
      000000D0H.4 SFRSYM    DATA     BIT       RS1
      00000083H   SFRSYM    DATA     BYTE      DPH
      000000E8H   SFRSYM    DATA     BYTE      SFRPRT12DR
      00000082H   SFRSYM    DATA     BYTE      DPL
      000000F8H   SFRSYM    DATA     BYTE      SFRPRT15DR
      00000086H   SFRSYM    DATA     BYTE      DPS
      000000E9H   SFRSYM    DATA     BYTE      SFRPRT12PS
      00000093H   SFRSYM    DATA     BYTE      DPX
      000000F9H   SFRSYM    DATA     BYTE      SFRPRT15PS
      000000D0H.5 SFRSYM    DATA     BIT       F0
      000000D0H.1 SFRSYM    DATA     BIT       F1
      0000008AH   SFRSYM    DATA     BYTE      SFRPRT0SEL
      000000D0H   SFRSYM    DATA     BYTE      PSW
      000000A2H   SFRSYM    DATA     BYTE      SFRPRT1SEL
      0000009AH   SFRSYM    DATA     BYTE      SFRPRT2SEL
      000000B2H   SFRSYM    DATA     BYTE      SFRPRT3SEL
      000000C2H   SFRSYM    DATA     BYTE      SFRPRT4SEL
LX51 LINKER/LOCATER V4.64.0.0                                                         06/13/2017  14:44:14  PAGE 127


      0100A403H   SYMBOL    CODE     ---       CyFlashGetSpcAlgorithm
      0100A305H   SYMBOL    CODE     ---       CySetTempInt
      02000C90H   SYMBOL    XDATA    ---       rowBuffer
      00000007H   SYMBOL    DATA     BYTE      interruptState
      00000007H   SYMBOL    DATA     BYTE      interruptState

      0100A305H   BLOCK     CODE     ---       LVL=0
      0100A305H   BLOCK     CODE     NEAR LAB  LVL=1
      02000027H   SYMBOL    XDATA    BYTE      status
      ---         BLOCKEND  ---      ---       LVL=1
      0100A305H   LINE      CODE     ---       #155
      0100A305H   LINE      CODE     ---       #156
      0100A305H   LINE      CODE     ---       #160
      0100A308H   LINE      CODE     ---       #163
      0100A30EH   LINE      CODE     ---       #165
      0100A314H   LINE      CODE     ---       #166
      0100A314H   LINE      CODE     ---       #168
      0100A31EH   LINE      CODE     ---       #169
      0100A31EH   LINE      CODE     ---       #171
      0100A31EH   LINE      CODE     ---       #172
      0100A32DH   LINE      CODE     ---       #173
      0100A32DH   LINE      CODE     ---       #174
      0100A332H   LINE      CODE     ---       #176
      0100A33AH   LINE      CODE     ---       #177
      0100A33AH   LINE      CODE     ---       #179
      0100A340H   LINE      CODE     ---       #180
      0100A342H   LINE      CODE     ---       #181
      0100A342H   LINE      CODE     ---       #182
      0100A342H   LINE      CODE     ---       #184
      0100A34AH   LINE      CODE     ---       #185
      0100A34AH   LINE      CODE     ---       #187
      0100A34DH   LINE      CODE     ---       #188
      0100A34FH   LINE      CODE     ---       #190
      0100A34FH   LINE      CODE     ---       #191
      0100A355H   LINE      CODE     ---       #192
      0100A355H   LINE      CODE     ---       #194
      0100A35AH   LINE      CODE     ---       #195
      ---         BLOCKEND  ---      ---       LVL=0

      0100A403H   BLOCK     CODE     ---       LVL=0
      0100A403H   BLOCK     CODE     NEAR LAB  LVL=1
      02000027H   SYMBOL    XDATA    BYTE      status
      ---         BLOCKEND  ---      ---       LVL=1
      0100A403H   LINE      CODE     ---       #215
      0100A403H   LINE      CODE     ---       #216
      0100A403H   LINE      CODE     ---       #220
      0100A406H   LINE      CODE     ---       #222
      0100A40CH   LINE      CODE     ---       #223
      0100A40CH   LINE      CODE     ---       #224
      0100A414H   LINE      CODE     ---       #226
      0100A418H   LINE      CODE     ---       #227
      0100A418H   LINE      CODE     ---       #228
      0100A420H   LINE      CODE     ---       #229
      0100A420H   LINE      CODE     ---       #231
      0100A426H   LINE      CODE     ---       #232
      0100A428H   LINE      CODE     ---       #234
      0100A43EH   LINE      CODE     ---       #235
      0100A43EH   LINE      CODE     ---       #236
      0100A442H   LINE      CODE     ---       #237
      0100A442H   LINE      CODE     ---       #238
      0100A442H   LINE      CODE     ---       #239
      0100A445H   LINE      CODE     ---       #240
      0100A447H   LINE      CODE     ---       #242
      0100A447H   LINE      CODE     ---       #243
      0100A44DH   LINE      CODE     ---       #244
LX51 LINKER/LOCATER V4.64.0.0                                                         06/13/2017  14:44:14  PAGE 128


      0100A44DH   LINE      CODE     ---       #246
      0100A452H   LINE      CODE     ---       #247
      ---         BLOCKEND  ---      ---       LVL=0

      0100AD5AH   BLOCK     CODE     ---       LVL=0
      0100AD5AH   BLOCK     CODE     NEAR LAB  LVL=1
      02000026H   SYMBOL    XDATA    BYTE      status
      ---         BLOCKEND  ---      ---       LVL=1
      0100AD5AH   LINE      CODE     ---       #273
      0100AD5AH   LINE      CODE     ---       #274
      0100AD5AH   LINE      CODE     ---       #275
      0100AD62H   LINE      CODE     ---       #277
      0100AD64H   LINE      CODE     ---       #278
      0100AD64H   LINE      CODE     ---       #279
      0100AD6CH   LINE      CODE     ---       #280
      0100AD6CH   LINE      CODE     ---       #282
      0100AD71H   LINE      CODE     ---       #283
      ---         BLOCKEND  ---      ---       LVL=0
      00000004H   SYMBOL    DATA     WORD      rowAddress
      00000001H   SYMBOL    DATA     ---       rowData
      00000007H   SYMBOL    DATA     BYTE      status
      00000007H   SYMBOL    DATA     BYTE      interruptState

      0100A9DCH   BLOCK     CODE     ---       LVL=0
      0100A9DCH   BLOCK     CODE     NEAR LAB  LVL=1
      00000007H   SYMBOL    DATA     BYTE      interruptState
      ---         BLOCKEND  ---      ---       LVL=1
      0100A9DCH   LINE      CODE     ---       #636
      0100A9DCH   LINE      CODE     ---       #637
      0100A9DCH   LINE      CODE     ---       #640
      0100A9DFH   LINE      CODE     ---       #647
      0100A9E6H   LINE      CODE     ---       #648
      0100A9EDH   LINE      CODE     ---       #661
      0100A9F3H   LINE      CODE     ---       #668
      0100A9FAH   LINE      CODE     ---       #669
      0100AA01H   LINE      CODE     ---       #671
      0100AA09H   LINE      CODE     ---       #672
      0100AA09H   LINE      CODE     ---       #674
      0100AA09H   LINE      CODE     ---       #676
      0100AA0CH   LINE      CODE     ---       #677
      ---         BLOCKEND  ---      ---       LVL=0
      00000007H   SYMBOL    DATA     BYTE      interruptState

      ---         MODULE    ---      ---       CYMEM
      02000000H   PUBLIC    XDATA    BYTE      ?_cyconfigcpy?BYTE
      0100A912H   PUBLIC    CODE     NEAR LAB  _cyconfigcpy
      0100AB69H   PUBLIC    CODE     NEAR LAB  _cyconfigcpycode
      0100AF2BH   PUBLIC    CODE     NEAR LAB  _cyread16
      0100AF2DH   PUBLIC    CODE     NEAR LAB  _cyread16_nodpx
      0100AEB2H   PUBLIC    CODE     NEAR LAB  _cyread24
      0100AEB4H   PUBLIC    CODE     NEAR LAB  _cyread24_nodpx
      0100AFFAH   PUBLIC    CODE     NEAR LAB  _cyread8
      0100AFFCH   PUBLIC    CODE     NEAR LAB  _cyread8_nodpx
      0100AF3AH   PUBLIC    CODE     NEAR LAB  _cywrite16
      0100AF3CH   PUBLIC    CODE     NEAR LAB  _cywrite16_nodpx
      0100AED7H   PUBLIC    CODE     NEAR LAB  _cywrite24
      0100AED9H   PUBLIC    CODE     NEAR LAB  _cywrite24_nodpx
      0100B006H   PUBLIC    CODE     NEAR LAB  _cywrite8
      0100B008H   PUBLIC    CODE     NEAR LAB  _cywrite8_nodpx

      ---         MODULE    ---      ---       CYPM
      000000CAH   SFRSYM    DATA     BYTE      SFRPRT5SEL
      000000DAH   SFRSYM    DATA     BYTE      SFRPRT6SEL
      000000D0H.6 SFRSYM    DATA     BIT       AC
      000000A8H.7 SFRSYM    DATA     BIT       EA
LX51 LINKER/LOCATER V4.64.0.0                                                         06/13/2017  14:44:14  PAGE 129


      000000A8H   SFRSYM    DATA     BYTE      IE
      00000085H   SFRSYM    DATA     BYTE      DPH1
      00000084H   SFRSYM    DATA     BYTE      DPL1
      000000D0H.7 SFRSYM    DATA     BIT       CY
      000000A0H   SFRSYM    DATA     BYTE      P2AX
      00000095H   SFRSYM    DATA     BYTE      DPX1
      00000081H   SFRSYM    DATA     BYTE      SP
      000000D0H.2 SFRSYM    DATA     BIT       OV
      00000080H   SFRSYM    DATA     BYTE      SFRPRT0DR
      00000090H   SFRSYM    DATA     BYTE      SFRPRT1DR
      000000F2H   SFRSYM    DATA     BYTE      SFRPRT12SEL
      00000098H   SFRSYM    DATA     BYTE      SFRPRT2DR
      000000B0H   SFRSYM    DATA     BYTE      SFRPRT3DR
      000000C0H   SFRSYM    DATA     BYTE      SFRPRT4DR
      000000FAH   SFRSYM    DATA     BYTE      SFRPRT15SEL
      000000C8H   SFRSYM    DATA     BYTE      SFRPRT5DR
      000000D8H   SFRSYM    DATA     BYTE      SFRPRT6DR
      00000089H   SFRSYM    DATA     BYTE      SFRPRT0PS
      00000091H   SFRSYM    DATA     BYTE      SFRPRT1PS
      00000099H   SFRSYM    DATA     BYTE      SFRPRT2PS
      000000B1H   SFRSYM    DATA     BYTE      SFRPRT3PS
      000000C1H   SFRSYM    DATA     BYTE      SFRPRT4PS
      000000C9H   SFRSYM    DATA     BYTE      SFRPRT5PS
      000000D9H   SFRSYM    DATA     BYTE      SFRPRT6PS
      000000EAH   SFRSYM    DATA     BYTE      MXAX
      000000F0H   SFRSYM    DATA     BYTE      B
      000000E0H   SFRSYM    DATA     BYTE      ACC
      000000D0H   SFRSYM    DATA     BIT       P
      000000D0H.3 SFRSYM    DATA     BIT       RS0
      000000D0H.4 SFRSYM    DATA     BIT       RS1
      00000083H   SFRSYM    DATA     BYTE      DPH
      000000E8H   SFRSYM    DATA     BYTE      SFRPRT12DR
      00000082H   SFRSYM    DATA     BYTE      DPL
      000000F8H   SFRSYM    DATA     BYTE      SFRPRT15DR
      00000086H   SFRSYM    DATA     BYTE      DPS
      000000E9H   SFRSYM    DATA     BYTE      SFRPRT12PS
      00000093H   SFRSYM    DATA     BYTE      DPX
      000000F9H   SFRSYM    DATA     BYTE      SFRPRT15PS
      000000D0H.5 SFRSYM    DATA     BIT       F0
      000000D0H.1 SFRSYM    DATA     BIT       F1
      0000008AH   SFRSYM    DATA     BYTE      SFRPRT0SEL
      000000D0H   SFRSYM    DATA     BYTE      PSW
      000000A2H   SFRSYM    DATA     BYTE      SFRPRT1SEL
      0000009AH   SFRSYM    DATA     BYTE      SFRPRT2SEL
      000000B2H   SFRSYM    DATA     BYTE      SFRPRT3SEL
      000000C2H   SFRSYM    DATA     BYTE      SFRPRT4SEL
      02000BDAH   SYMBOL    XDATA    ---       cyPmClockBackup
      02000BEAH   SYMBOL    XDATA    ---       cyPmBackup
      00000006H   SYMBOL    DATA     WORD      clkBusDivTmp
      02000BD9H   SYMBOL    XDATA    BYTE      interruptStatus
      00000005H   SYMBOL    DATA     BYTE      interruptState

      ---         MODULE    ---      ---       CYSPC
      02000CA6H   PUBLIC    XDATA    BYTE      SpcLockState
      0100ACABH   PUBLIC    CODE     ---       CySpcGetAlgorithm
      0100B012H   PUBLIC    CODE     ---       CySpcUnlock
      0100AC52H   PUBLIC    CODE     ---       CySpcLock
      0100AA6CH   PUBLIC    CODE     ---       _CySpcGetTemp
      0200002BH   PUBLIC    XDATA    BYTE      ?_CySpcWriteRow?BYTE
      0100A3AFH   PUBLIC    CODE     ---       _CySpcWriteRow
      0200002BH   PUBLIC    XDATA    BYTE      ?_CySpcLoadRow?BYTE
      01009FD0H   PUBLIC    CODE     ---       _CySpcLoadRow
      0100A1F0H   PUBLIC    CODE     ---       _CySpcReadData
      0100ADC9H   PUBLIC    CODE     ---       CySpcStart
      000000CAH   SFRSYM    DATA     BYTE      SFRPRT5SEL
LX51 LINKER/LOCATER V4.64.0.0                                                         06/13/2017  14:44:14  PAGE 130


      000000DAH   SFRSYM    DATA     BYTE      SFRPRT6SEL
      000000D0H.6 SFRSYM    DATA     BIT       AC
      000000A8H.7 SFRSYM    DATA     BIT       EA
      000000A8H   SFRSYM    DATA     BYTE      IE
      00000085H   SFRSYM    DATA     BYTE      DPH1
      00000084H   SFRSYM    DATA     BYTE      DPL1
      000000D0H.7 SFRSYM    DATA     BIT       CY
      000000A0H   SFRSYM    DATA     BYTE      P2AX
      00000095H   SFRSYM    DATA     BYTE      DPX1
      00000081H   SFRSYM    DATA     BYTE      SP
      000000D0H.2 SFRSYM    DATA     BIT       OV
      00000080H   SFRSYM    DATA     BYTE      SFRPRT0DR
      00000090H   SFRSYM    DATA     BYTE      SFRPRT1DR
      000000F2H   SFRSYM    DATA     BYTE      SFRPRT12SEL
      00000098H   SFRSYM    DATA     BYTE      SFRPRT2DR
      000000B0H   SFRSYM    DATA     BYTE      SFRPRT3DR
      000000C0H   SFRSYM    DATA     BYTE      SFRPRT4DR
      000000FAH   SFRSYM    DATA     BYTE      SFRPRT15SEL
      000000C8H   SFRSYM    DATA     BYTE      SFRPRT5DR
      000000D8H   SFRSYM    DATA     BYTE      SFRPRT6DR
      00000089H   SFRSYM    DATA     BYTE      SFRPRT0PS
      00000091H   SFRSYM    DATA     BYTE      SFRPRT1PS
      00000099H   SFRSYM    DATA     BYTE      SFRPRT2PS
      000000B1H   SFRSYM    DATA     BYTE      SFRPRT3PS
      000000C1H   SFRSYM    DATA     BYTE      SFRPRT4PS
      000000C9H   SFRSYM    DATA     BYTE      SFRPRT5PS
      000000D9H   SFRSYM    DATA     BYTE      SFRPRT6PS
      000000EAH   SFRSYM    DATA     BYTE      MXAX
      000000F0H   SFRSYM    DATA     BYTE      B
      000000E0H   SFRSYM    DATA     BYTE      ACC
      000000D0H   SFRSYM    DATA     BIT       P
      000000D0H.3 SFRSYM    DATA     BIT       RS0
      000000D0H.4 SFRSYM    DATA     BIT       RS1
      00000083H   SFRSYM    DATA     BYTE      DPH
      000000E8H   SFRSYM    DATA     BYTE      SFRPRT12DR
      00000082H   SFRSYM    DATA     BYTE      DPL
      000000F8H   SFRSYM    DATA     BYTE      SFRPRT15DR
      00000086H   SFRSYM    DATA     BYTE      DPS
      000000E9H   SFRSYM    DATA     BYTE      SFRPRT12PS
      00000093H   SFRSYM    DATA     BYTE      DPX
      000000F9H   SFRSYM    DATA     BYTE      SFRPRT15PS
      000000D0H.5 SFRSYM    DATA     BIT       F0
      000000D0H.1 SFRSYM    DATA     BIT       F1
      0000008AH   SFRSYM    DATA     BYTE      SFRPRT0SEL
      000000D0H   SFRSYM    DATA     BYTE      PSW
      000000A2H   SFRSYM    DATA     BYTE      SFRPRT1SEL
      0000009AH   SFRSYM    DATA     BYTE      SFRPRT2SEL
      000000B2H   SFRSYM    DATA     BYTE      SFRPRT3SEL
      000000C2H   SFRSYM    DATA     BYTE      SFRPRT4SEL

      0100ADC9H   BLOCK     CODE     ---       LVL=0
      0100ADC9H   BLOCK     CODE     NEAR LAB  LVL=1
      00000007H   SYMBOL    DATA     BYTE      interruptState
      ---         BLOCKEND  ---      ---       LVL=1
      0100ADC9H   LINE      CODE     ---       #78
      0100ADC9H   LINE      CODE     ---       #79
      0100ADC9H   LINE      CODE     ---       #81
      0100ADCCH   LINE      CODE     ---       #83
      0100ADD3H   LINE      CODE     ---       #84
      0100ADDAH   LINE      CODE     ---       #87
      0100ADDDH   LINE      CODE     ---       #88
      ---         BLOCKEND  ---      ---       LVL=0
      00000007H   SYMBOL    DATA     BYTE      interruptState

      0100A1F0H   BLOCK     CODE     ---       LVL=0
LX51 LINKER/LOCATER V4.64.0.0                                                         06/13/2017  14:44:14  PAGE 131


      02000028H   SYMBOL    XDATA    ---       buffer
      0200002BH   SYMBOL    XDATA    BYTE      size
      0100A1FEH   BLOCK     CODE     NEAR LAB  LVL=1
      0200002CH   SYMBOL    XDATA    BYTE      i
      ---         BLOCKEND  ---      ---       LVL=1
      0100A1F0H   LINE      CODE     ---       #135
      0100A1FEH   LINE      CODE     ---       #136
      0100A1FEH   LINE      CODE     ---       #139
      0100A20CH   LINE      CODE     ---       #140
      0100A20CH   LINE      CODE     ---       #141
      0100A21AH   LINE      CODE     ---       #142
      0100A21AH   LINE      CODE     ---       #143
      0100A221H   LINE      CODE     ---       #144
      0100A223H   LINE      CODE     ---       #145
      0100A242H   LINE      CODE     ---       #146
      0100A24AH   LINE      CODE     ---       #148
      0100A24FH   LINE      CODE     ---       #149
      ---         BLOCKEND  ---      ---       LVL=0
      00000005H   SYMBOL    DATA     BYTE      status
      00000007H   SYMBOL    DATA     BYTE      i

      01009FD0H   BLOCK     CODE     ---       LVL=0
      00000007H   SYMBOL    DATA     BYTE      array
      0200002CH   SYMBOL    XDATA    ---       buffer
      0200002FH   SYMBOL    XDATA    WORD      size
      01009FDBH   BLOCK     CODE     NEAR LAB  LVL=1
      02000031H   SYMBOL    XDATA    BYTE      status
      00000006H   SYMBOL    DATA     WORD      i
      ---         BLOCKEND  ---      ---       LVL=1
      01009FD0H   LINE      CODE     ---       #258
      01009FDBH   LINE      CODE     ---       #259
      01009FDBH   LINE      CODE     ---       #260
      01009FE1H   LINE      CODE     ---       #264
      01009FE9H   LINE      CODE     ---       #265
      01009FE9H   LINE      CODE     ---       #266
      01009FEFH   LINE      CODE     ---       #267
      01009FF2H   LINE      CODE     ---       #268
      01009FF5H   LINE      CODE     ---       #271
      01009FFDH   LINE      CODE     ---       #272
      01009FFDH   LINE      CODE     ---       #273
      0100A002H   LINE      CODE     ---       #275
      0100A012H   LINE      CODE     ---       #276
      0100A012H   LINE      CODE     ---       #277
      0100A028H   LINE      CODE     ---       #278
      0100A02FH   LINE      CODE     ---       #279
      0100A02FH   LINE      CODE     ---       #281
      0100A02FH   LINE      CODE     ---       #282
      0100A035H   LINE      CODE     ---       #283
      0100A035H   LINE      CODE     ---       #284
      0100A037H   LINE      CODE     ---       #286
      0100A037H   LINE      CODE     ---       #287
      0100A03DH   LINE      CODE     ---       #288
      0100A03DH   LINE      CODE     ---       #290
      0100A042H   LINE      CODE     ---       #291
      ---         BLOCKEND  ---      ---       LVL=0

      0100A3AFH   BLOCK     CODE     ---       LVL=0
      00000004H   SYMBOL    DATA     BYTE      array
      0200002CH   SYMBOL    XDATA    WORD      address
      00000003H   SYMBOL    DATA     BYTE      tempPolarity
      0200002FH   SYMBOL    XDATA    BYTE      tempMagnitude
      0100A3B9H   BLOCK     CODE     NEAR LAB  LVL=1
      00000005H   SYMBOL    DATA     BYTE      status
      ---         BLOCKEND  ---      ---       LVL=1
      0100A3AFH   LINE      CODE     ---       #464
LX51 LINKER/LOCATER V4.64.0.0                                                         06/13/2017  14:44:14  PAGE 132


      0100A3B9H   LINE      CODE     ---       #466
      0100A3B9H   LINE      CODE     ---       #467
      0100A3BBH   LINE      CODE     ---       #470
      0100A3C3H   LINE      CODE     ---       #471
      0100A3C3H   LINE      CODE     ---       #472
      0100A3C9H   LINE      CODE     ---       #473
      0100A3CCH   LINE      CODE     ---       #474
      0100A3CFH   LINE      CODE     ---       #477
      0100A3D7H   LINE      CODE     ---       #478
      0100A3D7H   LINE      CODE     ---       #479
      0100A3DCH   LINE      CODE     ---       #480
      0100A3E4H   LINE      CODE     ---       #481
      0100A3EEH   LINE      CODE     ---       #482
      0100A3F0H   LINE      CODE     ---       #483
      0100A3F8H   LINE      CODE     ---       #484
      0100A3FAH   LINE      CODE     ---       #486
      0100A3FAH   LINE      CODE     ---       #487
      0100A3FCH   LINE      CODE     ---       #488
      0100A3FCH   LINE      CODE     ---       #489
      0100A3FEH   LINE      CODE     ---       #491
      0100A3FEH   LINE      CODE     ---       #492
      0100A400H   LINE      CODE     ---       #493
      0100A400H   LINE      CODE     ---       #495
      0100A402H   LINE      CODE     ---       #496
      ---         BLOCKEND  ---      ---       LVL=0
      00000007H   SYMBOL    DATA     BYTE      array
      00000005H   SYMBOL    DATA     BYTE      sectorNumber
      00000006H   SYMBOL    DATA     BYTE      status

      0100AA6CH   BLOCK     CODE     ---       LVL=0
      00000007H   SYMBOL    DATA     BYTE      numSamples
      0100AA6CH   BLOCK     CODE     NEAR LAB  LVL=1
      00000006H   SYMBOL    DATA     BYTE      status
      ---         BLOCKEND  ---      ---       LVL=1
      0100AA6CH   LINE      CODE     ---       #573
      0100AA6CH   LINE      CODE     ---       #574
      0100AA6CH   LINE      CODE     ---       #575
      0100AA6EH   LINE      CODE     ---       #578
      0100AA76H   LINE      CODE     ---       #579
      0100AA76H   LINE      CODE     ---       #580
      0100AA7CH   LINE      CODE     ---       #581
      0100AA7FH   LINE      CODE     ---       #582
      0100AA82H   LINE      CODE     ---       #585
      0100AA8AH   LINE      CODE     ---       #586
      0100AA8AH   LINE      CODE     ---       #587
      0100AA8FH   LINE      CODE     ---       #588
      0100AA91H   LINE      CODE     ---       #590
      0100AA91H   LINE      CODE     ---       #591
      0100AA93H   LINE      CODE     ---       #592
      0100AA93H   LINE      CODE     ---       #593
      0100AA95H   LINE      CODE     ---       #595
      0100AA95H   LINE      CODE     ---       #596
      0100AA97H   LINE      CODE     ---       #597
      0100AA97H   LINE      CODE     ---       #599
      0100AA99H   LINE      CODE     ---       #600
      ---         BLOCKEND  ---      ---       LVL=0

      0100AC52H   BLOCK     CODE     ---       LVL=0
      0100AC52H   BLOCK     CODE     NEAR LAB  LVL=1
      0200002BH   SYMBOL    XDATA    BYTE      status
      00000007H   SYMBOL    DATA     BYTE      interruptState
      ---         BLOCKEND  ---      ---       LVL=1
      0100AC52H   LINE      CODE     ---       #618
      0100AC52H   LINE      CODE     ---       #619
      0100AC52H   LINE      CODE     ---       #620
LX51 LINKER/LOCATER V4.64.0.0                                                         06/13/2017  14:44:14  PAGE 133


      0100AC58H   LINE      CODE     ---       #624
      0100AC5BH   LINE      CODE     ---       #626
      0100AC61H   LINE      CODE     ---       #627
      0100AC61H   LINE      CODE     ---       #628
      0100AC63H   LINE      CODE     ---       #629
      0100AC68H   LINE      CODE     ---       #647
      0100AC68H   LINE      CODE     ---       #650
      0100AC6BH   LINE      CODE     ---       #652
      0100AC70H   LINE      CODE     ---       #653
      ---         BLOCKEND  ---      ---       LVL=0

      0100B012H   BLOCK     CODE     ---       LVL=0
      0100B012H   BLOCK     CODE     NEAR LAB  LVL=1
      00000007H   SYMBOL    DATA     BYTE      interruptState
      ---         BLOCKEND  ---      ---       LVL=1
      0100B012H   LINE      CODE     ---       #670
      0100B012H   LINE      CODE     ---       #671
      0100B012H   LINE      CODE     ---       #675
      0100B015H   LINE      CODE     ---       #678
      0100B01AH   LINE      CODE     ---       #698
      0100B01DH   LINE      CODE     ---       #699
      ---         BLOCKEND  ---      ---       LVL=0

      0100ACABH   BLOCK     CODE     ---       LVL=0
      0100ACABH   BLOCK     CODE     NEAR LAB  LVL=1
      00000007H   SYMBOL    DATA     BYTE      status
      ---         BLOCKEND  ---      ---       LVL=1
      0100ACABH   LINE      CODE     ---       #716
      0100ACABH   LINE      CODE     ---       #717
      0100ACABH   LINE      CODE     ---       #718
      0100ACADH   LINE      CODE     ---       #721
      0100ACB5H   LINE      CODE     ---       #722
      0100ACB5H   LINE      CODE     ---       #723
      0100ACBBH   LINE      CODE     ---       #724
      0100ACBEH   LINE      CODE     ---       #725
      0100ACC1H   LINE      CODE     ---       #726
      0100ACC3H   LINE      CODE     ---       #728
      0100ACC3H   LINE      CODE     ---       #729
      0100ACC5H   LINE      CODE     ---       #730
      0100ACC5H   LINE      CODE     ---       #732
      0100ACC5H   LINE      CODE     ---       #733
      ---         BLOCKEND  ---      ---       LVL=0

      ---         MODULE    ---      ---       ?C?FPMUL
      01006615H   PUBLIC    CODE     ---       ?C?FPMUL

      ---         MODULE    ---      ---       ?C?FPDIV
      0100671EH   PUBLIC    CODE     ---       ?C?FPDIV

      ---         MODULE    ---      ---       ?C?FPCMP
      010067BDH   PUBLIC    CODE     ---       ?C?FPCMP
      010067BBH   PUBLIC    CODE     ---       ?C?FPCMP3

      ---         MODULE    ---      ---       ?C?FCAST
      0100683EH   PUBLIC    CODE     ---       ?C?FCASTC
      01006839H   PUBLIC    CODE     ---       ?C?FCASTI
      01006834H   PUBLIC    CODE     ---       ?C?FCASTL

      ---         MODULE    ---      ---       ?C?CASTF
      01006872H   PUBLIC    CODE     ---       ?C?CASTF

      ---         MODULE    ---      ---       PRINTF
      0200090BH   PUBLIC    XDATA    ---       ?_PRINTF?BYTE
      0200090BH   PUBLIC    XDATA    ---       ?_SPRINTF?BYTE
      01007136H   PUBLIC    CODE     ---       _PRINTF
LX51 LINKER/LOCATER V4.64.0.0                                                         06/13/2017  14:44:14  PAGE 134


      01007130H   PUBLIC    CODE     ---       _SPRINTF

      ---         MODULE    ---      ---       ?C?FPGETOPN
      010068A9H   PUBLIC    CODE     ---       ?C?FPGETOPN2
      010068DEH   PUBLIC    CODE     ---       ?C?FPNANRESULT
      010068E8H   PUBLIC    CODE     ---       ?C?FPOVERFLOW
      010068C0H   PUBLIC    CODE     ---       ?C?FPRESULT
      010068D4H   PUBLIC    CODE     ---       ?C?FPRESULT2
      010068E5H   PUBLIC    CODE     ---       ?C?FPUNDERFLOW

      ---         MODULE    ---      ---       ?C?FPROUND
      010068F3H   PUBLIC    CODE     ---       ?C?FPROUND

      ---         MODULE    ---      ---       ?C?FPCONVERT
      01006930H   PUBLIC    CODE     ---       ?C?FPCONVERT

      ---         MODULE    ---      ---       ?C?FPADD
      01006A3CH   PUBLIC    CODE     ---       ?C?FPADD
      01006A38H   PUBLIC    CODE     ---       ?C?FPSUB

      ---         MODULE    ---      ---       ?C?FTNPWR
      01006B5DH   PUBLIC    CODE     ---       ?C?FTNPWR

      ---         MODULE    ---      ---       ?C_INIT
      01009120H   PUBLIC    CODE     ---       ?C_START

      ---         MODULE    ---      ---       ?C?CLDPTR
      01006B9DH   PUBLIC    CODE     ---       ?C?CLDPTR

      ---         MODULE    ---      ---       ?C?CLDOPTR
      01006BB6H   PUBLIC    CODE     ---       ?C?CLDOPTR

      ---         MODULE    ---      ---       ?C?CSTPTR
      01006BE3H   PUBLIC    CODE     ---       ?C?CSTPTR

      ---         MODULE    ---      ---       ?C?IMUL
      01006BF5H   PUBLIC    CODE     ---       ?C?IMUL

      ---         MODULE    ---      ---       ?C?ISTPTR
      01006C07H   PUBLIC    CODE     ---       ?C?ISTPTR

      ---         MODULE    ---      ---       ?C?LMUL
      01006C26H   PUBLIC    CODE     ---       ?C?LMUL

      ---         MODULE    ---      ---       ?C?ULDIV
      01006CB1H   PUBLIC    CODE     ---       ?C?ULDIV

      ---         MODULE    ---      ---       ?C?SLDIV
      0100A611H   PUBLIC    CODE     ---       ?C?SLDIV

      ---         MODULE    ---      ---       ?C?LNOT
      01006D43H   PUBLIC    CODE     ---       ?C?LNOT

      ---         MODULE    ---      ---       ?C?LNEG
      01006D50H   PUBLIC    CODE     ---       ?C?LNEG

      ---         MODULE    ---      ---       ?C?SLCMP
      01006D5EH   PUBLIC    CODE     ---       ?C?SLCMP

      ---         MODULE    ---      ---       ?C?ULCMP
      01006D74H   PUBLIC    CODE     ---       ?C?ULCMP

      ---         MODULE    ---      ---       ?C?ULSHR
      01006D85H   PUBLIC    CODE     ---       ?C?ULSHR

LX51 LINKER/LOCATER V4.64.0.0                                                         06/13/2017  14:44:14  PAGE 135


      ---         MODULE    ---      ---       ?C?SLSHR
      01006D98H   PUBLIC    CODE     ---       ?C?SLSHR

      ---         MODULE    ---      ---       ?C?LSHL
      01006DACH   PUBLIC    CODE     ---       ?C?LSHL

      ---         MODULE    ---      ---       ?C?LLDPTR
      01006DBFH   PUBLIC    CODE     ---       ?C?LLDPTR

      ---         MODULE    ---      ---       ?C?LSTPTR
      01006DDFH   PUBLIC    CODE     ---       ?C?LSTPTR

      ---         MODULE    ---      ---       ?C?LSTXDATA
      01006DF9H   PUBLIC    CODE     ---       ?C?LSTXDATA

      ---         MODULE    ---      ---       ?C?PLDIXDATA
      01006E05H   PUBLIC    CODE     ---       ?C?PLDIXDATA

      ---         MODULE    ---      ---       ?C?PSTXDATA
      01006E1CH   PUBLIC    CODE     ---       ?C?PSTXDATA

      ---         MODULE    ---      ---       ?C?CCASE
      01006E25H   PUBLIC    CODE     ---       ?C?CCASE

      ---         MODULE    ---      ---       ?C_XBP
      0000000EH   PUBLIC    DATA     ---       ?C_XBP

      ---         MODULE    ---      ---       ?C?ADDXBP
      01006E4BH   PUBLIC    CODE     ---       ?C?ADDXBP

      ---         MODULE    ---      ---       ?C?LIMUL
      01006E6FH   PUBLIC    CODE     ---       ?C?LIMUL

      ---         MODULE    ---      ---       PUTCHAR
      0100AB1CH   PUBLIC    CODE     ---       _PUTCHAR

      ---         MODULE    ---      ---       ABS
      0100B01EH   PUBLIC    CODE     ---       _ABS

      ---         MODULE    ---      ---       STRCAT
      0200090BH   PUBLIC    XDATA    ---       ?_STRCAT?BYTE
      0100A11FH   PUBLIC    CODE     ---       _STRCAT

      ---         MODULE    ---      ---       STRLEN
      0100ADDEH   PUBLIC    CODE     ---       _STRLEN

      ---         MODULE    ---      ---       ?C?COPYAMD
      01006F58H   PUBLIC    CODE     ---       ?C?COPYAMD

      ---         MODULE    ---      ---       ?C?STRCPYAMD
      01007036H   PUBLIC    CODE     ---       ?C?STRCPYAMD

      ---         MODULE    ---      ---       ?C?IILDX
      01007053H   PUBLIC    CODE     ---       ?C?IILDX

      ---         MODULE    ---      ---       ?C?ILDIX
      01007069H   PUBLIC    CODE     ---       ?C?ILDIX

      ---         MODULE    ---      ---       ?C?LLDIDATA
      0100707FH   PUBLIC    CODE     ---       ?C?LLDIDATA

      ---         MODULE    ---      ---       ?C?LLDXDATA
      0100708BH   PUBLIC    CODE     ---       ?C?LLDXDATA

      ---         MODULE    ---      ---       ?C?LLDPDATA
LX51 LINKER/LOCATER V4.64.0.0                                                         06/13/2017  14:44:14  PAGE 136


      01007097H   PUBLIC    CODE     ---       ?C?LLDPDATA

      ---         MODULE    ---      ---       ?C?LLDCODE
      010070A3H   PUBLIC    CODE     ---       ?C?LLDCODE

      ---         MODULE    ---      ---       ?C?LSTIDATA
      010070B3H   PUBLIC    CODE     ---       ?C?LSTIDATA

      ---         MODULE    ---      ---       ?C?LSTPDATA
      010070BFH   PUBLIC    CODE     ---       ?C?LSTPDATA



INTER-MODULE CROSS-REFERENCE LISTING


NAME . . . . . . . . . . . . . . . . . . CLASS    MODULE NAMES
==============================================================

?_Bootloadable_SetFlashByte?BYTE . . . . XDATA    BOOTLOADABLE  
?_commWrite?BYTE . . . . . . . . . . . . XDATA    COMMAND_PROCESSING  
?_commWrite_old_id?BYTE. . . . . . . . . XDATA    COMMAND_PROCESSING  
?_cyconfigcpy?BYTE . . . . . . . . . . . XDATA    CYMEM  CYFITTER_CFG  
?_CyDmaChSetConfiguration?BYTE . . . . . XDATA    CYDMAC  DMA_DMA  
?_CyDmaChStatus?BYTE . . . . . . . . . . XDATA    CYDMAC  
?_CyDmaTdGetAddress?BYTE . . . . . . . . XDATA    CYDMAC  
?_CyDmaTdGetConfiguration?BYTE . . . . . XDATA    CYDMAC  
?_CyDmaTdSetConfiguration?BYTE . . . . . XDATA    CYDMAC  MAIN  
?_CySpcLoadMultiByte?BYTE. . . . . . . . XDATA    CYSPC  EEPROM  
?_CySpcLoadRow?BYTE. . . . . . . . . . . XDATA    CYSPC  EEPROM  
?_CySpcLoadRowFull?BYTE. . . . . . . . . XDATA    CYSPC  CYFLASH  
?_CySpcWriteRow?BYTE . . . . . . . . . . XDATA    CYSPC  CYFLASH  EEPROM  
?_CyWriteRowFull?BYTE. . . . . . . . . . XDATA    CYFLASH  
?_DMA_DmaInitialize?BYTE . . . . . . . . XDATA    DMA_DMA  MAIN  
?_PRINTF?BYTE. . . . . . . . . . . . . . XDATA    PRINTF  
?_SPRINTF?BYTE . . . . . . . . . . . . . XDATA    PRINTF  COMMAND_PROCESSING  
?_strcat?BYTE. . . . . . . . . . . . . . XDATA    STRCAT  COMMAND_PROCESSING  
?C?ADDXBP. . . . . . . . . . . . . . . . CODE     ?C?ADDXBP  CYLIB  
?C?CASTF . . . . . . . . . . . . . . . . CODE     ?C?CASTF  ADC  COMMAND_PROCESSING  INTERRUPTIONS  
?C?CCASE . . . . . . . . . . . . . . . . CODE     ?C?CCASE  COMMAND_PROCESSING  PRINTF  
?C?CLDOPTR . . . . . . . . . . . . . . . CODE     ?C?CLDOPTR  PRINTF  
?C?CLDPTR. . . . . . . . . . . . . . . . CODE     ?C?CLDPTR  COMMAND_PROCESSING  CYSPC  PRINTF  STRCAT  STRLEN  UART_RS4
                                                  85  UTILS  
?C?CODESEG . . . . . . . . . . . . . . . NUMBER   ** LX51 GENERATED **  
?C?COPYAMD . . . . . . . . . . . . . . . CODE     ?C?COPYAMD  COMMAND_PROCESSING  INTERRUPTIONS  MAIN  
?C?CSTPTR. . . . . . . . . . . . . . . . CODE     ?C?CSTPTR  CYDMAC  CYSPC  PRINTF  STRCAT  
?C?FCASTC. . . . . . . . . . . . . . . . CODE     ?C?FCAST  
?C?FCASTI. . . . . . . . . . . . . . . . CODE     ?C?FCAST  ADC  COMMAND_PROCESSING  
?C?FCASTL. . . . . . . . . . . . . . . . CODE     ?C?FCAST  ADC  COMMAND_PROCESSING  INTERRUPTIONS  
?C?FPADD . . . . . . . . . . . . . . . . CODE     ?C?FPADD  ?C?FPCONVERT  
?C?FPCMP . . . . . . . . . . . . . . . . CODE     ?C?FPCMP  
?C?FPCMP3. . . . . . . . . . . . . . . . CODE     ?C?FPCMP  ADC  COMMAND_PROCESSING  INTERRUPTIONS  
?C?FPCONVERT . . . . . . . . . . . . . . CODE     ?C?FPCONVERT  PRINTF  
?C?FPDIV . . . . . . . . . . . . . . . . CODE     ?C?FPDIV  ?C?FPCONVERT  ADC  COMMAND_PROCESSING  
?C?FPGETOPN2 . . . . . . . . . . . . . . CODE     ?C?FPGETOPN  ?C?FPADD  ?C?FPDIV  ?C?FPMUL  
?C?FPMUL . . . . . . . . . . . . . . . . CODE     ?C?FPMUL  ?C?FPCONVERT  ?C?FTNPWR  ADC  COMMAND_PROCESSING  INTERRUPTI
                                                  ONS  
?C?FPNANRESULT . . . . . . . . . . . . . CODE     ?C?FPGETOPN  ?C?FPADD  ?C?FPDIV  ?C?FPMUL  
?C?FPOVERFLOW. . . . . . . . . . . . . . CODE     ?C?FPGETOPN  ?C?FPADD  ?C?FPDIV  ?C?FPMUL  
?C?FPRESULT. . . . . . . . . . . . . . . CODE     ?C?FPGETOPN  ?C?FPADD  ?C?FPDIV  ?C?FPMUL  
?C?FPRESULT2 . . . . . . . . . . . . . . CODE     ?C?FPGETOPN  ?C?FPDIV  ?C?FPMUL  
?C?FPROUND . . . . . . . . . . . . . . . CODE     ?C?FPROUND  PRINTF  
?C?FPSUB . . . . . . . . . . . . . . . . CODE     ?C?FPADD  
?C?FPUNDERFLOW . . . . . . . . . . . . . CODE     ?C?FPGETOPN  ?C?FPADD  ?C?FPDIV  ?C?FPMUL  
?C?FTNPWR. . . . . . . . . . . . . . . . CODE     ?C?FTNPWR  ?C?FPCONVERT  
LX51 LINKER/LOCATER V4.64.0.0                                                         06/13/2017  14:44:14  PAGE 137


?C?IILDX . . . . . . . . . . . . . . . . CODE     ?C?IILDX  STRCAT  
?C?ILDIX . . . . . . . . . . . . . . . . CODE     ?C?ILDIX  STRCAT  
?C?IMUL. . . . . . . . . . . . . . . . . CODE     ?C?IMUL  INTERRUPTIONS  
?C?ISTPTR. . . . . . . . . . . . . . . . CODE     ?C?ISTPTR  CYDMAC  
?C?LIMUL . . . . . . . . . . . . . . . . CODE     ?C?LIMUL  COMMAND_PROCESSING  CYSPC  
?C?LLDCODE . . . . . . . . . . . . . . . CODE     ?C?LLDCODE  ?C?LLDPTR  
?C?LLDIDATA. . . . . . . . . . . . . . . CODE     ?C?LLDIDATA  ?C?LLDPTR  
?C?LLDPDATA. . . . . . . . . . . . . . . CODE     ?C?LLDPDATA  ?C?LLDPTR  
?C?LLDPTR. . . . . . . . . . . . . . . . CODE     ?C?LLDPTR  CYLIB  
?C?LLDXDATA. . . . . . . . . . . . . . . CODE     ?C?LLDXDATA  ?C?LLDPTR  
?C?LMUL. . . . . . . . . . . . . . . . . CODE     ?C?LMUL  ADC  CYLIB  CYPM  INTERRUPTIONS  UTILS  
?C?LNEG. . . . . . . . . . . . . . . . . CODE     ?C?LNEG  ?C?CASTF  ?C?FCAST  COMMAND_PROCESSING  MAIN  
?C?LNOT. . . . . . . . . . . . . . . . . CODE     ?C?LNOT  CYDMAC  
?C?LSHL. . . . . . . . . . . . . . . . . CODE     ?C?LSHL  ADC  COMMAND_PROCESSING  CYDMAC  CYLIB  INTERRUPTIONS  UTILS 
                                                   
?C?LSTIDATA. . . . . . . . . . . . . . . CODE     ?C?LSTIDATA  ?C?LSTPTR  
?C?LSTPDATA. . . . . . . . . . . . . . . CODE     ?C?LSTPDATA  ?C?LSTPTR  
?C?LSTPTR. . . . . . . . . . . . . . . . CODE     ?C?LSTPTR  CYLIB  
?C?LSTXDATA. . . . . . . . . . . . . . . CODE     ?C?LSTXDATA  ?C?LSTPTR  ADC  BOOTLOADABLE  COMMAND_PROCESSING  CYDMAC 
                                                   CYFITTER_CFG  CYLIB  CYSPC  INTERRUPTIONS  MAIN  SHIFTREG_ENC_1  SHIF
                                                  TREG_ENC_2  SHIFTREG_ENC_3  SHIFTREG_ENC_4  UTILS  
?C?PLDIXDATA . . . . . . . . . . . . . . CODE     ?C?PLDIXDATA  PRINTF  
?C?PSTXDATA. . . . . . . . . . . . . . . CODE     ?C?PSTXDATA  PRINTF  
?C?SLCMP . . . . . . . . . . . . . . . . CODE     ?C?SLCMP  COMMAND_PROCESSING  INTERRUPTIONS  
?C?SLDIV . . . . . . . . . . . . . . . . CODE     ?C?SLDIV  ADC  INTERRUPTIONS  UTILS  
?C?SLSHR . . . . . . . . . . . . . . . . CODE     ?C?SLSHR  COMMAND_PROCESSING  INTERRUPTIONS  UTILS  
?C?STRCPYAMD . . . . . . . . . . . . . . CODE     ?C?STRCPYAMD  COMMAND_PROCESSING  
?C?ULCMP . . . . . . . . . . . . . . . . CODE     ?C?ULCMP  COMMAND_PROCESSING  CYDMAC  CYFLASH  
?C?ULDIV . . . . . . . . . . . . . . . . CODE     ?C?ULDIV  ?C?SLDIV  ADC  BOOTLOADABLE  CYLIB  CYPM  
?C?ULSHR . . . . . . . . . . . . . . . . CODE     ?C?ULSHR  COMMAND_PROCESSING  CYLIB  INTERRUPTIONS  
?C?XDATASEG. . . . . . . . . . . . . . . NUMBER   ** LX51 GENERATED **  
?C?XPAGE1RST . . . . . . . . . . . . . . NUMBER   ?C_STARTUP  ADC_INT  INTERRUPTIONS  ISR_RS485_RX  ISR_WATCHDOG  UART_R
                                                  S485_INT  
?C?XPAGE1SFR . . . . . . . . . . . . . . DATA     ?C_STARTUP  ADC_INT  INTERRUPTIONS  ISR_RS485_RX  ISR_WATCHDOG  UART_R
                                                  S485_INT  
?C_START . . . . . . . . . . . . . . . . CODE     ?C_INIT  ?C_STARTUP  
?C_STARTUP . . . . . . . . . . . . . . . CODE     ?C_STARTUP  MAIN  
?C_XBP . . . . . . . . . . . . . . . . . DATA     ?C_XBP  ?C?ADDXBP  ?C_STARTUP  CYLIB  
_?CyDelay. . . . . . . . . . . . . . . . CODE     CYLIB  COMMAND_PROCESSING  CYBOOTASMKEIL  MAIN  
_?CyDelayFreq. . . . . . . . . . . . . . CODE     CYLIB  
_?CyHalt . . . . . . . . . . . . . . . . CODE     CYLIB  
_ABS . . . . . . . . . . . . . . . . . . CODE     ABS  INTERRUPTIONS  
_ADC_AMux_FastSelect . . . . . . . . . . CODE     ADC_AMUX  
_ADC_AMux_Select . . . . . . . . . . . . CODE     ADC_AMUX  ADC  
_ADC_AMux_Set. . . . . . . . . . . . . . CODE     CYFITTER_CFG  ADC_AMUX  
_ADC_AMux_Unset. . . . . . . . . . . . . CODE     CYFITTER_CFG  ADC_AMUX  
_ADC_CountsTo_mVolts . . . . . . . . . . CODE     ADC  
_ADC_CountsTo_uVolts . . . . . . . . . . CODE     ADC  
_ADC_CountsTo_Volts. . . . . . . . . . . CODE     ADC  
_ADC_Ext_CP_Clk_ClearModeRegister. . . . CODE     ADC_EXT_CP_CLK  
_ADC_Ext_CP_Clk_SetDividerRegister . . . CODE     ADC_EXT_CP_CLK  ADC  
_ADC_Ext_CP_Clk_SetModeRegister. . . . . CODE     ADC_EXT_CP_CLK  ADC  
_ADC_Ext_CP_Clk_SetSourceRegister. . . . CODE     ADC_EXT_CP_CLK  
_ADC_Ext_CP_Clk_StandbyPower . . . . . . CODE     ADC_EXT_CP_CLK  
_ADC_IsEndConversion . . . . . . . . . . CODE     ADC  
_ADC_SelectConfiguration . . . . . . . . CODE     ADC  
_ADC_SetBufferGain . . . . . . . . . . . CODE     ADC  
_ADC_SetCoherency. . . . . . . . . . . . CODE     ADC  
_ADC_SetGain . . . . . . . . . . . . . . CODE     ADC  
_ADC_SetGCOR . . . . . . . . . . . . . . CODE     ADC  
_ADC_SetOffset . . . . . . . . . . . . . CODE     ADC  
_ADC_SOC_Write . . . . . . . . . . . . . CODE     ADC_SOC  INTERRUPTIONS  MAIN  
_ADC_STATUS_WriteMask. . . . . . . . . . CODE     ADC_STATUS  
_ADC_theACLK_ClearModeRegister . . . . . CODE     ADC_THEACLK  
_ADC_theACLK_SetDividerRegister. . . . . CODE     ADC_THEACLK  ADC  
LX51 LINKER/LOCATER V4.64.0.0                                                         06/13/2017  14:44:14  PAGE 138


_ADC_theACLK_SetModeRegister . . . . . . CODE     ADC_THEACLK  ADC  
_ADC_theACLK_SetPhaseRegister. . . . . . CODE     ADC_THEACLK  
_ADC_theACLK_SetSourceRegister . . . . . CODE     ADC_THEACLK  
_ADC_theACLK_StandbyPower. . . . . . . . CODE     ADC_THEACLK  
_Bootloadable_SetFlashByte . . . . . . . CODE     BOOTLOADABLE  
_cfg_write_bytes . . . . . . . . . . . . CODE     CYMEM  
_cfg_write_bytes_code. . . . . . . . . . CODE     CYMEM  
_check_enc_data. . . . . . . . . . . . . CODE     UTILS  INTERRUPTIONS  
_CLOCK_UART_ClearModeRegister. . . . . . CODE     CLOCK_UART  
_CLOCK_UART_SetDividerRegister . . . . . CODE     CLOCK_UART  COMMAND_PROCESSING  
_CLOCK_UART_SetModeRegister. . . . . . . CODE     CLOCK_UART  
_CLOCK_UART_SetSourceRegister. . . . . . CODE     CLOCK_UART  
_CLOCK_UART_StandbyPower . . . . . . . . CODE     CLOCK_UART  
_commWrite . . . . . . . . . . . . . . . CODE     COMMAND_PROCESSING  
_commWrite_old_id. . . . . . . . . . . . CODE     COMMAND_PROCESSING  
_COUNTER_ENC_SetInterruptMode. . . . . . CODE     COUNTER_ENC  
_COUNTER_ENC_WriteCompare. . . . . . . . CODE     COUNTER_ENC  
_COUNTER_ENC_WriteControlRegister. . . . CODE     COUNTER_ENC  
_COUNTER_ENC_WriteCounter. . . . . . . . CODE     COUNTER_ENC  
_COUNTER_ENC_WritePeriod . . . . . . . . CODE     COUNTER_ENC  
_CyBusClk_SetDivider . . . . . . . . . . CODE     CYLIB  CYPM  
_cyconfigcpy . . . . . . . . . . . . . . CODE     CYMEM  CYFITTER_CFG  
_cyconfigcpycode . . . . . . . . . . . . CODE     CYMEM  CYFITTER_CFG  
_CyCpuClk_SetDivider . . . . . . . . . . CODE     CYLIB  
_CyDelay . . . . . . . . . . . . . . . . CODE     CYBOOTASMKEIL  
_CyDelayCycles . . . . . . . . . . . . . CODE     CYBOOTASMKEIL  CYFITTER_CFG  CYLIB  CYPM  
_CyDelayUs . . . . . . . . . . . . . . . CODE     CYBOOTASMKEIL  ADC  CYFLASH  CYLIB  CYPM  CYSPC  
_CyDmacClearError. . . . . . . . . . . . CODE     CYDMAC  
_CyDmaChDisable. . . . . . . . . . . . . CODE     CYDMAC  DMA_DMA  
_CyDmaChEnable . . . . . . . . . . . . . CODE     CYDMAC  MAIN  
_CyDmaChFree . . . . . . . . . . . . . . CODE     CYDMAC  
_CyDmaChGetRequest . . . . . . . . . . . CODE     CYDMAC  
_CyDmaChPriority . . . . . . . . . . . . CODE     CYDMAC  DMA_DMA  
_CyDmaChRoundRobin . . . . . . . . . . . CODE     CYDMAC  
_CyDmaChSetConfiguration . . . . . . . . CODE     CYDMAC  DMA_DMA  
_CyDmaChSetExtendedAddress . . . . . . . CODE     CYDMAC  DMA_DMA  
_CyDmaChSetInitialTd . . . . . . . . . . CODE     CYDMAC  MAIN  
_CyDmaChSetRequest . . . . . . . . . . . CODE     CYDMAC  
_CyDmaChStatus . . . . . . . . . . . . . CODE     CYDMAC  
_CyDmaClearPendingDrq. . . . . . . . . . CODE     CYDMAC  
_CyDmaTdFree . . . . . . . . . . . . . . CODE     CYDMAC  
_CyDmaTdGetAddress . . . . . . . . . . . CODE     CYDMAC  
_CyDmaTdGetConfiguration . . . . . . . . CODE     CYDMAC  
_CyDmaTdSetAddress . . . . . . . . . . . CODE     CYDMAC  MAIN  
_CyDmaTdSetConfiguration . . . . . . . . CODE     CYDMAC  MAIN  
_CyEnableInts. . . . . . . . . . . . . . CODE     CYLIB  
_CyExitCriticalSection . . . . . . . . . CODE     CYBOOTASMKEIL  ADC  ADC_STATUS  COUNTER_ENC  CYDMAC  CYFLASH  CYLIB  C
                                                  YPM  CYSPC  EEPROM  FF_STATUS  MY_TIMER  SHIFTREG_ENC_1  SHIFTREG_ENC_
                                                  2  SHIFTREG_ENC_3  SHIFTREG_ENC_4  UART_RS485  
_CyFlash_SetWaitCycles . . . . . . . . . CODE     CYFLASH  CYPM  
_CyGetUniqueId . . . . . . . . . . . . . CODE     CYLIB  
_CyILO_SetPowerMode. . . . . . . . . . . CODE     CYLIB  CYPM  
_CyILO_SetSource . . . . . . . . . . . . CODE     CYLIB  
_CyIMO_SetFreq . . . . . . . . . . . . . CODE     CYLIB  CYPM  
_CyIMO_SetSource . . . . . . . . . . . . CODE     CYLIB  CYPM  
_CyIMO_Start . . . . . . . . . . . . . . CODE     CYLIB  CYPM  
_CyIntGetPriority. . . . . . . . . . . . CODE     CYLIB  
_CyIntGetState . . . . . . . . . . . . . CODE     CYLIB  
_CyIntGetVector. . . . . . . . . . . . . CODE     CYLIB  
_CyIntSetPriority. . . . . . . . . . . . CODE     CYLIB  ADC  UART_RS485  
_CyIntSetVector. . . . . . . . . . . . . CODE     CYLIB  ADC  UART_RS485  
_CyMasterClk_SetDivider. . . . . . . . . CODE     CYLIB  CYPM  
_CyMasterClk_SetSource . . . . . . . . . CODE     CYLIB  CYPM  
_cymemzero . . . . . . . . . . . . . . . CODE     CYMEM  
_CyPLL_OUT_SetPQ . . . . . . . . . . . . CODE     CYLIB  
LX51 LINKER/LOCATER V4.64.0.0                                                         06/13/2017  14:44:14  PAGE 139


_CyPLL_OUT_SetSource . . . . . . . . . . CODE     CYLIB  
_CyPLL_OUT_Start . . . . . . . . . . . . CODE     CYLIB  CYPM  
_CyPmAltAct. . . . . . . . . . . . . . . CODE     CYPM  
_CyPmCtwSetInterval. . . . . . . . . . . CODE     CYPM  
_CyPmFtwSetInterval. . . . . . . . . . . CODE     CYPM  CYLIB  
_CyPmHibernateEx . . . . . . . . . . . . CODE     CYPM  
_CyPmReadStatus. . . . . . . . . . . . . CODE     CYPM  CYLIB  
_CyPmSleep . . . . . . . . . . . . . . . CODE     CYPM  
_cyread16. . . . . . . . . . . . . . . . CODE     CYMEM  
_cyread16_nodpx. . . . . . . . . . . . . CODE     CYMEM  ADC  ADC_EXT_CP_CLK  ADC_THEACLK  CLOCK_UART  CYDMAC  CYLIB  IS
                                                  R_RS485_RX  ISR_WATCHDOG  PACER_TIMER  WATCHDOG_COUNTER  
_cyread24. . . . . . . . . . . . . . . . CODE     CYMEM  
_cyread24_nodpx. . . . . . . . . . . . . CODE     CYMEM  MY_TIMER  SHIFTREG_ENC_1  SHIFTREG_ENC_2  SHIFTREG_ENC_3  SHIFT
                                                  REG_ENC_4  
_cyread32. . . . . . . . . . . . . . . . CODE     CYMEM  
_cyread32_nodpx. . . . . . . . . . . . . CODE     CYMEM  CYDMAC  
_cyread8 . . . . . . . . . . . . . . . . CODE     CYMEM  ADC  CYFITTER_CFG  CYLIB  CYSPC  
_cyread8_nodpx . . . . . . . . . . . . . CODE     CYMEM  
_CySetFlashEEBuffer. . . . . . . . . . . CODE     CYFLASH  
_CySpcEraseSector. . . . . . . . . . . . CODE     CYSPC  EEPROM  
_CySpcGetTemp. . . . . . . . . . . . . . CODE     CYSPC  CYFLASH  
_CySpcLoadMultiByte. . . . . . . . . . . CODE     CYSPC  EEPROM  
_CySpcLoadRow. . . . . . . . . . . . . . CODE     CYSPC  EEPROM  
_CySpcLoadRowFull. . . . . . . . . . . . CODE     CYSPC  CYFLASH  
_CySpcReadData . . . . . . . . . . . . . CODE     CYSPC  CYFLASH  
_CySpcWriteRow . . . . . . . . . . . . . CODE     CYSPC  CYFLASH  EEPROM  
_CyUsbClk_SetSource. . . . . . . . . . . CODE     CYLIB  
_CyVdLvAnalogEnable. . . . . . . . . . . CODE     CYLIB  CYPM  
_CyVdLvDigitEnable . . . . . . . . . . . CODE     CYLIB  CYPM  
_CyVdStickyStatus. . . . . . . . . . . . CODE     CYLIB  
_CyWdtStart. . . . . . . . . . . . . . . CODE     CYLIB  
_cywrite16 . . . . . . . . . . . . . . . CODE     CYMEM  CYFITTER_CFG  
_cywrite16_nodpx . . . . . . . . . . . . CODE     CYMEM  ADC  ADC_EXT_CP_CLK  ADC_THEACLK  CLOCK_UART  CYDMAC  CYFITTER_
                                                  CFG  CYLIB  ISR_RS485_RX  ISR_WATCHDOG  PACER_TIMER  WATCHDOG_COUNTER 
                                                   
_cywrite24 . . . . . . . . . . . . . . . CODE     CYMEM  
_cywrite24_nodpx . . . . . . . . . . . . CODE     CYMEM  MY_TIMER  SHIFTREG_ENC_1  SHIFTREG_ENC_2  SHIFTREG_ENC_3  SHIFT
                                                  REG_ENC_4  
_cywrite32 . . . . . . . . . . . . . . . CODE     CYMEM  
_cywrite32_nodpx . . . . . . . . . . . . CODE     CYMEM  
_cywrite8. . . . . . . . . . . . . . . . CODE     CYMEM  CYFITTER_CFG  
_cywrite8_nodpx. . . . . . . . . . . . . CODE     CYMEM  
_CyWriteRowData. . . . . . . . . . . . . CODE     CYFLASH  BOOTLOADABLE  
_CyWriteRowFull. . . . . . . . . . . . . CODE     CYFLASH  
_CyXTAL_32KHZ_SetPowerMode . . . . . . . CODE     CYLIB  
_CyXTAL_SetFbVoltage . . . . . . . . . . CODE     CYLIB  
_CyXTAL_SetStartup . . . . . . . . . . . CODE     CYLIB  
_CyXTAL_SetWdVoltage . . . . . . . . . . CODE     CYLIB  
_CyXTAL_Start. . . . . . . . . . . . . . CODE     CYLIB  CYPM  
_DMA_DmaInitialize . . . . . . . . . . . CODE     DMA_DMA  MAIN  
_dma_wait. . . . . . . . . . . . . . . . CODE     ?C_STARTUP  
_EEPROM_ByteWritePos . . . . . . . . . . CODE     EEPROM  
_EEPROM_EraseSector. . . . . . . . . . . CODE     EEPROM  
_EEPROM_ReadByte . . . . . . . . . . . . CODE     EEPROM  
_EEPROM_StartErase . . . . . . . . . . . CODE     EEPROM  
_EEPROM_StartWrite . . . . . . . . . . . CODE     EEPROM  
_EEPROM_Write. . . . . . . . . . . . . . CODE     EEPROM  COMMAND_PROCESSING  
_EEPROM_WriteByte. . . . . . . . . . . . CODE     EEPROM  
_encoder_reading . . . . . . . . . . . . CODE     INTERRUPTIONS  MAIN  
_FF_STATUS_WriteMask . . . . . . . . . . CODE     FF_STATUS  
_filter_i1 . . . . . . . . . . . . . . . CODE     UTILS  INTERRUPTIONS  
_filter_i2 . . . . . . . . . . . . . . . CODE     UTILS  INTERRUPTIONS  
_filter_vel_1. . . . . . . . . . . . . . CODE     UTILS  
_filter_vel_2. . . . . . . . . . . . . . CODE     UTILS  
_filter_vel_3. . . . . . . . . . . . . . CODE     UTILS  
LX51 LINKER/LOCATER V4.64.0.0                                                         06/13/2017  14:44:14  PAGE 140


_FTDI_ENABLE_REG_Write . . . . . . . . . CODE     FTDI_ENABLE_REG  COMMAND_PROCESSING  MAIN  
_get_param_list. . . . . . . . . . . . . CODE     COMMAND_PROCESSING  
_infoGet . . . . . . . . . . . . . . . . CODE     COMMAND_PROCESSING  INTERRUPTIONS  
_infoPrepare . . . . . . . . . . . . . . CODE     COMMAND_PROCESSING  
_ISR_RS485_RX_SetPriority. . . . . . . . CODE     ISR_RS485_RX  
_ISR_RS485_RX_SetVector. . . . . . . . . CODE     ISR_RS485_RX  
_ISR_RS485_RX_StartEx. . . . . . . . . . CODE     ISR_RS485_RX  MAIN  
_ISR_WATCHDOG_SetPriority. . . . . . . . CODE     ISR_WATCHDOG  
_ISR_WATCHDOG_SetVector. . . . . . . . . CODE     ISR_WATCHDOG  
_ISR_WATCHDOG_StartEx. . . . . . . . . . CODE     ISR_WATCHDOG  MAIN  
_LCRChecksum . . . . . . . . . . . . . . CODE     UTILS  COMMAND_PROCESSING  
_memStore. . . . . . . . . . . . . . . . CODE     COMMAND_PROCESSING  INTERRUPTIONS  MAIN  
_motor_control . . . . . . . . . . . . . CODE     INTERRUPTIONS  
_MOTOR_DIR_Write . . . . . . . . . . . . CODE     MOTOR_DIR  INTERRUPTIONS  MAIN  
_MOTOR_ON_OFF_Write. . . . . . . . . . . CODE     MOTOR_ON_OFF  COMMAND_PROCESSING  INTERRUPTIONS  MAIN  
_MY_TIMER_SetInterruptMode . . . . . . . CODE     MY_TIMER  
_MY_TIMER_WriteControlRegister . . . . . CODE     MY_TIMER  
_MY_TIMER_WriteCounter . . . . . . . . . CODE     MY_TIMER  INTERRUPTIONS  
_MY_TIMER_WritePeriod. . . . . . . . . . CODE     MY_TIMER  
_PACER_TIMER_SetInterruptMode. . . . . . CODE     PACER_TIMER  
_PACER_TIMER_WriteControlRegister. . . . CODE     PACER_TIMER  
_PACER_TIMER_WriteCounter. . . . . . . . CODE     PACER_TIMER  
_PACER_TIMER_WritePeriod . . . . . . . . CODE     PACER_TIMER  
_PRINTF. . . . . . . . . . . . . . . . . CODE     PRINTF  
_PUTCHAR . . . . . . . . . . . . . . . . CODE     PUTCHAR  PRINTF  
_PWM_MOTORS_WriteCompare1. . . . . . . . CODE     PWM_MOTORS  COMMAND_PROCESSING  INTERRUPTIONS  MAIN  
_PWM_MOTORS_WriteCompare2. . . . . . . . CODE     PWM_MOTORS  COMMAND_PROCESSING  INTERRUPTIONS  MAIN  
_PWM_MOTORS_WriteControlRegister . . . . CODE     PWM_MOTORS  
_PWM_MOTORS_WriteCounter . . . . . . . . CODE     PWM_MOTORS  
_PWM_MOTORS_WritePeriod. . . . . . . . . CODE     PWM_MOTORS  
_RESET_FF_Write. . . . . . . . . . . . . CODE     RESET_FF  MAIN  
_RS485_CTS_Write . . . . . . . . . . . . CODE     RS485_CTS  COMMAND_PROCESSING  INTERRUPTIONS  MAIN  
_sendAcknowledgment. . . . . . . . . . . CODE     COMMAND_PROCESSING  MAIN  
_SetAnalogRoutingPumps . . . . . . . . . CODE     CYFITTER_CFG  
_SHIFTREG_ENC_1_GetFIFOStatus. . . . . . CODE     SHIFTREG_ENC_1  
_SHIFTREG_ENC_1_SetIntMode . . . . . . . CODE     SHIFTREG_ENC_1  
_SHIFTREG_ENC_1_WriteRegValue. . . . . . CODE     SHIFTREG_ENC_1  
_SHIFTREG_ENC_2_GetFIFOStatus. . . . . . CODE     SHIFTREG_ENC_2  
_SHIFTREG_ENC_2_SetIntMode . . . . . . . CODE     SHIFTREG_ENC_2  
_SHIFTREG_ENC_2_WriteRegValue. . . . . . CODE     SHIFTREG_ENC_2  
_SHIFTREG_ENC_3_GetFIFOStatus. . . . . . CODE     SHIFTREG_ENC_3  
_SHIFTREG_ENC_3_SetIntMode . . . . . . . CODE     SHIFTREG_ENC_3  
_SHIFTREG_ENC_3_WriteRegValue. . . . . . CODE     SHIFTREG_ENC_3  
_SHIFTREG_ENC_4_GetFIFOStatus. . . . . . CODE     SHIFTREG_ENC_4  
_SHIFTREG_ENC_4_SetIntMode . . . . . . . CODE     SHIFTREG_ENC_4  
_SHIFTREG_ENC_4_WriteRegValue. . . . . . CODE     SHIFTREG_ENC_4  
_SPRINTF . . . . . . . . . . . . . . . . CODE     PRINTF  COMMAND_PROCESSING  
_strcat. . . . . . . . . . . . . . . . . CODE     STRCAT  COMMAND_PROCESSING  
_STRLEN. . . . . . . . . . . . . . . . . CODE     STRLEN  COMMAND_PROCESSING  
_UART_RS485_PutArray . . . . . . . . . . CODE     UART_RS485  
_UART_RS485_PutChar. . . . . . . . . . . CODE     UART_RS485  COMMAND_PROCESSING  
_UART_RS485_PutCRLF. . . . . . . . . . . CODE     UART_RS485  
_UART_RS485_PutString. . . . . . . . . . CODE     UART_RS485  COMMAND_PROCESSING  
_UART_RS485_SendBreak. . . . . . . . . . CODE     UART_RS485  
_UART_RS485_SetRxAddress1. . . . . . . . CODE     UART_RS485  
_UART_RS485_SetRxAddress2. . . . . . . . CODE     UART_RS485  
_UART_RS485_SetRxAddressMode . . . . . . CODE     UART_RS485  
_UART_RS485_SetRxInterruptMode . . . . . CODE     UART_RS485  
_UART_RS485_SetTxAddressMode . . . . . . CODE     UART_RS485  
_UART_RS485_SetTxInterruptMode . . . . . CODE     UART_RS485  
_UART_RS485_WriteControlRegister . . . . CODE     UART_RS485  
_UART_RS485_WriteTxData. . . . . . . . . CODE     UART_RS485  
_WATCHDOG_COUNTER_SetInterruptMode . . . CODE     WATCHDOG_COUNTER  
_WATCHDOG_COUNTER_WriteControlRegister . CODE     WATCHDOG_COUNTER  
_WATCHDOG_COUNTER_WriteCounter . . . . . CODE     WATCHDOG_COUNTER  
LX51 LINKER/LOCATER V4.64.0.0                                                         06/13/2017  14:44:14  PAGE 141


_WATCHDOG_COUNTER_WritePeriod. . . . . . CODE     WATCHDOG_COUNTER  COMMAND_PROCESSING  
_WATCHDOG_ENABLER_Write. . . . . . . . . CODE     WATCHDOG_ENABLER  COMMAND_PROCESSING  MAIN  
_WATCHDOG_REFRESH_Write. . . . . . . . . CODE     WATCHDOG_REFRESH  MAIN  
AC . . . . . . . . . . . . . . . . . . . DATA     COMMAND_PROCESSING  
ACC. . . . . . . . . . . . . . . . . . . DATA     COMMAND_PROCESSING  
ADC_AMux__addrTable. . . . . . . . . . . CONST    CYFITTER_CFG  
ADC_AMux__maskTable. . . . . . . . . . . CONST    CYFITTER_CFG  
ADC_AMux_Start . . . . . . . . . . . . . CODE     ADC_AMUX  
ADC_buf. . . . . . . . . . . . . . . . . XDATA    GLOBALS  INTERRUPTIONS  MAIN  
ADC_Config . . . . . . . . . . . . . . . XDATA    ADC  
ADC_convDone . . . . . . . . . . . . . . XDATA    ADC  
ADC_CountsPerVolt. . . . . . . . . . . . XDATA    ADC  
ADC_Enable . . . . . . . . . . . . . . . CODE     ADC  
ADC_Ext_CP_Clk_GetDividerRegister. . . . CODE     ADC_EXT_CP_CLK  
ADC_Ext_CP_Clk_GetModeRegister . . . . . CODE     ADC_EXT_CP_CLK  
ADC_Ext_CP_Clk_GetSourceRegister . . . . CODE     ADC_EXT_CP_CLK  
ADC_Ext_CP_Clk_Start . . . . . . . . . . CODE     ADC_EXT_CP_CLK  
ADC_Ext_CP_Clk_Stop. . . . . . . . . . . CODE     ADC_EXT_CP_CLK  
ADC_Ext_CP_Clk_StopBlock . . . . . . . . CODE     ADC_EXT_CP_CLK  
ADC_GetResult16. . . . . . . . . . . . . CODE     ADC  
ADC_GetResult32. . . . . . . . . . . . . CODE     ADC  
ADC_GetResult8 . . . . . . . . . . . . . CODE     ADC  
ADC_Init . . . . . . . . . . . . . . . . CODE     ADC  
ADC_initVar. . . . . . . . . . . . . . . XDATA    ADC  
ADC_ISR1 . . . . . . . . . . . . . . . . CODE     ADC_INT  ADC  
ADC_ISR2 . . . . . . . . . . . . . . . . CODE     ADC_INT  
ADC_ISR3 . . . . . . . . . . . . . . . . CODE     ADC_INT  
ADC_ISR4 . . . . . . . . . . . . . . . . CODE     ADC_INT  
ADC_Offset . . . . . . . . . . . . . . . XDATA    ADC  
ADC_Read16 . . . . . . . . . . . . . . . CODE     ADC  
ADC_Read32 . . . . . . . . . . . . . . . CODE     ADC  
ADC_Read8. . . . . . . . . . . . . . . . CODE     ADC  
ADC_ReadGCOR . . . . . . . . . . . . . . CODE     ADC  
ADC_SOC_Read . . . . . . . . . . . . . . CODE     ADC_SOC  
ADC_Start. . . . . . . . . . . . . . . . CODE     ADC  MAIN  
ADC_StartConvert . . . . . . . . . . . . CODE     ADC  
ADC_started. . . . . . . . . . . . . . . XDATA    ADC  
ADC_STATUS_InterruptDisable. . . . . . . CODE     ADC_STATUS  
ADC_STATUS_InterruptEnable . . . . . . . CODE     ADC_STATUS  
ADC_STATUS_Read. . . . . . . . . . . . . CODE     ADC_STATUS  INTERRUPTIONS  
ADC_STATUS_ReadMask. . . . . . . . . . . CODE     ADC_STATUS  
ADC_Stop . . . . . . . . . . . . . . . . CODE     ADC  
ADC_stopConversion . . . . . . . . . . . XDATA    ADC  
ADC_StopConvert. . . . . . . . . . . . . CODE     ADC  
ADC_theACLK_GetDividerRegister . . . . . CODE     ADC_THEACLK  
ADC_theACLK_GetModeRegister. . . . . . . CODE     ADC_THEACLK  
ADC_theACLK_GetPhaseRegister . . . . . . CODE     ADC_THEACLK  
ADC_theACLK_GetSourceRegister. . . . . . CODE     ADC_THEACLK  
ADC_theACLK_Start. . . . . . . . . . . . CODE     ADC_THEACLK  
ADC_theACLK_Stop . . . . . . . . . . . . CODE     ADC_THEACLK  
ADC_theACLK_StopBlock. . . . . . . . . . CODE     ADC_THEACLK  
analog_read_end. . . . . . . . . . . . . CODE     INTERRUPTIONS  
B. . . . . . . . . . . . . . . . . . . . DATA     COMMAND_PROCESSING  
Bootloadable_Load. . . . . . . . . . . . CODE     BOOTLOADABLE  COMMAND_PROCESSING  
c_mem. . . . . . . . . . . . . . . . . . XDATA    GLOBALS  COMMAND_PROCESSING  INTERRUPTIONS  MAIN  
calibration. . . . . . . . . . . . . . . CODE     INTERRUPTIONS  
calibration_flag . . . . . . . . . . . . XDATA    GLOBALS  COMMAND_PROCESSING  INTERRUPTIONS  MAIN  
CLOCK_UART_GetDividerRegister. . . . . . CODE     CLOCK_UART  
CLOCK_UART_GetModeRegister . . . . . . . CODE     CLOCK_UART  
CLOCK_UART_GetSourceRegister . . . . . . CODE     CLOCK_UART  
CLOCK_UART_Start . . . . . . . . . . . . CODE     CLOCK_UART  
CLOCK_UART_Stop. . . . . . . . . . . . . CODE     CLOCK_UART  
CLOCK_UART_StopBlock . . . . . . . . . . CODE     CLOCK_UART  
cmd_activate . . . . . . . . . . . . . . CODE     COMMAND_PROCESSING  
cmd_get_activate . . . . . . . . . . . . CODE     COMMAND_PROCESSING  
LX51 LINKER/LOCATER V4.64.0.0                                                         06/13/2017  14:44:14  PAGE 142


cmd_get_curr_and_meas. . . . . . . . . . CODE     COMMAND_PROCESSING  
cmd_get_currents . . . . . . . . . . . . CODE     COMMAND_PROCESSING  
cmd_get_inputs . . . . . . . . . . . . . CODE     COMMAND_PROCESSING  
cmd_get_measurements . . . . . . . . . . CODE     COMMAND_PROCESSING  
cmd_get_velocities . . . . . . . . . . . CODE     COMMAND_PROCESSING  
cmd_ping . . . . . . . . . . . . . . . . CODE     COMMAND_PROCESSING  
cmd_set_baudrate . . . . . . . . . . . . CODE     COMMAND_PROCESSING  
cmd_set_inputs . . . . . . . . . . . . . CODE     COMMAND_PROCESSING  
cmd_set_pos_stiff. . . . . . . . . . . . CODE     COMMAND_PROCESSING  
cmd_set_watchdog . . . . . . . . . . . . CODE     COMMAND_PROCESSING  
cmd_store_params . . . . . . . . . . . . CODE     COMMAND_PROCESSING  
commProcess. . . . . . . . . . . . . . . CODE     COMMAND_PROCESSING  INTERRUPTIONS  
COUNTER_ENC_ClearFIFO. . . . . . . . . . CODE     COUNTER_ENC  
COUNTER_ENC_Enable . . . . . . . . . . . CODE     COUNTER_ENC  
COUNTER_ENC_Init . . . . . . . . . . . . CODE     COUNTER_ENC  
COUNTER_ENC_initVar. . . . . . . . . . . XDATA    COUNTER_ENC  
COUNTER_ENC_ReadCapture. . . . . . . . . CODE     COUNTER_ENC  
COUNTER_ENC_ReadCompare. . . . . . . . . CODE     COUNTER_ENC  
COUNTER_ENC_ReadControlRegister. . . . . CODE     COUNTER_ENC  
COUNTER_ENC_ReadCounter. . . . . . . . . CODE     COUNTER_ENC  
COUNTER_ENC_ReadPeriod . . . . . . . . . CODE     COUNTER_ENC  
COUNTER_ENC_ReadStatusRegister . . . . . CODE     COUNTER_ENC  
COUNTER_ENC_Start. . . . . . . . . . . . CODE     COUNTER_ENC  MAIN  
COUNTER_ENC_Stop . . . . . . . . . . . . CODE     COUNTER_ENC  
cuff_flag. . . . . . . . . . . . . . . . BIT      GLOBALS  COMMAND_PROCESSING  INTERRUPTIONS  MAIN  
CY . . . . . . . . . . . . . . . . . . . DATA     COMMAND_PROCESSING  
cydelay_32k_ms . . . . . . . . . . . . . XDATA    CYLIB  
cydelay_freq_hz. . . . . . . . . . . . . XDATA    CYLIB  
cydelay_freq_khz . . . . . . . . . . . . XDATA    CYLIB  
cydelay_freq_mhz . . . . . . . . . . . . XDATA    CYLIB  CYBOOTASMKEIL  
CyDisableInts. . . . . . . . . . . . . . CODE     CYLIB  
CyDmacConfigure. . . . . . . . . . . . . CODE     CYDMAC  ?C_STARTUP  
CyDmacError. . . . . . . . . . . . . . . CODE     CYDMAC  
CyDmacErrorAddress . . . . . . . . . . . CODE     CYDMAC  
CyDmaChAlloc . . . . . . . . . . . . . . CODE     CYDMAC  
CyDmaTdAllocate. . . . . . . . . . . . . CODE     CYDMAC  MAIN  
CyDmaTdFreeCount . . . . . . . . . . . . CODE     CYDMAC  
CyEEPROM_ReadRelease . . . . . . . . . . CODE     CYFLASH  EEPROM  
CyEEPROM_ReadReserve . . . . . . . . . . CODE     CYFLASH  EEPROM  
CyEEPROM_Start . . . . . . . . . . . . . CODE     CYFLASH  EEPROM  
CyEEPROM_Stop. . . . . . . . . . . . . . CODE     CYFLASH  EEPROM  
CyEnterCriticalSection . . . . . . . . . CODE     CYBOOTASMKEIL  ADC  ADC_STATUS  COUNTER_ENC  CYDMAC  CYFLASH  CYLIB  C
                                                  YPM  CYSPC  EEPROM  FF_STATUS  MY_TIMER  SHIFTREG_ENC_1  SHIFTREG_ENC_
                                                  2  SHIFTREG_ENC_3  SHIFTREG_ENC_4  UART_RS485  
cyfitter_cfg . . . . . . . . . . . . . . CODE     CYFITTER_CFG  ?C_STARTUP  
CyFlash_Start. . . . . . . . . . . . . . CODE     CYFLASH  
CyFlash_Stop . . . . . . . . . . . . . . CODE     CYFLASH  
CyILO_Disable33K . . . . . . . . . . . . CODE     CYLIB  
CyILO_Enable33K. . . . . . . . . . . . . CODE     CYLIB  
CyILO_Start100K. . . . . . . . . . . . . CODE     CYLIB  CYPM  
CyILO_Start1K. . . . . . . . . . . . . . CODE     CYLIB  CYPM  
CyILO_Stop100K . . . . . . . . . . . . . CODE     CYLIB  
CyILO_Stop1K . . . . . . . . . . . . . . CODE     CYLIB  
CyIMO_DisableDoubler . . . . . . . . . . CODE     CYLIB  CYPM  
CyIMO_EnableDoubler. . . . . . . . . . . CODE     CYLIB  CYPM  
CyIMO_Stop . . . . . . . . . . . . . . . CODE     CYLIB  CYPM  
CyPLL_OUT_Stop . . . . . . . . . . . . . CODE     CYLIB  CYPM  
CyPmHibernate. . . . . . . . . . . . . . CODE     CYPM  
CyPmOppsSet. . . . . . . . . . . . . . . CODE     CYPM  
CyPmRestoreClocks. . . . . . . . . . . . CODE     CYPM  
CyPmSaveClocks . . . . . . . . . . . . . CODE     CYPM  
CyResetStatus. . . . . . . . . . . . . . XDATA    CYLIB  ?C_STARTUP  
CySetTemp. . . . . . . . . . . . . . . . CODE     CYFLASH  EEPROM  
CySoftwareReset. . . . . . . . . . . . . CODE     CYLIB  BOOTLOADABLE  
CySpcGetAlgorithm. . . . . . . . . . . . CODE     CYSPC  CYFLASH  
LX51 LINKER/LOCATER V4.64.0.0                                                         06/13/2017  14:44:14  PAGE 143


CySpcLock. . . . . . . . . . . . . . . . CODE     CYSPC  CYFLASH  EEPROM  
CySpcStart . . . . . . . . . . . . . . . CODE     CYSPC  CYFLASH  EEPROM  
CySpcStop. . . . . . . . . . . . . . . . CODE     CYSPC  
CySpcUnlock. . . . . . . . . . . . . . . CODE     CYSPC  CYFLASH  EEPROM  
CyVdHvAnalogDisable. . . . . . . . . . . CODE     CYLIB  CYPM  
CyVdHvAnalogEnable . . . . . . . . . . . CODE     CYLIB  CYPM  
CyVdLvAnalogDisable. . . . . . . . . . . CODE     CYLIB  CYPM  
CyVdLvDigitDisable . . . . . . . . . . . CODE     CYLIB  CYPM  
CyVdRealTimeStatus . . . . . . . . . . . CODE     CYLIB  
CyWdtClear . . . . . . . . . . . . . . . CODE     CYLIB  
CyXTAL_32KHZ_ReadStatus. . . . . . . . . CODE     CYLIB  
CyXTAL_32KHZ_Start . . . . . . . . . . . CODE     CYLIB  CYPM  
CyXTAL_32KHZ_Stop. . . . . . . . . . . . CODE     CYLIB  
CyXTAL_DisableErrStatus. . . . . . . . . CODE     CYLIB  
CyXTAL_DisableFaultRecovery. . . . . . . CODE     CYLIB  
CyXTAL_EnableErrStatus . . . . . . . . . CODE     CYLIB  
CyXTAL_EnableFaultRecovery . . . . . . . CODE     CYLIB  
CyXTAL_ReadStatus. . . . . . . . . . . . CODE     CYLIB  
CyXTAL_Stop. . . . . . . . . . . . . . . CODE     CYLIB  CYPM  
dev_pwm_limit. . . . . . . . . . . . . . XDATA    GLOBALS  COMMAND_PROCESSING  INTERRUPTIONS  MAIN  
dev_tension. . . . . . . . . . . . . . . XDATA    GLOBALS  COMMAND_PROCESSING  INTERRUPTIONS  
dieTemperature . . . . . . . . . . . . . XDATA    CYFLASH  EEPROM  
DMA_DmaHandle. . . . . . . . . . . . . . XDATA    DMA_DMA  
DMA_DmaRelease . . . . . . . . . . . . . CODE     DMA_DMA  
DPH. . . . . . . . . . . . . . . . . . . DATA     COMMAND_PROCESSING  
DPH1 . . . . . . . . . . . . . . . . . . DATA     COMMAND_PROCESSING  
DPL. . . . . . . . . . . . . . . . . . . DATA     COMMAND_PROCESSING  
DPL1 . . . . . . . . . . . . . . . . . . DATA     COMMAND_PROCESSING  
DPS. . . . . . . . . . . . . . . . . . . DATA     COMMAND_PROCESSING  
DPX. . . . . . . . . . . . . . . . . . . DATA     COMMAND_PROCESSING  
DPX1 . . . . . . . . . . . . . . . . . . DATA     COMMAND_PROCESSING  
drive_cuff . . . . . . . . . . . . . . . CODE     COMMAND_PROCESSING  INTERRUPTIONS  
EA . . . . . . . . . . . . . . . . . . . DATA     COMMAND_PROCESSING  
EEPROM_ADDR. . . . . . . . . . . . . . . XDATA    COMMAND_PROCESSING  
EEPROM_Enable. . . . . . . . . . . . . . CODE     EEPROM  
EEPROM_Query . . . . . . . . . . . . . . CODE     EEPROM  
EEPROM_Start . . . . . . . . . . . . . . CODE     EEPROM  MAIN  
EEPROM_Stop. . . . . . . . . . . . . . . CODE     EEPROM  
EEPROM_UpdateTemperature . . . . . . . . CODE     EEPROM  COMMAND_PROCESSING  
F0 . . . . . . . . . . . . . . . . . . . DATA     COMMAND_PROCESSING  
F1 . . . . . . . . . . . . . . . . . . . DATA     COMMAND_PROCESSING  
FF_STATUS_InterruptDisable . . . . . . . CODE     FF_STATUS  
FF_STATUS_InterruptEnable. . . . . . . . CODE     FF_STATUS  
FF_STATUS_Read . . . . . . . . . . . . . CODE     FF_STATUS  MAIN  
FF_STATUS_ReadMask . . . . . . . . . . . CODE     FF_STATUS  
FTDI_ENABLE_REG_Read . . . . . . . . . . CODE     FTDI_ENABLE_REG  
function_scheduler . . . . . . . . . . . CODE     INTERRUPTIONS  MAIN  
g_meas . . . . . . . . . . . . . . . . . XDATA    GLOBALS  COMMAND_PROCESSING  INTERRUPTIONS  MAIN  
g_measOld. . . . . . . . . . . . . . . . XDATA    GLOBALS  COMMAND_PROCESSING  INTERRUPTIONS  
g_mem. . . . . . . . . . . . . . . . . . XDATA    GLOBALS  COMMAND_PROCESSING  INTERRUPTIONS  MAIN  
g_ref. . . . . . . . . . . . . . . . . . XDATA    GLOBALS  COMMAND_PROCESSING  INTERRUPTIONS  MAIN  
g_refNew . . . . . . . . . . . . . . . . XDATA    GLOBALS  COMMAND_PROCESSING  INTERRUPTIONS  MAIN  
g_refOld . . . . . . . . . . . . . . . . XDATA    GLOBALS  COMMAND_PROCESSING  INTERRUPTIONS  
g_rx . . . . . . . . . . . . . . . . . . XDATA    GLOBALS  COMMAND_PROCESSING  INTERRUPTIONS  MAIN  
hitech_pwm_preload_values. . . . . . . . CONST    INTERRUPTIONS  
hitech_pwm_preload_values_6v . . . . . . CONST    INTERRUPTIONS  
IE . . . . . . . . . . . . . . . . . . . DATA     COMMAND_PROCESSING  
interrupt_flag . . . . . . . . . . . . . BIT      GLOBALS  COMMAND_PROCESSING  INTERRUPTIONS  MAIN  
interrupt_manager. . . . . . . . . . . . CODE     INTERRUPTIONS  COMMAND_PROCESSING  MAIN  
ISR_RS485_RX_ClearPending. . . . . . . . CODE     ISR_RS485_RX  
ISR_RS485_RX_Disable . . . . . . . . . . CODE     ISR_RS485_RX  INTERRUPTIONS  
ISR_RS485_RX_Enable. . . . . . . . . . . CODE     ISR_RS485_RX  INTERRUPTIONS  
ISR_RS485_RX_ExInterrupt . . . . . . . . CODE     INTERRUPTIONS  MAIN  
ISR_RS485_RX_GetPriority . . . . . . . . CODE     ISR_RS485_RX  
ISR_RS485_RX_GetState. . . . . . . . . . CODE     ISR_RS485_RX  
LX51 LINKER/LOCATER V4.64.0.0                                                         06/13/2017  14:44:14  PAGE 144


ISR_RS485_RX_GetVector . . . . . . . . . CODE     ISR_RS485_RX  
ISR_RS485_RX_Interrupt . . . . . . . . . CODE     ISR_RS485_RX  
ISR_RS485_RX_SetPending. . . . . . . . . CODE     ISR_RS485_RX  
ISR_RS485_RX_Start . . . . . . . . . . . CODE     ISR_RS485_RX  
ISR_RS485_RX_Stop. . . . . . . . . . . . CODE     ISR_RS485_RX  
ISR_WATCHDOG_ClearPending. . . . . . . . CODE     ISR_WATCHDOG  
ISR_WATCHDOG_Disable . . . . . . . . . . CODE     ISR_WATCHDOG  
ISR_WATCHDOG_Enable. . . . . . . . . . . CODE     ISR_WATCHDOG  
ISR_WATCHDOG_GetPriority . . . . . . . . CODE     ISR_WATCHDOG  
ISR_WATCHDOG_GetState. . . . . . . . . . CODE     ISR_WATCHDOG  
ISR_WATCHDOG_GetVector . . . . . . . . . CODE     ISR_WATCHDOG  
ISR_WATCHDOG_Handler . . . . . . . . . . CODE     INTERRUPTIONS  MAIN  
ISR_WATCHDOG_Interrupt . . . . . . . . . CODE     ISR_WATCHDOG  
ISR_WATCHDOG_SetPending. . . . . . . . . CODE     ISR_WATCHDOG  
ISR_WATCHDOG_Start . . . . . . . . . . . CODE     ISR_WATCHDOG  
ISR_WATCHDOG_Stop. . . . . . . . . . . . CODE     ISR_WATCHDOG  
main . . . . . . . . . . . . . . . . . . CODE     MAIN  ?C_INIT  
memInit. . . . . . . . . . . . . . . . . CODE     COMMAND_PROCESSING  
memRecall. . . . . . . . . . . . . . . . CODE     COMMAND_PROCESSING  MAIN  
memRestore . . . . . . . . . . . . . . . CODE     COMMAND_PROCESSING  
MOTOR_DIR_Read . . . . . . . . . . . . . CODE     MOTOR_DIR  
MOTOR_ON_OFF_Read. . . . . . . . . . . . CODE     MOTOR_ON_OFF  
MXAX . . . . . . . . . . . . . . . . . . DATA     COMMAND_PROCESSING  
MY_TIMER_ClearFIFO . . . . . . . . . . . CODE     MY_TIMER  
MY_TIMER_Enable. . . . . . . . . . . . . CODE     MY_TIMER  
MY_TIMER_Init. . . . . . . . . . . . . . CODE     MY_TIMER  
MY_TIMER_initVar . . . . . . . . . . . . XDATA    MY_TIMER  
MY_TIMER_ReadCapture . . . . . . . . . . CODE     MY_TIMER  
MY_TIMER_ReadControlRegister . . . . . . CODE     MY_TIMER  
MY_TIMER_ReadCounter . . . . . . . . . . CODE     MY_TIMER  COMMAND_PROCESSING  INTERRUPTIONS  
MY_TIMER_ReadPeriod. . . . . . . . . . . CODE     MY_TIMER  
MY_TIMER_ReadStatusRegister. . . . . . . CODE     MY_TIMER  
MY_TIMER_SoftwareCapture . . . . . . . . CODE     MY_TIMER  
MY_TIMER_Start . . . . . . . . . . . . . CODE     MY_TIMER  MAIN  
MY_TIMER_Stop. . . . . . . . . . . . . . CODE     MY_TIMER  
OV . . . . . . . . . . . . . . . . . . . DATA     COMMAND_PROCESSING  
P. . . . . . . . . . . . . . . . . . . . DATA     COMMAND_PROCESSING  
P2AX . . . . . . . . . . . . . . . . . . DATA     COMMAND_PROCESSING  
PACER_TIMER_Enable . . . . . . . . . . . CODE     PACER_TIMER  
PACER_TIMER_Init . . . . . . . . . . . . CODE     PACER_TIMER  
PACER_TIMER_initVar. . . . . . . . . . . XDATA    PACER_TIMER  
PACER_TIMER_ReadCapture. . . . . . . . . CODE     PACER_TIMER  
PACER_TIMER_ReadControlRegister. . . . . CODE     PACER_TIMER  
PACER_TIMER_ReadCounter. . . . . . . . . CODE     PACER_TIMER  
PACER_TIMER_ReadPeriod . . . . . . . . . CODE     PACER_TIMER  
PACER_TIMER_ReadStatusRegister . . . . . CODE     PACER_TIMER  
PACER_TIMER_SoftwareCapture. . . . . . . CODE     PACER_TIMER  
PACER_TIMER_Start. . . . . . . . . . . . CODE     PACER_TIMER  MAIN  
PACER_TIMER_Stop . . . . . . . . . . . . CODE     PACER_TIMER  
PSW. . . . . . . . . . . . . . . . . . . DATA     COMMAND_PROCESSING  
pwm_limit_search . . . . . . . . . . . . CODE     INTERRUPTIONS  
PWM_MOTORS_Enable. . . . . . . . . . . . CODE     PWM_MOTORS  
PWM_MOTORS_Init. . . . . . . . . . . . . CODE     PWM_MOTORS  
PWM_MOTORS_initVar . . . . . . . . . . . XDATA    PWM_MOTORS  
PWM_MOTORS_ReadCapture . . . . . . . . . CODE     PWM_MOTORS  
PWM_MOTORS_ReadCompare1. . . . . . . . . CODE     PWM_MOTORS  
PWM_MOTORS_ReadCompare2. . . . . . . . . CODE     PWM_MOTORS  
PWM_MOTORS_ReadControlRegister . . . . . CODE     PWM_MOTORS  
PWM_MOTORS_ReadCounter . . . . . . . . . CODE     PWM_MOTORS  
PWM_MOTORS_ReadPeriod. . . . . . . . . . CODE     PWM_MOTORS  
PWM_MOTORS_Start . . . . . . . . . . . . CODE     PWM_MOTORS  MAIN  
PWM_MOTORS_Stop. . . . . . . . . . . . . CODE     PWM_MOTORS  
pwm_preload_values . . . . . . . . . . . CONST    INTERRUPTIONS  
pwm_sign . . . . . . . . . . . . . . . . XDATA    GLOBALS  INTERRUPTIONS  
RESET_FF_Read. . . . . . . . . . . . . . CODE     RESET_FF  
LX51 LINKER/LOCATER V4.64.0.0                                                         06/13/2017  14:44:14  PAGE 145


reset_last_value_flag. . . . . . . . . . BIT      GLOBALS  COMMAND_PROCESSING  INTERRUPTIONS  MAIN  
RS0. . . . . . . . . . . . . . . . . . . DATA     COMMAND_PROCESSING  
RS1. . . . . . . . . . . . . . . . . . . DATA     COMMAND_PROCESSING  
RS485_CTS_Read . . . . . . . . . . . . . CODE     RS485_CTS  
setZeros . . . . . . . . . . . . . . . . CODE     COMMAND_PROCESSING  
SFRPRT0DR. . . . . . . . . . . . . . . . DATA     COMMAND_PROCESSING  
SFRPRT0PS. . . . . . . . . . . . . . . . DATA     COMMAND_PROCESSING  
SFRPRT0SEL . . . . . . . . . . . . . . . DATA     COMMAND_PROCESSING  
SFRPRT12DR . . . . . . . . . . . . . . . DATA     COMMAND_PROCESSING  
SFRPRT12PS . . . . . . . . . . . . . . . DATA     COMMAND_PROCESSING  
SFRPRT12SEL. . . . . . . . . . . . . . . DATA     COMMAND_PROCESSING  
SFRPRT15DR . . . . . . . . . . . . . . . DATA     COMMAND_PROCESSING  
SFRPRT15PS . . . . . . . . . . . . . . . DATA     COMMAND_PROCESSING  
SFRPRT15SEL. . . . . . . . . . . . . . . DATA     COMMAND_PROCESSING  
SFRPRT1DR. . . . . . . . . . . . . . . . DATA     COMMAND_PROCESSING  
SFRPRT1PS. . . . . . . . . . . . . . . . DATA     COMMAND_PROCESSING  
SFRPRT1SEL . . . . . . . . . . . . . . . DATA     COMMAND_PROCESSING  
SFRPRT2DR. . . . . . . . . . . . . . . . DATA     COMMAND_PROCESSING  
SFRPRT2PS. . . . . . . . . . . . . . . . DATA     COMMAND_PROCESSING  
SFRPRT2SEL . . . . . . . . . . . . . . . DATA     COMMAND_PROCESSING  
SFRPRT3DR. . . . . . . . . . . . . . . . DATA     COMMAND_PROCESSING  
SFRPRT3PS. . . . . . . . . . . . . . . . DATA     COMMAND_PROCESSING  
SFRPRT3SEL . . . . . . . . . . . . . . . DATA     COMMAND_PROCESSING  
SFRPRT4DR. . . . . . . . . . . . . . . . DATA     COMMAND_PROCESSING  
SFRPRT4PS. . . . . . . . . . . . . . . . DATA     COMMAND_PROCESSING  
SFRPRT4SEL . . . . . . . . . . . . . . . DATA     COMMAND_PROCESSING  
SFRPRT5DR. . . . . . . . . . . . . . . . DATA     COMMAND_PROCESSING  
SFRPRT5PS. . . . . . . . . . . . . . . . DATA     COMMAND_PROCESSING  
SFRPRT5SEL . . . . . . . . . . . . . . . DATA     COMMAND_PROCESSING  
SFRPRT6DR. . . . . . . . . . . . . . . . DATA     COMMAND_PROCESSING  
SFRPRT6PS. . . . . . . . . . . . . . . . DATA     COMMAND_PROCESSING  
SFRPRT6SEL . . . . . . . . . . . . . . . DATA     COMMAND_PROCESSING  
SHIFTREG_ENC_1_DisableInt. . . . . . . . CODE     SHIFTREG_ENC_1  
SHIFTREG_ENC_1_Enable. . . . . . . . . . CODE     SHIFTREG_ENC_1  
SHIFTREG_ENC_1_EnableInt . . . . . . . . CODE     SHIFTREG_ENC_1  
SHIFTREG_ENC_1_GetIntStatus. . . . . . . CODE     SHIFTREG_ENC_1  
SHIFTREG_ENC_1_Init. . . . . . . . . . . CODE     SHIFTREG_ENC_1  
SHIFTREG_ENC_1_initVar . . . . . . . . . XDATA    SHIFTREG_ENC_1  
SHIFTREG_ENC_1_ReadData. . . . . . . . . CODE     SHIFTREG_ENC_1  INTERRUPTIONS  
SHIFTREG_ENC_1_ReadRegValue. . . . . . . CODE     SHIFTREG_ENC_1  
SHIFTREG_ENC_1_Start . . . . . . . . . . CODE     SHIFTREG_ENC_1  MAIN  
SHIFTREG_ENC_1_Stop. . . . . . . . . . . CODE     SHIFTREG_ENC_1  
SHIFTREG_ENC_2_DisableInt. . . . . . . . CODE     SHIFTREG_ENC_2  
SHIFTREG_ENC_2_Enable. . . . . . . . . . CODE     SHIFTREG_ENC_2  
SHIFTREG_ENC_2_EnableInt . . . . . . . . CODE     SHIFTREG_ENC_2  
SHIFTREG_ENC_2_GetIntStatus. . . . . . . CODE     SHIFTREG_ENC_2  
SHIFTREG_ENC_2_Init. . . . . . . . . . . CODE     SHIFTREG_ENC_2  
SHIFTREG_ENC_2_initVar . . . . . . . . . XDATA    SHIFTREG_ENC_2  
SHIFTREG_ENC_2_ReadData. . . . . . . . . CODE     SHIFTREG_ENC_2  INTERRUPTIONS  
SHIFTREG_ENC_2_ReadRegValue. . . . . . . CODE     SHIFTREG_ENC_2  
SHIFTREG_ENC_2_Start . . . . . . . . . . CODE     SHIFTREG_ENC_2  MAIN  
SHIFTREG_ENC_2_Stop. . . . . . . . . . . CODE     SHIFTREG_ENC_2  
SHIFTREG_ENC_3_DisableInt. . . . . . . . CODE     SHIFTREG_ENC_3  
SHIFTREG_ENC_3_Enable. . . . . . . . . . CODE     SHIFTREG_ENC_3  
SHIFTREG_ENC_3_EnableInt . . . . . . . . CODE     SHIFTREG_ENC_3  
SHIFTREG_ENC_3_GetIntStatus. . . . . . . CODE     SHIFTREG_ENC_3  
SHIFTREG_ENC_3_Init. . . . . . . . . . . CODE     SHIFTREG_ENC_3  
SHIFTREG_ENC_3_initVar . . . . . . . . . XDATA    SHIFTREG_ENC_3  
SHIFTREG_ENC_3_ReadData. . . . . . . . . CODE     SHIFTREG_ENC_3  INTERRUPTIONS  
SHIFTREG_ENC_3_ReadRegValue. . . . . . . CODE     SHIFTREG_ENC_3  
SHIFTREG_ENC_3_Start . . . . . . . . . . CODE     SHIFTREG_ENC_3  MAIN  
SHIFTREG_ENC_3_Stop. . . . . . . . . . . CODE     SHIFTREG_ENC_3  
SHIFTREG_ENC_4_DisableInt. . . . . . . . CODE     SHIFTREG_ENC_4  
SHIFTREG_ENC_4_Enable. . . . . . . . . . CODE     SHIFTREG_ENC_4  
SHIFTREG_ENC_4_EnableInt . . . . . . . . CODE     SHIFTREG_ENC_4  
LX51 LINKER/LOCATER V4.64.0.0                                                         06/13/2017  14:44:14  PAGE 146


SHIFTREG_ENC_4_GetIntStatus. . . . . . . CODE     SHIFTREG_ENC_4  
SHIFTREG_ENC_4_Init. . . . . . . . . . . CODE     SHIFTREG_ENC_4  
SHIFTREG_ENC_4_initVar . . . . . . . . . XDATA    SHIFTREG_ENC_4  
SHIFTREG_ENC_4_ReadData. . . . . . . . . CODE     SHIFTREG_ENC_4  INTERRUPTIONS  
SHIFTREG_ENC_4_ReadRegValue. . . . . . . CODE     SHIFTREG_ENC_4  
SHIFTREG_ENC_4_Start . . . . . . . . . . CODE     SHIFTREG_ENC_4  
SHIFTREG_ENC_4_Stop. . . . . . . . . . . CODE     SHIFTREG_ENC_4  
SP . . . . . . . . . . . . . . . . . . . DATA     COMMAND_PROCESSING  
SpcLockState . . . . . . . . . . . . . . XDATA    CYSPC  
STARTUP1 . . . . . . . . . . . . . . . . CODE     ?C_STARTUP  
tension_valid. . . . . . . . . . . . . . BIT      GLOBALS  MAIN  
timer_value. . . . . . . . . . . . . . . XDATA    GLOBALS  COMMAND_PROCESSING  INTERRUPTIONS  
timer_value0 . . . . . . . . . . . . . . XDATA    GLOBALS  COMMAND_PROCESSING  INTERRUPTIONS  
UART_RS485_ClearRxBuffer . . . . . . . . CODE     UART_RS485  MAIN  
UART_RS485_ClearTxBuffer . . . . . . . . CODE     UART_RS485  COMMAND_PROCESSING  MAIN  
UART_RS485_Enable. . . . . . . . . . . . CODE     UART_RS485  
UART_RS485_errorStatus . . . . . . . . . XDATA    UART_RS485  UART_RS485_INT  
UART_RS485_GetByte . . . . . . . . . . . CODE     UART_RS485  
UART_RS485_GetChar . . . . . . . . . . . CODE     UART_RS485  INTERRUPTIONS  
UART_RS485_GetRxBufferSize . . . . . . . CODE     UART_RS485  INTERRUPTIONS  
UART_RS485_GetTxBufferSize . . . . . . . CODE     UART_RS485  
UART_RS485_Init. . . . . . . . . . . . . CODE     UART_RS485  MAIN  
UART_RS485_initVar . . . . . . . . . . . XDATA    UART_RS485  
UART_RS485_ReadControlRegister . . . . . CODE     UART_RS485  
UART_RS485_ReadRxData. . . . . . . . . . CODE     UART_RS485  
UART_RS485_ReadRxStatus. . . . . . . . . CODE     UART_RS485  MAIN  
UART_RS485_ReadTxStatus. . . . . . . . . CODE     UART_RS485  COMMAND_PROCESSING  
UART_RS485_rxBuffer. . . . . . . . . . . XDATA    UART_RS485  UART_RS485_INT  
UART_RS485_rxBufferLoopDetect. . . . . . XDATA    UART_RS485  UART_RS485_INT  
UART_RS485_rxBufferOverflow. . . . . . . XDATA    UART_RS485  UART_RS485_INT  
UART_RS485_rxBufferRead. . . . . . . . . XDATA    UART_RS485  UART_RS485_INT  
UART_RS485_rxBufferWrite . . . . . . . . XDATA    UART_RS485  UART_RS485_INT  
UART_RS485_RXISR . . . . . . . . . . . . CODE     UART_RS485_INT  UART_RS485  
UART_RS485_Start . . . . . . . . . . . . CODE     UART_RS485  MAIN  
UART_RS485_Stop. . . . . . . . . . . . . CODE     UART_RS485  MAIN  
WATCHDOG_COUNTER_Enable. . . . . . . . . CODE     WATCHDOG_COUNTER  
WATCHDOG_COUNTER_Init. . . . . . . . . . CODE     WATCHDOG_COUNTER  
WATCHDOG_COUNTER_initVar . . . . . . . . XDATA    WATCHDOG_COUNTER  
WATCHDOG_COUNTER_ReadCapture . . . . . . CODE     WATCHDOG_COUNTER  
WATCHDOG_COUNTER_ReadControlRegister . . CODE     WATCHDOG_COUNTER  
WATCHDOG_COUNTER_ReadCounter . . . . . . CODE     WATCHDOG_COUNTER  
WATCHDOG_COUNTER_ReadPeriod. . . . . . . CODE     WATCHDOG_COUNTER  
WATCHDOG_COUNTER_ReadStatusRegister. . . CODE     WATCHDOG_COUNTER  
WATCHDOG_COUNTER_Start . . . . . . . . . CODE     WATCHDOG_COUNTER  MAIN  
WATCHDOG_COUNTER_Stop. . . . . . . . . . CODE     WATCHDOG_COUNTER  
WATCHDOG_ENABLER_Read. . . . . . . . . . CODE     WATCHDOG_ENABLER  
watchdog_flag. . . . . . . . . . . . . . BIT      GLOBALS  INTERRUPTIONS  MAIN  
WATCHDOG_REFRESH_Read. . . . . . . . . . CODE     WATCHDOG_REFRESH  

Program Size: data=112.2 xdata=3239 const=3000 code=35813
LX51 RUN COMPLETE.  0 WARNING(S),  0 ERROR(S)
