LX51 LINKER/LOCATER V4.64.0.0                                                           06/11/2018  11:54:47  PAGE 1


LX51 LINKER/LOCATER V4.64.0.0, INVOKED BY:
C:\PROGRAM FILES (X86)\CYPRESS\PSOC CREATOR\4.2\PSOC CREATOR\IMPORT\KEIL\PK51\9.51\C51\BIN\LX51.EXE .\DP8051_Keil_951\Re
>> lease\command_processing.obj, .\DP8051_Keil_951\Release\globals.obj, .\DP8051_Keil_951\Release\main.obj, .\DP8051_Kei
>> l_951\Release\utils.obj, .\DP8051_Keil_951\Release\interruptions.obj, .\DP8051_Keil_951\Release\cyfitter_cfg.obj, .\D
>> P8051_Keil_951\Release\cuff_mod_firmware.lib, C:\Program Files (x86)\Cypress\PSoC Creator\4.2\PSoC Creator\psoc\conte
>> nt\cycomponentlibrary\CyComponentLibrary.cylib\DP8051\DP8051_Keil_951\Release\CyComponentLibrary.lib TO .\DP8051_Keil
>> _951\Release\cuff_mod_firmware.omf CODE RU RC (10) DW (16) WL (2) PR (.\DP8051_Keil_951\Release/cuff_mod_firmware.map
>> ) IX CL (XDATA (X:0X0000-X:0X1FFF)) CL (CODE (C:0X2600-C:0XFFBF)) CL (CONST (C:0X2600-C:0XFFBF))


CPU MODE:     8051 MODE
MEMORY MODEL: LARGE WITH FLOATING POINT ARITHMETIC


INPUT MODULES INCLUDED:
  .\DP8051_Keil_951\Release\command_processing.obj (COMMAND_PROCESSING)
         COMMENT TYPE 0: C51 V9.51
  .\DP8051_Keil_951\Release\globals.obj (GLOBALS)
         COMMENT TYPE 0: C51 V9.51
  .\DP8051_Keil_951\Release\main.obj (MAIN)
         COMMENT TYPE 0: C51 V9.51
  .\DP8051_Keil_951\Release\utils.obj (UTILS)
         COMMENT TYPE 0: C51 V9.51
  .\DP8051_Keil_951\Release\interruptions.obj (INTERRUPTIONS)
         COMMENT TYPE 0: C51 V9.51
  .\DP8051_Keil_951\Release\cyfitter_cfg.obj (CYFITTER_CFG)
         COMMENT TYPE 0: C51 V9.51
  .\DP8051_Keil_951\Release\cuff_mod_firmware.lib (UART_RS485)
         COMMENT TYPE 0: C51 V9.51
  .\DP8051_Keil_951\Release\cuff_mod_firmware.lib (PWM_MOTORS)
         COMMENT TYPE 0: C51 V9.51
  .\DP8051_Keil_951\Release\cuff_mod_firmware.lib (ISR_RS485_RX)
         COMMENT TYPE 0: C51 V9.51
  .\DP8051_Keil_951\Release\cuff_mod_firmware.lib (CLOCK_UART)
         COMMENT TYPE 0: C51 V9.51
  .\DP8051_Keil_951\Release\cuff_mod_firmware.lib (COUNTER_ENC)
         COMMENT TYPE 0: C51 V9.51
  .\DP8051_Keil_951\Release\cuff_mod_firmware.lib (SHIFTREG_ENC_1)
         COMMENT TYPE 0: C51 V9.51
  .\DP8051_Keil_951\Release\cuff_mod_firmware.lib (SHIFTREG_ENC_2)
         COMMENT TYPE 0: C51 V9.51
  .\DP8051_Keil_951\Release\cuff_mod_firmware.lib (SHIFTREG_ENC_3)
         COMMENT TYPE 0: C51 V9.51
  .\DP8051_Keil_951\Release\cuff_mod_firmware.lib (EEPROM)
         COMMENT TYPE 0: C51 V9.51
  .\DP8051_Keil_951\Release\cuff_mod_firmware.lib (SHIFTREG_ENC_4)
         COMMENT TYPE 0: C51 V9.51
  .\DP8051_Keil_951\Release\cuff_mod_firmware.lib (RS485_CTS)
         COMMENT TYPE 0: C51 V9.51
  .\DP8051_Keil_951\Release\cuff_mod_firmware.lib (MOTOR_ON_OFF)
         COMMENT TYPE 0: C51 V9.51
  .\DP8051_Keil_951\Release\cuff_mod_firmware.lib (BOOTLOADABLE)
         COMMENT TYPE 0: C51 V9.51
  .\DP8051_Keil_951\Release\cuff_mod_firmware.lib (MY_TIMER)
         COMMENT TYPE 0: C51 V9.51
  .\DP8051_Keil_951\Release\cuff_mod_firmware.lib (FTDI_ENABLE_REG)
         COMMENT TYPE 0: C51 V9.51
  .\DP8051_Keil_951\Release\cuff_mod_firmware.lib (PACER_TIMER)
         COMMENT TYPE 0: C51 V9.51
  .\DP8051_Keil_951\Release\cuff_mod_firmware.lib (FF_STATUS)
         COMMENT TYPE 0: C51 V9.51
  .\DP8051_Keil_951\Release\cuff_mod_firmware.lib (RESET_FF)
         COMMENT TYPE 0: C51 V9.51
  .\DP8051_Keil_951\Release\cuff_mod_firmware.lib (MOTOR_DIR)
         COMMENT TYPE 0: C51 V9.51
  .\DP8051_Keil_951\Release\cuff_mod_firmware.lib (ADC_STATUS)
LX51 LINKER/LOCATER V4.64.0.0                                                         06/11/2018  11:54:47  PAGE 2


         COMMENT TYPE 0: C51 V9.51
  .\DP8051_Keil_951\Release\cuff_mod_firmware.lib (ADC)
         COMMENT TYPE 0: C51 V9.51
  .\DP8051_Keil_951\Release\cuff_mod_firmware.lib (DMA_DMA)
         COMMENT TYPE 0: C51 V9.51
  .\DP8051_Keil_951\Release\cuff_mod_firmware.lib (ADC_SOC)
         COMMENT TYPE 0: C51 V9.51
  .\DP8051_Keil_951\Release\cuff_mod_firmware.lib (ISR_WATCHDOG)
         COMMENT TYPE 0: C51 V9.51
  .\DP8051_Keil_951\Release\cuff_mod_firmware.lib (WATCHDOG_COUNTER)
         COMMENT TYPE 0: C51 V9.51
  .\DP8051_Keil_951\Release\cuff_mod_firmware.lib (WATCHDOG_ENABLER)
         COMMENT TYPE 0: C51 V9.51
  .\DP8051_Keil_951\Release\cuff_mod_firmware.lib (WATCHDOG_REFRESH)
         COMMENT TYPE 0: C51 V9.51
  .\DP8051_Keil_951\Release\cuff_mod_firmware.lib (CYDMAC)
         COMMENT TYPE 0: C51 V9.51
  .\DP8051_Keil_951\Release\cuff_mod_firmware.lib (CYLIB)
         COMMENT TYPE 0: C51 V9.51
  .\DP8051_Keil_951\Release\cuff_mod_firmware.lib (CYBOOTASMKEIL)
         COMMENT TYPE 0: AX51 V3.07d
  .\DP8051_Keil_951\Release\cuff_mod_firmware.lib (CYMEM)
         COMMENT TYPE 0: AX51 V3.07d
  .\DP8051_Keil_951\Release\cuff_mod_firmware.lib (?C_STARTUP)
         COMMENT TYPE 0: AX51 V3.07d
  .\DP8051_Keil_951\Release\cuff_mod_firmware.lib (UART_RS485_INT)
         COMMENT TYPE 0: C51 V9.51
  .\DP8051_Keil_951\Release\cuff_mod_firmware.lib (ADC_INT)
         COMMENT TYPE 0: C51 V9.51
  .\DP8051_Keil_951\Release\cuff_mod_firmware.lib (ADC_AMUX)
         COMMENT TYPE 0: C51 V9.51
  .\DP8051_Keil_951\Release\cuff_mod_firmware.lib (ADC_EXT_CP_CLK)
         COMMENT TYPE 0: C51 V9.51
  .\DP8051_Keil_951\Release\cuff_mod_firmware.lib (ADC_THEACLK)
         COMMENT TYPE 0: C51 V9.51
  .\DP8051_Keil_951\Release\cuff_mod_firmware.lib (CYFLASH)
         COMMENT TYPE 0: C51 V9.51
  .\DP8051_Keil_951\Release\cuff_mod_firmware.lib (CYPM)
         COMMENT TYPE 0: C51 V9.51
  .\DP8051_Keil_951\Release\cuff_mod_firmware.lib (CYSPC)
         COMMENT TYPE 0: C51 V9.51
  C:\PROGRAM FILES (X86)\CYPRESS\PSOC CREATOR\4.2\PSOC CREATOR\IMPORT\KEIL\PK51\9.51\C51\LIB\C51FPL.LIB (?C?FPMUL)
         COMMENT TYPE 1: A51 / ASM51 Assembler
  C:\PROGRAM FILES (X86)\CYPRESS\PSOC CREATOR\4.2\PSOC CREATOR\IMPORT\KEIL\PK51\9.51\C51\LIB\C51FPL.LIB (?C?FPDIV)
         COMMENT TYPE 1: A51 / ASM51 Assembler
  C:\PROGRAM FILES (X86)\CYPRESS\PSOC CREATOR\4.2\PSOC CREATOR\IMPORT\KEIL\PK51\9.51\C51\LIB\C51FPL.LIB (?C?FPCMP)
         COMMENT TYPE 1: A51 / ASM51 Assembler
  C:\PROGRAM FILES (X86)\CYPRESS\PSOC CREATOR\4.2\PSOC CREATOR\IMPORT\KEIL\PK51\9.51\C51\LIB\C51FPL.LIB (?C?FCAST)
         COMMENT TYPE 1: A51 / ASM51 Assembler
  C:\PROGRAM FILES (X86)\CYPRESS\PSOC CREATOR\4.2\PSOC CREATOR\IMPORT\KEIL\PK51\9.51\C51\LIB\C51FPL.LIB (?C?CASTF)
         COMMENT TYPE 1: A51 / ASM51 Assembler
  C:\PROGRAM FILES (X86)\CYPRESS\PSOC CREATOR\4.2\PSOC CREATOR\IMPORT\KEIL\PK51\9.51\C51\LIB\C51FPL.LIB (PRINTF)
         COMMENT TYPE 1: A51 / ASM51 Assembler
  C:\PROGRAM FILES (X86)\CYPRESS\PSOC CREATOR\4.2\PSOC CREATOR\IMPORT\KEIL\PK51\9.51\C51\LIB\C51FPL.LIB (?C?FPGETOPN)
         COMMENT TYPE 1: A51 / ASM51 Assembler
  C:\PROGRAM FILES (X86)\CYPRESS\PSOC CREATOR\4.2\PSOC CREATOR\IMPORT\KEIL\PK51\9.51\C51\LIB\C51FPL.LIB (?C?FPROUND)
         COMMENT TYPE 1: A51 / ASM51 Assembler
  C:\PROGRAM FILES (X86)\CYPRESS\PSOC CREATOR\4.2\PSOC CREATOR\IMPORT\KEIL\PK51\9.51\C51\LIB\C51FPL.LIB (?C?FPCONVERT)
         COMMENT TYPE 1: A51 / ASM51 Assembler
  C:\PROGRAM FILES (X86)\CYPRESS\PSOC CREATOR\4.2\PSOC CREATOR\IMPORT\KEIL\PK51\9.51\C51\LIB\C51FPL.LIB (?C?FPADD)
         COMMENT TYPE 1: A51 / ASM51 Assembler
  C:\PROGRAM FILES (X86)\CYPRESS\PSOC CREATOR\4.2\PSOC CREATOR\IMPORT\KEIL\PK51\9.51\C51\LIB\C51FPL.LIB (?C?FTNPWR)
         COMMENT TYPE 1: A51 / ASM51 Assembler
  C:\PROGRAM FILES (X86)\CYPRESS\PSOC CREATOR\4.2\PSOC CREATOR\IMPORT\KEIL\PK51\9.51\C51\LIB\C51L.LIB (?C_INIT)
         COMMENT TYPE 1: A51 / ASM51 Assembler
LX51 LINKER/LOCATER V4.64.0.0                                                         06/11/2018  11:54:47  PAGE 3


  C:\PROGRAM FILES (X86)\CYPRESS\PSOC CREATOR\4.2\PSOC CREATOR\IMPORT\KEIL\PK51\9.51\C51\LIB\C51L.LIB (?C?CLDPTR)
         COMMENT TYPE 1: A51 / ASM51 Assembler
  C:\PROGRAM FILES (X86)\CYPRESS\PSOC CREATOR\4.2\PSOC CREATOR\IMPORT\KEIL\PK51\9.51\C51\LIB\C51L.LIB (?C?CLDOPTR)
         COMMENT TYPE 1: A51 / ASM51 Assembler
  C:\PROGRAM FILES (X86)\CYPRESS\PSOC CREATOR\4.2\PSOC CREATOR\IMPORT\KEIL\PK51\9.51\C51\LIB\C51L.LIB (?C?CSTPTR)
         COMMENT TYPE 1: A51 / ASM51 Assembler
  C:\PROGRAM FILES (X86)\CYPRESS\PSOC CREATOR\4.2\PSOC CREATOR\IMPORT\KEIL\PK51\9.51\C51\LIB\C51L.LIB (?C?IMUL)
         COMMENT TYPE 1: A51 / ASM51 Assembler
  C:\PROGRAM FILES (X86)\CYPRESS\PSOC CREATOR\4.2\PSOC CREATOR\IMPORT\KEIL\PK51\9.51\C51\LIB\C51L.LIB (?C?ISTPTR)
         COMMENT TYPE 1: A51 / ASM51 Assembler
  C:\PROGRAM FILES (X86)\CYPRESS\PSOC CREATOR\4.2\PSOC CREATOR\IMPORT\KEIL\PK51\9.51\C51\LIB\C51L.LIB (?C?LMUL)
         COMMENT TYPE 1: A51 / ASM51 Assembler
  C:\PROGRAM FILES (X86)\CYPRESS\PSOC CREATOR\4.2\PSOC CREATOR\IMPORT\KEIL\PK51\9.51\C51\LIB\C51L.LIB (?C?ULDIV)
         COMMENT TYPE 1: A51 / ASM51 Assembler
  C:\PROGRAM FILES (X86)\CYPRESS\PSOC CREATOR\4.2\PSOC CREATOR\IMPORT\KEIL\PK51\9.51\C51\LIB\C51L.LIB (?C?SLDIV)
         COMMENT TYPE 1: A51 / ASM51 Assembler
  C:\PROGRAM FILES (X86)\CYPRESS\PSOC CREATOR\4.2\PSOC CREATOR\IMPORT\KEIL\PK51\9.51\C51\LIB\C51L.LIB (?C?LNOT)
         COMMENT TYPE 1: A51 / ASM51 Assembler
  C:\PROGRAM FILES (X86)\CYPRESS\PSOC CREATOR\4.2\PSOC CREATOR\IMPORT\KEIL\PK51\9.51\C51\LIB\C51L.LIB (?C?LNEG)
         COMMENT TYPE 1: A51 / ASM51 Assembler
  C:\PROGRAM FILES (X86)\CYPRESS\PSOC CREATOR\4.2\PSOC CREATOR\IMPORT\KEIL\PK51\9.51\C51\LIB\C51L.LIB (?C?SLCMP)
         COMMENT TYPE 1: A51 / ASM51 Assembler
  C:\PROGRAM FILES (X86)\CYPRESS\PSOC CREATOR\4.2\PSOC CREATOR\IMPORT\KEIL\PK51\9.51\C51\LIB\C51L.LIB (?C?ULCMP)
         COMMENT TYPE 1: A51 / ASM51 Assembler
  C:\PROGRAM FILES (X86)\CYPRESS\PSOC CREATOR\4.2\PSOC CREATOR\IMPORT\KEIL\PK51\9.51\C51\LIB\C51L.LIB (?C?ULSHR)
         COMMENT TYPE 1: A51 / ASM51 Assembler
  C:\PROGRAM FILES (X86)\CYPRESS\PSOC CREATOR\4.2\PSOC CREATOR\IMPORT\KEIL\PK51\9.51\C51\LIB\C51L.LIB (?C?SLSHR)
         COMMENT TYPE 1: A51 / ASM51 Assembler
  C:\PROGRAM FILES (X86)\CYPRESS\PSOC CREATOR\4.2\PSOC CREATOR\IMPORT\KEIL\PK51\9.51\C51\LIB\C51L.LIB (?C?LSHL)
         COMMENT TYPE 1: A51 / ASM51 Assembler
  C:\PROGRAM FILES (X86)\CYPRESS\PSOC CREATOR\4.2\PSOC CREATOR\IMPORT\KEIL\PK51\9.51\C51\LIB\C51L.LIB (?C?LLDPTR)
         COMMENT TYPE 1: A51 / ASM51 Assembler
  C:\PROGRAM FILES (X86)\CYPRESS\PSOC CREATOR\4.2\PSOC CREATOR\IMPORT\KEIL\PK51\9.51\C51\LIB\C51L.LIB (?C?LSTPTR)
         COMMENT TYPE 1: A51 / ASM51 Assembler
  C:\PROGRAM FILES (X86)\CYPRESS\PSOC CREATOR\4.2\PSOC CREATOR\IMPORT\KEIL\PK51\9.51\C51\LIB\C51L.LIB (?C?LSTXDATA)
         COMMENT TYPE 1: A51 / ASM51 Assembler
  C:\PROGRAM FILES (X86)\CYPRESS\PSOC CREATOR\4.2\PSOC CREATOR\IMPORT\KEIL\PK51\9.51\C51\LIB\C51L.LIB (?C?PLDIXDATA)
         COMMENT TYPE 1: A51 / ASM51 Assembler
  C:\PROGRAM FILES (X86)\CYPRESS\PSOC CREATOR\4.2\PSOC CREATOR\IMPORT\KEIL\PK51\9.51\C51\LIB\C51L.LIB (?C?PSTXDATA)
         COMMENT TYPE 1: A51 / ASM51 Assembler
  C:\PROGRAM FILES (X86)\CYPRESS\PSOC CREATOR\4.2\PSOC CREATOR\IMPORT\KEIL\PK51\9.51\C51\LIB\C51L.LIB (?C?CCASE)
         COMMENT TYPE 1: A51 / ASM51 Assembler
  C:\PROGRAM FILES (X86)\CYPRESS\PSOC CREATOR\4.2\PSOC CREATOR\IMPORT\KEIL\PK51\9.51\C51\LIB\C51L.LIB (?C_XBP)
         COMMENT TYPE 1: A51 / ASM51 Assembler
  C:\PROGRAM FILES (X86)\CYPRESS\PSOC CREATOR\4.2\PSOC CREATOR\IMPORT\KEIL\PK51\9.51\C51\LIB\C51L.LIB (?C?ADDXBP)
         COMMENT TYPE 1: A51 / ASM51 Assembler
  C:\PROGRAM FILES (X86)\CYPRESS\PSOC CREATOR\4.2\PSOC CREATOR\IMPORT\KEIL\PK51\9.51\C51\LIB\C51L.LIB (?C?LIMUL)
         COMMENT TYPE 1: A51 / ASM51 Assembler
  C:\PROGRAM FILES (X86)\CYPRESS\PSOC CREATOR\4.2\PSOC CREATOR\IMPORT\KEIL\PK51\9.51\C51\LIB\C51L.LIB (PUTCHAR)
         COMMENT TYPE 1: A51 / ASM51 Assembler
  C:\PROGRAM FILES (X86)\CYPRESS\PSOC CREATOR\4.2\PSOC CREATOR\IMPORT\KEIL\PK51\9.51\C51\LIB\C51L.LIB (ABS)
         COMMENT TYPE 1: A51 / ASM51 Assembler
  C:\PROGRAM FILES (X86)\CYPRESS\PSOC CREATOR\4.2\PSOC CREATOR\IMPORT\KEIL\PK51\9.51\C51\LIB\C51L.LIB (STRCAT)
         COMMENT TYPE 1: C51 Compiler
  C:\PROGRAM FILES (X86)\CYPRESS\PSOC CREATOR\4.2\PSOC CREATOR\IMPORT\KEIL\PK51\9.51\C51\LIB\C51L.LIB (STRLEN)
         COMMENT TYPE 1: A51 / ASM51 Assembler
  C:\PROGRAM FILES (X86)\CYPRESS\PSOC CREATOR\4.2\PSOC CREATOR\IMPORT\KEIL\PK51\9.51\C51\LIB\C51L.LIB (?C?COPYAMD)
         COMMENT TYPE 1: A51 / ASM51 Assembler
  C:\PROGRAM FILES (X86)\CYPRESS\PSOC CREATOR\4.2\PSOC CREATOR\IMPORT\KEIL\PK51\9.51\C51\LIB\C51L.LIB (?C?STRCPYAMD)
         COMMENT TYPE 1: A51 / ASM51 Assembler
  C:\PROGRAM FILES (X86)\CYPRESS\PSOC CREATOR\4.2\PSOC CREATOR\IMPORT\KEIL\PK51\9.51\C51\LIB\C51L.LIB (?C?IILDX)
         COMMENT TYPE 1: A51 / ASM51 Assembler
  C:\PROGRAM FILES (X86)\CYPRESS\PSOC CREATOR\4.2\PSOC CREATOR\IMPORT\KEIL\PK51\9.51\C51\LIB\C51L.LIB (?C?ILDIX)
         COMMENT TYPE 1: A51 / ASM51 Assembler
  C:\PROGRAM FILES (X86)\CYPRESS\PSOC CREATOR\4.2\PSOC CREATOR\IMPORT\KEIL\PK51\9.51\C51\LIB\C51L.LIB (?C?LLDIDATA)
LX51 LINKER/LOCATER V4.64.0.0                                                         06/11/2018  11:54:47  PAGE 4


         COMMENT TYPE 1: A51 / ASM51 Assembler
  C:\PROGRAM FILES (X86)\CYPRESS\PSOC CREATOR\4.2\PSOC CREATOR\IMPORT\KEIL\PK51\9.51\C51\LIB\C51L.LIB (?C?LLDXDATA)
         COMMENT TYPE 1: A51 / ASM51 Assembler
  C:\PROGRAM FILES (X86)\CYPRESS\PSOC CREATOR\4.2\PSOC CREATOR\IMPORT\KEIL\PK51\9.51\C51\LIB\C51L.LIB (?C?LLDPDATA)
         COMMENT TYPE 1: A51 / ASM51 Assembler
  C:\PROGRAM FILES (X86)\CYPRESS\PSOC CREATOR\4.2\PSOC CREATOR\IMPORT\KEIL\PK51\9.51\C51\LIB\C51L.LIB (?C?LLDCODE)
         COMMENT TYPE 1: A51 / ASM51 Assembler
  C:\PROGRAM FILES (X86)\CYPRESS\PSOC CREATOR\4.2\PSOC CREATOR\IMPORT\KEIL\PK51\9.51\C51\LIB\C51L.LIB (?C?LSTIDATA)
         COMMENT TYPE 1: A51 / ASM51 Assembler
  C:\PROGRAM FILES (X86)\CYPRESS\PSOC CREATOR\4.2\PSOC CREATOR\IMPORT\KEIL\PK51\9.51\C51\LIB\C51L.LIB (?C?LSTPDATA)
         COMMENT TYPE 1: A51 / ASM51 Assembler


ACTIVE MEMORY CLASSES OF MODULE:  .\DP8051_Keil_951\Release\cuff_mod_firmware.omf (COMMAND_PROCESSING)

BASE        START       END         USED      MEMORY CLASS
==========================================================
X:000000H   X:000000H   X:001FFFH   000E94H   XDATA
C:000000H   C:002600H   C:00FFBFH   009CE5H   CODE
C:000000H   C:002600H   C:00FFBFH   000BB8H   CONST
I:000000H   I:000000H   I:00007FH   00006BH   DATA
I:000020H.0 I:000020H.0 I:00002FH.7 000002H.6 BIT
I:000000H   I:000000H   I:0000FFH   000004H   IDATA


MEMORY MAP OF MODULE:  .\DP8051_Keil_951\Release\cuff_mod_firmware.omf (COMMAND_PROCESSING)


START     STOP      LENGTH    ALIGN  RELOC    MEMORY CLASS   SEGMENT NAME
=========================================================================

* * * * * * * * * * *   D A T A   M E M O R Y   * * * * * * * * * * * * *
000000H   000007H   000008H   ---    AT..     DATA           "REG BANK 0"
000008H   00000DH   000006H   BYTE   UNIT     DATA           ?DT?INTERRUPTIONS
00000EH   00000FH   000002H   BYTE   UNIT     DATA           ?C?LIB_DATA
000010H   000012H   000003H   BYTE   UNIT     IDATA          _IDATA_GROUP_
000013H.0 00001FH.7 00000DH.0 ---    ---      **GAP**
000020H.0 000021H.1 000001H.2 BIT    UNIT     BIT            _BIT_GROUP_
000021H.2 000022H.2 000001H.1 BIT    UNIT     BIT            ?BI?GLOBALS
000022H.3 000022H.5 000000H.3 BIT    UNIT     BIT            ?BI?INTERRUPTIONS
000022H.6 000022H   000000H.2 ---    ---      **GAP**
000023H   00007DH   00005BH   BYTE   UNIT     DATA           _DATA_GROUP_
00007EH   00007EH   000001H   BYTE   UNIT     IDATA          ?STACK

* * * * * * * * * * *   C O D E   M E M O R Y   * * * * * * * * * * * * *
002600H   002619H   00001AH   ---    OFFS..   CODE           ?CO?KEILSTART?3
00261AH   003E70H   001857H   BYTE   UNIT     CODE           ?PR?_GET_PARAM_LIST?COMMAND_PROCESSING
003E71H   005167H   0012F7H   BYTE   UNIT     CODE           ?PR?_INFOPREPARE?COMMAND_PROCESSING
005168H   0061E3H   00107CH   BYTE   UNIT     CODE           ?CO?COMMAND_PROCESSING
0061E4H   006F1FH   000D3CH   BYTE   UNIT     CODE           ?PR?_MOTOR_CONTROL?INTERRUPTIONS
006F20H   0079D5H   000AB6H   BYTE   UNIT     CODE           ?C?LIB_CODE
0079D6H   007E58H   000483H   BYTE   UNIT     CODE           ?PR?PRINTF?PRINTF
007E59H   008294H   00043CH   BYTE   UNIT     CODE           ?PR?FORCE_AND_SLIDE_CUFF?COMMAND_PROCESSING
008295H   0085C4H   000330H   BYTE   UNIT     CODE           ?PR?CMD_STORE_PARAMS?COMMAND_PROCESSING
0085C5H   0088B9H   0002F5H   BYTE   UNIT     CODE           ?PR?_ENCODER_READING?INTERRUPTIONS
0088BAH   008B91H   0002D8H   BYTE   UNIT     CODE           ?PR?SLIDE_CUFF?COMMAND_PROCESSING
008B92H   008DFDH   00026CH   BYTE   UNIT     CODE           ?PR?MAIN?MAIN
008DFEH   00905BH   00025EH   BYTE   UNIT     CODE           ?PR?PRETENSIONING_PROCESS?INTERRUPTIONS
00905CH   0092ACH   000251H   BYTE   UNIT     CODE           ?PR?DRIVE_CUFF?COMMAND_PROCESSING
0092ADH   0094A0H   0001F4H   BYTE   UNIT     CODE           ?PR?MEMINIT?COMMAND_PROCESSING
0094A1H   009641H   0001A1H   BYTE   UNIT     CODE           ?PR?_ADC_GAINCOMPENSATION?ADC
009642H   0097C0H   00017FH   BYTE   UNIT     CODE           ?PR?CLOCKSETUP?CYFITTER_CFG
0097C1H   00992BH   00016BH   BYTE   UNIT     CODE           ?PR?CMD_SET_POS_STIFF?COMMAND_PROCESSING
00992CH   009A71H   000146H   BYTE   UNIT     CODE           ?PR?INTERRUPT_MANAGER?INTERRUPTIONS
009A72H   009BB3H   000142H   BYTE   UNIT     CODE           ?PR?CMD_SET_INPUTS?COMMAND_PROCESSING
LX51 LINKER/LOCATER V4.64.0.0                                                         06/11/2018  11:54:47  PAGE 5


009BB4H   009CE4H   000131H   BYTE   UNIT     CODE           ?PR?_ADC_EXT_CP_CLK_SETDIVIDERREGISTER?ADC_EXT_CP_CLK
009CE5H   009E14H   000130H   BYTE   UNIT     CODE           ?PR?_CLOCK_UART_SETDIVIDERREGISTER?CLOCK_UART
009E15H   009F43H   00012FH   BYTE   UNIT     CODE           ?PR?_ADC_THEACLK_SETDIVIDERREGISTER?ADC_THEACLK
009F44H   00A06FH   00012CH   BYTE   UNIT     CODE           ?PR?COMMPROCESS?COMMAND_PROCESSING
00A070H   00A196H   000127H   BYTE   UNIT     CODE           ?PR?PWM_LIMIT_SEARCH?INTERRUPTIONS
00A197H   00A2B3H   00011DH   BYTE   UNIT     CODE           ?C_C51STARTUP
00A2B4H   00A3CAH   000117H   BYTE   UNIT     CODE           ?PR?CYFITTER_CFG?CYFITTER_CFG
00A3CBH   00A4CCH   000102H   BYTE   UNIT     CODE           ?PR?ANALOG_READ_END?INTERRUPTIONS
00A4CDH   00A5B5H   0000E9H   BYTE   UNIT     CODE           ?PR?FUNCTION_SCHEDULER?INTERRUPTIONS
00A5B6H   00A69EH   0000E9H   BYTE   UNIT     CODE           ?PR?CFG_DMA_INIT?CYFITTER_CFG
00A69FH   00A77DH   0000DFH   BYTE   UNIT     CODE           ?PR?_EEPROM_WRITE?EEPROM
00A77EH   00A82FH   0000B2H   BYTE   UNIT     CODE           ?PR?_MEMSTORE?COMMAND_PROCESSING
00A830H   00A8E0H   0000B1H   BYTE   UNIT     CODE           ?PR?ADC_INIT?ADC
00A8E1H   00A991H   0000B1H   BYTE   UNIT     CODE           ?PR?UART_RS485_RXISR?UART_RS485_INT
00A992H   00AA3FH   0000AEH   BYTE   UNIT     CODE           ?PR?_ADC_INITCONFIG?ADC
00AA40H   00AAE6H   0000A7H   BYTE   UNIT     CODE           ?C_INITSEG
00AAE7H   00AB89H   0000A3H   BYTE   UNIT     CODE           ?PR?_COMMWRITE?COMMAND_PROCESSING
00AB8AH   00AC18H   00008FH   BYTE   UNIT     CODE           ?PR?CMD_GET_CURR_AND_MEAS?COMMAND_PROCESSING
00AC19H   00ACA5H   00008DH   BYTE   UNIT     CODE           ?PR?_COMMWRITE_OLD_ID?COMMAND_PROCESSING
00ACA6H   00AD2DH   000088H   BYTE   UNIT     CODE           ?PR?ADC_ENABLE?ADC
00AD2EH   00ADB5H   000088H   BYTE   UNIT     CODE           ?PR?_?CYDELAY?CYLIB
00ADB6H   00AE3CH   000087H   BYTE   UNIT     CODE           ?PR?_CYDMATDSETCONFIGURATION?CYDMAC
00AE3DH   00AEBFH   000083H   BYTE   UNIT     CODE           ?PR?SETZEROS?COMMAND_PROCESSING
00AEC0H   00AF38H   000079H   BYTE   UNIT     CODE           ?PR?_CYDMACHSETCONFIGURATION?CYDMAC
00AF39H   00AFB0H   000078H   BYTE   UNIT     CODE           ?PR?_CYDMACHSETEXTENDEDADDRESS?CYDMAC
00AFB1H   00B028H   000078H   BYTE   UNIT     CODE           ?PR?_CYDMATDSETADDRESS?CYDMAC
00B029H   00B09DH   000075H   BYTE   UNIT     CODE           ?PR?_FILTER_I1?UTILS
00B09EH   00B112H   000075H   BYTE   UNIT     CODE           ?PR?_FILTER_I2?UTILS
00B113H   00B185H   000073H   BYTE   UNIT     CODE           ?PR?_CYSPCLOADROW?CYSPC
00B186H   00B1F6H   000071H   BYTE   UNIT     CODE           ?PR?CMD_GET_MEASUREMENTS?COMMAND_PROCESSING
00B1F7H   00B261H   00006BH   BYTE   UNIT     CODE           ?PR?_CHECK_ENC_DATA?UTILS
00B262H   00B2CCH   00006BH   BYTE   UNIT     CODE           ?PR?_STRCAT?STRCAT
00B2CDH   00B332H   000066H   BYTE   UNIT     CODE           ?PR?CMD_GET_INPUTS?COMMAND_PROCESSING
00B333H   00B392H   000060H   BYTE   UNIT     CODE           ?PR?_CYSPCREADDATA?CYSPC
00B393H   00B3EDH   00005BH   BYTE   UNIT     CODE           ?PR?UART_RS485_GETCHAR?UART_RS485
00B3EEH   00B447H   00005AH   BYTE   UNIT     CODE           ?PR?CMD_GET_VELOCITIES?COMMAND_PROCESSING
00B448H   00B49DH   000056H   BYTE   UNIT     CODE           ?PR?CYSETTEMPINT?CYFLASH
00B49EH   00B4F1H   000054H   BYTE   UNIT     CODE           ?PR?_CYINTSETVECTOR?CYLIB
00B4F2H   00B545H   000054H   BYTE   UNIT     CODE           ?PR?_CYSPCWRITEROW?CYSPC
00B546H   00B595H   000050H   BYTE   UNIT     CODE           ?PR?CYFLASHGETSPCALGORITHM?CYFLASH
00B596H   00B5E4H   00004FH   BYTE   UNIT     CODE           ?PR?UART_RS485_GETRXBUFFERSIZE?UART_RS485
00B5E5H   00B631H   00004DH   BYTE   UNIT     CODE           ?PR?MEMRECALL?COMMAND_PROCESSING
00B632H   00B67CH   00004BH   BYTE   UNIT     CODE           ?PR?_CYDMACHENABLE?CYDMAC
00B67DH   00B6C6H   00004AH   BYTE   UNIT     CODE           ?PR?_DMA_DMAINITIALIZE?DMA_DMA
00B6C7H   00B70DH   000047H   BYTE   UNIT     CODE           ?PR?MEMRESTORE?COMMAND_PROCESSING
00B70EH   00B753H   000046H   BYTE   UNIT     CODE           ?PR?CMD_GET_CURRENTS?COMMAND_PROCESSING
00B754H   00B797H   000044H   BYTE   UNIT     CODE           ?C?LDIV
00B798H   00B7DAH   000043H   BYTE   UNIT     CODE           ?PR?CMD_ACTIVATE?COMMAND_PROCESSING
00B7DBH   00B81BH   000041H   BYTE   UNIT     CODE           ?PR?CMD_SET_WATCHDOG?COMMAND_PROCESSING
00B81CH   00B85BH   000040H   BYTE   UNIT     CODE           ?PR?_CYDMACHPRIORITY?CYDMAC
00B85CH   00B899H   00003EH   BYTE   UNIT     CODE           ?PR?CYDMATDALLOCATE?CYDMAC
00B89AH   00B8D6H   00003DH   BYTE   UNIT     CODE           ?PR?_ADC_SETDSMREF0REG?ADC
00B8D7H   00B912H   00003CH   BYTE   UNIT     CODE           ?PR?PACER_TIMER_INIT?PACER_TIMER
00B913H   00B94AH   000038H   BYTE   UNIT     CODE           ?PR?WATCHDOG_COUNTER_INIT?WATCHDOG_COUNTER
00B94BH   00B980H   000036H   BYTE   UNIT     CODE           ?PR?CYDMACCONFIGURE?CYDMAC
00B981H   00B9B5H   000035H   BYTE   UNIT     CODE           ?PR?COUNTER_ENC_INIT?COUNTER_ENC
00B9B6H   00B9E9H   000034H   BYTE   UNIT     CODE           ?PR?_UART_RS485_PUTSTRING?UART_RS485
00B9EAH   00B9FFH   000016H   BYTE   UNIT     CODE           ?PR?_SENDACKNOWLEDGMENT?COMMAND_PROCESSING
00BA00H   00BA3AH   00003BH   PAGE   UNIT     CODE           ?PR?CYDELAYCYCLES?CYBOOTASMKEIL
00BA3BH   00BA6EH   000034H   BYTE   UNIT     CODE           ?PR?_CYCONFIGCPY?CYMEM
00BA6FH   00BAA1H   000033H   BYTE   UNIT     CODE           ?PR?UART_RS485_INIT?UART_RS485
00BAA2H   00BAD3H   000032H   BYTE   UNIT     CODE           ?PR?_LCRCHECKSUM?UTILS
00BAD4H   00BB04H   000031H   BYTE   UNIT     CODE           ?PR?_ADC_AMUX_UNSET?CYFITTER_CFG
00BB05H   00BB35H   000031H   BYTE   UNIT     CODE           ?PR?CYEEPROM_START?CYFLASH
00BB36H   00BB65H   000030H   BYTE   UNIT     CODE           ?PR?CMD_GET_ACTIVATE?COMMAND_PROCESSING
LX51 LINKER/LOCATER V4.64.0.0                                                         06/11/2018  11:54:47  PAGE 6


00BB66H   00BB95H   000030H   BYTE   UNIT     CODE           ?PR?_ADC_AMUX_SET?CYFITTER_CFG
00BB96H   00BBC4H   00002FH   BYTE   UNIT     CODE           ?PR?UART_RS485_CLEARRXBUFFER?UART_RS485
00BBC5H   00BBF2H   00002EH   BYTE   UNIT     CODE           ?PR?_CYSPCGETTEMP?CYSPC
00BBF3H   00BBF3H   000001H   BYTE   UNIT     CODE           ?PR?ISR_RS485_RX_INTERRUPT?ISR_RS485_RX
00BBF4H   00BC20H   00002DH   DWORD  UNIT     CODE           ?PR?CYDELAYUS?CYBOOTASMKEIL
00BC21H   00BC4CH   00002CH   BYTE   UNIT     CODE           ?PR?MY_TIMER_INIT?MY_TIMER
00BC4DH   00BC73H   000027H   BYTE   UNIT     CODE           ?PR?ANALOGSETDEFAULT?CYFITTER_CFG
00BC74H   00BC9AH   000027H   BYTE   UNIT     CODE           ?PR?PUTCHAR?PUTCHAR
00BC9BH   00BCC0H   000026H   BYTE   UNIT     CODE           ?PR?PWM_MOTORS_INIT?PWM_MOTORS
00BCC1H   00BCE6H   000026H   BYTE   UNIT     CODE           ?PR?CYCONFIGCPYCODE?CYMEM
00BCE7H   00BD08H   000022H   BYTE   UNIT     CODE           ?PR?UART_RS485_ENABLE?UART_RS485
00BD09H   00BD2AH   000022H   BYTE   UNIT     CODE           ?PR?UART_RS485_STOP?UART_RS485
00BD2BH   00BD4BH   000021H   BYTE   UNIT     CODE           ?PR?ADC_AMUX_START?ADC_AMUX
00BD4CH   00BD6BH   000020H   BYTE   UNIT     CODE           ?PR?CMD_SET_BAUDRATE?COMMAND_PROCESSING
00BD6CH   00BD8AH   00001FH   BYTE   UNIT     CODE           ?PR?_ISR_RS485_RX_STARTEX?ISR_RS485_RX
00BD8BH   00BDA9H   00001FH   BYTE   UNIT     CODE           ?PR?_ISR_WATCHDOG_STARTEX?ISR_WATCHDOG
00BDAAH   00BDC8H   00001FH   BYTE   UNIT     CODE           ?PR?CYSPCLOCK?CYSPC
00BDC9H   00BDE6H   00001EH   BYTE   UNIT     CODE           ?PR?_CYDMACHSETINITIALTD?CYDMAC
00BDE7H   00BE02H   00001CH   BYTE   UNIT     CODE           ?PR?_WATCHDOG_COUNTER_WRITECOUNTER?WATCHDOG_COUNTER
00BE03H   00BE1DH   00001BH   BYTE   UNIT     CODE           ?PR?CYSPCGETALGORITHM?CYSPC
00BE1EH   00BE36H   000019H   BYTE   UNIT     CODE           ?PR?_INFOGET?COMMAND_PROCESSING
00BE37H   00BE4FH   000019H   BYTE   UNIT     CODE           ?PR?ADC_START?ADC
00BE50H   00BE68H   000019H   BYTE   UNIT     CODE           ?PR?_CYINTSETPRIORITY?CYLIB
00BE69H   00BE81H   000019H   BYTE   UNIT     CODE           ?PR?_ADC_AMUX_SELECT?ADC_AMUX
00BE82H   00BE99H   000018H   BYTE   UNIT     CODE           ?PR?CMD_PING?COMMAND_PROCESSING
00BE9AH   00BEB1H   000018H   BYTE   UNIT     CODE           ?PR?CYEXITCRITICALSECTION?CYBOOTASMKEIL
00BEB2H   00BEC9H   000018H   BYTE   UNIT     CODE           ?PR?CYSETTEMP?CYFLASH
00BECAH   00BEDFH   000016H   BYTE   UNIT     CODE           ?PR?PACER_TIMER_ENABLE?PACER_TIMER
00BEE0H   00BEF5H   000016H   BYTE   UNIT     CODE           ?PR?WATCHDOG_COUNTER_ENABLE?WATCHDOG_COUNTER
00BEF6H   00BF0AH   000015H   BYTE   UNIT     CODE           ?PR?CYENTERCRITICALSECTION?CYBOOTASMKEIL
00BF0BH   00BF1FH   000015H   BYTE   UNIT     CODE           ?PR?CYSPCSTART?CYSPC
00BF20H   00BF34H   000015H   BYTE   UNIT     CODE           ?PR?_STRLEN?STRLEN
00BF35H   00BF48H   000014H   BYTE   UNIT     CODE           ?PR?UART_RS485_READRXSTATUS?UART_RS485
00BF49H   00BF5BH   000013H   BYTE   UNIT     CODE           ?PR?UART_RS485_START?UART_RS485
00BF5CH   00BF6EH   000013H   BYTE   UNIT     CODE           ?PR?PWM_MOTORS_START?PWM_MOTORS
00BF6FH   00BF81H   000013H   BYTE   UNIT     CODE           ?PR?COUNTER_ENC_START?COUNTER_ENC
00BF82H   00BF94H   000013H   BYTE   UNIT     CODE           ?PR?SHIFTREG_ENC_1_START?SHIFTREG_ENC_1
00BF95H   00BFA7H   000013H   BYTE   UNIT     CODE           ?PR?SHIFTREG_ENC_2_START?SHIFTREG_ENC_2
00BFA8H   00BFBAH   000013H   BYTE   UNIT     CODE           ?PR?MY_TIMER_START?MY_TIMER
00BFBBH   00BFCDH   000013H   BYTE   UNIT     CODE           ?PR?PACER_TIMER_START?PACER_TIMER
00BFCEH   00BFE0H   000013H   BYTE   UNIT     CODE           ?PR?WATCHDOG_COUNTER_START?WATCHDOG_COUNTER
00BFE1H   00BFF3H   000013H   BYTE   UNIT     CODE           ?PR?CYREAD24?CYMEM
00BFF4H   00C005H   000012H   BYTE   UNIT     CODE           ?PR?UART_RS485_CLEARTXBUFFER?UART_RS485
00C006H   00C017H   000012H   BYTE   UNIT     CODE           ?PR?CYWRITE24?CYMEM
00C018H   00C028H   000011H   BYTE   UNIT     CODE           ?PR?_SHIFTREG_ENC_1_SETINTMODE?SHIFTREG_ENC_1
00C029H   00C039H   000011H   BYTE   UNIT     CODE           ?PR?_SHIFTREG_ENC_2_SETINTMODE?SHIFTREG_ENC_2
00C03AH   00C048H   00000FH   BYTE   UNIT     CODE           ?PR?MY_TIMER_READCOUNTER?MY_TIMER
00C049H   00C057H   00000FH   BYTE   UNIT     CODE           ?PR?CYREAD16?CYMEM
00C058H   00C066H   00000FH   BYTE   UNIT     CODE           ?PR?CYWRITE16?CYMEM
00C067H   00C074H   00000EH   BYTE   UNIT     CODE           ?PR?_ISR_RS485_RX_SETVECTOR?ISR_RS485_RX
00C075H   00C082H   00000EH   BYTE   UNIT     CODE           ?PR?SHIFTREG_ENC_1_ENABLEINT?SHIFTREG_ENC_1
00C083H   00C090H   00000EH   BYTE   UNIT     CODE           ?PR?SHIFTREG_ENC_2_ENABLEINT?SHIFTREG_ENC_2
00C091H   00C09EH   00000EH   BYTE   UNIT     CODE           ?PR?_PACER_TIMER_WRITEPERIOD?PACER_TIMER
00C09FH   00C0ACH   00000EH   BYTE   UNIT     CODE           ?PR?_PACER_TIMER_WRITECOUNTER?PACER_TIMER
00C0ADH   00C0BAH   00000EH   BYTE   UNIT     CODE           ?PR?_ISR_WATCHDOG_SETVECTOR?ISR_WATCHDOG
00C0BBH   00C0C8H   00000EH   BYTE   UNIT     CODE           ?PR?_WATCHDOG_COUNTER_WRITEPERIOD?WATCHDOG_COUNTER
00C0C9H   00C0D5H   00000DH   BYTE   UNIT     CODE           ?PR?_UART_RS485_PUTCHAR?UART_RS485
00C0D6H   00C0E2H   00000DH   BYTE   UNIT     CODE           ?PR?COUNTER_ENC_CLEARFIFO?COUNTER_ENC
00C0E3H   00C0EFH   00000DH   BYTE   UNIT     CODE           ?PR?MY_TIMER_CLEARFIFO?MY_TIMER
00C0F0H   00C0FCH   00000DH   BYTE   UNIT     CODE           ?PR?_ADC_EXT_CP_CLK_SETMODEREGISTER?ADC_EXT_CP_CLK
00C0FDH   00C109H   00000DH   BYTE   UNIT     CODE           ?PR?_ADC_THEACLK_SETMODEREGISTER?ADC_THEACLK
00C10AH   00C115H   00000CH   BYTE   UNIT     CODE           ?PR?CYREAD8?CYMEM
00C116H   00C121H   00000CH   BYTE   UNIT     CODE           ?PR?CYWRITE8?CYMEM
00C122H   00C12DH   00000CH   BYTE   UNIT     CODE           ?PR?CYSPCUNLOCK?CYSPC
00C12EH   00C139H   00000CH   BYTE   UNIT     CODE           ?PR?_ABS?ABS
LX51 LINKER/LOCATER V4.64.0.0                                                         06/11/2018  11:54:47  PAGE 7


00C13AH   00C144H   00000BH   BYTE   UNIT     CODE           ?PR?SHIFTREG_ENC_1_ENABLE?SHIFTREG_ENC_1
00C145H   00C14FH   00000BH   BYTE   UNIT     CODE           ?PR?SHIFTREG_ENC_2_ENABLE?SHIFTREG_ENC_2
00C150H   00C159H   00000AH   BYTE   UNIT     CODE           ?PR?_ISR_RS485_RX_SETPRIORITY?ISR_RS485_RX
00C15AH   00C163H   00000AH   BYTE   UNIT     CODE           ?PR?CLOCK_UART_GETDIVIDERREGISTER?CLOCK_UART
00C164H   00C16DH   00000AH   BYTE   UNIT     CODE           ?PR?SHIFTREG_ENC_1_READDATA?SHIFTREG_ENC_1
00C16EH   00C177H   00000AH   BYTE   UNIT     CODE           ?PR?SHIFTREG_ENC_2_READDATA?SHIFTREG_ENC_2
00C178H   00C181H   00000AH   BYTE   UNIT     CODE           ?PR?SHIFTREG_ENC_3_READDATA?SHIFTREG_ENC_3
00C182H   00C18BH   00000AH   BYTE   UNIT     CODE           ?PR?SHIFTREG_ENC_4_READDATA?SHIFTREG_ENC_4
00C18CH   00C195H   00000AH   BYTE   UNIT     CODE           ?PR?BOOTLOADABLE_LOAD?BOOTLOADABLE
00C196H   00C19FH   00000AH   BYTE   UNIT     CODE           ?PR?_MY_TIMER_WRITEPERIOD?MY_TIMER
00C1A0H   00C1A9H   00000AH   BYTE   UNIT     CODE           ?PR?MY_TIMER_READCAPTURE?MY_TIMER
00C1AAH   00C1B3H   00000AH   BYTE   UNIT     CODE           ?PR?_MY_TIMER_WRITECOUNTER?MY_TIMER
00C1B4H   00C1BDH   00000AH   BYTE   UNIT     CODE           ?PR?_ISR_WATCHDOG_SETPRIORITY?ISR_WATCHDOG
00C1BEH   00C1C7H   00000AH   BYTE   UNIT     CODE           ?PR?ADC_EXT_CP_CLK_GETDIVIDERREGISTER?ADC_EXT_CP_CLK
00C1C8H   00C1D1H   00000AH   BYTE   UNIT     CODE           ?PR?ADC_THEACLK_GETDIVIDERREGISTER?ADC_THEACLK
00C1D2H   00C1D9H   000008H   BYTE   UNIT     CODE           ?PR?PWM_MOTORS_ENABLE?PWM_MOTORS
00C1DAH   00C1E1H   000008H   BYTE   UNIT     CODE           ?PR?CLOCK_UART_GETSOURCEREGISTER?CLOCK_UART
00C1E2H   00C1E9H   000008H   BYTE   UNIT     CODE           ?PR?COUNTER_ENC_ENABLE?COUNTER_ENC
00C1EAH   00C1F1H   000008H   BYTE   UNIT     CODE           ?PR?MY_TIMER_ENABLE?MY_TIMER
00C1F2H   00C1F9H   000008H   BYTE   UNIT     CODE           ?PR?CYSOFTWARERESET?CYLIB
00C1FAH   00C201H   000008H   BYTE   UNIT     CODE           ?PR?ADC_EXT_CP_CLK_GETSOURCEREGISTER?ADC_EXT_CP_CLK
00C202H   00C209H   000008H   BYTE   UNIT     CODE           ?PR?ADC_THEACLK_GETSOURCEREGISTER?ADC_THEACLK
00C20AH   00C210H   000007H   BYTE   UNIT     CODE           ?PR?ISR_RS485_RX_ENABLE?ISR_RS485_RX
00C211H   00C217H   000007H   BYTE   UNIT     CODE           ?PR?ISR_RS485_RX_DISABLE?ISR_RS485_RX
00C218H   00C21EH   000007H   BYTE   UNIT     CODE           ?PR?EEPROM_ENABLE?EEPROM
00C21FH   00C225H   000007H   BYTE   UNIT     CODE           ?PR?ISR_WATCHDOG_ENABLE?ISR_WATCHDOG
00C226H   00C22CH   000007H   BYTE   UNIT     CODE           ?PR?ISR_WATCHDOG_DISABLE?ISR_WATCHDOG
00C22DH   00C232H   000006H   BYTE   UNIT     CODE           ?PR?UART_RS485_READTXSTATUS?UART_RS485
00C233H   00C238H   000006H   BYTE   UNIT     CODE           ?PR?_PWM_MOTORS_WRITECOUNTER?PWM_MOTORS
00C239H   00C23EH   000006H   BYTE   UNIT     CODE           ?PR?_PWM_MOTORS_WRITEPERIOD?PWM_MOTORS
00C23FH   00C244H   000006H   BYTE   UNIT     CODE           ?PR?_PWM_MOTORS_WRITECOMPARE1?PWM_MOTORS
00C245H   00C24AH   000006H   BYTE   UNIT     CODE           ?PR?_PWM_MOTORS_WRITECOMPARE2?PWM_MOTORS
00C24BH   00C250H   000006H   BYTE   UNIT     CODE           ?PR?_COUNTER_ENC_SETINTERRUPTMODE?COUNTER_ENC
00C251H   00C256H   000006H   BYTE   UNIT     CODE           ?PR?COUNTER_ENC_READSTATUSREGISTER?COUNTER_ENC
00C257H   00C25CH   000006H   BYTE   UNIT     CODE           ?PR?_COUNTER_ENC_WRITECOUNTER?COUNTER_ENC
00C25DH   00C262H   000006H   BYTE   UNIT     CODE           ?PR?COUNTER_ENC_READCAPTURE?COUNTER_ENC
00C263H   00C268H   000006H   BYTE   UNIT     CODE           ?PR?_COUNTER_ENC_WRITEPERIOD?COUNTER_ENC
00C269H   00C26EH   000006H   BYTE   UNIT     CODE           ?PR?_COUNTER_ENC_WRITECOMPARE?COUNTER_ENC
00C26FH   00C274H   000006H   BYTE   UNIT     CODE           ?PR?SHIFTREG_ENC_1_INIT?SHIFTREG_ENC_1
00C275H   00C27AH   000006H   BYTE   UNIT     CODE           ?PR?SHIFTREG_ENC_2_INIT?SHIFTREG_ENC_2
00C27BH   00C280H   000006H   BYTE   UNIT     CODE           ?PR?_RS485_CTS_WRITE?RS485_CTS
00C281H   00C286H   000006H   BYTE   UNIT     CODE           ?PR?_MOTOR_ON_OFF_WRITE?MOTOR_ON_OFF
00C287H   00C28CH   000006H   BYTE   UNIT     CODE           ?PR?_MY_TIMER_SETINTERRUPTMODE?MY_TIMER
00C28DH   00C292H   000006H   BYTE   UNIT     CODE           ?PR?MY_TIMER_READSTATUSREGISTER?MY_TIMER
00C293H   00C298H   000006H   BYTE   UNIT     CODE           ?PR?_FTDI_ENABLE_REG_WRITE?FTDI_ENABLE_REG
00C299H   00C29EH   000006H   BYTE   UNIT     CODE           ?PR?_PACER_TIMER_SETINTERRUPTMODE?PACER_TIMER
00C29FH   00C2A4H   000006H   BYTE   UNIT     CODE           ?PR?FF_STATUS_READ?FF_STATUS
00C2A5H   00C2AAH   000006H   BYTE   UNIT     CODE           ?PR?_RESET_FF_WRITE?RESET_FF
00C2ABH   00C2B0H   000006H   BYTE   UNIT     CODE           ?PR?_MOTOR_DIR_WRITE?MOTOR_DIR
00C2B1H   00C2B6H   000006H   BYTE   UNIT     CODE           ?PR?ADC_STATUS_READ?ADC_STATUS
00C2B7H   00C2BCH   000006H   BYTE   UNIT     CODE           ?PR?_ADC_SOC_WRITE?ADC_SOC
00C2BDH   00C2C2H   000006H   BYTE   UNIT     CODE           ?PR?_WATCHDOG_COUNTER_SETINTERRUPTMODE?WATCHDOG_COUNTER
00C2C3H   00C2C8H   000006H   BYTE   UNIT     CODE           ?PR?_WATCHDOG_ENABLER_WRITE?WATCHDOG_ENABLER
00C2C9H   00C2CEH   000006H   BYTE   UNIT     CODE           ?PR?_WATCHDOG_REFRESH_WRITE?WATCHDOG_REFRESH
00C2CFH   00C2D2H   000004H   BYTE   UNIT     CODE           ?PR?EEPROM_START?EEPROM
00C2D3H   00C2D6H   000004H   BYTE   UNIT     CODE           ?PR?EEPROM_UPDATETEMPERATURE?EEPROM
00C2D7H   00C2D9H   000003H   BYTE   UNIT     CODE           ?PR?ISR_WATCHDOG_HANDLER?INTERRUPTIONS
00C2DAH   00C2DCH   000003H   BYTE   UNIT     CODE           ?PR?ISR_RS485_RX_EXINTERRUPT?INTERRUPTIONS
00C2DDH   00C2DFH   000003H   BYTE   UNIT     CODE           ?PR?_CYCLOCKSTARTUPERROR?CYFITTER_CFG
00C2E0H   00C2E0H   000001H   BYTE   UNIT     CODE           ?PR?ISR_WATCHDOG_INTERRUPT?ISR_WATCHDOG
00C2E1H   00C2E1H   000001H   BYTE   UNIT     CODE           ?PR?ADC_ISR1?ADC_INT
00C2E2H   00C2E2H   000001H   BYTE   UNIT     CODE           ?PR?ADC_ISR2?ADC_INT
00C2E3H   00C2E3H   000001H   BYTE   UNIT     CODE           ?PR?ADC_ISR3?ADC_INT
00C2E4H   00C2E4H   000001H   BYTE   UNIT     CODE           ?PR?ADC_ISR4?ADC_INT
00C2E5H   00CE3BH   000B57H   BYTE   UNIT     CONST          ?CO?CYFITTER_CFG
LX51 LINKER/LOCATER V4.64.0.0                                                         06/11/2018  11:54:47  PAGE 8


00CE3CH   00CE9CH   000061H   BYTE   UNIT     CONST          ?CO?INTERRUPTIONS

* * * * * * * * * * *  X D A T A   M E M O R Y  * * * * * * * * * * * * *
000000H   000B08H   000B09H   BYTE   UNIT     XDATA          _XDATA_GROUP_
000B09H   000D18H   000210H   BYTE   UNIT     XDATA          ?XD?GLOBALS
000D19H   000DC5H   0000ADH   BYTE   UNIT     XDATA          ?XD?INTERRUPTIONS
000DC6H   000E08H   000043H   BYTE   UNIT     XDATA          ?XD?CYPM
000E09H   000E30H   000028H   BYTE   UNIT     XDATA          ?XD?UTILS
000E31H   000E57H   000027H   BYTE   UNIT     XDATA          ?XD?UART_RS485
000E58H   000E67H   000010H   BYTE   UNIT     XDATA          ?XD?ADC
000E68H   000E76H   00000FH   BYTE   UNIT     XDATA          ?XD?CYLIB
000E77H   000E7CH   000006H   BYTE   UNIT     XDATA          ?XD?CYDMAC
000E7DH   000E81H   000005H   BYTE   UNIT     XDATA          ?XD?CYFLASH
000E82H   000E85H   000004H   BYTE   UNIT     XDATA          ?XD?CYFITTER_CFG
000E86H   000E87H   000002H   BYTE   UNIT     XDATA          ?XD?COMMAND_PROCESSING
000E88H   000E88H   000001H   BYTE   UNIT     XDATA          ?XD?PWM_MOTORS
000E89H   000E89H   000001H   BYTE   UNIT     XDATA          ?XD?COUNTER_ENC
000E8AH   000E8AH   000001H   BYTE   UNIT     XDATA          ?XD?SHIFTREG_ENC_1
000E8BH   000E8BH   000001H   BYTE   UNIT     XDATA          ?XD?SHIFTREG_ENC_2
000E8CH   000E8CH   000001H   BYTE   UNIT     XDATA          ?XD?SHIFTREG_ENC_3
000E8DH   000E8DH   000001H   BYTE   UNIT     XDATA          ?XD?SHIFTREG_ENC_4
000E8EH   000E8EH   000001H   BYTE   UNIT     XDATA          ?XD?MY_TIMER
000E8FH   000E8FH   000001H   BYTE   UNIT     XDATA          ?XD?PACER_TIMER
000E90H   000E90H   000001H   BYTE   UNIT     XDATA          ?XD?DMA_DMA
000E91H   000E91H   000001H   BYTE   UNIT     XDATA          ?XD?WATCHDOG_COUNTER
000E92H   000E92H   000001H   BYTE   UNIT     XDATA          ?XD?ADC_AMUX
000E93H   000E93H   000001H   BYTE   UNIT     XDATA          ?XD?CYSPC

* * * * * * * * *   R E M O V E D     S E G M E N T S   * * * * * * * *
   *DEL*:           00007AH   BYTE   UNIT     CODE           ?PR?_FILTER_VEL_1?UTILS
   *DEL*:           00007AH   BYTE   UNIT     CODE           ?PR?_FILTER_VEL_2?UTILS
   *DEL*:           00007AH   BYTE   UNIT     CODE           ?PR?_FILTER_VEL_3?UTILS
   *DEL*:           00001AH   BYTE   UNIT     CODE           ?PR?_SETANALOGROUTINGPUMPS?CYFITTER_CFG
   *DEL*:           000003H   BYTE   UNIT     CODE           ?PR?UART_RS485_READCONTROLREGISTER?UART_RS485
   *DEL*:           000006H   BYTE   UNIT     CODE           ?PR?_UART_RS485_WRITECONTROLREGISTER?UART_RS485
   *DEL*:           000001H   BYTE   UNIT     XDATA          ?XD?_UART_RS485_WRITECONTROLREGISTER?UART_RS485
   *DEL*:           000006H   BYTE   UNIT     CODE           ?PR?_UART_RS485_SETRXINTERRUPTMODE?UART_RS485
   *DEL*:           00004AH   BYTE   UNIT     CODE           ?PR?UART_RS485_READRXDATA?UART_RS485
   *DEL*:           00001FH   BYTE   UNIT     CODE           ?PR?UART_RS485_GETBYTE?UART_RS485
   *DEL*:           000006H   BYTE   UNIT     CODE           ?PR?_UART_RS485_SETRXADDRESSMODE?UART_RS485
   *DEL*:           000001H   BYTE   UNIT     XDATA          ?XD?_UART_RS485_SETRXADDRESSMODE?UART_RS485
   *DEL*:           000006H   BYTE   UNIT     CODE           ?PR?_UART_RS485_SETRXADDRESS1?UART_RS485
   *DEL*:           000006H   BYTE   UNIT     CODE           ?PR?_UART_RS485_SETRXADDRESS2?UART_RS485
   *DEL*:           000006H   BYTE   UNIT     CODE           ?PR?_UART_RS485_SETTXINTERRUPTMODE?UART_RS485
   *DEL*:           00000CH   BYTE   UNIT     CODE           ?PR?_UART_RS485_WRITETXDATA?UART_RS485
   *DEL*:           000032H   BYTE   UNIT     CODE           ?PR?_UART_RS485_PUTARRAY?UART_RS485
   *DEL*:           000003H   BYTE   UNIT     XDATA          ?XD?_UART_RS485_PUTARRAY?UART_RS485
   *DEL*:           000014H   BYTE   UNIT     CODE           ?PR?_UART_RS485_PUTCRLF?UART_RS485
   *DEL*:           000017H   BYTE   UNIT     CODE           ?PR?UART_RS485_GETTXBUFFERSIZE?UART_RS485
   *DEL*:           000059H   BYTE   UNIT     CODE           ?PR?_UART_RS485_SENDBREAK?UART_RS485
   *DEL*:           000001H   BYTE   UNIT     XDATA          ?XD?_UART_RS485_SENDBREAK?UART_RS485
   *DEL*:           000006H   BYTE   UNIT     CODE           ?PR?_UART_RS485_SETTXADDRESSMODE?UART_RS485
   *DEL*:           000001H   BYTE   UNIT     XDATA          ?XD?_UART_RS485_SETTXADDRESSMODE?UART_RS485
   *DEL*:           000008H   BYTE   UNIT     CODE           ?PR?PWM_MOTORS_STOP?PWM_MOTORS
   *DEL*:           00000BH   BYTE   UNIT     CODE           ?PR?PWM_MOTORS_READCOUNTER?PWM_MOTORS
   *DEL*:           000006H   BYTE   UNIT     CODE           ?PR?PWM_MOTORS_READCONTROLREGISTER?PWM_MOTORS
   *DEL*:           000006H   BYTE   UNIT     CODE           ?PR?_PWM_MOTORS_WRITECONTROLREGISTER?PWM_MOTORS
   *DEL*:           000006H   BYTE   UNIT     CODE           ?PR?PWM_MOTORS_READCAPTURE?PWM_MOTORS
   *DEL*:           000006H   BYTE   UNIT     CODE           ?PR?PWM_MOTORS_READCOMPARE1?PWM_MOTORS
   *DEL*:           000006H   BYTE   UNIT     CODE           ?PR?PWM_MOTORS_READCOMPARE2?PWM_MOTORS
   *DEL*:           000006H   BYTE   UNIT     CODE           ?PR?PWM_MOTORS_READPERIOD?PWM_MOTORS
   *DEL*:           000013H   BYTE   UNIT     CODE           ?PR?ISR_RS485_RX_START?ISR_RS485_RX
   *DEL*:           000004H   BYTE   UNIT     CODE           ?PR?ISR_RS485_RX_STOP?ISR_RS485_RX
   *DEL*:           00000AH   BYTE   UNIT     CODE           ?PR?ISR_RS485_RX_GETVECTOR?ISR_RS485_RX
   *DEL*:           00000BH   BYTE   UNIT     CODE           ?PR?ISR_RS485_RX_GETPRIORITY?ISR_RS485_RX
LX51 LINKER/LOCATER V4.64.0.0                                                         06/11/2018  11:54:47  PAGE 9


   *DEL*:           00000EH   BYTE   UNIT     CODE           ?PR?ISR_RS485_RX_GETSTATE?ISR_RS485_RX
   *DEL*:           000007H   BYTE   UNIT     CODE           ?PR?ISR_RS485_RX_SETPENDING?ISR_RS485_RX
   *DEL*:           000007H   BYTE   UNIT     CODE           ?PR?ISR_RS485_RX_CLEARPENDING?ISR_RS485_RX
   *DEL*:           00000FH   BYTE   UNIT     CODE           ?PR?CLOCK_UART_START?CLOCK_UART
   *DEL*:           00000FH   BYTE   UNIT     CODE           ?PR?CLOCK_UART_STOP?CLOCK_UART
   *DEL*:           00006DH   BYTE   UNIT     CODE           ?PR?CLOCK_UART_STOPBLOCK?CLOCK_UART
   *DEL*:           000002H   BYTE   UNIT     XDATA          ?XD?CLOCK_UART_STOPBLOCK?CLOCK_UART
   *DEL*:           000013H   BYTE   UNIT     CODE           ?PR?_CLOCK_UART_STANDBYPOWER?CLOCK_UART
   *DEL*:           00000DH   BYTE   UNIT     CODE           ?PR?_CLOCK_UART_SETMODEREGISTER?CLOCK_UART
   *DEL*:           00000EH   BYTE   UNIT     CODE           ?PR?_CLOCK_UART_CLEARMODEREGISTER?CLOCK_UART
   *DEL*:           000008H   BYTE   UNIT     CODE           ?PR?CLOCK_UART_GETMODEREGISTER?CLOCK_UART
   *DEL*:           000062H   BYTE   UNIT     CODE           ?PR?_CLOCK_UART_SETSOURCEREGISTER?CLOCK_UART
   *DEL*:           000003H   BYTE   UNIT     XDATA          ?XD?_CLOCK_UART_SETSOURCEREGISTER?CLOCK_UART
   *DEL*:           000008H   BYTE   UNIT     CODE           ?PR?COUNTER_ENC_STOP?COUNTER_ENC
   *DEL*:           000006H   BYTE   UNIT     CODE           ?PR?COUNTER_ENC_READCONTROLREGISTER?COUNTER_ENC
   *DEL*:           000006H   BYTE   UNIT     CODE           ?PR?_COUNTER_ENC_WRITECONTROLREGISTER?COUNTER_ENC
   *DEL*:           00000BH   BYTE   UNIT     CODE           ?PR?COUNTER_ENC_READCOUNTER?COUNTER_ENC
   *DEL*:           000006H   BYTE   UNIT     CODE           ?PR?COUNTER_ENC_READPERIOD?COUNTER_ENC
   *DEL*:           000006H   BYTE   UNIT     CODE           ?PR?COUNTER_ENC_READCOMPARE?COUNTER_ENC
   *DEL*:           00000BH   BYTE   UNIT     CODE           ?PR?SHIFTREG_ENC_1_STOP?SHIFTREG_ENC_1
   *DEL*:           00000EH   BYTE   UNIT     CODE           ?PR?SHIFTREG_ENC_1_DISABLEINT?SHIFTREG_ENC_1
   *DEL*:           000036H   BYTE   UNIT     CODE           ?PR?_SHIFTREG_ENC_1_GETFIFOSTATUS?SHIFTREG_ENC_1
   *DEL*:           000008H   BYTE   UNIT     CODE           ?PR?SHIFTREG_ENC_1_GETINTSTATUS?SHIFTREG_ENC_1
   *DEL*:           00000AH   BYTE   UNIT     CODE           ?PR?_SHIFTREG_ENC_1_WRITEREGVALUE?SHIFTREG_ENC_1
   *DEL*:           000053H   BYTE   UNIT     CODE           ?PR?SHIFTREG_ENC_1_READREGVALUE?SHIFTREG_ENC_1
   *DEL*:           000004H   BYTE   UNIT     XDATA          ?XD?SHIFTREG_ENC_1_READREGVALUE?SHIFTREG_ENC_1
   *DEL*:           00000BH   BYTE   UNIT     CODE           ?PR?SHIFTREG_ENC_2_STOP?SHIFTREG_ENC_2
   *DEL*:           00000EH   BYTE   UNIT     CODE           ?PR?SHIFTREG_ENC_2_DISABLEINT?SHIFTREG_ENC_2
   *DEL*:           000036H   BYTE   UNIT     CODE           ?PR?_SHIFTREG_ENC_2_GETFIFOSTATUS?SHIFTREG_ENC_2
   *DEL*:           000008H   BYTE   UNIT     CODE           ?PR?SHIFTREG_ENC_2_GETINTSTATUS?SHIFTREG_ENC_2
   *DEL*:           00000AH   BYTE   UNIT     CODE           ?PR?_SHIFTREG_ENC_2_WRITEREGVALUE?SHIFTREG_ENC_2
   *DEL*:           000053H   BYTE   UNIT     CODE           ?PR?SHIFTREG_ENC_2_READREGVALUE?SHIFTREG_ENC_2
   *DEL*:           000004H   BYTE   UNIT     XDATA          ?XD?SHIFTREG_ENC_2_READREGVALUE?SHIFTREG_ENC_2
   *DEL*:           000013H   BYTE   UNIT     CODE           ?PR?SHIFTREG_ENC_3_START?SHIFTREG_ENC_3
   *DEL*:           00000BH   BYTE   UNIT     CODE           ?PR?SHIFTREG_ENC_3_ENABLE?SHIFTREG_ENC_3
   *DEL*:           000006H   BYTE   UNIT     CODE           ?PR?SHIFTREG_ENC_3_INIT?SHIFTREG_ENC_3
   *DEL*:           00000BH   BYTE   UNIT     CODE           ?PR?SHIFTREG_ENC_3_STOP?SHIFTREG_ENC_3
   *DEL*:           00000EH   BYTE   UNIT     CODE           ?PR?SHIFTREG_ENC_3_ENABLEINT?SHIFTREG_ENC_3
   *DEL*:           00000EH   BYTE   UNIT     CODE           ?PR?SHIFTREG_ENC_3_DISABLEINT?SHIFTREG_ENC_3
   *DEL*:           000036H   BYTE   UNIT     CODE           ?PR?_SHIFTREG_ENC_3_GETFIFOSTATUS?SHIFTREG_ENC_3
   *DEL*:           000011H   BYTE   UNIT     CODE           ?PR?_SHIFTREG_ENC_3_SETINTMODE?SHIFTREG_ENC_3
   *DEL*:           000008H   BYTE   UNIT     CODE           ?PR?SHIFTREG_ENC_3_GETINTSTATUS?SHIFTREG_ENC_3
   *DEL*:           00000AH   BYTE   UNIT     CODE           ?PR?_SHIFTREG_ENC_3_WRITEREGVALUE?SHIFTREG_ENC_3
   *DEL*:           000053H   BYTE   UNIT     CODE           ?PR?SHIFTREG_ENC_3_READREGVALUE?SHIFTREG_ENC_3
   *DEL*:           000004H   BYTE   UNIT     XDATA          ?XD?SHIFTREG_ENC_3_READREGVALUE?SHIFTREG_ENC_3
   *DEL*:           000004H   BYTE   UNIT     CODE           ?PR?EEPROM_STOP?EEPROM
   *DEL*:           000124H   BYTE   UNIT     CODE           ?PR?_EEPROM_WRITEBYTE?EEPROM
   *DEL*:           000008H   BYTE   UNIT     XDATA          ?XD?_EEPROM_WRITEBYTE?EEPROM
   *DEL*:           00003AH   BYTE   UNIT     CODE           ?PR?_EEPROM_READBYTE?EEPROM
   *DEL*:           000004H   BYTE   UNIT     XDATA          ?XD?_EEPROM_READBYTE?EEPROM
   *DEL*:           00006FH   BYTE   UNIT     CODE           ?PR?_EEPROM_ERASESECTOR?EEPROM
   *DEL*:           000002H   BYTE   UNIT     XDATA          ?XD?_EEPROM_ERASESECTOR?EEPROM
   *DEL*:           0000B9H   BYTE   UNIT     CODE           ?PR?_EEPROM_STARTWRITE?EEPROM
   *DEL*:           000005H   BYTE   UNIT     XDATA          ?XD?_EEPROM_STARTWRITE?EEPROM
   *DEL*:           000046H   BYTE   UNIT     CODE           ?PR?_EEPROM_STARTERASE?EEPROM
   *DEL*:           000002H   BYTE   UNIT     XDATA          ?XD?_EEPROM_STARTERASE?EEPROM
   *DEL*:           00003BH   BYTE   UNIT     CODE           ?PR?EEPROM_QUERY?EEPROM
   *DEL*:           000001H   BYTE   UNIT     XDATA          ?XD?EEPROM_QUERY?EEPROM
   *DEL*:           0000E5H   BYTE   UNIT     CODE           ?PR?_EEPROM_BYTEWRITEPOS?EEPROM
   *DEL*:           000004H   BYTE   UNIT     XDATA          ?XD?_EEPROM_BYTEWRITEPOS?EEPROM
   *DEL*:           000013H   BYTE   UNIT     CODE           ?PR?SHIFTREG_ENC_4_START?SHIFTREG_ENC_4
   *DEL*:           00000BH   BYTE   UNIT     CODE           ?PR?SHIFTREG_ENC_4_ENABLE?SHIFTREG_ENC_4
   *DEL*:           000006H   BYTE   UNIT     CODE           ?PR?SHIFTREG_ENC_4_INIT?SHIFTREG_ENC_4
   *DEL*:           00000BH   BYTE   UNIT     CODE           ?PR?SHIFTREG_ENC_4_STOP?SHIFTREG_ENC_4
   *DEL*:           00000EH   BYTE   UNIT     CODE           ?PR?SHIFTREG_ENC_4_ENABLEINT?SHIFTREG_ENC_4
LX51 LINKER/LOCATER V4.64.0.0                                                         06/11/2018  11:54:47  PAGE 10


   *DEL*:           00000EH   BYTE   UNIT     CODE           ?PR?SHIFTREG_ENC_4_DISABLEINT?SHIFTREG_ENC_4
   *DEL*:           000036H   BYTE   UNIT     CODE           ?PR?_SHIFTREG_ENC_4_GETFIFOSTATUS?SHIFTREG_ENC_4
   *DEL*:           000011H   BYTE   UNIT     CODE           ?PR?_SHIFTREG_ENC_4_SETINTMODE?SHIFTREG_ENC_4
   *DEL*:           000008H   BYTE   UNIT     CODE           ?PR?SHIFTREG_ENC_4_GETINTSTATUS?SHIFTREG_ENC_4
   *DEL*:           00000AH   BYTE   UNIT     CODE           ?PR?_SHIFTREG_ENC_4_WRITEREGVALUE?SHIFTREG_ENC_4
   *DEL*:           000053H   BYTE   UNIT     CODE           ?PR?SHIFTREG_ENC_4_READREGVALUE?SHIFTREG_ENC_4
   *DEL*:           000004H   BYTE   UNIT     XDATA          ?XD?SHIFTREG_ENC_4_READREGVALUE?SHIFTREG_ENC_4
   *DEL*:           000006H   BYTE   UNIT     CODE           ?PR?RS485_CTS_READ?RS485_CTS
   *DEL*:           000006H   BYTE   UNIT     CODE           ?PR?MOTOR_ON_OFF_READ?MOTOR_ON_OFF
   *DEL*:           0000FBH   BYTE   UNIT     CODE           ?PR?_BOOTLOADABLE_SETFLASHBYTE?BOOTLOADABLE
   *DEL*:           000110H   BYTE   UNIT     XDATA          ?XD?_BOOTLOADABLE_SETFLASHBYTE?BOOTLOADABLE
   *DEL*:           000008H   BYTE   UNIT     CODE           ?PR?MY_TIMER_STOP?MY_TIMER
   *DEL*:           000006H   BYTE   UNIT     CODE           ?PR?MY_TIMER_SOFTWARECAPTURE?MY_TIMER
   *DEL*:           000006H   BYTE   UNIT     CODE           ?PR?MY_TIMER_READCONTROLREGISTER?MY_TIMER
   *DEL*:           000006H   BYTE   UNIT     CODE           ?PR?_MY_TIMER_WRITECONTROLREGISTER?MY_TIMER
   *DEL*:           00000AH   BYTE   UNIT     CODE           ?PR?MY_TIMER_READPERIOD?MY_TIMER
   *DEL*:           000006H   BYTE   UNIT     CODE           ?PR?FTDI_ENABLE_REG_READ?FTDI_ENABLE_REG
   *DEL*:           000016H   BYTE   UNIT     CODE           ?PR?PACER_TIMER_STOP?PACER_TIMER
   *DEL*:           00000AH   BYTE   UNIT     CODE           ?PR?PACER_TIMER_SOFTWARECAPTURE?PACER_TIMER
   *DEL*:           000006H   BYTE   UNIT     CODE           ?PR?PACER_TIMER_READSTATUSREGISTER?PACER_TIMER
   *DEL*:           000006H   BYTE   UNIT     CODE           ?PR?PACER_TIMER_READCONTROLREGISTER?PACER_TIMER
   *DEL*:           000006H   BYTE   UNIT     CODE           ?PR?_PACER_TIMER_WRITECONTROLREGISTER?PACER_TIMER
   *DEL*:           00000AH   BYTE   UNIT     CODE           ?PR?PACER_TIMER_READPERIOD?PACER_TIMER
   *DEL*:           00000AH   BYTE   UNIT     CODE           ?PR?PACER_TIMER_READCAPTURE?PACER_TIMER
   *DEL*:           000013H   BYTE   UNIT     CODE           ?PR?PACER_TIMER_READCOUNTER?PACER_TIMER
   *DEL*:           00000EH   BYTE   UNIT     CODE           ?PR?FF_STATUS_INTERRUPTENABLE?FF_STATUS
   *DEL*:           00000EH   BYTE   UNIT     CODE           ?PR?FF_STATUS_INTERRUPTDISABLE?FF_STATUS
   *DEL*:           000009H   BYTE   UNIT     CODE           ?PR?_FF_STATUS_WRITEMASK?FF_STATUS
   *DEL*:           000006H   BYTE   UNIT     CODE           ?PR?FF_STATUS_READMASK?FF_STATUS
   *DEL*:           000006H   BYTE   UNIT     CODE           ?PR?RESET_FF_READ?RESET_FF
   *DEL*:           000006H   BYTE   UNIT     CODE           ?PR?MOTOR_DIR_READ?MOTOR_DIR
   *DEL*:           00000EH   BYTE   UNIT     CODE           ?PR?ADC_STATUS_INTERRUPTENABLE?ADC_STATUS
   *DEL*:           00000EH   BYTE   UNIT     CODE           ?PR?ADC_STATUS_INTERRUPTDISABLE?ADC_STATUS
   *DEL*:           000009H   BYTE   UNIT     CODE           ?PR?_ADC_STATUS_WRITEMASK?ADC_STATUS
   *DEL*:           000006H   BYTE   UNIT     CODE           ?PR?ADC_STATUS_READMASK?ADC_STATUS
   *DEL*:           000088H   BYTE   UNIT     CODE           ?PR?ADC_STOP?ADC
   *DEL*:           000001H   BYTE   UNIT     XDATA          ?XD?ADC_STOP?ADC
   *DEL*:           000012H   BYTE   UNIT     CODE           ?PR?_ADC_SETBUFFERGAIN?ADC
   *DEL*:           00000EH   BYTE   UNIT     CODE           ?PR?_ADC_SETCOHERENCY?ADC
   *DEL*:           0000F2H   BYTE   UNIT     CODE           ?PR?_ADC_SETGCOR?ADC
   *DEL*:           00000BH   BYTE   UNIT     XDATA          ?XD?_ADC_SETGCOR?ADC
   *DEL*:           000039H   BYTE   UNIT     CODE           ?PR?ADC_READGCOR?ADC
   *DEL*:           000001H   BYTE   UNIT     XDATA          ?XD?ADC_READGCOR?ADC
   *DEL*:           000008H   BYTE   UNIT     CODE           ?PR?ADC_STARTCONVERT?ADC
   *DEL*:           000008H   BYTE   UNIT     CODE           ?PR?ADC_STOPCONVERT?ADC
   *DEL*:           00001FH   BYTE   UNIT     CODE           ?PR?_ADC_ISENDCONVERSION?ADC
   *DEL*:           00002CH   BYTE   UNIT     CODE           ?PR?ADC_GETRESULT8?ADC
   *DEL*:           000060H   BYTE   UNIT     CODE           ?PR?ADC_GETRESULT16?ADC
   *DEL*:           000003H   BYTE   UNIT     XDATA          ?XD?ADC_GETRESULT16?ADC
   *DEL*:           0001B4H   BYTE   UNIT     CODE           ?PR?ADC_GETRESULT32?ADC
   *DEL*:           000007H   BYTE   UNIT     XDATA          ?XD?ADC_GETRESULT32?ADC
   *DEL*:           000007H   BYTE   UNIT     CODE           ?PR?_ADC_SETOFFSET?ADC
   *DEL*:           000007H   BYTE   UNIT     CODE           ?PR?_ADC_SETGAIN?ADC
   *DEL*:           00005FH   BYTE   UNIT     CODE           ?PR?_ADC_COUNTSTO_MVOLTS?ADC
   *DEL*:           000004H   BYTE   UNIT     XDATA          ?XD?_ADC_COUNTSTO_MVOLTS?ADC
   *DEL*:           00006DH   BYTE   UNIT     CODE           ?PR?_ADC_COUNTSTO_VOLTS?ADC
   *DEL*:           000004H   BYTE   UNIT     XDATA          ?XD?_ADC_COUNTSTO_VOLTS?ADC
   *DEL*:           000137H   BYTE   UNIT     CODE           ?PR?_ADC_COUNTSTO_UVOLTS?ADC
   *DEL*:           00000DH   BYTE   UNIT     XDATA          ?XD?_ADC_COUNTSTO_UVOLTS?ADC
   *DEL*:           000072H   BYTE   UNIT     CODE           ?PR?_ADC_SELECTCONFIGURATION?ADC
   *DEL*:           000002H   BYTE   UNIT     XDATA          ?XD?_ADC_SELECTCONFIGURATION?ADC
   *DEL*:           000016H   BYTE   UNIT     CODE           ?PR?ADC_READ8?ADC
   *DEL*:           000016H   BYTE   UNIT     CODE           ?PR?ADC_READ16?ADC
   *DEL*:           000016H   BYTE   UNIT     CODE           ?PR?ADC_READ32?ADC
   *DEL*:           000009H   BYTE   UNIT     CODE           ?PR?DMA_DMARELEASE?DMA_DMA
LX51 LINKER/LOCATER V4.64.0.0                                                         06/11/2018  11:54:47  PAGE 11


   *DEL*:           000006H   BYTE   UNIT     CODE           ?PR?ADC_SOC_READ?ADC_SOC
   *DEL*:           000013H   BYTE   UNIT     CODE           ?PR?ISR_WATCHDOG_START?ISR_WATCHDOG
   *DEL*:           000004H   BYTE   UNIT     CODE           ?PR?ISR_WATCHDOG_STOP?ISR_WATCHDOG
   *DEL*:           00000AH   BYTE   UNIT     CODE           ?PR?ISR_WATCHDOG_GETVECTOR?ISR_WATCHDOG
   *DEL*:           00000BH   BYTE   UNIT     CODE           ?PR?ISR_WATCHDOG_GETPRIORITY?ISR_WATCHDOG
   *DEL*:           00000EH   BYTE   UNIT     CODE           ?PR?ISR_WATCHDOG_GETSTATE?ISR_WATCHDOG
   *DEL*:           000007H   BYTE   UNIT     CODE           ?PR?ISR_WATCHDOG_SETPENDING?ISR_WATCHDOG
   *DEL*:           000007H   BYTE   UNIT     CODE           ?PR?ISR_WATCHDOG_CLEARPENDING?ISR_WATCHDOG
   *DEL*:           000016H   BYTE   UNIT     CODE           ?PR?WATCHDOG_COUNTER_STOP?WATCHDOG_COUNTER
   *DEL*:           000006H   BYTE   UNIT     CODE           ?PR?WATCHDOG_COUNTER_READSTATUSREGISTER?WATCHDOG_COUNTER
   *DEL*:           000006H   BYTE   UNIT     CODE           ?PR?WATCHDOG_COUNTER_READCONTROLREGISTER?WATCHDOG_COUNTER
   *DEL*:           000006H   BYTE   UNIT     CODE           ?PR?_WATCHDOG_COUNTER_WRITECONTROLREGISTER?WATCHDOG_COUNTE
                                                             -R
   *DEL*:           000013H   BYTE   UNIT     CODE           ?PR?WATCHDOG_COUNTER_READCOUNTER?WATCHDOG_COUNTER
   *DEL*:           00000AH   BYTE   UNIT     CODE           ?PR?WATCHDOG_COUNTER_READCAPTURE?WATCHDOG_COUNTER
   *DEL*:           00000AH   BYTE   UNIT     CODE           ?PR?WATCHDOG_COUNTER_READPERIOD?WATCHDOG_COUNTER
   *DEL*:           000006H   BYTE   UNIT     CODE           ?PR?WATCHDOG_ENABLER_READ?WATCHDOG_ENABLER
   *DEL*:           000006H   BYTE   UNIT     CODE           ?PR?WATCHDOG_REFRESH_READ?WATCHDOG_REFRESH
   *DEL*:           000012H   BYTE   UNIT     CODE           ?PR?CYDMACERROR?CYDMAC
   *DEL*:           000010H   BYTE   UNIT     CODE           ?PR?_CYDMACCLEARERROR?CYDMAC
   *DEL*:           00000AH   BYTE   UNIT     CODE           ?PR?CYDMACERRORADDRESS?CYDMAC
   *DEL*:           0000BEH   BYTE   UNIT     CODE           ?PR?CYDMACHALLOC?CYDMAC
   *DEL*:           000006H   BYTE   UNIT     XDATA          ?XD?CYDMACHALLOC?CYDMAC
   *DEL*:           000064H   BYTE   UNIT     CODE           ?PR?_CYDMACHFREE?CYDMAC
   *DEL*:           000003H   BYTE   UNIT     XDATA          ?XD?_CYDMACHFREE?CYDMAC
   *DEL*:           000033H   BYTE   UNIT     CODE           ?PR?_CYDMACHDISABLE?CYDMAC
   *DEL*:           000033H   BYTE   UNIT     CODE           ?PR?_CYDMACLEARPENDINGDRQ?CYDMAC
   *DEL*:           000025H   BYTE   UNIT     CODE           ?PR?_CYDMACHSETREQUEST?CYDMAC
   *DEL*:           000024H   BYTE   UNIT     CODE           ?PR?_CYDMACHGETREQUEST?CYDMAC
   *DEL*:           000072H   BYTE   UNIT     CODE           ?PR?_CYDMACHSTATUS?CYDMAC
   *DEL*:           000007H   BYTE   UNIT     XDATA          ?XD?_CYDMACHSTATUS?CYDMAC
   *DEL*:           00003EH   BYTE   UNIT     CODE           ?PR?_CYDMATDFREE?CYDMAC
   *DEL*:           000002H   BYTE   UNIT     XDATA          ?XD?_CYDMATDFREE?CYDMAC
   *DEL*:           000009H   BYTE   UNIT     CODE           ?PR?CYDMATDFREECOUNT?CYDMAC
   *DEL*:           0000C9H   BYTE   UNIT     CODE           ?PR?_CYDMATDGETCONFIGURATION?CYDMAC
   *DEL*:           00000DH   BYTE   UNIT     XDATA          ?XD?_CYDMATDGETCONFIGURATION?CYDMAC
   *DEL*:           0000A6H   BYTE   UNIT     CODE           ?PR?_CYDMATDGETADDRESS?CYDMAC
   *DEL*:           00000AH   BYTE   UNIT     XDATA          ?XD?_CYDMATDGETADDRESS?CYDMAC
   *DEL*:           000038H   BYTE   UNIT     CODE           ?PR?_CYDMACHROUNDROBIN?CYDMAC
   *DEL*:           00006EH   BYTE   UNIT     CODE           ?PR?_CYPLL_OUT_START?CYLIB
   *DEL*:           000004H   BYTE   UNIT     XDATA          ?XD?_CYPLL_OUT_START?CYLIB
   *DEL*:           000008H   BYTE   UNIT     CODE           ?PR?CYPLL_OUT_STOP?CYLIB
   *DEL*:           000036H   BYTE   UNIT     CODE           ?PR?_CYPLL_OUT_SETPQ?CYLIB
   *DEL*:           000010H   BYTE   UNIT     CODE           ?PR?_CYPLL_OUT_SETSOURCE?CYLIB
   *DEL*:           000053H   BYTE   UNIT     CODE           ?PR?_CYIMO_START?CYLIB
   *DEL*:           000003H   BYTE   UNIT     XDATA          ?XD?_CYIMO_START?CYLIB
   *DEL*:           00000FH   BYTE   UNIT     CODE           ?PR?CYIMO_STOP?CYLIB
   *DEL*:           000027H   BYTE   UNIT     CODE           ?PR?CYUSB_POWERONCHECK?CYLIB
   *DEL*:           0000B6H   BYTE   UNIT     CODE           ?PR?_CYIMO_SETTRIMVALUE?CYLIB
   *DEL*:           000001H   BYTE   UNIT     XDATA          ?XD?_CYIMO_SETTRIMVALUE?CYLIB
   *DEL*:           000118H   BYTE   UNIT     CODE           ?PR?_CYIMO_SETFREQ?CYLIB
   *DEL*:           000003H   BYTE   UNIT     XDATA          ?XD?_CYIMO_SETFREQ?CYLIB
   *DEL*:           00002FH   BYTE   UNIT     CODE           ?PR?_CYIMO_SETSOURCE?CYLIB
   *DEL*:           000008H   BYTE   UNIT     CODE           ?PR?CYIMO_ENABLEDOUBLER?CYLIB
   *DEL*:           000008H   BYTE   UNIT     CODE           ?PR?CYIMO_DISABLEDOUBLER?CYLIB
   *DEL*:           00000DH   BYTE   UNIT     CODE           ?PR?_CYMASTERCLK_SETSOURCE?CYLIB
   *DEL*:           000006H   BYTE   UNIT     CODE           ?PR?_CYMASTERCLK_SETDIVIDER?CYLIB
   *DEL*:           000023H   BYTE   UNIT     CODE           ?PR?_CYBUSCLK_INTERNAL_SETDIVIDER?CYLIB
   *DEL*:           00007AH   BYTE   UNIT     CODE           ?PR?_CYBUSCLK_SETDIVIDER?CYLIB
   *DEL*:           000002H   BYTE   UNIT     XDATA          ?XD?_CYBUSCLK_SETDIVIDER?CYLIB
   *DEL*:           00000EH   BYTE   UNIT     CODE           ?PR?_CYCPUCLK_SETDIVIDER?CYLIB
   *DEL*:           00000DH   BYTE   UNIT     CODE           ?PR?_CYUSBCLK_SETSOURCE?CYLIB
   *DEL*:           000008H   BYTE   UNIT     CODE           ?PR?CYILO_START1K?CYLIB
   *DEL*:           000008H   BYTE   UNIT     CODE           ?PR?CYILO_STOP1K?CYLIB
   *DEL*:           000008H   BYTE   UNIT     CODE           ?PR?CYILO_START100K?CYLIB
LX51 LINKER/LOCATER V4.64.0.0                                                         06/11/2018  11:54:47  PAGE 12


   *DEL*:           000008H   BYTE   UNIT     CODE           ?PR?CYILO_STOP100K?CYLIB
   *DEL*:           000008H   BYTE   UNIT     CODE           ?PR?CYILO_ENABLE33K?CYLIB
   *DEL*:           000008H   BYTE   UNIT     CODE           ?PR?CYILO_DISABLE33K?CYLIB
   *DEL*:           000011H   BYTE   UNIT     CODE           ?PR?_CYILO_SETSOURCE?CYLIB
   *DEL*:           000029H   BYTE   UNIT     CODE           ?PR?_CYILO_SETPOWERMODE?CYLIB
   *DEL*:           00005EH   BYTE   UNIT     CODE           ?PR?CYXTAL_32KHZ_START?CYLIB
   *DEL*:           000002H   BYTE   UNIT     XDATA          ?XD?CYXTAL_32KHZ_START?CYLIB
   *DEL*:           000020H   BYTE   UNIT     CODE           ?PR?CYXTAL_32KHZ_STOP?CYLIB
   *DEL*:           000008H   BYTE   UNIT     CODE           ?PR?CYXTAL_32KHZ_READSTATUS?CYLIB
   *DEL*:           000066H   BYTE   UNIT     CODE           ?PR?_CYXTAL_32KHZ_SETPOWERMODE?CYLIB
   *DEL*:           000001H   BYTE   UNIT     XDATA          ?XD?_CYXTAL_32KHZ_SETPOWERMODE?CYLIB
   *DEL*:           0000A0H   BYTE   UNIT     CODE           ?PR?_CYXTAL_START?CYLIB
   *DEL*:           000006H   BYTE   UNIT     XDATA          ?XD?_CYXTAL_START?CYLIB
   *DEL*:           000008H   BYTE   UNIT     CODE           ?PR?CYXTAL_STOP?CYLIB
   *DEL*:           000008H   BYTE   UNIT     CODE           ?PR?CYXTAL_ENABLEERRSTATUS?CYLIB
   *DEL*:           000008H   BYTE   UNIT     CODE           ?PR?CYXTAL_DISABLEERRSTATUS?CYLIB
   *DEL*:           00000FH   BYTE   UNIT     CODE           ?PR?CYXTAL_READSTATUS?CYLIB
   *DEL*:           000008H   BYTE   UNIT     CODE           ?PR?CYXTAL_ENABLEFAULTRECOVERY?CYLIB
   *DEL*:           000008H   BYTE   UNIT     CODE           ?PR?CYXTAL_DISABLEFAULTRECOVERY?CYLIB
   *DEL*:           00000DH   BYTE   UNIT     CODE           ?PR?_CYXTAL_SETSTARTUP?CYLIB
   *DEL*:           00000DH   BYTE   UNIT     CODE           ?PR?_CYXTAL_SETFBVOLTAGE?CYLIB
   *DEL*:           00000EH   BYTE   UNIT     CODE           ?PR?_CYXTAL_SETWDVOLTAGE?CYLIB
   *DEL*:           000015H   BYTE   UNIT     CODE           ?PR?_?CYHALT?CYLIB
   *DEL*:           0000B8H   BYTE   UNIT     CODE           ?PR?_?CYDELAYFREQ?CYLIB
   *DEL*:           000026H   BYTE   UNIT     CODE           ?PR?_CYWDTSTART?CYLIB
   *DEL*:           000007H   BYTE   UNIT     CODE           ?PR?CYWDTCLEAR?CYLIB
   *DEL*:           000084H   BYTE   UNIT     CODE           ?PR?_CYVDLVDIGITENABLE?CYLIB
   *DEL*:           000007H   BYTE   UNIT     XDATA          ?XD?_CYVDLVDIGITENABLE?CYLIB
   *DEL*:           000083H   BYTE   UNIT     CODE           ?PR?_CYVDLVANALOGENABLE?CYLIB
   *DEL*:           000007H   BYTE   UNIT     XDATA          ?XD?_CYVDLVANALOGENABLE?CYLIB
   *DEL*:           00001DH   BYTE   UNIT     CODE           ?PR?CYVDLVDIGITDISABLE?CYLIB
   *DEL*:           000018H   BYTE   UNIT     CODE           ?PR?CYVDLVANALOGDISABLE?CYLIB
   *DEL*:           000056H   BYTE   UNIT     CODE           ?PR?CYVDHVANALOGENABLE?CYLIB
   *DEL*:           000005H   BYTE   UNIT     XDATA          ?XD?CYVDHVANALOGENABLE?CYLIB
   *DEL*:           000011H   BYTE   UNIT     CODE           ?PR?CYVDHVANALOGDISABLE?CYLIB
   *DEL*:           000039H   BYTE   UNIT     CODE           ?PR?_CYVDSTICKYSTATUS?CYLIB
   *DEL*:           000002H   BYTE   UNIT     XDATA          ?XD?_CYVDSTICKYSTATUS?CYLIB
   *DEL*:           000018H   BYTE   UNIT     CODE           ?PR?CYVDREALTIMESTATUS?CYLIB
   *DEL*:           000001H   BYTE   UNIT     XDATA          ?XD?CYVDREALTIMESTATUS?CYLIB
   *DEL*:           0000D0H   BYTE   UNIT     CODE           ?PR?CYDISABLEINTS?CYLIB
   *DEL*:           000005H   BYTE   UNIT     XDATA          ?XD?CYDISABLEINTS?CYLIB
   *DEL*:           000067H   BYTE   UNIT     CODE           ?PR?_CYENABLEINTS?CYLIB
   *DEL*:           000004H   BYTE   UNIT     XDATA          ?XD?_CYENABLEINTS?CYLIB
   *DEL*:           000018H   BYTE   UNIT     CODE           ?PR?_CYINTGETVECTOR?CYLIB
   *DEL*:           000014H   BYTE   UNIT     CODE           ?PR?_CYINTGETPRIORITY?CYLIB
   *DEL*:           000036H   BYTE   UNIT     CODE           ?PR?_CYINTGETSTATE?CYLIB
   *DEL*:           000248H   BYTE   UNIT     CODE           ?PR?_CYGETUNIQUEID?CYLIB
   *DEL*:           000003H   BYTE   UNIT     XDATA          ?XD?_CYGETUNIQUEID?CYLIB
   *DEL*:           000004H   BYTE   UNIT     CODE           ?PR?_CyDelay?CYBOOTASMKEIL
   *DEL*:           000019H   BYTE   UNIT     CODE           ?PR?CYMEMZERO?CYMEM
   *DEL*:           00002DH   BYTE   UNIT     CODE           ?PR?CFG_WRITE_BYTES?CYMEM
   *DEL*:           00002EH   BYTE   UNIT     CODE           ?PR?CY_WRITE_BYTES_CODE?CYMEM
   *DEL*:           000015H   BYTE   UNIT     CODE           ?PR?CYREAD32?CYMEM
   *DEL*:           000015H   BYTE   UNIT     CODE           ?PR?CYWRITE32?CYMEM
   *DEL*:           000021H   BYTE   UNIT     CODE           ?PR?_ADC_AMUX_FASTSELECT?ADC_AMUX
   *DEL*:           000001H   BYTE   UNIT     XDATA          ?XD?_ADC_AMUX_FASTSELECT?ADC_AMUX
   *DEL*:           00000FH   BYTE   UNIT     CODE           ?PR?ADC_EXT_CP_CLK_START?ADC_EXT_CP_CLK
   *DEL*:           00000FH   BYTE   UNIT     CODE           ?PR?ADC_EXT_CP_CLK_STOP?ADC_EXT_CP_CLK
   *DEL*:           00006EH   BYTE   UNIT     CODE           ?PR?ADC_EXT_CP_CLK_STOPBLOCK?ADC_EXT_CP_CLK
   *DEL*:           000002H   BYTE   UNIT     XDATA          ?XD?ADC_EXT_CP_CLK_STOPBLOCK?ADC_EXT_CP_CLK
   *DEL*:           000013H   BYTE   UNIT     CODE           ?PR?_ADC_EXT_CP_CLK_STANDBYPOWER?ADC_EXT_CP_CLK
   *DEL*:           00000EH   BYTE   UNIT     CODE           ?PR?_ADC_EXT_CP_CLK_CLEARMODEREGISTER?ADC_EXT_CP_CLK
   *DEL*:           000008H   BYTE   UNIT     CODE           ?PR?ADC_EXT_CP_CLK_GETMODEREGISTER?ADC_EXT_CP_CLK
   *DEL*:           000062H   BYTE   UNIT     CODE           ?PR?_ADC_EXT_CP_CLK_SETSOURCEREGISTER?ADC_EXT_CP_CLK
   *DEL*:           000003H   BYTE   UNIT     XDATA          ?XD?_ADC_EXT_CP_CLK_SETSOURCEREGISTER?ADC_EXT_CP_CLK
LX51 LINKER/LOCATER V4.64.0.0                                                         06/11/2018  11:54:47  PAGE 13


   *DEL*:           00000FH   BYTE   UNIT     CODE           ?PR?ADC_THEACLK_START?ADC_THEACLK
   *DEL*:           00000FH   BYTE   UNIT     CODE           ?PR?ADC_THEACLK_STOP?ADC_THEACLK
   *DEL*:           00006CH   BYTE   UNIT     CODE           ?PR?ADC_THEACLK_STOPBLOCK?ADC_THEACLK
   *DEL*:           000002H   BYTE   UNIT     XDATA          ?XD?ADC_THEACLK_STOPBLOCK?ADC_THEACLK
   *DEL*:           000013H   BYTE   UNIT     CODE           ?PR?_ADC_THEACLK_STANDBYPOWER?ADC_THEACLK
   *DEL*:           00000EH   BYTE   UNIT     CODE           ?PR?_ADC_THEACLK_CLEARMODEREGISTER?ADC_THEACLK
   *DEL*:           000008H   BYTE   UNIT     CODE           ?PR?ADC_THEACLK_GETMODEREGISTER?ADC_THEACLK
   *DEL*:           000062H   BYTE   UNIT     CODE           ?PR?_ADC_THEACLK_SETSOURCEREGISTER?ADC_THEACLK
   *DEL*:           000003H   BYTE   UNIT     XDATA          ?XD?_ADC_THEACLK_SETSOURCEREGISTER?ADC_THEACLK
   *DEL*:           000008H   BYTE   UNIT     CODE           ?PR?_ADC_THEACLK_SETPHASEREGISTER?ADC_THEACLK
   *DEL*:           000008H   BYTE   UNIT     CODE           ?PR?ADC_THEACLK_GETPHASEREGISTER?ADC_THEACLK
   *DEL*:           000031H   BYTE   UNIT     CODE           ?PR?CYFLASH_START?CYFLASH
   *DEL*:           000015H   BYTE   UNIT     CODE           ?PR?CYFLASH_STOP?CYFLASH
   *DEL*:           00007DH   BYTE   UNIT     CODE           ?PR?_CYSETFLASHEEBUFFER?CYFLASH
   *DEL*:           000004H   BYTE   UNIT     XDATA          ?XD?_CYSETFLASHEEBUFFER?CYFLASH
   *DEL*:           000034H   BYTE   UNIT     CODE           ?PR?_CYWRITEROWDATA?CYFLASH
   *DEL*:           000003H   BYTE   UNIT     XDATA          ?XD?_CYWRITEROWDATA?CYFLASH
   *DEL*:           000190H   BYTE   UNIT     CODE           ?PR?_CYWRITEROWFULL?CYFLASH
   *DEL*:           000009H   BYTE   UNIT     XDATA          ?XD?_CYWRITEROWFULL?CYFLASH
   *DEL*:           000044H   BYTE   UNIT     CODE           ?PR?_CYFLASH_SETWAITCYCLES?CYFLASH
   *DEL*:           000001H   BYTE   UNIT     XDATA          ?XD?_CYFLASH_SETWAITCYCLES?CYFLASH
   *DEL*:           000015H   BYTE   UNIT     CODE           ?PR?CYEEPROM_STOP?CYFLASH
   *DEL*:           000010H   BYTE   UNIT     CODE           ?PR?CYEEPROM_READRESERVE?CYFLASH
   *DEL*:           000008H   BYTE   UNIT     CODE           ?PR?CYEEPROM_READRELEASE?CYFLASH
   *DEL*:           0001A9H   BYTE   UNIT     CODE           ?PR?CYPMSAVECLOCKS?CYPM
   *DEL*:           00024CH   BYTE   UNIT     CODE           ?PR?CYPMRESTORECLOCKS?CYPM
   *DEL*:           000003H   BYTE   UNIT     XDATA          ?XD?CYPMRESTORECLOCKS?CYPM
   *DEL*:           0000E0H   BYTE   UNIT     CODE           ?PR?_CYPMALTACT?CYPM
   *DEL*:           000004H   BYTE   UNIT     XDATA          ?XD?_CYPMALTACT?CYPM
   *DEL*:           000160H   BYTE   UNIT     CODE           ?PR?_CYPMSLEEP?CYPM
   *DEL*:           000004H   BYTE   UNIT     XDATA          ?XD?_CYPMSLEEP?CYPM
   *DEL*:           000008H   BYTE   UNIT     CODE           ?PR?CYPMHIBERNATE?CYPM
   *DEL*:           0000D6H   BYTE   UNIT     CODE           ?PR?_CYPMHIBERNATEEX?CYPM
   *DEL*:           000003H   BYTE   UNIT     XDATA          ?XD?_CYPMHIBERNATEEX?CYPM
   *DEL*:           000039H   BYTE   UNIT     CODE           ?PR?_CYPMREADSTATUS?CYPM
   *DEL*:           000002H   BYTE   UNIT     XDATA          ?XD?_CYPMREADSTATUS?CYPM
   *DEL*:           000076H   BYTE   UNIT     CODE           ?PR?CYPMHIBSAVESET?CYPM
   *DEL*:           000040H   BYTE   UNIT     CODE           ?PR?CYPMHIBRESTORE?CYPM
   *DEL*:           000049H   BYTE   UNIT     CODE           ?PR?_CYPMCTWSETINTERVAL?CYPM
   *DEL*:           000001H   BYTE   UNIT     XDATA          ?XD?_CYPMCTWSETINTERVAL?CYPM
   *DEL*:           000017H   BYTE   UNIT     CODE           ?PR?CYPMOPPSSET?CYPM
   *DEL*:           00004DH   BYTE   UNIT     CODE           ?PR?_CYPMFTWSETINTERVAL?CYPM
   *DEL*:           000001H   BYTE   UNIT     XDATA          ?XD?_CYPMFTWSETINTERVAL?CYPM
   *DEL*:           00018CH   BYTE   UNIT     CODE           ?PR?CYPMHIBSLPSAVESET?CYPM
   *DEL*:           00010DH   BYTE   UNIT     CODE           ?PR?CYPMHIBSLPRESTORE?CYPM
   *DEL*:           000082H   BYTE   UNIT     CODE           ?PR?CYPMHVILVISAVEDISABLE?CYPM
   *DEL*:           000033H   BYTE   UNIT     CODE           ?PR?CYPMHVILVIRESTORE?CYPM
   *DEL*:           00000EH   BYTE   UNIT     CONST          ?CO?CYPM
   *DEL*:           000015H   BYTE   UNIT     CODE           ?PR?CYSPCSTOP?CYSPC
   *DEL*:           0000A7H   BYTE   UNIT     CODE           ?PR?_CYSPCLOADMULTIBYTE?CYSPC
   *DEL*:           000007H   BYTE   UNIT     XDATA          ?XD?_CYSPCLOADMULTIBYTE?CYSPC
   *DEL*:           000143H   BYTE   UNIT     CODE           ?PR?_CYSPCLOADROWFULL?CYSPC
   *DEL*:           00000FH   BYTE   UNIT     XDATA          ?XD?_CYSPCLOADROWFULL?CYSPC
   *DEL*:           000030H   BYTE   UNIT     CODE           ?PR?_CYSPCERASESECTOR?CYSPC



OVERLAY MAP OF MODULE:   .\DP8051_Keil_951\Release\cuff_mod_firmware.omf (COMMAND_PROCESSING)


FUNCTION/MODULE                                BIT_GROUP   DATA_GROUP   IDATA_GROUP  XDATA_GROUP
--> CALLED FUNCTION/MODULE                    START  STOP  START  STOP  START  STOP  START  STOP
================================================================================================
ISR_WATCHDOG_HANDLER/INTERRUPTIONS            ----- -----  ----- -----  ----- -----  ----- -----

LX51 LINKER/LOCATER V4.64.0.0                                                         06/11/2018  11:54:47  PAGE 14


*** NEW ROOT ********************************

ISR_RS485_RX_EXINTERRUPT/INTERRUPTIONS        ----- -----  ----- -----  ----- -----  ----- -----

*** NEW ROOT ********************************

ISR_RS485_RX_INTERRUPT/ISR_RS485_RX           ----- -----  ----- -----  ----- -----  ----- -----

*** NEW ROOT ********************************

ISR_WATCHDOG_INTERRUPT/ISR_WATCHDOG           ----- -----  ----- -----  ----- -----  ----- -----

*** NEW ROOT ********************************

?C_C51STARTUP                                 ----- -----  ----- -----  ----- -----  ----- -----
  +--> ?CO?KEILSTART?3
  +--> CYFITTER_CFG/CYFITTER_CFG
  +--> CYDMACCONFIGURE/CYDMAC
  +--> MAIN/MAIN
  +--> ?C_INITSEG

?CO?KEILSTART?3                               ----- -----  ----- -----  ----- -----  ----- -----

CYFITTER_CFG/CYFITTER_CFG                     ----- -----  ----- -----  ----- -----  ----- -----
  +--> CYREAD8/CYMEM
  +--> CYWRITE8/CYMEM
  +--> CFG_DMA_INIT/CYFITTER_CFG
  +--> ?CO?CYFITTER_CFG
  +--> CYCONFIGCPYCODE/CYMEM
  +--> _CYCONFIGCPY/CYMEM
  +--> CLOCKSETUP/CYFITTER_CFG
  +--> ANALOGSETDEFAULT/CYFITTER_CFG

CYREAD8/CYMEM                                 ----- -----  ----- -----  ----- -----  ----- -----

CYWRITE8/CYMEM                                ----- -----  ----- -----  ----- -----  ----- -----

CFG_DMA_INIT/CYFITTER_CFG                     ----- -----  ----- -----  ----- -----  ----- -----
  +--> CYWRITE16/CYMEM
  +--> ?CO?CYFITTER_CFG
  +--> _CYCONFIGCPY/CYMEM

CYWRITE16/CYMEM                               ----- -----  ----- -----  ----- -----  ----- -----

?CO?CYFITTER_CFG                              ----- -----  ----- -----  ----- -----  ----- -----

_CYCONFIGCPY/CYMEM                            ----- -----  ----- -----  ----- -----  0000H 0007H

CYCONFIGCPYCODE/CYMEM                         ----- -----  ----- -----  ----- -----  ----- -----

CLOCKSETUP/CYFITTER_CFG                       ----- -----  ----- -----  ----- -----  0000H 0004H
  +--> CYWRITE16/CYMEM
  +--> ?CO?CYFITTER_CFG
  +--> CYCONFIGCPYCODE/CYMEM
  +--> CYREAD8/CYMEM
  +--> CYDELAYCYCLES/CYBOOTASMKEIL
  +--> _CYCLOCKSTARTUPERROR/CYFITTER_CFG

CYDELAYCYCLES/CYBOOTASMKEIL                   ----- -----  ----- -----  ----- -----  ----- -----

_CYCLOCKSTARTUPERROR/CYFITTER_CFG             ----- -----  ----- -----  ----- -----  ----- -----

ANALOGSETDEFAULT/CYFITTER_CFG                 ----- -----  ----- -----  ----- -----  ----- -----
  +--> CYREAD8/CYMEM

LX51 LINKER/LOCATER V4.64.0.0                                                         06/11/2018  11:54:47  PAGE 15


CYDMACCONFIGURE/CYDMAC                        ----- -----  ----- -----  ----- -----  ----- -----

MAIN/MAIN                                     ----- -----  ----- -----  ----- -----  0000H 0002H
  +--> EEPROM_START/EEPROM
  +--> MEMRECALL/COMMAND_PROCESSING
  +--> _?CYDELAY/CYLIB
  +--> _FTDI_ENABLE_REG_WRITE/FTDI_ENABLE_REG
  +--> UART_RS485_STOP/UART_RS485
  +--> UART_RS485_START/UART_RS485
  +--> UART_RS485_INIT/UART_RS485
  +--> UART_RS485_CLEARRXBUFFER/UART_RS485
  +--> UART_RS485_CLEARTXBUFFER/UART_RS485
  +--> _ISR_RS485_RX_STARTEX/ISR_RS485_RX
  +--> WATCHDOG_COUNTER_START/WATCHDOG_COUNTER
  +--> _ISR_WATCHDOG_STARTEX/ISR_WATCHDOG
  +--> PWM_MOTORS_START/PWM_MOTORS
  +--> _PWM_MOTORS_WRITECOMPARE1/PWM_MOTORS
  +--> _PWM_MOTORS_WRITECOMPARE2/PWM_MOTORS
  +--> _MOTOR_DIR_WRITE/MOTOR_DIR
  +--> _MOTOR_ON_OFF_WRITE/MOTOR_ON_OFF
  +--> COUNTER_ENC_START/COUNTER_ENC
  +--> SHIFTREG_ENC_1_START/SHIFTREG_ENC_1
  +--> SHIFTREG_ENC_2_START/SHIFTREG_ENC_2
  +--> ADC_START/ADC
  +--> _ADC_SOC_WRITE/ADC_SOC
  +--> _DMA_DMAINITIALIZE/DMA_DMA
  +--> CYDMATDALLOCATE/CYDMAC
  +--> _CYDMATDSETCONFIGURATION/CYDMAC
  +--> _CYDMATDSETADDRESS/CYDMAC
  +--> _CYDMACHSETINITIALTD/CYDMAC
  +--> _CYDMACHENABLE/CYDMAC
  +--> _RS485_CTS_WRITE/RS485_CTS
  +--> MY_TIMER_START/MY_TIMER
  +--> PACER_TIMER_START/PACER_TIMER
  +--> _MEMSTORE/COMMAND_PROCESSING
  +--> _SENDACKNOWLEDGMENT/COMMAND_PROCESSING
  +--> _ENCODER_READING/INTERRUPTIONS
  +--> _WATCHDOG_ENABLER_WRITE/WATCHDOG_ENABLER
  +--> _RESET_FF_WRITE/RESET_FF
  +--> FUNCTION_SCHEDULER/INTERRUPTIONS
  +--> FF_STATUS_READ/FF_STATUS
  +--> _WATCHDOG_REFRESH_WRITE/WATCHDOG_REFRESH
  +--> INTERRUPT_MANAGER/INTERRUPTIONS
  +--> UART_RS485_READRXSTATUS/UART_RS485

EEPROM_START/EEPROM                           ----- -----  ----- -----  ----- -----  ----- -----
  +--> EEPROM_ENABLE/EEPROM

EEPROM_ENABLE/EEPROM                          ----- -----  ----- -----  ----- -----  ----- -----
  +--> CYSETTEMP/CYFLASH
  +--> CYEEPROM_START/CYFLASH

CYSETTEMP/CYFLASH                             ----- -----  ----- -----  ----- -----  0030H 0030H
  +--> CYFLASHGETSPCALGORITHM/CYFLASH
  +--> CYSETTEMPINT/CYFLASH

CYFLASHGETSPCALGORITHM/CYFLASH                ----- -----  ----- -----  ----- -----  0031H 0031H
  +--> CYSPCSTART/CYSPC
  +--> CYSPCLOCK/CYSPC
  +--> CYSPCGETALGORITHM/CYSPC
  +--> CYDELAYUS/CYBOOTASMKEIL
  +--> CYSPCUNLOCK/CYSPC

CYSPCSTART/CYSPC                              ----- -----  ----- -----  ----- -----  ----- -----
  +--> CYENTERCRITICALSECTION/CYBOOTASMKEIL
LX51 LINKER/LOCATER V4.64.0.0                                                         06/11/2018  11:54:47  PAGE 16


  +--> CYEXITCRITICALSECTION/CYBOOTASMKEIL

CYENTERCRITICALSECTION/CYBOOTASMKEIL          ----- -----  ----- -----  ----- -----  ----- -----

CYEXITCRITICALSECTION/CYBOOTASMKEIL           ----- -----  ----- -----  ----- -----  ----- -----

CYSPCLOCK/CYSPC                               ----- -----  ----- -----  ----- -----  0035H 0035H
  +--> CYENTERCRITICALSECTION/CYBOOTASMKEIL
  +--> CYEXITCRITICALSECTION/CYBOOTASMKEIL

CYSPCGETALGORITHM/CYSPC                       ----- -----  ----- -----  ----- -----  ----- -----

CYDELAYUS/CYBOOTASMKEIL                       ----- -----  ----- -----  ----- -----  ----- -----
  +--> CYDELAYCYCLES/CYBOOTASMKEIL

CYSPCUNLOCK/CYSPC                             ----- -----  ----- -----  ----- -----  ----- -----
  +--> CYENTERCRITICALSECTION/CYBOOTASMKEIL
  +--> CYEXITCRITICALSECTION/CYBOOTASMKEIL

CYSETTEMPINT/CYFLASH                          ----- -----  ----- -----  ----- -----  0031H 0031H
  +--> CYSPCSTART/CYSPC
  +--> CYSPCLOCK/CYSPC
  +--> _CYSPCGETTEMP/CYSPC
  +--> _CYSPCREADDATA/CYSPC
  +--> CYDELAYUS/CYBOOTASMKEIL
  +--> CYSPCUNLOCK/CYSPC

_CYSPCGETTEMP/CYSPC                           ----- -----  ----- -----  ----- -----  ----- -----

_CYSPCREADDATA/CYSPC                          ----- -----  ----- -----  ----- -----  0032H 0036H
  +--> CYDELAYUS/CYBOOTASMKEIL

CYEEPROM_START/CYFLASH                        ----- -----  ----- -----  ----- -----  ----- -----
  +--> CYENTERCRITICALSECTION/CYBOOTASMKEIL
  +--> CYEXITCRITICALSECTION/CYBOOTASMKEIL

MEMRECALL/COMMAND_PROCESSING                  ----- -----  ----- -----  ----- -----  ----- -----
  +--> MEMRESTORE/COMMAND_PROCESSING

MEMRESTORE/COMMAND_PROCESSING                 ----- -----  ----- -----  ----- -----  ----- -----
  +--> MEMINIT/COMMAND_PROCESSING
  +--> _MEMSTORE/COMMAND_PROCESSING

MEMINIT/COMMAND_PROCESSING                    ----- -----  0067H 0067H  ----- -----  ----- -----
  +--> _MEMSTORE/COMMAND_PROCESSING

_MEMSTORE/COMMAND_PROCESSING                  ----- -----  ----- -----  ----- -----  0029H 002FH
  +--> _PWM_MOTORS_WRITECOMPARE1/PWM_MOTORS
  +--> _PWM_MOTORS_WRITECOMPARE2/PWM_MOTORS
  +--> EEPROM_UPDATETEMPERATURE/EEPROM
  +--> _EEPROM_WRITE/EEPROM

_PWM_MOTORS_WRITECOMPARE1/PWM_MOTORS          ----- -----  ----- -----  ----- -----  ----- -----

_PWM_MOTORS_WRITECOMPARE2/PWM_MOTORS          ----- -----  ----- -----  ----- -----  ----- -----

EEPROM_UPDATETEMPERATURE/EEPROM               ----- -----  ----- -----  ----- -----  ----- -----
  +--> CYSETTEMP/CYFLASH

_EEPROM_WRITE/EEPROM                          ----- -----  ----- -----  ----- -----  0030H 0034H
  +--> CYSPCSTART/CYSPC
  +--> CYSPCLOCK/CYSPC
  +--> _CYSPCLOADROW/CYSPC
  +--> _CYSPCWRITEROW/CYSPC
  +--> CYSPCUNLOCK/CYSPC
LX51 LINKER/LOCATER V4.64.0.0                                                         06/11/2018  11:54:47  PAGE 17



_CYSPCLOADROW/CYSPC                           ----- -----  ----- -----  ----- -----  0035H 003BH

_CYSPCWRITEROW/CYSPC                          ----- -----  ----- -----  ----- -----  0035H 0039H

_?CYDELAY/CYLIB                               ----- -----  ----- -----  ----- -----  ----- -----
  +--> CYDELAYCYCLES/CYBOOTASMKEIL

_FTDI_ENABLE_REG_WRITE/FTDI_ENABLE_REG        ----- -----  ----- -----  ----- -----  ----- -----

UART_RS485_STOP/UART_RS485                    ----- -----  ----- -----  ----- -----  ----- -----
  +--> CYENTERCRITICALSECTION/CYBOOTASMKEIL
  +--> CYEXITCRITICALSECTION/CYBOOTASMKEIL

UART_RS485_START/UART_RS485                   ----- -----  ----- -----  ----- -----  ----- -----
  +--> UART_RS485_INIT/UART_RS485
  +--> UART_RS485_ENABLE/UART_RS485

UART_RS485_INIT/UART_RS485                    ----- -----  ----- -----  ----- -----  ----- -----
  +--> _CYINTSETVECTOR/CYLIB
  +--> _CYINTSETPRIORITY/CYLIB

_CYINTSETVECTOR/CYLIB                         ----- -----  ----- -----  ----- -----  0003H 0007H
  +--> CYREAD16/CYMEM
  +--> CYWRITE16/CYMEM

CYREAD16/CYMEM                                ----- -----  ----- -----  ----- -----  ----- -----

_CYINTSETPRIORITY/CYLIB                       ----- -----  ----- -----  ----- -----  ----- -----

UART_RS485_ENABLE/UART_RS485                  ----- -----  ----- -----  ----- -----  ----- -----
  +--> CYENTERCRITICALSECTION/CYBOOTASMKEIL
  +--> CYEXITCRITICALSECTION/CYBOOTASMKEIL

UART_RS485_CLEARRXBUFFER/UART_RS485           ----- -----  ----- -----  ----- -----  ----- -----
  +--> CYENTERCRITICALSECTION/CYBOOTASMKEIL
  +--> CYEXITCRITICALSECTION/CYBOOTASMKEIL

UART_RS485_CLEARTXBUFFER/UART_RS485           ----- -----  ----- -----  ----- -----  ----- -----
  +--> CYENTERCRITICALSECTION/CYBOOTASMKEIL
  +--> CYEXITCRITICALSECTION/CYBOOTASMKEIL

_ISR_RS485_RX_STARTEX/ISR_RS485_RX            ----- -----  ----- -----  ----- -----  0003H 0004H
  +--> ISR_RS485_RX_DISABLE/ISR_RS485_RX
  +--> _ISR_RS485_RX_SETVECTOR/ISR_RS485_RX
  +--> _ISR_RS485_RX_SETPRIORITY/ISR_RS485_RX
  +--> ISR_RS485_RX_ENABLE/ISR_RS485_RX

ISR_RS485_RX_DISABLE/ISR_RS485_RX             ----- -----  ----- -----  ----- -----  ----- -----

_ISR_RS485_RX_SETVECTOR/ISR_RS485_RX          ----- -----  ----- -----  ----- -----  ----- -----
  +--> CYWRITE16/CYMEM

_ISR_RS485_RX_SETPRIORITY/ISR_RS485_RX        ----- -----  ----- -----  ----- -----  ----- -----

ISR_RS485_RX_ENABLE/ISR_RS485_RX              ----- -----  ----- -----  ----- -----  ----- -----

WATCHDOG_COUNTER_START/WATCHDOG_COUNTER       ----- -----  ----- -----  ----- -----  ----- -----
  +--> WATCHDOG_COUNTER_INIT/WATCHDOG_COUNTER
  +--> WATCHDOG_COUNTER_ENABLE/WATCHDOG_COUNTER

WATCHDOG_COUNTER_INIT/WATCHDOG_COUNTER        ----- -----  ----- -----  ----- -----  ----- -----
  +--> _WATCHDOG_COUNTER_WRITEPERIOD/WATCHDOG_COUNTER
  +--> _WATCHDOG_COUNTER_WRITECOUNTER/WATCHDOG_COUNTER
  +--> _WATCHDOG_COUNTER_SETINTERRUPTMODE/WATCHDOG_COUNTER
LX51 LINKER/LOCATER V4.64.0.0                                                         06/11/2018  11:54:47  PAGE 18



_WATCHDOG_COUNTER_WRITEPERIOD/WATCHDOG_C+     ----- -----  ----- -----  ----- -----  ----- -----
... OUNTER
  +--> CYWRITE16/CYMEM

_WATCHDOG_COUNTER_WRITECOUNTER/WATCHDOG_+     ----- -----  ----- -----  ----- -----  ----- -----
... COUNTER
  +--> CYWRITE16/CYMEM

_WATCHDOG_COUNTER_SETINTERRUPTMODE/WATCH+     ----- -----  ----- -----  ----- -----  ----- -----
... DOG_COUNTER

WATCHDOG_COUNTER_ENABLE/WATCHDOG_COUNTER      ----- -----  ----- -----  ----- -----  ----- -----

_ISR_WATCHDOG_STARTEX/ISR_WATCHDOG            ----- -----  ----- -----  ----- -----  0003H 0004H
  +--> ISR_WATCHDOG_DISABLE/ISR_WATCHDOG
  +--> _ISR_WATCHDOG_SETVECTOR/ISR_WATCHDOG
  +--> _ISR_WATCHDOG_SETPRIORITY/ISR_WATCHDOG
  +--> ISR_WATCHDOG_ENABLE/ISR_WATCHDOG

ISR_WATCHDOG_DISABLE/ISR_WATCHDOG             ----- -----  ----- -----  ----- -----  ----- -----

_ISR_WATCHDOG_SETVECTOR/ISR_WATCHDOG          ----- -----  ----- -----  ----- -----  ----- -----
  +--> CYWRITE16/CYMEM

_ISR_WATCHDOG_SETPRIORITY/ISR_WATCHDOG        ----- -----  ----- -----  ----- -----  ----- -----

ISR_WATCHDOG_ENABLE/ISR_WATCHDOG              ----- -----  ----- -----  ----- -----  ----- -----

PWM_MOTORS_START/PWM_MOTORS                   ----- -----  ----- -----  ----- -----  ----- -----
  +--> PWM_MOTORS_INIT/PWM_MOTORS
  +--> PWM_MOTORS_ENABLE/PWM_MOTORS

PWM_MOTORS_INIT/PWM_MOTORS                    ----- -----  ----- -----  ----- -----  ----- -----
  +--> _PWM_MOTORS_WRITECOUNTER/PWM_MOTORS
  +--> _PWM_MOTORS_WRITEPERIOD/PWM_MOTORS
  +--> _PWM_MOTORS_WRITECOMPARE1/PWM_MOTORS
  +--> _PWM_MOTORS_WRITECOMPARE2/PWM_MOTORS

_PWM_MOTORS_WRITECOUNTER/PWM_MOTORS           ----- -----  ----- -----  ----- -----  ----- -----

_PWM_MOTORS_WRITEPERIOD/PWM_MOTORS            ----- -----  ----- -----  ----- -----  ----- -----

PWM_MOTORS_ENABLE/PWM_MOTORS                  ----- -----  ----- -----  ----- -----  ----- -----

_MOTOR_DIR_WRITE/MOTOR_DIR                    ----- -----  ----- -----  ----- -----  ----- -----

_MOTOR_ON_OFF_WRITE/MOTOR_ON_OFF              ----- -----  ----- -----  ----- -----  ----- -----

COUNTER_ENC_START/COUNTER_ENC                 ----- -----  ----- -----  ----- -----  ----- -----
  +--> COUNTER_ENC_INIT/COUNTER_ENC
  +--> COUNTER_ENC_ENABLE/COUNTER_ENC

COUNTER_ENC_INIT/COUNTER_ENC                  ----- -----  ----- -----  ----- -----  ----- -----
  +--> COUNTER_ENC_CLEARFIFO/COUNTER_ENC
  +--> _COUNTER_ENC_WRITEPERIOD/COUNTER_ENC
  +--> _COUNTER_ENC_WRITECOUNTER/COUNTER_ENC
  +--> _COUNTER_ENC_SETINTERRUPTMODE/COUNTER_ENC
  +--> COUNTER_ENC_READSTATUSREGISTER/COUNTER_ENC
  +--> _COUNTER_ENC_WRITECOMPARE/COUNTER_ENC
  +--> CYENTERCRITICALSECTION/CYBOOTASMKEIL
  +--> CYEXITCRITICALSECTION/CYBOOTASMKEIL

COUNTER_ENC_CLEARFIFO/COUNTER_ENC             ----- -----  ----- -----  ----- -----  ----- -----
  +--> COUNTER_ENC_READSTATUSREGISTER/COUNTER_ENC
LX51 LINKER/LOCATER V4.64.0.0                                                         06/11/2018  11:54:47  PAGE 19


  +--> COUNTER_ENC_READCAPTURE/COUNTER_ENC

COUNTER_ENC_READSTATUSREGISTER/COUNTER_E+     ----- -----  ----- -----  ----- -----  ----- -----
... NC

COUNTER_ENC_READCAPTURE/COUNTER_ENC           ----- -----  ----- -----  ----- -----  ----- -----

_COUNTER_ENC_WRITEPERIOD/COUNTER_ENC          ----- -----  ----- -----  ----- -----  ----- -----

_COUNTER_ENC_WRITECOUNTER/COUNTER_ENC         ----- -----  ----- -----  ----- -----  ----- -----

_COUNTER_ENC_SETINTERRUPTMODE/COUNTER_EN+     ----- -----  ----- -----  ----- -----  ----- -----
... C

_COUNTER_ENC_WRITECOMPARE/COUNTER_ENC         ----- -----  ----- -----  ----- -----  ----- -----

COUNTER_ENC_ENABLE/COUNTER_ENC                ----- -----  ----- -----  ----- -----  ----- -----

SHIFTREG_ENC_1_START/SHIFTREG_ENC_1           ----- -----  ----- -----  ----- -----  ----- -----
  +--> SHIFTREG_ENC_1_INIT/SHIFTREG_ENC_1
  +--> SHIFTREG_ENC_1_ENABLE/SHIFTREG_ENC_1

SHIFTREG_ENC_1_INIT/SHIFTREG_ENC_1            ----- -----  ----- -----  ----- -----  ----- -----
  +--> _SHIFTREG_ENC_1_SETINTMODE/SHIFTREG_ENC_1

_SHIFTREG_ENC_1_SETINTMODE/SHIFTREG_ENC_+     ----- -----  ----- -----  ----- -----  ----- -----
... 1

SHIFTREG_ENC_1_ENABLE/SHIFTREG_ENC_1          ----- -----  ----- -----  ----- -----  ----- -----
  +--> SHIFTREG_ENC_1_ENABLEINT/SHIFTREG_ENC_1

SHIFTREG_ENC_1_ENABLEINT/SHIFTREG_ENC_1       ----- -----  ----- -----  ----- -----  ----- -----
  +--> CYENTERCRITICALSECTION/CYBOOTASMKEIL
  +--> CYEXITCRITICALSECTION/CYBOOTASMKEIL

SHIFTREG_ENC_2_START/SHIFTREG_ENC_2           ----- -----  ----- -----  ----- -----  ----- -----
  +--> SHIFTREG_ENC_2_INIT/SHIFTREG_ENC_2
  +--> SHIFTREG_ENC_2_ENABLE/SHIFTREG_ENC_2

SHIFTREG_ENC_2_INIT/SHIFTREG_ENC_2            ----- -----  ----- -----  ----- -----  ----- -----
  +--> _SHIFTREG_ENC_2_SETINTMODE/SHIFTREG_ENC_2

_SHIFTREG_ENC_2_SETINTMODE/SHIFTREG_ENC_+     ----- -----  ----- -----  ----- -----  ----- -----
... 2

SHIFTREG_ENC_2_ENABLE/SHIFTREG_ENC_2          ----- -----  ----- -----  ----- -----  ----- -----
  +--> SHIFTREG_ENC_2_ENABLEINT/SHIFTREG_ENC_2

SHIFTREG_ENC_2_ENABLEINT/SHIFTREG_ENC_2       ----- -----  ----- -----  ----- -----  ----- -----
  +--> CYENTERCRITICALSECTION/CYBOOTASMKEIL
  +--> CYEXITCRITICALSECTION/CYBOOTASMKEIL

ADC_START/ADC                                 ----- -----  ----- -----  ----- -----  ----- -----
  +--> ADC_INIT/ADC
  +--> ADC_ENABLE/ADC

ADC_INIT/ADC                                  ----- -----  ----- -----  ----- -----  ----- -----
  +--> _ADC_EXT_CP_CLK_SETMODEREGISTER/ADC_EXT_CP_CLK
  +--> _ADC_THEACLK_SETMODEREGISTER/ADC_THEACLK
  +--> _CYINTSETPRIORITY/CYLIB
  +--> _ADC_GAINCOMPENSATION/ADC
  +--> CYWRITE16/CYMEM
  +--> _ADC_INITCONFIG/ADC

_ADC_EXT_CP_CLK_SETMODEREGISTER/ADC_EXT_+     ----- -----  ----- -----  ----- -----  ----- -----
LX51 LINKER/LOCATER V4.64.0.0                                                         06/11/2018  11:54:47  PAGE 20


... CP_CLK

_ADC_THEACLK_SETMODEREGISTER/ADC_THEACLK      ----- -----  ----- -----  ----- -----  ----- -----

_ADC_GAINCOMPENSATION/ADC                     ----- -----  ----- -----  ----- -----  0003H 000AH
  +--> CYREAD8/CYMEM

_ADC_INITCONFIG/ADC                           ----- -----  ----- -----  ----- -----  ----- -----
  +--> _ADC_SETDSMREF0REG/ADC
  +--> _ADC_AMUX_SELECT/ADC_AMUX
  +--> _ADC_EXT_CP_CLK_SETDIVIDERREGISTER/ADC_EXT_CP_CLK
  +--> _ADC_THEACLK_SETDIVIDERREGISTER/ADC_THEACLK
  +--> _CYINTSETVECTOR/CYLIB

_ADC_SETDSMREF0REG/ADC                        ----- -----  ----- -----  ----- -----  0003H 0004H
  +--> CYENTERCRITICALSECTION/CYBOOTASMKEIL
  +--> CYDELAYUS/CYBOOTASMKEIL
  +--> CYEXITCRITICALSECTION/CYBOOTASMKEIL

_ADC_AMUX_SELECT/ADC_AMUX                     ----- -----  ----- -----  ----- -----  0003H 0003H
  +--> ADC_AMUX_START/ADC_AMUX
  +--> _ADC_AMUX_SET/CYFITTER_CFG

ADC_AMUX_START/ADC_AMUX                       ----- -----  ----- -----  ----- -----  0004H 0004H
  +--> _ADC_AMUX_UNSET/CYFITTER_CFG

_ADC_AMUX_UNSET/CYFITTER_CFG                  ----- -----  ----- -----  ----- -----  ----- -----
  +--> ?CO?CYFITTER_CFG

_ADC_AMUX_SET/CYFITTER_CFG                    ----- -----  ----- -----  ----- -----  ----- -----
  +--> ?CO?CYFITTER_CFG

_ADC_EXT_CP_CLK_SETDIVIDERREGISTER/ADC_E+     ----- -----  ----- -----  ----- -----  0003H 0009H
... XT_CP_CLK
  +--> ADC_EXT_CP_CLK_GETSOURCEREGISTER/ADC_EXT_CP_CLK
  +--> ADC_EXT_CP_CLK_GETDIVIDERREGISTER/ADC_EXT_CP_CLK
  +--> CYWRITE16/CYMEM

ADC_EXT_CP_CLK_GETSOURCEREGISTER/ADC_EXT+     ----- -----  ----- -----  ----- -----  ----- -----
... _CP_CLK

ADC_EXT_CP_CLK_GETDIVIDERREGISTER/ADC_EX+     ----- -----  ----- -----  ----- -----  ----- -----
... T_CP_CLK
  +--> CYREAD16/CYMEM

_ADC_THEACLK_SETDIVIDERREGISTER/ADC_THEA+     ----- -----  ----- -----  ----- -----  0003H 0009H
... CLK
  +--> ADC_THEACLK_GETSOURCEREGISTER/ADC_THEACLK
  +--> ADC_THEACLK_GETDIVIDERREGISTER/ADC_THEACLK
  +--> CYWRITE16/CYMEM

ADC_THEACLK_GETSOURCEREGISTER/ADC_THEACL+     ----- -----  ----- -----  ----- -----  ----- -----
... K

ADC_THEACLK_GETDIVIDERREGISTER/ADC_THEAC+     ----- -----  ----- -----  ----- -----  ----- -----
... LK
  +--> CYREAD16/CYMEM

ADC_ENABLE/ADC                                ----- -----  ----- -----  ----- -----  0003H 0004H
  +--> CYENTERCRITICALSECTION/CYBOOTASMKEIL
  +--> CYDELAYUS/CYBOOTASMKEIL
  +--> CYEXITCRITICALSECTION/CYBOOTASMKEIL

_ADC_SOC_WRITE/ADC_SOC                        ----- -----  ----- -----  ----- -----  ----- -----

LX51 LINKER/LOCATER V4.64.0.0                                                         06/11/2018  11:54:47  PAGE 21


_DMA_DMAINITIALIZE/DMA_DMA                    ----- -----  ----- -----  ----- -----  0003H 0008H
  +--> _CYDMACHSETCONFIGURATION/CYDMAC
  +--> _CYDMACHSETEXTENDEDADDRESS/CYDMAC
  +--> _CYDMACHPRIORITY/CYDMAC

_CYDMACHSETCONFIGURATION/CYDMAC               ----- -----  ----- -----  ----- -----  0009H 000EH

_CYDMACHSETEXTENDEDADDRESS/CYDMAC             ----- -----  ----- -----  ----- -----  0009H 0010H
  +--> CYWRITE16/CYMEM

_CYDMACHPRIORITY/CYDMAC                       ----- -----  ----- -----  ----- -----  ----- -----

CYDMATDALLOCATE/CYDMAC                        ----- -----  ----- -----  ----- -----  0003H 0003H
  +--> CYENTERCRITICALSECTION/CYBOOTASMKEIL
  +--> CYEXITCRITICALSECTION/CYBOOTASMKEIL

_CYDMATDSETCONFIGURATION/CYDMAC               ----- -----  ----- -----  ----- -----  0003H 000AH
  +--> CYWRITE16/CYMEM

_CYDMATDSETADDRESS/CYDMAC                     ----- -----  ----- -----  ----- -----  0003H 000AH
  +--> CYWRITE16/CYMEM

_CYDMACHSETINITIALTD/CYDMAC                   ----- -----  ----- -----  ----- -----  ----- -----

_CYDMACHENABLE/CYDMAC                         ----- -----  ----- -----  ----- -----  ----- -----

_RS485_CTS_WRITE/RS485_CTS                    ----- -----  ----- -----  ----- -----  ----- -----

MY_TIMER_START/MY_TIMER                       ----- -----  ----- -----  ----- -----  ----- -----
  +--> MY_TIMER_INIT/MY_TIMER
  +--> MY_TIMER_ENABLE/MY_TIMER

MY_TIMER_INIT/MY_TIMER                        ----- -----  ----- -----  ----- -----  ----- -----
  +--> _MY_TIMER_WRITEPERIOD/MY_TIMER
  +--> _MY_TIMER_WRITECOUNTER/MY_TIMER
  +--> CYENTERCRITICALSECTION/CYBOOTASMKEIL
  +--> CYEXITCRITICALSECTION/CYBOOTASMKEIL
  +--> MY_TIMER_CLEARFIFO/MY_TIMER
  +--> _MY_TIMER_SETINTERRUPTMODE/MY_TIMER

_MY_TIMER_WRITEPERIOD/MY_TIMER                ----- -----  ----- -----  ----- -----  ----- -----
  +--> CYWRITE24/CYMEM

CYWRITE24/CYMEM                               ----- -----  ----- -----  ----- -----  ----- -----

_MY_TIMER_WRITECOUNTER/MY_TIMER               ----- -----  ----- -----  ----- -----  ----- -----
  +--> CYWRITE24/CYMEM

MY_TIMER_CLEARFIFO/MY_TIMER                   ----- -----  ----- -----  ----- -----  ----- -----
  +--> MY_TIMER_READSTATUSREGISTER/MY_TIMER
  +--> MY_TIMER_READCAPTURE/MY_TIMER

MY_TIMER_READSTATUSREGISTER/MY_TIMER          ----- -----  ----- -----  ----- -----  ----- -----

MY_TIMER_READCAPTURE/MY_TIMER                 ----- -----  ----- -----  ----- -----  ----- -----
  +--> CYREAD24/CYMEM

CYREAD24/CYMEM                                ----- -----  ----- -----  ----- -----  ----- -----

_MY_TIMER_SETINTERRUPTMODE/MY_TIMER           ----- -----  ----- -----  ----- -----  ----- -----

MY_TIMER_ENABLE/MY_TIMER                      ----- -----  ----- -----  ----- -----  ----- -----

PACER_TIMER_START/PACER_TIMER                 ----- -----  ----- -----  ----- -----  ----- -----
  +--> PACER_TIMER_INIT/PACER_TIMER
LX51 LINKER/LOCATER V4.64.0.0                                                         06/11/2018  11:54:47  PAGE 22


  +--> PACER_TIMER_ENABLE/PACER_TIMER

PACER_TIMER_INIT/PACER_TIMER                  ----- -----  ----- -----  ----- -----  ----- -----
  +--> _PACER_TIMER_WRITEPERIOD/PACER_TIMER
  +--> _PACER_TIMER_WRITECOUNTER/PACER_TIMER
  +--> _PACER_TIMER_SETINTERRUPTMODE/PACER_TIMER

_PACER_TIMER_WRITEPERIOD/PACER_TIMER          ----- -----  ----- -----  ----- -----  ----- -----
  +--> CYWRITE16/CYMEM

_PACER_TIMER_WRITECOUNTER/PACER_TIMER         ----- -----  ----- -----  ----- -----  ----- -----
  +--> CYWRITE16/CYMEM

_PACER_TIMER_SETINTERRUPTMODE/PACER_TIME+     ----- -----  ----- -----  ----- -----  ----- -----
... R

PACER_TIMER_ENABLE/PACER_TIMER                ----- -----  ----- -----  ----- -----  ----- -----

_SENDACKNOWLEDGMENT/COMMAND_PROCESSING        ----- -----  006BH 006CH  ----- -----  ----- -----
  +--> _COMMWRITE/COMMAND_PROCESSING

_COMMWRITE/COMMAND_PROCESSING                 ----- -----  007CH 007DH  ----- -----  0B00H 0B05H
  +--> _UART_RS485_PUTCHAR/UART_RS485
  +--> UART_RS485_READTXSTATUS/UART_RS485
  +--> _RS485_CTS_WRITE/RS485_CTS

_UART_RS485_PUTCHAR/UART_RS485                ----- -----  ----- -----  ----- -----  ----- -----

UART_RS485_READTXSTATUS/UART_RS485            ----- -----  ----- -----  ----- -----  ----- -----

_ENCODER_READING/INTERRUPTIONS                ----- -----  0023H 0023H  ----- -----  0003H 000FH
  +--> SHIFTREG_ENC_1_READDATA/SHIFTREG_ENC_1
  +--> SHIFTREG_ENC_2_READDATA/SHIFTREG_ENC_2
  +--> SHIFTREG_ENC_3_READDATA/SHIFTREG_ENC_3
  +--> SHIFTREG_ENC_4_READDATA/SHIFTREG_ENC_4
  +--> _CHECK_ENC_DATA/UTILS
  +--> _ABS/ABS

SHIFTREG_ENC_1_READDATA/SHIFTREG_ENC_1        ----- -----  ----- -----  ----- -----  ----- -----
  +--> CYREAD24/CYMEM

SHIFTREG_ENC_2_READDATA/SHIFTREG_ENC_2        ----- -----  ----- -----  ----- -----  ----- -----
  +--> CYREAD24/CYMEM

SHIFTREG_ENC_3_READDATA/SHIFTREG_ENC_3        ----- -----  ----- -----  ----- -----  ----- -----
  +--> CYREAD24/CYMEM

SHIFTREG_ENC_4_READDATA/SHIFTREG_ENC_4        ----- -----  ----- -----  ----- -----  ----- -----
  +--> CYREAD24/CYMEM

_CHECK_ENC_DATA/UTILS                         ----- -----  0024H 0024H  0010H 0012H  ----- -----

_ABS/ABS                                      ----- -----  ----- -----  ----- -----  ----- -----

_WATCHDOG_ENABLER_WRITE/WATCHDOG_ENABLER      ----- -----  ----- -----  ----- -----  ----- -----

_RESET_FF_WRITE/RESET_FF                      ----- -----  ----- -----  ----- -----  ----- -----

FUNCTION_SCHEDULER/INTERRUPTIONS              ----- -----  ----- -----  ----- -----  ----- -----
  +--> MY_TIMER_READCOUNTER/MY_TIMER
  +--> _ADC_SOC_WRITE/ADC_SOC
  +--> INTERRUPT_MANAGER/INTERRUPTIONS
  +--> _ENCODER_READING/INTERRUPTIONS
  +--> _MOTOR_CONTROL/INTERRUPTIONS
  +--> ANALOG_READ_END/INTERRUPTIONS
LX51 LINKER/LOCATER V4.64.0.0                                                         06/11/2018  11:54:47  PAGE 23


  +--> PRETENSIONING_PROCESS/INTERRUPTIONS
  +--> DRIVE_CUFF/COMMAND_PROCESSING
  +--> SLIDE_CUFF/COMMAND_PROCESSING
  +--> FORCE_AND_SLIDE_CUFF/COMMAND_PROCESSING
  +--> _MY_TIMER_WRITECOUNTER/MY_TIMER

MY_TIMER_READCOUNTER/MY_TIMER                 ----- -----  ----- -----  ----- -----  ----- -----
  +--> CYREAD24/CYMEM

INTERRUPT_MANAGER/INTERRUPTIONS               20H.0 20H.0  0064H 0065H  ----- -----  ----- -----
  +--> UART_RS485_GETRXBUFFERSIZE/UART_RS485
  +--> UART_RS485_GETCHAR/UART_RS485
  +--> _INFOGET/COMMAND_PROCESSING
  +--> COMMPROCESS/COMMAND_PROCESSING
  +--> _RS485_CTS_WRITE/RS485_CTS

UART_RS485_GETRXBUFFERSIZE/UART_RS485         ----- -----  ----- -----  ----- -----  ----- -----

UART_RS485_GETCHAR/UART_RS485                 ----- -----  ----- -----  ----- -----  ----- -----

_INFOGET/COMMAND_PROCESSING                   ----- -----  ----- -----  ----- -----  0029H 0604H
  +--> _INFOPREPARE/COMMAND_PROCESSING
  +--> _UART_RS485_PUTSTRING/UART_RS485

_INFOPREPARE/COMMAND_PROCESSING               ----- -----  0067H 0068H  ----- -----  0605H 0639H
  +--> ?CO?COMMAND_PROCESSING
  +--> _STRCAT/STRCAT
  +--> PRINTF/PRINTF

?CO?COMMAND_PROCESSING                        ----- -----  ----- -----  ----- -----  ----- -----

_STRCAT/STRCAT                                ----- -----  ----- -----  ----- -----  0B00H 0B08H

PRINTF/PRINTF                                 20H.1 21H.1  0069H 006DH  ----- -----  063AH 0669H
  +--> PUTCHAR/PUTCHAR

PUTCHAR/PUTCHAR                               ----- -----  ----- -----  ----- -----  ----- -----

_UART_RS485_PUTSTRING/UART_RS485              ----- -----  ----- -----  ----- -----  0605H 0607H
  +--> _UART_RS485_PUTCHAR/UART_RS485

COMMPROCESS/COMMAND_PROCESSING                ----- -----  0066H 0066H  ----- -----  ----- -----
  +--> _LCRCHECKSUM/UTILS
  +--> CMD_GET_MEASUREMENTS/COMMAND_PROCESSING
  +--> CMD_GET_INPUTS/COMMAND_PROCESSING
  +--> CMD_GET_CURRENTS/COMMAND_PROCESSING
  +--> CMD_GET_CURR_AND_MEAS/COMMAND_PROCESSING
  +--> CMD_SET_INPUTS/COMMAND_PROCESSING
  +--> CMD_SET_POS_STIFF/COMMAND_PROCESSING
  +--> CMD_GET_VELOCITIES/COMMAND_PROCESSING
  +--> CMD_ACTIVATE/COMMAND_PROCESSING
  +--> CMD_SET_WATCHDOG/COMMAND_PROCESSING
  +--> CMD_GET_ACTIVATE/COMMAND_PROCESSING
  +--> CMD_SET_BAUDRATE/COMMAND_PROCESSING
  +--> _INFOGET/COMMAND_PROCESSING
  +--> SETZEROS/COMMAND_PROCESSING
  +--> _GET_PARAM_LIST/COMMAND_PROCESSING
  +--> CMD_PING/COMMAND_PROCESSING
  +--> CMD_STORE_PARAMS/COMMAND_PROCESSING
  +--> _MEMSTORE/COMMAND_PROCESSING
  +--> _SENDACKNOWLEDGMENT/COMMAND_PROCESSING
  +--> MEMRESTORE/COMMAND_PROCESSING
  +--> MEMINIT/COMMAND_PROCESSING
  +--> _?CYDELAY/CYLIB
  +--> _FTDI_ENABLE_REG_WRITE/FTDI_ENABLE_REG
LX51 LINKER/LOCATER V4.64.0.0                                                         06/11/2018  11:54:47  PAGE 24


  +--> BOOTLOADABLE_LOAD/BOOTLOADABLE

_LCRCHECKSUM/UTILS                            ----- -----  007CH 007DH  ----- -----  0B00H 0B02H

CMD_GET_MEASUREMENTS/COMMAND_PROCESSING       ----- -----  0067H 0067H  ----- -----  0029H 0030H
  +--> _LCRCHECKSUM/UTILS
  +--> _COMMWRITE/COMMAND_PROCESSING

CMD_GET_INPUTS/COMMAND_PROCESSING             ----- -----  ----- -----  ----- -----  0029H 002EH
  +--> _LCRCHECKSUM/UTILS
  +--> _COMMWRITE/COMMAND_PROCESSING

CMD_GET_CURRENTS/COMMAND_PROCESSING           ----- -----  ----- -----  ----- -----  0029H 002EH
  +--> _LCRCHECKSUM/UTILS
  +--> _COMMWRITE/COMMAND_PROCESSING

CMD_GET_CURR_AND_MEAS/COMMAND_PROCESSING      ----- -----  0067H 0067H  ----- -----  0029H 0034H
  +--> _LCRCHECKSUM/UTILS
  +--> _COMMWRITE/COMMAND_PROCESSING

CMD_SET_INPUTS/COMMAND_PROCESSING             ----- -----  ----- -----  ----- -----  ----- -----

CMD_SET_POS_STIFF/COMMAND_PROCESSING          ----- -----  0067H 006EH  ----- -----  ----- -----

CMD_GET_VELOCITIES/COMMAND_PROCESSING         ----- -----  0067H 0067H  ----- -----  0029H 0030H
  +--> _LCRCHECKSUM/UTILS
  +--> _COMMWRITE/COMMAND_PROCESSING

CMD_ACTIVATE/COMMAND_PROCESSING               ----- -----  ----- -----  ----- -----  ----- -----
  +--> _MOTOR_ON_OFF_WRITE/MOTOR_ON_OFF

CMD_SET_WATCHDOG/COMMAND_PROCESSING           ----- -----  ----- -----  ----- -----  ----- -----
  +--> _WATCHDOG_ENABLER_WRITE/WATCHDOG_ENABLER
  +--> _WATCHDOG_COUNTER_WRITEPERIOD/WATCHDOG_COUNTER

CMD_GET_ACTIVATE/COMMAND_PROCESSING           ----- -----  ----- -----  ----- -----  0029H 002BH
  +--> _LCRCHECKSUM/UTILS
  +--> _COMMWRITE/COMMAND_PROCESSING

CMD_SET_BAUDRATE/COMMAND_PROCESSING           ----- -----  ----- -----  ----- -----  ----- -----
  +--> _CLOCK_UART_SETDIVIDERREGISTER/CLOCK_UART

_CLOCK_UART_SETDIVIDERREGISTER/CLOCK_UAR+     ----- -----  ----- -----  ----- -----  0029H 002FH
... T
  +--> CLOCK_UART_GETSOURCEREGISTER/CLOCK_UART
  +--> CLOCK_UART_GETDIVIDERREGISTER/CLOCK_UART
  +--> CYWRITE16/CYMEM

CLOCK_UART_GETSOURCEREGISTER/CLOCK_UART       ----- -----  ----- -----  ----- -----  ----- -----

CLOCK_UART_GETDIVIDERREGISTER/CLOCK_UART      ----- -----  ----- -----  ----- -----  ----- -----
  +--> CYREAD16/CYMEM

SETZEROS/COMMAND_PROCESSING                   ----- -----  0067H 0067H  ----- -----  ----- -----
  +--> _SENDACKNOWLEDGMENT/COMMAND_PROCESSING

_GET_PARAM_LIST/COMMAND_PROCESSING            ----- -----  0067H 007BH  ----- -----  0029H 0AFFH
  +--> ?CO?COMMAND_PROCESSING
  +--> _STRLEN/STRLEN
  +--> _STRCAT/STRCAT
  +--> _LCRCHECKSUM/UTILS
  +--> _COMMWRITE/COMMAND_PROCESSING
  +--> UART_RS485_CLEARTXBUFFER/UART_RS485

_STRLEN/STRLEN                                ----- -----  ----- -----  ----- -----  ----- -----
LX51 LINKER/LOCATER V4.64.0.0                                                         06/11/2018  11:54:47  PAGE 25



CMD_PING/COMMAND_PROCESSING                   ----- -----  ----- -----  ----- -----  0029H 002AH
  +--> _COMMWRITE/COMMAND_PROCESSING

CMD_STORE_PARAMS/COMMAND_PROCESSING           ----- -----  0067H 006AH  ----- -----  ----- -----
  +--> _MEMSTORE/COMMAND_PROCESSING
  +--> _COMMWRITE_OLD_ID/COMMAND_PROCESSING
  +--> _SENDACKNOWLEDGMENT/COMMAND_PROCESSING

_COMMWRITE_OLD_ID/COMMAND_PROCESSING          ----- -----  006BH 006CH  ----- -----  0029H 002EH
  +--> _UART_RS485_PUTCHAR/UART_RS485
  +--> UART_RS485_READTXSTATUS/UART_RS485
  +--> _RS485_CTS_WRITE/RS485_CTS

BOOTLOADABLE_LOAD/BOOTLOADABLE                ----- -----  ----- -----  ----- -----  ----- -----
  +--> CYSOFTWARERESET/CYLIB

CYSOFTWARERESET/CYLIB                         ----- -----  ----- -----  ----- -----  ----- -----

_MOTOR_CONTROL/INTERRUPTIONS                  ----- -----  0023H 0063H  ----- -----  ----- -----
  +--> INTERRUPT_MANAGER/INTERRUPTIONS
  +--> _ABS/ABS
  +--> _MOTOR_DIR_WRITE/MOTOR_DIR
  +--> _PWM_MOTORS_WRITECOMPARE1/PWM_MOTORS
  +--> _PWM_MOTORS_WRITECOMPARE2/PWM_MOTORS

ANALOG_READ_END/INTERRUPTIONS                 ----- -----  ----- -----  ----- -----  ----- -----
  +--> ADC_STATUS_READ/ADC_STATUS
  +--> INTERRUPT_MANAGER/INTERRUPTIONS
  +--> PWM_LIMIT_SEARCH/INTERRUPTIONS
  +--> _FILTER_I1/UTILS
  +--> _FILTER_I2/UTILS

ADC_STATUS_READ/ADC_STATUS                    ----- -----  ----- -----  ----- -----  ----- -----

PWM_LIMIT_SEARCH/INTERRUPTIONS                ----- -----  0023H 0027H  ----- -----  ----- -----
  +--> ?CO?INTERRUPTIONS

?CO?INTERRUPTIONS                             ----- -----  ----- -----  ----- -----  ----- -----

_FILTER_I1/UTILS                              ----- -----  ----- -----  ----- -----  ----- -----

_FILTER_I2/UTILS                              ----- -----  ----- -----  ----- -----  ----- -----

PRETENSIONING_PROCESS/INTERRUPTIONS           ----- -----  ----- -----  ----- -----  0003H 0007H

DRIVE_CUFF/COMMAND_PROCESSING                 ----- -----  ----- -----  ----- -----  0003H 001EH
  +--> _COMMWRITE/COMMAND_PROCESSING
  +--> MY_TIMER_READCOUNTER/MY_TIMER
  +--> INTERRUPT_MANAGER/INTERRUPTIONS

SLIDE_CUFF/COMMAND_PROCESSING                 ----- -----  ----- -----  ----- -----  0003H 001EH
  +--> _COMMWRITE/COMMAND_PROCESSING
  +--> MY_TIMER_READCOUNTER/MY_TIMER
  +--> INTERRUPT_MANAGER/INTERRUPTIONS

FORCE_AND_SLIDE_CUFF/COMMAND_PROCESSING       ----- -----  ----- -----  ----- -----  0003H 0028H
  +--> _COMMWRITE/COMMAND_PROCESSING
  +--> MY_TIMER_READCOUNTER/MY_TIMER
  +--> INTERRUPT_MANAGER/INTERRUPTIONS

FF_STATUS_READ/FF_STATUS                      ----- -----  ----- -----  ----- -----  ----- -----

_WATCHDOG_REFRESH_WRITE/WATCHDOG_REFRESH      ----- -----  ----- -----  ----- -----  ----- -----

LX51 LINKER/LOCATER V4.64.0.0                                                         06/11/2018  11:54:47  PAGE 26


UART_RS485_READRXSTATUS/UART_RS485            ----- -----  ----- -----  ----- -----  ----- -----

?C_INITSEG                                    ----- -----  ----- -----  ----- -----  ----- -----

*** NEW ROOT ********************************

UART_RS485_RXISR/UART_RS485_INT               ----- -----  ----- -----  ----- -----  ----- -----

*** NEW ROOT ********************************

ADC_ISR1/ADC_INT                              ----- -----  ----- -----  ----- -----  ----- -----

*** NEW ROOT ********************************

ADC_ISR2/ADC_INT                              ----- -----  ----- -----  ----- -----  ----- -----

*** NEW ROOT ********************************

ADC_ISR3/ADC_INT                              ----- -----  ----- -----  ----- -----  ----- -----

*** NEW ROOT ********************************

ADC_ISR4/ADC_INT                              ----- -----  ----- -----  ----- -----  ----- -----



PUBLIC SYMBOLS OF MODULE:  .\DP8051_Keil_951\Release\cuff_mod_firmware.omf (COMMAND_PROCESSING)


      VALUE       CLASS    TYPE      PUBLIC SYMBOL NAME
      =================================================
*DEL*:00000000H   XDATA    BYTE      ?_Bootloadable_SetFlashByte?BYTE
      02000B00H   XDATA    BYTE      ?_commWrite?BYTE
      02000029H   XDATA    BYTE      ?_commWrite_old_id?BYTE
      02000000H   XDATA    BYTE      ?_cyconfigcpy?BYTE
      02000009H   XDATA    BYTE      ?_CyDmaChSetConfiguration?BYTE
*DEL*:00000000H   XDATA    BYTE      ?_CyDmaChStatus?BYTE
*DEL*:00000000H   XDATA    BYTE      ?_CyDmaTdGetAddress?BYTE
*DEL*:00000000H   XDATA    BYTE      ?_CyDmaTdGetConfiguration?BYTE
      02000003H   XDATA    BYTE      ?_CyDmaTdSetConfiguration?BYTE
*DEL*:00000000H   XDATA    BYTE      ?_CySpcLoadMultiByte?BYTE
      02000035H   XDATA    BYTE      ?_CySpcLoadRow?BYTE
*DEL*:00000000H   XDATA    BYTE      ?_CySpcLoadRowFull?BYTE
      02000035H   XDATA    BYTE      ?_CySpcWriteRow?BYTE
*DEL*:00000000H   XDATA    BYTE      ?_CyWriteRowFull?BYTE
      02000003H   XDATA    BYTE      ?_DMA_DmaInitialize?BYTE
      0200063AH   XDATA    ---       ?_PRINTF?BYTE
      0200063AH   XDATA    ---       ?_SPRINTF?BYTE
      02000B00H   XDATA    ---       ?_strcat?BYTE
      01007756H   CODE     ---       ?C?ADDXBP
      0100717DH   CODE     ---       ?C?CASTF
      01007730H   CODE     ---       ?C?CCASE
      010074C1H   CODE     ---       ?C?CLDOPTR
      010074A8H   CODE     ---       ?C?CLDPTR
      00000000H   NUMBER   ---       ?C?CODESEG
      01007863H   CODE     ---       ?C?COPYAMD
      010074EEH   CODE     ---       ?C?CSTPTR
      01007149H   CODE     ---       ?C?FCASTC
      01007144H   CODE     ---       ?C?FCASTI
      0100713FH   CODE     ---       ?C?FCASTL
      01007347H   CODE     ---       ?C?FPADD
      010070C8H   CODE     ---       ?C?FPCMP
      010070C6H   CODE     ---       ?C?FPCMP3
      0100723BH   CODE     ---       ?C?FPCONVERT
      01007029H   CODE     ---       ?C?FPDIV
LX51 LINKER/LOCATER V4.64.0.0                                                         06/11/2018  11:54:47  PAGE 27


      010071B4H   CODE     ---       ?C?FPGETOPN2
      01006F20H   CODE     ---       ?C?FPMUL
      010071E9H   CODE     ---       ?C?FPNANRESULT
      010071F3H   CODE     ---       ?C?FPOVERFLOW
      010071CBH   CODE     ---       ?C?FPRESULT
      010071DFH   CODE     ---       ?C?FPRESULT2
      010071FEH   CODE     ---       ?C?FPROUND
      01007343H   CODE     ---       ?C?FPSUB
      010071F0H   CODE     ---       ?C?FPUNDERFLOW
      01007468H   CODE     ---       ?C?FTNPWR
      0100795EH   CODE     ---       ?C?IILDX
      01007974H   CODE     ---       ?C?ILDIX
      01007500H   CODE     ---       ?C?IMUL
      01007512H   CODE     ---       ?C?ISTPTR
      0100777AH   CODE     ---       ?C?LIMUL
      010079AEH   CODE     ---       ?C?LLDCODE
      0100798AH   CODE     ---       ?C?LLDIDATA
      010079A2H   CODE     ---       ?C?LLDPDATA
      010076CAH   CODE     ---       ?C?LLDPTR
      01007996H   CODE     ---       ?C?LLDXDATA
      01007531H   CODE     ---       ?C?LMUL
      0100765BH   CODE     ---       ?C?LNEG
      0100764EH   CODE     ---       ?C?LNOT
      010076B7H   CODE     ---       ?C?LSHL
      010079BEH   CODE     ---       ?C?LSTIDATA
      010079CAH   CODE     ---       ?C?LSTPDATA
      010076EAH   CODE     ---       ?C?LSTPTR
      01007704H   CODE     ---       ?C?LSTXDATA
      01007710H   CODE     ---       ?C?PLDIXDATA
      01007727H   CODE     ---       ?C?PSTXDATA
      01007669H   CODE     ---       ?C?SLCMP
      0100B754H   CODE     ---       ?C?SLDIV
      010076A3H   CODE     ---       ?C?SLSHR
      01007941H   CODE     ---       ?C?STRCPYAMD
      0100767FH   CODE     ---       ?C?ULCMP
      010075BCH   CODE     ---       ?C?ULDIV
      01007690H   CODE     ---       ?C?ULSHR
      00000000H   NUMBER   ---       ?C?XDATASEG
      00000000H   NUMBER   ---       ?C?XPAGE1RST
      00000093H   DATA     BYTE      ?C?XPAGE1SFR
      0100A26FH   CODE     ---       ?C_START
      01002600H   CODE     NEAR LAB  ?C_STARTUP
      0000000EH   DATA     ---       ?C_XBP
      0100AD2EH   CODE     ---       _?CyDelay
*DEL*:00000000H   CODE     ---       _?CyDelayFreq
*DEL*:00000000H   CODE     ---       _?CyHalt
      0100C12EH   CODE     ---       _ABS
*DEL*:00000000H   CODE     ---       _ADC_AMux_FastSelect
      0100BE69H   CODE     ---       _ADC_AMux_Select
      0100BB66H   CODE     ---       _ADC_AMux_Set
      0100BAD4H   CODE     ---       _ADC_AMux_Unset
*DEL*:00000000H   CODE     ---       _ADC_CountsTo_mVolts
*DEL*:00000000H   CODE     ---       _ADC_CountsTo_uVolts
*DEL*:00000000H   CODE     ---       _ADC_CountsTo_Volts
*DEL*:00000000H   CODE     ---       _ADC_Ext_CP_Clk_ClearModeRegister
      01009BB4H   CODE     ---       _ADC_Ext_CP_Clk_SetDividerRegister
      0100C0F0H   CODE     ---       _ADC_Ext_CP_Clk_SetModeRegister
*DEL*:00000000H   CODE     ---       _ADC_Ext_CP_Clk_SetSourceRegister
*DEL*:00000000H   CODE     ---       _ADC_Ext_CP_Clk_StandbyPower
*DEL*:00000000H   CODE     ---       _ADC_IsEndConversion
*DEL*:00000000H   CODE     ---       _ADC_SelectConfiguration
*DEL*:00000000H   CODE     ---       _ADC_SetBufferGain
*DEL*:00000000H   CODE     ---       _ADC_SetCoherency
*DEL*:00000000H   CODE     ---       _ADC_SetGain
*DEL*:00000000H   CODE     ---       _ADC_SetGCOR
LX51 LINKER/LOCATER V4.64.0.0                                                         06/11/2018  11:54:47  PAGE 28


*DEL*:00000000H   CODE     ---       _ADC_SetOffset
      0100C2B7H   CODE     ---       _ADC_SOC_Write
*DEL*:00000000H   CODE     ---       _ADC_STATUS_WriteMask
*DEL*:00000000H   CODE     ---       _ADC_theACLK_ClearModeRegister
      01009E15H   CODE     ---       _ADC_theACLK_SetDividerRegister
      0100C0FDH   CODE     ---       _ADC_theACLK_SetModeRegister
*DEL*:00000000H   CODE     ---       _ADC_theACLK_SetPhaseRegister
*DEL*:00000000H   CODE     ---       _ADC_theACLK_SetSourceRegister
*DEL*:00000000H   CODE     ---       _ADC_theACLK_StandbyPower
*DEL*:00000000H   CODE     ---       _Bootloadable_SetFlashByte
*DEL*:00000000H   CODE     NEAR LAB  _cfg_write_bytes
*DEL*:00000000H   CODE     NEAR LAB  _cfg_write_bytes_code
      0100B1F7H   CODE     ---       _check_enc_data
*DEL*:00000000H   CODE     ---       _CLOCK_UART_ClearModeRegister
      01009CE5H   CODE     ---       _CLOCK_UART_SetDividerRegister
*DEL*:00000000H   CODE     ---       _CLOCK_UART_SetModeRegister
*DEL*:00000000H   CODE     ---       _CLOCK_UART_SetSourceRegister
*DEL*:00000000H   CODE     ---       _CLOCK_UART_StandbyPower
      0100AAE7H   CODE     ---       _commWrite
      0100AC19H   CODE     ---       _commWrite_old_id
      0100C24BH   CODE     ---       _COUNTER_ENC_SetInterruptMode
      0100C269H   CODE     ---       _COUNTER_ENC_WriteCompare
*DEL*:00000000H   CODE     ---       _COUNTER_ENC_WriteControlRegister
      0100C257H   CODE     ---       _COUNTER_ENC_WriteCounter
      0100C263H   CODE     ---       _COUNTER_ENC_WritePeriod
*DEL*:00000000H   CODE     ---       _CyBusClk_SetDivider
      0100BA3BH   CODE     NEAR LAB  _cyconfigcpy
      0100BCC1H   CODE     NEAR LAB  _cyconfigcpycode
*DEL*:00000000H   CODE     ---       _CyCpuClk_SetDivider
*DEL*:00000000H   CODE     NEAR LAB  _CyDelay
      0100BA00H   CODE     NEAR LAB  _CyDelayCycles
      0100BBF4H   CODE     NEAR LAB  _CyDelayUs
*DEL*:00000000H   CODE     ---       _CyDmacClearError
*DEL*:00000000H   CODE     ---       _CyDmaChDisable
      0100B632H   CODE     ---       _CyDmaChEnable
*DEL*:00000000H   CODE     ---       _CyDmaChFree
*DEL*:00000000H   CODE     ---       _CyDmaChGetRequest
      0100B81CH   CODE     ---       _CyDmaChPriority
*DEL*:00000000H   CODE     ---       _CyDmaChRoundRobin
      0100AEC0H   CODE     ---       _CyDmaChSetConfiguration
      0100AF39H   CODE     ---       _CyDmaChSetExtendedAddress
      0100BDC9H   CODE     ---       _CyDmaChSetInitialTd
*DEL*:00000000H   CODE     ---       _CyDmaChSetRequest
*DEL*:00000000H   CODE     ---       _CyDmaChStatus
*DEL*:00000000H   CODE     ---       _CyDmaClearPendingDrq
*DEL*:00000000H   CODE     ---       _CyDmaTdFree
*DEL*:00000000H   CODE     ---       _CyDmaTdGetAddress
*DEL*:00000000H   CODE     ---       _CyDmaTdGetConfiguration
      0100AFB1H   CODE     ---       _CyDmaTdSetAddress
      0100ADB6H   CODE     ---       _CyDmaTdSetConfiguration
*DEL*:00000000H   CODE     ---       _CyEnableInts
      0100BE9AH   CODE     NEAR LAB  _CyExitCriticalSection
*DEL*:00000000H   CODE     ---       _CyFlash_SetWaitCycles
*DEL*:00000000H   CODE     ---       _CyGetUniqueId
*DEL*:00000000H   CODE     ---       _CyILO_SetPowerMode
*DEL*:00000000H   CODE     ---       _CyILO_SetSource
*DEL*:00000000H   CODE     ---       _CyIMO_SetFreq
*DEL*:00000000H   CODE     ---       _CyIMO_SetSource
*DEL*:00000000H   CODE     ---       _CyIMO_Start
*DEL*:00000000H   CODE     ---       _CyIntGetPriority
*DEL*:00000000H   CODE     ---       _CyIntGetState
*DEL*:00000000H   CODE     ---       _CyIntGetVector
      0100BE50H   CODE     ---       _CyIntSetPriority
      0100B49EH   CODE     ---       _CyIntSetVector
*DEL*:00000000H   CODE     ---       _CyMasterClk_SetDivider
LX51 LINKER/LOCATER V4.64.0.0                                                         06/11/2018  11:54:47  PAGE 29


*DEL*:00000000H   CODE     ---       _CyMasterClk_SetSource
*DEL*:00000000H   CODE     NEAR LAB  _cymemzero
*DEL*:00000000H   CODE     ---       _CyPLL_OUT_SetPQ
*DEL*:00000000H   CODE     ---       _CyPLL_OUT_SetSource
*DEL*:00000000H   CODE     ---       _CyPLL_OUT_Start
*DEL*:00000000H   CODE     ---       _CyPmAltAct
*DEL*:00000000H   CODE     ---       _CyPmCtwSetInterval
*DEL*:00000000H   CODE     ---       _CyPmFtwSetInterval
*DEL*:00000000H   CODE     ---       _CyPmHibernateEx
*DEL*:00000000H   CODE     ---       _CyPmReadStatus
*DEL*:00000000H   CODE     ---       _CyPmSleep
      0100C049H   CODE     NEAR LAB  _cyread16
      0100C04BH   CODE     NEAR LAB  _cyread16_nodpx
      0100BFE1H   CODE     NEAR LAB  _cyread24
      0100BFE3H   CODE     NEAR LAB  _cyread24_nodpx
*DEL*:00000000H   CODE     NEAR LAB  _cyread32
*DEL*:00000002H   CODE     NEAR LAB  _cyread32_nodpx
      0100C10AH   CODE     NEAR LAB  _cyread8
      0100C10CH   CODE     NEAR LAB  _cyread8_nodpx
*DEL*:00000000H   CODE     ---       _CySetFlashEEBuffer
*DEL*:00000000H   CODE     ---       _CySpcEraseSector
      0100BBC5H   CODE     ---       _CySpcGetTemp
*DEL*:00000000H   CODE     ---       _CySpcLoadMultiByte
      0100B113H   CODE     ---       _CySpcLoadRow
*DEL*:00000000H   CODE     ---       _CySpcLoadRowFull
      0100B333H   CODE     ---       _CySpcReadData
      0100B4F2H   CODE     ---       _CySpcWriteRow
*DEL*:00000000H   CODE     ---       _CyUsbClk_SetSource
*DEL*:00000000H   CODE     ---       _CyVdLvAnalogEnable
*DEL*:00000000H   CODE     ---       _CyVdLvDigitEnable
*DEL*:00000000H   CODE     ---       _CyVdStickyStatus
*DEL*:00000000H   CODE     ---       _CyWdtStart
      0100C058H   CODE     NEAR LAB  _cywrite16
      0100C05AH   CODE     NEAR LAB  _cywrite16_nodpx
      0100C006H   CODE     NEAR LAB  _cywrite24
      0100C008H   CODE     NEAR LAB  _cywrite24_nodpx
*DEL*:00000000H   CODE     NEAR LAB  _cywrite32
*DEL*:00000002H   CODE     NEAR LAB  _cywrite32_nodpx
      0100C116H   CODE     NEAR LAB  _cywrite8
      0100C118H   CODE     NEAR LAB  _cywrite8_nodpx
*DEL*:00000000H   CODE     ---       _CyWriteRowData
*DEL*:00000000H   CODE     ---       _CyWriteRowFull
*DEL*:00000000H   CODE     ---       _CyXTAL_32KHZ_SetPowerMode
*DEL*:00000000H   CODE     ---       _CyXTAL_SetFbVoltage
*DEL*:00000000H   CODE     ---       _CyXTAL_SetStartup
*DEL*:00000000H   CODE     ---       _CyXTAL_SetWdVoltage
*DEL*:00000000H   CODE     ---       _CyXTAL_Start
      0100B67DH   CODE     ---       _DMA_DmaInitialize
      01002604H   CODE     NEAR LAB  _dma_wait
*DEL*:00000000H   CODE     ---       _EEPROM_ByteWritePos
*DEL*:00000000H   CODE     ---       _EEPROM_EraseSector
*DEL*:00000000H   CODE     ---       _EEPROM_ReadByte
*DEL*:00000000H   CODE     ---       _EEPROM_StartErase
*DEL*:00000000H   CODE     ---       _EEPROM_StartWrite
      0100A69FH   CODE     ---       _EEPROM_Write
*DEL*:00000000H   CODE     ---       _EEPROM_WriteByte
      010085C5H   CODE     ---       _encoder_reading
*DEL*:00000000H   CODE     ---       _FF_STATUS_WriteMask
      0100B029H   CODE     ---       _filter_i1
      0100B09EH   CODE     ---       _filter_i2
*DEL*:00000000H   CODE     ---       _filter_vel_1
*DEL*:00000000H   CODE     ---       _filter_vel_2
*DEL*:00000000H   CODE     ---       _filter_vel_3
      0100C293H   CODE     ---       _FTDI_ENABLE_REG_Write
      0100261AH   CODE     ---       _get_param_list
LX51 LINKER/LOCATER V4.64.0.0                                                         06/11/2018  11:54:47  PAGE 30


      0100BE1EH   CODE     ---       _infoGet
      01003E71H   CODE     ---       _infoPrepare
      0100C150H   CODE     ---       _ISR_RS485_RX_SetPriority
      0100C067H   CODE     ---       _ISR_RS485_RX_SetVector
      0100BD6CH   CODE     ---       _ISR_RS485_RX_StartEx
      0100C1B4H   CODE     ---       _ISR_WATCHDOG_SetPriority
      0100C0ADH   CODE     ---       _ISR_WATCHDOG_SetVector
      0100BD8BH   CODE     ---       _ISR_WATCHDOG_StartEx
      0100BAA2H   CODE     ---       _LCRChecksum
      0100A77EH   CODE     ---       _memStore
      010061E4H   CODE     ---       _motor_control
      0100C2ABH   CODE     ---       _MOTOR_DIR_Write
      0100C281H   CODE     ---       _MOTOR_ON_OFF_Write
      0100C287H   CODE     ---       _MY_TIMER_SetInterruptMode
*DEL*:00000000H   CODE     ---       _MY_TIMER_WriteControlRegister
      0100C1AAH   CODE     ---       _MY_TIMER_WriteCounter
      0100C196H   CODE     ---       _MY_TIMER_WritePeriod
      0100C299H   CODE     ---       _PACER_TIMER_SetInterruptMode
*DEL*:00000000H   CODE     ---       _PACER_TIMER_WriteControlRegister
      0100C09FH   CODE     ---       _PACER_TIMER_WriteCounter
      0100C091H   CODE     ---       _PACER_TIMER_WritePeriod
      01007A41H   CODE     ---       _PRINTF
      0100BC74H   CODE     ---       _PUTCHAR
      0100C23FH   CODE     ---       _PWM_MOTORS_WriteCompare1
      0100C245H   CODE     ---       _PWM_MOTORS_WriteCompare2
*DEL*:00000000H   CODE     ---       _PWM_MOTORS_WriteControlRegister
      0100C233H   CODE     ---       _PWM_MOTORS_WriteCounter
      0100C239H   CODE     ---       _PWM_MOTORS_WritePeriod
      0100C2A5H   CODE     ---       _RESET_FF_Write
      0100C27BH   CODE     ---       _RS485_CTS_Write
      0100B9EAH   CODE     ---       _sendAcknowledgment
*DEL*:00000000H   CODE     ---       _SetAnalogRoutingPumps
*DEL*:00000000H   CODE     ---       _SHIFTREG_ENC_1_GetFIFOStatus
      0100C018H   CODE     ---       _SHIFTREG_ENC_1_SetIntMode
*DEL*:00000000H   CODE     ---       _SHIFTREG_ENC_1_WriteRegValue
*DEL*:00000000H   CODE     ---       _SHIFTREG_ENC_2_GetFIFOStatus
      0100C029H   CODE     ---       _SHIFTREG_ENC_2_SetIntMode
*DEL*:00000000H   CODE     ---       _SHIFTREG_ENC_2_WriteRegValue
*DEL*:00000000H   CODE     ---       _SHIFTREG_ENC_3_GetFIFOStatus
*DEL*:00000000H   CODE     ---       _SHIFTREG_ENC_3_SetIntMode
*DEL*:00000000H   CODE     ---       _SHIFTREG_ENC_3_WriteRegValue
*DEL*:00000000H   CODE     ---       _SHIFTREG_ENC_4_GetFIFOStatus
*DEL*:00000000H   CODE     ---       _SHIFTREG_ENC_4_SetIntMode
*DEL*:00000000H   CODE     ---       _SHIFTREG_ENC_4_WriteRegValue
      01007A3BH   CODE     ---       _SPRINTF
      0100B262H   CODE     ---       _strcat
      0100BF20H   CODE     ---       _STRLEN
*DEL*:00000000H   CODE     ---       _UART_RS485_PutArray
      0100C0C9H   CODE     ---       _UART_RS485_PutChar
*DEL*:00000000H   CODE     ---       _UART_RS485_PutCRLF
      0100B9B6H   CODE     ---       _UART_RS485_PutString
*DEL*:00000000H   CODE     ---       _UART_RS485_SendBreak
*DEL*:00000000H   CODE     ---       _UART_RS485_SetRxAddress1
*DEL*:00000000H   CODE     ---       _UART_RS485_SetRxAddress2
*DEL*:00000000H   CODE     ---       _UART_RS485_SetRxAddressMode
*DEL*:00000000H   CODE     ---       _UART_RS485_SetRxInterruptMode
*DEL*:00000000H   CODE     ---       _UART_RS485_SetTxAddressMode
*DEL*:00000000H   CODE     ---       _UART_RS485_SetTxInterruptMode
*DEL*:00000000H   CODE     ---       _UART_RS485_WriteControlRegister
*DEL*:00000000H   CODE     ---       _UART_RS485_WriteTxData
      0100C2BDH   CODE     ---       _WATCHDOG_COUNTER_SetInterruptMode
*DEL*:00000000H   CODE     ---       _WATCHDOG_COUNTER_WriteControlRegister
      0100BDE7H   CODE     ---       _WATCHDOG_COUNTER_WriteCounter
      0100C0BBH   CODE     ---       _WATCHDOG_COUNTER_WritePeriod
      0100C2C3H   CODE     ---       _WATCHDOG_ENABLER_Write
LX51 LINKER/LOCATER V4.64.0.0                                                         06/11/2018  11:54:47  PAGE 31


      0100C2C9H   CODE     ---       _WATCHDOG_REFRESH_Write
*SFR* 000000D0H.6 DATA     BIT       AC
*SFR* 000000E0H   DATA     BYTE      ACC
      0100CE0EH   CONST    ---       ADC_AMux__addrTable
      0100CE12H   CONST    ---       ADC_AMux__maskTable
      0100BD2BH   CODE     ---       ADC_AMux_Start
      02000CF1H   XDATA    ---       ADC_buf
      02000E58H   XDATA    BYTE      ADC_Config
      02000E63H   XDATA    BYTE      ADC_convDone
      02000E64H   XDATA    LONG      ADC_CountsPerVolt
      0100ACA6H   CODE     ---       ADC_Enable
      0100C1BEH   CODE     ---       ADC_Ext_CP_Clk_GetDividerRegister
*DEL*:00000000H   CODE     ---       ADC_Ext_CP_Clk_GetModeRegister
      0100C1FAH   CODE     ---       ADC_Ext_CP_Clk_GetSourceRegister
*DEL*:00000000H   CODE     ---       ADC_Ext_CP_Clk_Start
*DEL*:00000000H   CODE     ---       ADC_Ext_CP_Clk_Stop
*DEL*:00000000H   CODE     ---       ADC_Ext_CP_Clk_StopBlock
*DEL*:00000000H   CODE     ---       ADC_GetResult16
*DEL*:00000000H   CODE     ---       ADC_GetResult32
*DEL*:00000000H   CODE     ---       ADC_GetResult8
      0100A830H   CODE     ---       ADC_Init
      02000E59H   XDATA    BYTE      ADC_initVar
      0100C2E1H   CODE     ---       ADC_ISR1
      0100C2E2H   CODE     ---       ADC_ISR2
      0100C2E3H   CODE     ---       ADC_ISR3
      0100C2E4H   CODE     ---       ADC_ISR4
      02000E5AH   XDATA    LONG      ADC_Offset
*DEL*:00000000H   CODE     ---       ADC_Read16
*DEL*:00000000H   CODE     ---       ADC_Read32
*DEL*:00000000H   CODE     ---       ADC_Read8
*DEL*:00000000H   CODE     ---       ADC_ReadGCOR
*DEL*:00000000H   CODE     ---       ADC_SOC_Read
      0100BE37H   CODE     ---       ADC_Start
*DEL*:00000000H   CODE     ---       ADC_StartConvert
      02000E5FH   XDATA    BYTE      ADC_started
*DEL*:00000000H   CODE     ---       ADC_STATUS_InterruptDisable
*DEL*:00000000H   CODE     ---       ADC_STATUS_InterruptEnable
      0100C2B1H   CODE     ---       ADC_STATUS_Read
*DEL*:00000000H   CODE     ---       ADC_STATUS_ReadMask
*DEL*:00000000H   CODE     ---       ADC_Stop
      02000E5EH   XDATA    BYTE      ADC_stopConversion
*DEL*:00000000H   CODE     ---       ADC_StopConvert
      0100C1C8H   CODE     ---       ADC_theACLK_GetDividerRegister
*DEL*:00000000H   CODE     ---       ADC_theACLK_GetModeRegister
*DEL*:00000000H   CODE     ---       ADC_theACLK_GetPhaseRegister
      0100C202H   CODE     ---       ADC_theACLK_GetSourceRegister
*DEL*:00000000H   CODE     ---       ADC_theACLK_Start
*DEL*:00000000H   CODE     ---       ADC_theACLK_Stop
*DEL*:00000000H   CODE     ---       ADC_theACLK_StopBlock
      0100A3CBH   CODE     ---       analog_read_end
*SFR* 000000F0H   DATA     BYTE      B
      0100C18CH   CODE     ---       Bootloadable_Load
      02000B09H   XDATA    ---       c_mem
      02000C26H   XDATA    BYTE      calibration_flag
      0100C15AH   CODE     ---       CLOCK_UART_GetDividerRegister
*DEL*:00000000H   CODE     ---       CLOCK_UART_GetModeRegister
      0100C1DAH   CODE     ---       CLOCK_UART_GetSourceRegister
*DEL*:00000000H   CODE     ---       CLOCK_UART_Start
*DEL*:00000000H   CODE     ---       CLOCK_UART_Stop
*DEL*:00000000H   CODE     ---       CLOCK_UART_StopBlock
      0100B798H   CODE     ---       cmd_activate
      0100BB36H   CODE     ---       cmd_get_activate
      0100AB8AH   CODE     ---       cmd_get_curr_and_meas
      0100B70EH   CODE     ---       cmd_get_currents
      0100B2CDH   CODE     ---       cmd_get_inputs
LX51 LINKER/LOCATER V4.64.0.0                                                         06/11/2018  11:54:47  PAGE 32


      0100B186H   CODE     ---       cmd_get_measurements
      0100B3EEH   CODE     ---       cmd_get_velocities
      0100BE82H   CODE     ---       cmd_ping
      0100BD4CH   CODE     ---       cmd_set_baudrate
      01009A72H   CODE     ---       cmd_set_inputs
      010097C1H   CODE     ---       cmd_set_pos_stiff
      0100B7DBH   CODE     ---       cmd_set_watchdog
      01008295H   CODE     ---       cmd_store_params
      01009F44H   CODE     ---       commProcess
      0100C0D6H   CODE     ---       COUNTER_ENC_ClearFIFO
      0100C1E2H   CODE     ---       COUNTER_ENC_Enable
      0100B981H   CODE     ---       COUNTER_ENC_Init
      02000E89H   XDATA    BYTE      COUNTER_ENC_initVar
      0100C25DH   CODE     ---       COUNTER_ENC_ReadCapture
*DEL*:00000000H   CODE     ---       COUNTER_ENC_ReadCompare
*DEL*:00000000H   CODE     ---       COUNTER_ENC_ReadControlRegister
*DEL*:00000000H   CODE     ---       COUNTER_ENC_ReadCounter
*DEL*:00000000H   CODE     ---       COUNTER_ENC_ReadPeriod
      0100C251H   CODE     ---       COUNTER_ENC_ReadStatusRegister
      0100BF6FH   CODE     ---       COUNTER_ENC_Start
*DEL*:00000000H   CODE     ---       COUNTER_ENC_Stop
      00000021H.5 BIT      BIT       cuff_flag_force
      00000021H.2 BIT      BIT       cuff_flag_force_proprio
      00000021H.4 BIT      BIT       cuff_flag_proprio
*SFR* 000000D0H.7 DATA     BIT       CY
      02000E73H   XDATA    DWORD     cydelay_32k_ms
      02000E6EH   XDATA    DWORD     cydelay_freq_hz
      02000E69H   XDATA    DWORD     cydelay_freq_khz
      02000E6DH   XDATA    BYTE      cydelay_freq_mhz
*DEL*:00000000H   CODE     ---       CyDisableInts
      0100B94BH   CODE     ---       CyDmacConfigure
*DEL*:00000000H   CODE     ---       CyDmacError
*DEL*:00000000H   CODE     ---       CyDmacErrorAddress
*DEL*:00000000H   CODE     ---       CyDmaChAlloc
      0100B85CH   CODE     ---       CyDmaTdAllocate
*DEL*:00000000H   CODE     ---       CyDmaTdFreeCount
*DEL*:00000000H   CODE     ---       CyEEPROM_ReadRelease
*DEL*:00000000H   CODE     ---       CyEEPROM_ReadReserve
      0100BB05H   CODE     ---       CyEEPROM_Start
*DEL*:00000000H   CODE     ---       CyEEPROM_Stop
      0100BEF6H   CODE     NEAR LAB  CyEnterCriticalSection
      0100A2B4H   CODE     ---       cyfitter_cfg
*DEL*:00000000H   CODE     ---       CyFlash_Start
*DEL*:00000000H   CODE     ---       CyFlash_Stop
*DEL*:00000000H   CODE     ---       CyILO_Disable33K
*DEL*:00000000H   CODE     ---       CyILO_Enable33K
*DEL*:00000000H   CODE     ---       CyILO_Start100K
*DEL*:00000000H   CODE     ---       CyILO_Start1K
*DEL*:00000000H   CODE     ---       CyILO_Stop100K
*DEL*:00000000H   CODE     ---       CyILO_Stop1K
*DEL*:00000000H   CODE     ---       CyIMO_DisableDoubler
*DEL*:00000000H   CODE     ---       CyIMO_EnableDoubler
*DEL*:00000000H   CODE     ---       CyIMO_Stop
*DEL*:00000000H   CODE     ---       CyPLL_OUT_Stop
*DEL*:00000000H   CODE     ---       CyPmHibernate
*DEL*:00000000H   CODE     ---       CyPmOppsSet
*DEL*:00000000H   CODE     ---       CyPmRestoreClocks
*DEL*:00000000H   CODE     ---       CyPmSaveClocks
      02000E72H   XDATA    BYTE      CyResetStatus
      0100BEB2H   CODE     ---       CySetTemp
      0100C1F2H   CODE     ---       CySoftwareReset
      0100BE03H   CODE     ---       CySpcGetAlgorithm
      0100BDAAH   CODE     ---       CySpcLock
      0100BF0BH   CODE     ---       CySpcStart
*DEL*:00000000H   CODE     ---       CySpcStop
LX51 LINKER/LOCATER V4.64.0.0                                                         06/11/2018  11:54:47  PAGE 33


      0100C122H   CODE     ---       CySpcUnlock
*DEL*:00000000H   CODE     ---       CyVdHvAnalogDisable
*DEL*:00000000H   CODE     ---       CyVdHvAnalogEnable
*DEL*:00000000H   CODE     ---       CyVdLvAnalogDisable
*DEL*:00000000H   CODE     ---       CyVdLvDigitDisable
*DEL*:00000000H   CODE     ---       CyVdRealTimeStatus
*DEL*:00000000H   CODE     ---       CyWdtClear
*DEL*:00000000H   CODE     ---       CyXTAL_32KHZ_ReadStatus
*DEL*:00000000H   CODE     ---       CyXTAL_32KHZ_Start
*DEL*:00000000H   CODE     ---       CyXTAL_32KHZ_Stop
*DEL*:00000000H   CODE     ---       CyXTAL_DisableErrStatus
*DEL*:00000000H   CODE     ---       CyXTAL_DisableFaultRecovery
*DEL*:00000000H   CODE     ---       CyXTAL_EnableErrStatus
*DEL*:00000000H   CODE     ---       CyXTAL_EnableFaultRecovery
*DEL*:00000000H   CODE     ---       CyXTAL_ReadStatus
*DEL*:00000000H   CODE     ---       CyXTAL_Stop
      02000D18H   XDATA    BYTE      dev_pwm_limit
      02000C4AH   XDATA    LONG      dev_tension
      02000E80H   XDATA    ---       dieTemperature
      02000E90H   XDATA    BYTE      DMA_DmaHandle
*DEL*:00000000H   CODE     ---       DMA_DmaRelease
*SFR* 00000083H   DATA     BYTE      DPH
*SFR* 00000085H   DATA     BYTE      DPH1
*SFR* 00000082H   DATA     BYTE      DPL
*SFR* 00000084H   DATA     BYTE      DPL1
*SFR* 00000086H   DATA     BYTE      DPS
*SFR* 00000093H   DATA     BYTE      DPX
*SFR* 00000095H   DATA     BYTE      DPX1
      0100905CH   CODE     ---       drive_cuff
*SFR* 000000A8H.7 DATA     BIT       EA
      02000E86H   XDATA    ---       EEPROM_ADDR
      0100C218H   CODE     ---       EEPROM_Enable
*DEL*:00000000H   CODE     ---       EEPROM_Query
      0100C2CFH   CODE     ---       EEPROM_Start
*DEL*:00000000H   CODE     ---       EEPROM_Stop
      0100C2D3H   CODE     ---       EEPROM_UpdateTemperature
*SFR* 000000D0H.5 DATA     BIT       F0
*SFR* 000000D0H.1 DATA     BIT       F1
*DEL*:00000000H   CODE     ---       FF_STATUS_InterruptDisable
*DEL*:00000000H   CODE     ---       FF_STATUS_InterruptEnable
      0100C29FH   CODE     ---       FF_STATUS_Read
*DEL*:00000000H   CODE     ---       FF_STATUS_ReadMask
      01007E59H   CODE     ---       force_and_slide_cuff
*DEL*:00000000H   CODE     ---       FTDI_ENABLE_REG_Read
      0100A4CDH   CODE     ---       function_scheduler
      02000CF9H   XDATA    ---       g_meas
      02000C27H   XDATA    ---       g_measOld
      02000B9CH   XDATA    ---       g_mem
      02000B93H   XDATA    ---       g_ref
      02000CDCH   XDATA    ---       g_refNew
      02000C4EH   XDATA    ---       g_refOld
      02000C57H   XDATA    ---       g_rx
      0100CE59H   CONST    ---       hitech_pwm_preload_values
      0100CE7DH   CONST    ---       hitech_pwm_preload_values_6v
*SFR* 000000A8H   DATA     BYTE      IE
      00000022H.1 BIT      BIT       interrupt_flag
      0100992CH   CODE     ---       interrupt_manager
*DEL*:00000000H   CODE     ---       ISR_RS485_RX_ClearPending
      0100C211H   CODE     ---       ISR_RS485_RX_Disable
      0100C20AH   CODE     ---       ISR_RS485_RX_Enable
      0100C2DAH   CODE     ---       ISR_RS485_RX_ExInterrupt
*DEL*:00000000H   CODE     ---       ISR_RS485_RX_GetPriority
*DEL*:00000000H   CODE     ---       ISR_RS485_RX_GetState
*DEL*:00000000H   CODE     ---       ISR_RS485_RX_GetVector
      0100BBF3H   CODE     ---       ISR_RS485_RX_Interrupt
LX51 LINKER/LOCATER V4.64.0.0                                                         06/11/2018  11:54:47  PAGE 34


*DEL*:00000000H   CODE     ---       ISR_RS485_RX_SetPending
*DEL*:00000000H   CODE     ---       ISR_RS485_RX_Start
*DEL*:00000000H   CODE     ---       ISR_RS485_RX_Stop
*DEL*:00000000H   CODE     ---       ISR_WATCHDOG_ClearPending
      0100C226H   CODE     ---       ISR_WATCHDOG_Disable
      0100C21FH   CODE     ---       ISR_WATCHDOG_Enable
*DEL*:00000000H   CODE     ---       ISR_WATCHDOG_GetPriority
*DEL*:00000000H   CODE     ---       ISR_WATCHDOG_GetState
*DEL*:00000000H   CODE     ---       ISR_WATCHDOG_GetVector
      0100C2D7H   CODE     ---       ISR_WATCHDOG_Handler
      0100C2E0H   CODE     ---       ISR_WATCHDOG_Interrupt
*DEL*:00000000H   CODE     ---       ISR_WATCHDOG_SetPending
*DEL*:00000000H   CODE     ---       ISR_WATCHDOG_Start
*DEL*:00000000H   CODE     ---       ISR_WATCHDOG_Stop
      01008B92H   CODE     ---       main
      010092ADH   CODE     ---       memInit
      0100B5E5H   CODE     ---       memRecall
      0100B6C7H   CODE     ---       memRestore
*DEL*:00000000H   CODE     ---       MOTOR_DIR_Read
*DEL*:00000000H   CODE     ---       MOTOR_ON_OFF_Read
*SFR* 000000EAH   DATA     BYTE      MXAX
      0100C0E3H   CODE     ---       MY_TIMER_ClearFIFO
      0100C1EAH   CODE     ---       MY_TIMER_Enable
      0100BC21H   CODE     ---       MY_TIMER_Init
      02000E8EH   XDATA    BYTE      MY_TIMER_initVar
      0100C1A0H   CODE     ---       MY_TIMER_ReadCapture
*DEL*:00000000H   CODE     ---       MY_TIMER_ReadControlRegister
      0100C03AH   CODE     ---       MY_TIMER_ReadCounter
*DEL*:00000000H   CODE     ---       MY_TIMER_ReadPeriod
      0100C28DH   CODE     ---       MY_TIMER_ReadStatusRegister
*DEL*:00000000H   CODE     ---       MY_TIMER_SoftwareCapture
      0100BFA8H   CODE     ---       MY_TIMER_Start
*DEL*:00000000H   CODE     ---       MY_TIMER_Stop
*SFR* 000000D0H.2 DATA     BIT       OV
*SFR* 000000D0H   DATA     BIT       P
*SFR* 000000A0H   DATA     BYTE      P2AX
      0100BECAH   CODE     ---       PACER_TIMER_Enable
      0100B8D7H   CODE     ---       PACER_TIMER_Init
      02000E8FH   XDATA    BYTE      PACER_TIMER_initVar
*DEL*:00000000H   CODE     ---       PACER_TIMER_ReadCapture
*DEL*:00000000H   CODE     ---       PACER_TIMER_ReadControlRegister
*DEL*:00000000H   CODE     ---       PACER_TIMER_ReadCounter
*DEL*:00000000H   CODE     ---       PACER_TIMER_ReadPeriod
*DEL*:00000000H   CODE     ---       PACER_TIMER_ReadStatusRegister
*DEL*:00000000H   CODE     ---       PACER_TIMER_SoftwareCapture
      0100BFBBH   CODE     ---       PACER_TIMER_Start
*DEL*:00000000H   CODE     ---       PACER_TIMER_Stop
      00000021H.7 BIT      BIT       pret_done
      02000CE9H   XDATA    ---       pret_offset_pos
      00000021H.3 BIT      BIT       pretensioning_flag
      01008DFEH   CODE     ---       pretensioning_process
*SFR* 000000D0H   DATA     BYTE      PSW
      0100A070H   CODE     ---       pwm_limit_search
      0100C1D2H   CODE     ---       PWM_MOTORS_Enable
      0100BC9BH   CODE     ---       PWM_MOTORS_Init
      02000E88H   XDATA    BYTE      PWM_MOTORS_initVar
*DEL*:00000000H   CODE     ---       PWM_MOTORS_ReadCapture
*DEL*:00000000H   CODE     ---       PWM_MOTORS_ReadCompare1
*DEL*:00000000H   CODE     ---       PWM_MOTORS_ReadCompare2
*DEL*:00000000H   CODE     ---       PWM_MOTORS_ReadControlRegister
*DEL*:00000000H   CODE     ---       PWM_MOTORS_ReadCounter
*DEL*:00000000H   CODE     ---       PWM_MOTORS_ReadPeriod
      0100BF5CH   CODE     ---       PWM_MOTORS_Start
*DEL*:00000000H   CODE     ---       PWM_MOTORS_Stop
      0100CE3CH   CONST    ---       pwm_preload_values
LX51 LINKER/LOCATER V4.64.0.0                                                         06/11/2018  11:54:47  PAGE 35


      02000CF7H   XDATA    ---       pwm_sign
*DEL*:00000000H   CODE     ---       RESET_FF_Read
      00000021H.6 BIT      BIT       reset_last_value_flag
*SFR* 000000D0H.3 DATA     BIT       RS0
*SFR* 000000D0H.4 DATA     BIT       RS1
*DEL*:00000000H   CODE     ---       RS485_CTS_Read
      0100AE3DH   CODE     ---       setZeros
*SFR* 00000080H   DATA     BYTE      SFRPRT0DR
*SFR* 00000089H   DATA     BYTE      SFRPRT0PS
*SFR* 0000008AH   DATA     BYTE      SFRPRT0SEL
*SFR* 000000E8H   DATA     BYTE      SFRPRT12DR
*SFR* 000000E9H   DATA     BYTE      SFRPRT12PS
*SFR* 000000F2H   DATA     BYTE      SFRPRT12SEL
*SFR* 000000F8H   DATA     BYTE      SFRPRT15DR
*SFR* 000000F9H   DATA     BYTE      SFRPRT15PS
*SFR* 000000FAH   DATA     BYTE      SFRPRT15SEL
*SFR* 00000090H   DATA     BYTE      SFRPRT1DR
*SFR* 00000091H   DATA     BYTE      SFRPRT1PS
*SFR* 000000A2H   DATA     BYTE      SFRPRT1SEL
*SFR* 00000098H   DATA     BYTE      SFRPRT2DR
*SFR* 00000099H   DATA     BYTE      SFRPRT2PS
*SFR* 0000009AH   DATA     BYTE      SFRPRT2SEL
*SFR* 000000B0H   DATA     BYTE      SFRPRT3DR
*SFR* 000000B1H   DATA     BYTE      SFRPRT3PS
*SFR* 000000B2H   DATA     BYTE      SFRPRT3SEL
*SFR* 000000C0H   DATA     BYTE      SFRPRT4DR
*SFR* 000000C1H   DATA     BYTE      SFRPRT4PS
*SFR* 000000C2H   DATA     BYTE      SFRPRT4SEL
*SFR* 000000C8H   DATA     BYTE      SFRPRT5DR
*SFR* 000000C9H   DATA     BYTE      SFRPRT5PS
*SFR* 000000CAH   DATA     BYTE      SFRPRT5SEL
*SFR* 000000D8H   DATA     BYTE      SFRPRT6DR
*SFR* 000000D9H   DATA     BYTE      SFRPRT6PS
*SFR* 000000DAH   DATA     BYTE      SFRPRT6SEL
*DEL*:00000000H   CODE     ---       SHIFTREG_ENC_1_DisableInt
      0100C13AH   CODE     ---       SHIFTREG_ENC_1_Enable
      0100C075H   CODE     ---       SHIFTREG_ENC_1_EnableInt
*DEL*:00000000H   CODE     ---       SHIFTREG_ENC_1_GetIntStatus
      0100C26FH   CODE     ---       SHIFTREG_ENC_1_Init
      02000E8AH   XDATA    BYTE      SHIFTREG_ENC_1_initVar
      0100C164H   CODE     ---       SHIFTREG_ENC_1_ReadData
*DEL*:00000000H   CODE     ---       SHIFTREG_ENC_1_ReadRegValue
      0100BF82H   CODE     ---       SHIFTREG_ENC_1_Start
*DEL*:00000000H   CODE     ---       SHIFTREG_ENC_1_Stop
*DEL*:00000000H   CODE     ---       SHIFTREG_ENC_2_DisableInt
      0100C145H   CODE     ---       SHIFTREG_ENC_2_Enable
      0100C083H   CODE     ---       SHIFTREG_ENC_2_EnableInt
*DEL*:00000000H   CODE     ---       SHIFTREG_ENC_2_GetIntStatus
      0100C275H   CODE     ---       SHIFTREG_ENC_2_Init
      02000E8BH   XDATA    BYTE      SHIFTREG_ENC_2_initVar
      0100C16EH   CODE     ---       SHIFTREG_ENC_2_ReadData
*DEL*:00000000H   CODE     ---       SHIFTREG_ENC_2_ReadRegValue
      0100BF95H   CODE     ---       SHIFTREG_ENC_2_Start
*DEL*:00000000H   CODE     ---       SHIFTREG_ENC_2_Stop
*DEL*:00000000H   CODE     ---       SHIFTREG_ENC_3_DisableInt
*DEL*:00000000H   CODE     ---       SHIFTREG_ENC_3_Enable
*DEL*:00000000H   CODE     ---       SHIFTREG_ENC_3_EnableInt
*DEL*:00000000H   CODE     ---       SHIFTREG_ENC_3_GetIntStatus
*DEL*:00000000H   CODE     ---       SHIFTREG_ENC_3_Init
      02000E8CH   XDATA    BYTE      SHIFTREG_ENC_3_initVar
      0100C178H   CODE     ---       SHIFTREG_ENC_3_ReadData
*DEL*:00000000H   CODE     ---       SHIFTREG_ENC_3_ReadRegValue
*DEL*:00000000H   CODE     ---       SHIFTREG_ENC_3_Start
*DEL*:00000000H   CODE     ---       SHIFTREG_ENC_3_Stop
*DEL*:00000000H   CODE     ---       SHIFTREG_ENC_4_DisableInt
LX51 LINKER/LOCATER V4.64.0.0                                                         06/11/2018  11:54:47  PAGE 36


*DEL*:00000000H   CODE     ---       SHIFTREG_ENC_4_Enable
*DEL*:00000000H   CODE     ---       SHIFTREG_ENC_4_EnableInt
*DEL*:00000000H   CODE     ---       SHIFTREG_ENC_4_GetIntStatus
*DEL*:00000000H   CODE     ---       SHIFTREG_ENC_4_Init
      02000E8DH   XDATA    BYTE      SHIFTREG_ENC_4_initVar
      0100C182H   CODE     ---       SHIFTREG_ENC_4_ReadData
*DEL*:00000000H   CODE     ---       SHIFTREG_ENC_4_ReadRegValue
*DEL*:00000000H   CODE     ---       SHIFTREG_ENC_4_Start
*DEL*:00000000H   CODE     ---       SHIFTREG_ENC_4_Stop
      010088BAH   CODE     ---       slide_cuff
*SFR* 00000081H   DATA     BYTE      SP
      02000E93H   XDATA    BYTE      SpcLockState
      0100A197H   CODE     NEAR LAB  STARTUP1
      00000022H.2 BIT      BIT       tension_valid
      02000C46H   XDATA    DWORD     timer_value
      02000CE5H   XDATA    DWORD     timer_value0
      0100BB96H   CODE     ---       UART_RS485_ClearRxBuffer
      0100BFF4H   CODE     ---       UART_RS485_ClearTxBuffer
      0100BCE7H   CODE     ---       UART_RS485_Enable
      02000E57H   XDATA    BYTE      UART_RS485_errorStatus
*DEL*:00000000H   CODE     ---       UART_RS485_GetByte
      0100B393H   CODE     ---       UART_RS485_GetChar
      0100B596H   CODE     ---       UART_RS485_GetRxBufferSize
*DEL*:00000000H   CODE     ---       UART_RS485_GetTxBufferSize
      0100BA6FH   CODE     ---       UART_RS485_Init
      02000E55H   XDATA    BYTE      UART_RS485_initVar
*DEL*:00000000H   CODE     ---       UART_RS485_ReadControlRegister
*DEL*:00000000H   CODE     ---       UART_RS485_ReadRxData
      0100BF35H   CODE     ---       UART_RS485_ReadRxStatus
      0100C22DH   CODE     ---       UART_RS485_ReadTxStatus
      02000E34H   XDATA    ---       UART_RS485_rxBuffer
      02000E32H   XDATA    BYTE      UART_RS485_rxBufferLoopDetect
      02000E56H   XDATA    BYTE      UART_RS485_rxBufferOverflow
      02000E33H   XDATA    BYTE      UART_RS485_rxBufferRead
      02000E54H   XDATA    BYTE      UART_RS485_rxBufferWrite
      0100A8E1H   CODE     ---       UART_RS485_RXISR
      0100BF49H   CODE     ---       UART_RS485_Start
      0100BD09H   CODE     ---       UART_RS485_Stop
      0100BEE0H   CODE     ---       WATCHDOG_COUNTER_Enable
      0100B913H   CODE     ---       WATCHDOG_COUNTER_Init
      02000E91H   XDATA    BYTE      WATCHDOG_COUNTER_initVar
*DEL*:00000000H   CODE     ---       WATCHDOG_COUNTER_ReadCapture
*DEL*:00000000H   CODE     ---       WATCHDOG_COUNTER_ReadControlRegister
*DEL*:00000000H   CODE     ---       WATCHDOG_COUNTER_ReadCounter
*DEL*:00000000H   CODE     ---       WATCHDOG_COUNTER_ReadPeriod
*DEL*:00000000H   CODE     ---       WATCHDOG_COUNTER_ReadStatusRegister
      0100BFCEH   CODE     ---       WATCHDOG_COUNTER_Start
*DEL*:00000000H   CODE     ---       WATCHDOG_COUNTER_Stop
*DEL*:00000000H   CODE     ---       WATCHDOG_ENABLER_Read
      00000022H.0 BIT      BIT       watchdog_flag
*DEL*:00000000H   CODE     ---       WATCHDOG_REFRESH_Read



SYMBOL TABLE OF MODULE:  .\DP8051_Keil_951\Release\cuff_mod_firmware.omf (COMMAND_PROCESSING)

      VALUE       REP       CLASS    TYPE      SYMBOL NAME
      ====================================================
      ---         MODULE    ---      ---       COMMAND_PROCESSING
      02000E86H   PUBLIC    XDATA    ---       EEPROM_ADDR
      0100BD4CH   PUBLIC    CODE     ---       cmd_set_baudrate
      01008295H   PUBLIC    CODE     ---       cmd_store_params
      0100BE82H   PUBLIC    CODE     ---       cmd_ping
      0100BB36H   PUBLIC    CODE     ---       cmd_get_activate
      0100B7DBH   PUBLIC    CODE     ---       cmd_set_watchdog
LX51 LINKER/LOCATER V4.64.0.0                                                         06/11/2018  11:54:47  PAGE 37


      0100B798H   PUBLIC    CODE     ---       cmd_activate
      0100B3EEH   PUBLIC    CODE     ---       cmd_get_velocities
      010097C1H   PUBLIC    CODE     ---       cmd_set_pos_stiff
      01009A72H   PUBLIC    CODE     ---       cmd_set_inputs
      0100AB8AH   PUBLIC    CODE     ---       cmd_get_curr_and_meas
      0100B70EH   PUBLIC    CODE     ---       cmd_get_currents
      0100B2CDH   PUBLIC    CODE     ---       cmd_get_inputs
      0100B186H   PUBLIC    CODE     ---       cmd_get_measurements
      010092ADH   PUBLIC    CODE     ---       memInit
      0100B6C7H   PUBLIC    CODE     ---       memRestore
      0100B5E5H   PUBLIC    CODE     ---       memRecall
      0100A77EH   PUBLIC    CODE     ---       _memStore
      0100B9EAH   PUBLIC    CODE     ---       _sendAcknowledgment
      02000B00H   PUBLIC    XDATA    BYTE      ?_commWrite?BYTE
      0100AAE7H   PUBLIC    CODE     ---       _commWrite
      02000029H   PUBLIC    XDATA    BYTE      ?_commWrite_old_id?BYTE
      0100AC19H   PUBLIC    CODE     ---       _commWrite_old_id
      01003E71H   PUBLIC    CODE     ---       _infoPrepare
      0100261AH   PUBLIC    CODE     ---       _get_param_list
      0100AE3DH   PUBLIC    CODE     ---       setZeros
      0100BE1EH   PUBLIC    CODE     ---       _infoGet
      01007E59H   PUBLIC    CODE     ---       force_and_slide_cuff
      010088BAH   PUBLIC    CODE     ---       slide_cuff
      0100905CH   PUBLIC    CODE     ---       drive_cuff
      01009F44H   PUBLIC    CODE     ---       commProcess
      000000CAH   SFRSYM    DATA     BYTE      SFRPRT5SEL
      000000DAH   SFRSYM    DATA     BYTE      SFRPRT6SEL
      000000D0H.6 SFRSYM    DATA     BIT       AC
      000000A8H.7 SFRSYM    DATA     BIT       EA
      000000A8H   SFRSYM    DATA     BYTE      IE
      00000085H   SFRSYM    DATA     BYTE      DPH1
      00000084H   SFRSYM    DATA     BYTE      DPL1
      000000D0H.7 SFRSYM    DATA     BIT       CY
      000000A0H   SFRSYM    DATA     BYTE      P2AX
      00000095H   SFRSYM    DATA     BYTE      DPX1
      00000081H   SFRSYM    DATA     BYTE      SP
      000000D0H.2 SFRSYM    DATA     BIT       OV
      00000080H   SFRSYM    DATA     BYTE      SFRPRT0DR
      00000090H   SFRSYM    DATA     BYTE      SFRPRT1DR
      000000F2H   SFRSYM    DATA     BYTE      SFRPRT12SEL
      00000098H   SFRSYM    DATA     BYTE      SFRPRT2DR
      000000B0H   SFRSYM    DATA     BYTE      SFRPRT3DR
      000000C0H   SFRSYM    DATA     BYTE      SFRPRT4DR
      000000FAH   SFRSYM    DATA     BYTE      SFRPRT15SEL
      000000C8H   SFRSYM    DATA     BYTE      SFRPRT5DR
      000000D8H   SFRSYM    DATA     BYTE      SFRPRT6DR
      00000089H   SFRSYM    DATA     BYTE      SFRPRT0PS
      00000091H   SFRSYM    DATA     BYTE      SFRPRT1PS
      00000099H   SFRSYM    DATA     BYTE      SFRPRT2PS
      000000B1H   SFRSYM    DATA     BYTE      SFRPRT3PS
      000000C1H   SFRSYM    DATA     BYTE      SFRPRT4PS
      000000C9H   SFRSYM    DATA     BYTE      SFRPRT5PS
      000000D9H   SFRSYM    DATA     BYTE      SFRPRT6PS
      000000EAH   SFRSYM    DATA     BYTE      MXAX
      000000F0H   SFRSYM    DATA     BYTE      B
      000000E0H   SFRSYM    DATA     BYTE      ACC
      000000D0H   SFRSYM    DATA     BIT       P
      000000D0H.3 SFRSYM    DATA     BIT       RS0
      000000D0H.4 SFRSYM    DATA     BIT       RS1
      00000083H   SFRSYM    DATA     BYTE      DPH
      000000E8H   SFRSYM    DATA     BYTE      SFRPRT12DR
      00000082H   SFRSYM    DATA     BYTE      DPL
      000000F8H   SFRSYM    DATA     BYTE      SFRPRT15DR
      00000086H   SFRSYM    DATA     BYTE      DPS
      000000E9H   SFRSYM    DATA     BYTE      SFRPRT12PS
LX51 LINKER/LOCATER V4.64.0.0                                                         06/11/2018  11:54:47  PAGE 38


      00000093H   SFRSYM    DATA     BYTE      DPX
      000000F9H   SFRSYM    DATA     BYTE      SFRPRT15PS
      000000D0H.5 SFRSYM    DATA     BIT       F0
      000000D0H.1 SFRSYM    DATA     BIT       F1
      0000008AH   SFRSYM    DATA     BYTE      SFRPRT0SEL
      000000D0H   SFRSYM    DATA     BYTE      PSW
      000000A2H   SFRSYM    DATA     BYTE      SFRPRT1SEL
      0000009AH   SFRSYM    DATA     BYTE      SFRPRT2SEL
      000000B2H   SFRSYM    DATA     BYTE      SFRPRT3SEL
      000000C2H   SFRSYM    DATA     BYTE      SFRPRT4SEL
      01005717H   SYMBOL    CODE     ---       _?ix1000
      01005F67H   SYMBOL    CODE     ---       _?ix1010
      01005E84H   SYMBOL    CODE     ---       _?ix1001
      0100608DH   SYMBOL    CODE     ---       _?ix1020
      01005F83H   SYMBOL    CODE     ---       _?ix1011
      01005E93H   SYMBOL    CODE     ---       _?ix1002
      010060B0H   SYMBOL    CODE     ---       _?ix1021
      01005FA0H   SYMBOL    CODE     ---       _?ix1012
      01005EAFH   SYMBOL    CODE     ---       _?ix1003
      010060CFH   SYMBOL    CODE     ---       _?ix1022
      01005FBBH   SYMBOL    CODE     ---       _?ix1013
      01005ECAH   SYMBOL    CODE     ---       _?ix1004
      010060DDH   SYMBOL    CODE     ---       _?ix1023
      01005FCFH   SYMBOL    CODE     ---       _?ix1014
      01005EE6H   SYMBOL    CODE     ---       _?ix1005
      010060FFH   SYMBOL    CODE     ---       _?ix1024
      01005FEFH   SYMBOL    CODE     ---       _?ix1015
      01005F01H   SYMBOL    CODE     ---       _?ix1006
      01006120H   SYMBOL    CODE     ---       _?ix1025
      01006013H   SYMBOL    CODE     ---       _?ix1016
      01005F28H   SYMBOL    CODE     ---       _?ix1007
      01006135H   SYMBOL    CODE     ---       _?ix1026
      0100602BH   SYMBOL    CODE     ---       _?ix1017
      01005F3DH   SYMBOL    CODE     ---       _?ix1008
      01006169H   SYMBOL    CODE     ---       _?ix1027
      01006050H   SYMBOL    CODE     ---       _?ix1018
      01005F56H   SYMBOL    CODE     ---       _?ix1009
      010061A4H   SYMBOL    CODE     ---       _?ix1028
      01006066H   SYMBOL    CODE     ---       _?ix1019
      010061CEH   SYMBOL    CODE     ---       _?ix1029

      01009F44H   BLOCK     CODE     ---       LVL=0
      01009F44H   BLOCK     CODE     NEAR LAB  LVL=1
      00000066H   SYMBOL    DATA     BYTE      rx_cmd
      ---         BLOCKEND  ---      ---       LVL=1
      01009F44H   LINE      CODE     ---       #67
      01009F44H   LINE      CODE     ---       #71
      01009F4AH   LINE      CODE     ---       #75
      01009F75H   LINE      CODE     ---       #77
      01009F7BH   LINE      CODE     ---       #79
      01009F7BH   LINE      CODE     ---       #81
      01009FC0H   LINE      CODE     ---       #84
      01009FC0H   LINE      CODE     ---       #85
      01009FC3H   LINE      CODE     ---       #86
      01009FC4H   LINE      CODE     ---       #90
      01009FC4H   LINE      CODE     ---       #91
      01009FC7H   LINE      CODE     ---       #92
      01009FC8H   LINE      CODE     ---       #96
      01009FC8H   LINE      CODE     ---       #97
      01009FCBH   LINE      CODE     ---       #98
      01009FCCH   LINE      CODE     ---       #102
      01009FCCH   LINE      CODE     ---       #103
      01009FCFH   LINE      CODE     ---       #104
      01009FD0H   LINE      CODE     ---       #108
      01009FD0H   LINE      CODE     ---       #109
LX51 LINKER/LOCATER V4.64.0.0                                                         06/11/2018  11:54:47  PAGE 39


      01009FD3H   LINE      CODE     ---       #110
      01009FD4H   LINE      CODE     ---       #114
      01009FD4H   LINE      CODE     ---       #115
      01009FD7H   LINE      CODE     ---       #116
      01009FD8H   LINE      CODE     ---       #120
      01009FD8H   LINE      CODE     ---       #121
      01009FDBH   LINE      CODE     ---       #122
      01009FDCH   LINE      CODE     ---       #125
      01009FDCH   LINE      CODE     ---       #126
      01009FDFH   LINE      CODE     ---       #127
      01009FE0H   LINE      CODE     ---       #131
      01009FE0H   LINE      CODE     ---       #132
      01009FE3H   LINE      CODE     ---       #133
      01009FE4H   LINE      CODE     ---       #137
      01009FE4H   LINE      CODE     ---       #138
      01009FE7H   LINE      CODE     ---       #139
      01009FE8H   LINE      CODE     ---       #143
      01009FE8H   LINE      CODE     ---       #144
      01009FEBH   LINE      CODE     ---       #145
      01009FECH   LINE      CODE     ---       #149
      01009FECH   LINE      CODE     ---       #150
      01009FEEH   LINE      CODE     ---       #151
      01009FF0H   LINE      CODE     ---       #152
      01009FFBH   LINE      CODE     ---       #153
      01009FFCH   LINE      CODE     ---       #157
      01009FFCH   LINE      CODE     ---       #158
      01009FFFH   LINE      CODE     ---       #159
      0100A000H   LINE      CODE     ---       #163
      0100A000H   LINE      CODE     ---       #164
      0100A00BH   LINE      CODE     ---       #165
      0100A00CH   LINE      CODE     ---       #169
      0100A00CH   LINE      CODE     ---       #170
      0100A00FH   LINE      CODE     ---       #171
      0100A010H   LINE      CODE     ---       #175
      0100A010H   LINE      CODE     ---       #176
      0100A013H   LINE      CODE     ---       #177
      0100A014H   LINE      CODE     ---       #181
      0100A014H   LINE      CODE     ---       #182
      0100A01EH   LINE      CODE     ---       #183
      0100A023H   LINE      CODE     ---       #184
      0100A024H   LINE      CODE     ---       #185
      0100A029H   LINE      CODE     ---       #186
      0100A029H   LINE      CODE     ---       #187
      0100A02AH   LINE      CODE     ---       #191
      0100A02AH   LINE      CODE     ---       #192
      0100A030H   LINE      CODE     ---       #193
      0100A035H   LINE      CODE     ---       #194
      0100A036H   LINE      CODE     ---       #195
      0100A03BH   LINE      CODE     ---       #196
      0100A03BH   LINE      CODE     ---       #197
      0100A03CH   LINE      CODE     ---       #201
      0100A03CH   LINE      CODE     ---       #202
      0100A042H   LINE      CODE     ---       #203
      0100A047H   LINE      CODE     ---       #204
      0100A048H   LINE      CODE     ---       #205
      0100A04DH   LINE      CODE     ---       #206
      0100A04DH   LINE      CODE     ---       #207
      0100A04EH   LINE      CODE     ---       #210
      0100A04EH   LINE      CODE     ---       #211
      0100A053H   LINE      CODE     ---       #212
      0100A05DH   LINE      CODE     ---       #213
      0100A062H   LINE      CODE     ---       #214
      0100A06CH   LINE      CODE     ---       #215
      0100A06FH   LINE      CODE     ---       #216
      0100A06FH   LINE      CODE     ---       #225
LX51 LINKER/LOCATER V4.64.0.0                                                         06/11/2018  11:54:47  PAGE 40


      0100A06FH   LINE      CODE     ---       #226
      0100A06FH   LINE      CODE     ---       #228
      0100A06FH   LINE      CODE     ---       #229
      ---         BLOCKEND  ---      ---       LVL=0

      0100905CH   BLOCK     CODE     ---       LVL=0
      0100905CH   BLOCK     CODE     NEAR LAB  LVL=1
      02000003H   SYMBOL    XDATA    ---       packet_data
      00000007H   SYMBOL    DATA     BYTE      packet_lenght
      00000006H   SYMBOL    DATA     INT       curr_diff
      02000013H   SYMBOL    XDATA    LONG      aux_val
      02000017H   SYMBOL    XDATA    DWORD     t_start
      0200001BH   SYMBOL    XDATA    DWORD     t_end
      ---         BLOCKEND  ---      ---       LVL=1
      0100905CH   LINE      CODE     ---       #238
      0100905CH   LINE      CODE     ---       #245
      0100905EH   LINE      CODE     ---       #246
      01009064H   LINE      CODE     ---       #247
      01009066H   LINE      CODE     ---       #248
      01009078H   LINE      CODE     ---       #250
      01009081H   LINE      CODE     ---       #251
      01009089H   LINE      CODE     ---       #252
      0100908CH   LINE      CODE     ---       #253
      0100908EH   LINE      CODE     ---       #254
      01009091H   LINE      CODE     ---       #255
      01009091H   LINE      CODE     ---       #256
      0100909AH   LINE      CODE     ---       #257
      010090CFH   LINE      CODE     ---       #258
      010090D1H   LINE      CODE     ---       #259
      010090D1H   LINE      CODE     ---       #260
      010090D1H   LINE      CODE     ---       #261
      010090D1H   LINE      CODE     ---       #263
      010090D7H   LINE      CODE     ---       #264
      010090DFH   LINE      CODE     ---       #266
      010090F2H   LINE      CODE     ---       #267
      010090F7H   LINE      CODE     ---       #269
      0100910AH   LINE      CODE     ---       #270
      0100910FH   LINE      CODE     ---       #272
      0100911EH   LINE      CODE     ---       #274
      01009155H   LINE      CODE     ---       #275
      01009193H   LINE      CODE     ---       #276
      010091C8H   LINE      CODE     ---       #281
      010091D1H   LINE      CODE     ---       #282
      01009205H   LINE      CODE     ---       #283
      0100923BH   LINE      CODE     ---       #285
      01009271H   LINE      CODE     ---       #286
      010092A7H   LINE      CODE     ---       #287
      010092A7H   LINE      CODE     ---       #288
      010092A7H   LINE      CODE     ---       #289
      010092AAH   LINE      CODE     ---       #290
      010092ACH   LINE      CODE     ---       #291
      ---         BLOCKEND  ---      ---       LVL=0

      010088BAH   BLOCK     CODE     ---       LVL=0
      010088BAH   BLOCK     CODE     NEAR LAB  LVL=1
      02000003H   SYMBOL    XDATA    ---       packet_data
      00000007H   SYMBOL    DATA     BYTE      packet_lenght
      00000006H   SYMBOL    DATA     INT       SH_pos
      02000013H   SYMBOL    XDATA    LONG      aux_val
      02000017H   SYMBOL    XDATA    DWORD     t_start
      0200001BH   SYMBOL    XDATA    DWORD     t_end
      ---         BLOCKEND  ---      ---       LVL=1
      010088BAH   LINE      CODE     ---       #293
      010088BAH   LINE      CODE     ---       #300
      010088BCH   LINE      CODE     ---       #301
LX51 LINKER/LOCATER V4.64.0.0                                                         06/11/2018  11:54:47  PAGE 41


      010088C2H   LINE      CODE     ---       #302
      010088C4H   LINE      CODE     ---       #303
      010088D6H   LINE      CODE     ---       #305
      010088DFH   LINE      CODE     ---       #306
      010088E7H   LINE      CODE     ---       #307
      010088EAH   LINE      CODE     ---       #308
      010088ECH   LINE      CODE     ---       #309
      010088EFH   LINE      CODE     ---       #310
      010088EFH   LINE      CODE     ---       #311
      010088F8H   LINE      CODE     ---       #312
      0100892DH   LINE      CODE     ---       #313
      0100892FH   LINE      CODE     ---       #314
      0100892FH   LINE      CODE     ---       #315
      0100892FH   LINE      CODE     ---       #316
      0100892FH   LINE      CODE     ---       #318
      01008935H   LINE      CODE     ---       #319
      0100893DH   LINE      CODE     ---       #321
      01008964H   LINE      CODE     ---       #322
      010089BFH   LINE      CODE     ---       #324
      010089C5H   LINE      CODE     ---       #326
      01008A03H   LINE      CODE     ---       #327
      01008A41H   LINE      CODE     ---       #329
      01008A43H   LINE      CODE     ---       #330
      01008A43H   LINE      CODE     ---       #332
      01008A78H   LINE      CODE     ---       #333
      01008AADH   LINE      CODE     ---       #335
      01008AADH   LINE      CODE     ---       #340
      01008AB6H   LINE      CODE     ---       #341
      01008AEAH   LINE      CODE     ---       #342
      01008B20H   LINE      CODE     ---       #344
      01008B56H   LINE      CODE     ---       #345
      01008B8CH   LINE      CODE     ---       #346
      01008B8CH   LINE      CODE     ---       #349
      01008B8CH   LINE      CODE     ---       #350
      01008B8FH   LINE      CODE     ---       #351
      01008B91H   LINE      CODE     ---       #352
      ---         BLOCKEND  ---      ---       LVL=0

      01007E59H   BLOCK     CODE     ---       LVL=0
      01007E59H   BLOCK     CODE     NEAR LAB  LVL=1
      02000003H   SYMBOL    XDATA    ---       packet_data
      00000007H   SYMBOL    DATA     BYTE      packet_lenght
      02000013H   SYMBOL    XDATA    INT       curr_diff
      00000004H   SYMBOL    DATA     INT       SH_pos
      02000015H   SYMBOL    XDATA    LONG      aux_val
      02000019H   SYMBOL    XDATA    DWORD     t_start
      0200001DH   SYMBOL    XDATA    DWORD     t_end
      02000021H   SYMBOL    XDATA    ---       ref_slide
      ---         BLOCKEND  ---      ---       LVL=1
      01007E59H   LINE      CODE     ---       #354
      01007E59H   LINE      CODE     ---       #363
      01007E5BH   LINE      CODE     ---       #364
      01007E61H   LINE      CODE     ---       #365
      01007E63H   LINE      CODE     ---       #366
      01007E75H   LINE      CODE     ---       #368
      01007E7EH   LINE      CODE     ---       #369
      01007E86H   LINE      CODE     ---       #370
      01007E89H   LINE      CODE     ---       #371
      01007E8BH   LINE      CODE     ---       #372
      01007E8EH   LINE      CODE     ---       #373
      01007E8EH   LINE      CODE     ---       #374
      01007E97H   LINE      CODE     ---       #375
      01007ECCH   LINE      CODE     ---       #376
      01007ECEH   LINE      CODE     ---       #377
      01007ECEH   LINE      CODE     ---       #378
LX51 LINKER/LOCATER V4.64.0.0                                                         06/11/2018  11:54:47  PAGE 42


      01007ECEH   LINE      CODE     ---       #379
      01007ECEH   LINE      CODE     ---       #381
      01007ED4H   LINE      CODE     ---       #382
      01007EE4H   LINE      CODE     ---       #383
      01007EECH   LINE      CODE     ---       #386
      01007F00H   LINE      CODE     ---       #387
      01007F08H   LINE      CODE     ---       #389
      01007F23H   LINE      CODE     ---       #390
      01007F29H   LINE      CODE     ---       #392
      01007F3EH   LINE      CODE     ---       #395
      01007F69H   LINE      CODE     ---       #396
      01007F9FH   LINE      CODE     ---       #398
      01007FBCH   LINE      CODE     ---       #399
      01007FD9H   LINE      CODE     ---       #402
      01008014H   LINE      CODE     ---       #404
      0100801DH   LINE      CODE     ---       #406
      01008086H   LINE      CODE     ---       #407
      010080E6H   LINE      CODE     ---       #408
      010080E9H   LINE      CODE     ---       #409
      010080E9H   LINE      CODE     ---       #411
      01008151H   LINE      CODE     ---       #412
      010081B0H   LINE      CODE     ---       #413
      010081B0H   LINE      CODE     ---       #419
      010081B9H   LINE      CODE     ---       #420
      010081EDH   LINE      CODE     ---       #421
      01008223H   LINE      CODE     ---       #423
      01008259H   LINE      CODE     ---       #424
      0100828FH   LINE      CODE     ---       #425
      0100828FH   LINE      CODE     ---       #430
      0100828FH   LINE      CODE     ---       #431
      01008292H   LINE      CODE     ---       #432
      01008294H   LINE      CODE     ---       #433
      ---         BLOCKEND  ---      ---       LVL=0

      0100BE1EH   BLOCK     CODE     ---       LVL=0
      00000006H   SYMBOL    DATA     WORD      info_type
      0100BE1EH   BLOCK     CODE     NEAR LAB  LVL=1
      02000029H   SYMBOL    XDATA    ---       packet_string
      ---         BLOCKEND  ---      ---       LVL=1
      0100BE1EH   LINE      CODE     ---       #439
      0100BE1EH   LINE      CODE     ---       #444
      0100BE24H   LINE      CODE     ---       #445
      0100BE24H   LINE      CODE     ---       #446
      0100BE2DH   LINE      CODE     ---       #447
      0100BE36H   LINE      CODE     ---       #448
      0100BE36H   LINE      CODE     ---       #449
      0100BE36H   LINE      CODE     ---       #450
      0100BE36H   LINE      CODE     ---       #451
      0100BE36H   LINE      CODE     ---       #452
      ---         BLOCKEND  ---      ---       LVL=0

      0100AE3DH   BLOCK     CODE     ---       LVL=0
      0100AE3DH   BLOCK     CODE     NEAR LAB  LVL=1
      00000067H   SYMBOL    DATA     BYTE      i
      ---         BLOCKEND  ---      ---       LVL=1
      0100AE3DH   LINE      CODE     ---       #458
      0100AE3DH   LINE      CODE     ---       #459
      0100AE3DH   LINE      CODE     ---       #462
      0100AE47H   LINE      CODE     ---       #463
      0100AE71H   LINE      CODE     ---       #464
      0100AEA7H   LINE      CODE     ---       #466
      0100AEB4H   LINE      CODE     ---       #467
      0100AEB8H   LINE      CODE     ---       #468
      0100AEBAH   LINE      CODE     ---       #470
      0100AEBFH   LINE      CODE     ---       #471
LX51 LINKER/LOCATER V4.64.0.0                                                         06/11/2018  11:54:47  PAGE 43


      ---         BLOCKEND  ---      ---       LVL=0

      0100261AH   BLOCK     CODE     ---       LVL=0
      02000029H   SYMBOL    XDATA    WORD      index
      01002622H   BLOCK     CODE     NEAR LAB  LVL=1
      0200002BH   SYMBOL    XDATA    ---       packet_data
      02000798H   SYMBOL    XDATA    WORD      packet_lenght
      00000067H   SYMBOL    DATA     WORD      i
      0200079AH   SYMBOL    XDATA    BYTE      string_lenght
      0200079BH   SYMBOL    XDATA    LONG      aux_int
      0200079FH   SYMBOL    XDATA    ---       id_str
      020007AEH   SYMBOL    XDATA    ---       pos_pid_str
      020007CAH   SYMBOL    XDATA    ---       curr_pid_str
      020007E5H   SYMBOL    XDATA    ---       startup_str
      02000801H   SYMBOL    XDATA    ---       input_str
      0200081CH   SYMBOL    XDATA    ---       contr_str
      02000843H   SYMBOL    XDATA    ---       res_str
      02000858H   SYMBOL    XDATA    ---       m_off_str
      02000871H   SYMBOL    XDATA    ---       mult_str
      02000882H   SYMBOL    XDATA    ---       pos_lim_flag_str
      0200089EH   SYMBOL    XDATA    ---       pos_lim_str
      020008BBH   SYMBOL    XDATA    ---       max_step_str
      020008D6H   SYMBOL    XDATA    ---       curr_limit_str
      020008EAH   SYMBOL    XDATA    ---       curr_prop_gain_str
      0200090AH   SYMBOL    XDATA    ---       curr_sat_str
      0200092EH   SYMBOL    XDATA    ---       curr_dead_zone_str
      02000946H   SYMBOL    XDATA    ---       cuff_activ_force_str
      0200096BH   SYMBOL    XDATA    ---       pow_tension_str
      02000981H   SYMBOL    XDATA    ---       cuff_activ_proprio_str
      020009A8H   SYMBOL    XDATA    ---       max_slide_str
      020009CBH   SYMBOL    XDATA    ---       max_SH_pos_str
      020009EAH   SYMBOL    XDATA    ---       hand_ID_str
      020009F8H   SYMBOL    XDATA    ---       cuff_activ_force_proprio_str
      02000A1AH   SYMBOL    XDATA    ---       SH_rest_pos_str
      02000A3BH   SYMBOL    XDATA    ---       right_left_par_str
      02000A50H   SYMBOL    XDATA    ---       input_mode_menu
      02000A84H   SYMBOL    XDATA    ---       control_mode_menu
      02000ABFH   SYMBOL    XDATA    ---       yes_no_menu
      02000AE9H   SYMBOL    XDATA    ---       right_left_menu
      00000069H   SYMBOL    DATA     BYTE      id_str_len
      0000006AH   SYMBOL    DATA     BYTE      pos_pid_str_len
      0000006BH   SYMBOL    DATA     BYTE      curr_pid_str_len
      0000006CH   SYMBOL    DATA     BYTE      res_str_len
      0000006DH   SYMBOL    DATA     BYTE      m_off_str_len
      0000006EH   SYMBOL    DATA     BYTE      mult_str_len
      0000006FH   SYMBOL    DATA     BYTE      pos_lim_str_len
      00000070H   SYMBOL    DATA     BYTE      curr_limit_str_len
      00000071H   SYMBOL    DATA     BYTE      curr_prop_gain_str_len
      00000072H   SYMBOL    DATA     BYTE      curr_sat_str_len
      00000073H   SYMBOL    DATA     BYTE      curr_dead_zone_str_len
      00000074H   SYMBOL    DATA     BYTE      pow_tension_str_len
      00000075H   SYMBOL    DATA     BYTE      input_mode_menu_len
      00000076H   SYMBOL    DATA     BYTE      control_mode_menu_len
      00000077H   SYMBOL    DATA     BYTE      yes_no_menu_len
      00000078H   SYMBOL    DATA     BYTE      right_left_menu_len
      00000079H   SYMBOL    DATA     BYTE      max_slide_str_len
      0000007AH   SYMBOL    DATA     BYTE      max_SH_pos_str_len
      0000007BH   SYMBOL    DATA     BYTE      hand_ID_str_len
      02000AFFH   SYMBOL    XDATA    BYTE      SH_rest_pos_str_len
      ---         BLOCKEND  ---      ---       LVL=1
      0100261AH   LINE      CODE     ---       #477
      01002622H   LINE      CODE     ---       #478
      01002622H   LINE      CODE     ---       #480
      01002635H   LINE      CODE     ---       #481
      0100263FH   LINE      CODE     ---       #490
LX51 LINKER/LOCATER V4.64.0.0                                                         06/11/2018  11:54:47  PAGE 44


      01002652H   LINE      CODE     ---       #491
      01002665H   LINE      CODE     ---       #492
      01002678H   LINE      CODE     ---       #493
      0100268BH   LINE      CODE     ---       #494
      0100269EH   LINE      CODE     ---       #495
      010026B1H   LINE      CODE     ---       #496
      010026C4H   LINE      CODE     ---       #497
      010026D7H   LINE      CODE     ---       #498
      010026EAH   LINE      CODE     ---       #499
      010026FDH   LINE      CODE     ---       #500
      01002710H   LINE      CODE     ---       #501
      01002723H   LINE      CODE     ---       #502
      01002736H   LINE      CODE     ---       #503
      01002749H   LINE      CODE     ---       #504
      0100275CH   LINE      CODE     ---       #505
      0100276FH   LINE      CODE     ---       #506
      01002782H   LINE      CODE     ---       #507
      01002795H   LINE      CODE     ---       #508
      010027A8H   LINE      CODE     ---       #509
      010027BBH   LINE      CODE     ---       #510
      010027CEH   LINE      CODE     ---       #511
      010027E1H   LINE      CODE     ---       #512
      010027F4H   LINE      CODE     ---       #513
      01002807H   LINE      CODE     ---       #514
      0100281AH   LINE      CODE     ---       #517
      0100282DH   LINE      CODE     ---       #518
      01002840H   LINE      CODE     ---       #519
      01002853H   LINE      CODE     ---       #520
      01002866H   LINE      CODE     ---       #523
      01002871H   LINE      CODE     ---       #524
      0100287CH   LINE      CODE     ---       #525
      01002887H   LINE      CODE     ---       #527
      01002892H   LINE      CODE     ---       #528
      0100289DH   LINE      CODE     ---       #529
      010028A8H   LINE      CODE     ---       #531
      010028B3H   LINE      CODE     ---       #532
      010028BEH   LINE      CODE     ---       #534
      010028C9H   LINE      CODE     ---       #535
      010028D4H   LINE      CODE     ---       #536
      010028DFH   LINE      CODE     ---       #537
      010028EAH   LINE      CODE     ---       #539
      010028F5H   LINE      CODE     ---       #540
      01002900H   LINE      CODE     ---       #541
      0100290BH   LINE      CODE     ---       #542
      01002916H   LINE      CODE     ---       #544
      01002921H   LINE      CODE     ---       #545
      0100292CH   LINE      CODE     ---       #546
      01002937H   LINE      CODE     ---       #547
      01002945H   LINE      CODE     ---       #549
      0100294BH   LINE      CODE     ---       #550
      0100294FH   LINE      CODE     ---       #552
      010029BBH   LINE      CODE     ---       #553
      010029BBH   LINE      CODE     ---       #556
      010029C1H   LINE      CODE     ---       #557
      010029C4H   LINE      CODE     ---       #558
      010029CCH   LINE      CODE     ---       #559
      010029D8H   LINE      CODE     ---       #560
      01002A04H   LINE      CODE     ---       #564
      01002A0AH   LINE      CODE     ---       #565
      01002A0EH   LINE      CODE     ---       #566
      01002A16H   LINE      CODE     ---       #567
      01002A38H   LINE      CODE     ---       #568
      01002A5AH   LINE      CODE     ---       #569
      01002A7CH   LINE      CODE     ---       #570
      01002A7EH   LINE      CODE     ---       #571
LX51 LINKER/LOCATER V4.64.0.0                                                         06/11/2018  11:54:47  PAGE 45


      01002A7EH   LINE      CODE     ---       #572
      01002AA0H   LINE      CODE     ---       #573
      01002AC2H   LINE      CODE     ---       #574
      01002AE4H   LINE      CODE     ---       #575
      01002AE4H   LINE      CODE     ---       #576
      01002AF0H   LINE      CODE     ---       #577
      01002B1CH   LINE      CODE     ---       #581
      01002B22H   LINE      CODE     ---       #582
      01002B26H   LINE      CODE     ---       #583
      01002B2EH   LINE      CODE     ---       #584
      01002B50H   LINE      CODE     ---       #585
      01002B72H   LINE      CODE     ---       #586
      01002B94H   LINE      CODE     ---       #587
      01002B96H   LINE      CODE     ---       #588
      01002B96H   LINE      CODE     ---       #589
      01002BB8H   LINE      CODE     ---       #590
      01002BDAH   LINE      CODE     ---       #591
      01002BFCH   LINE      CODE     ---       #592
      01002BFCH   LINE      CODE     ---       #593
      01002C08H   LINE      CODE     ---       #594
      01002C34H   LINE      CODE     ---       #598
      01002C39H   LINE      CODE     ---       #599
      01002C3CH   LINE      CODE     ---       #600
      01002C44H   LINE      CODE     ---       #601
      01002C49H   LINE      CODE     ---       #602
      01002C60H   LINE      CODE     ---       #603
      01002C66H   LINE      CODE     ---       #604
      01002C68H   LINE      CODE     ---       #605
      01002C68H   LINE      CODE     ---       #606
      01002C7FH   LINE      CODE     ---       #607
      01002C85H   LINE      CODE     ---       #608
      01002C85H   LINE      CODE     ---       #609
      01002C94H   LINE      CODE     ---       #610
      01002CC2H   LINE      CODE     ---       #612
      01002CD2H   LINE      CODE     ---       #616
      01002CD7H   LINE      CODE     ---       #617
      01002CDAH   LINE      CODE     ---       #618
      01002CE2H   LINE      CODE     ---       #619
      01002CEBH   LINE      CODE     ---       #620
      01002CEBH   LINE      CODE     ---       #621
      01002D02H   LINE      CODE     ---       #622
      01002D08H   LINE      CODE     ---       #623
      01002D0AH   LINE      CODE     ---       #624
      01002D0AH   LINE      CODE     ---       #625
      01002D21H   LINE      CODE     ---       #626
      01002D27H   LINE      CODE     ---       #627
      01002D27H   LINE      CODE     ---       #628
      01002D27H   LINE      CODE     ---       #629
      01002D36H   LINE      CODE     ---       #630
      01002D64H   LINE      CODE     ---       #632
      01002D74H   LINE      CODE     ---       #636
      01002D79H   LINE      CODE     ---       #637
      01002D7CH   LINE      CODE     ---       #638
      01002D84H   LINE      CODE     ---       #639
      01002D94H   LINE      CODE     ---       #640
      01002D94H   LINE      CODE     ---       #641
      01002DABH   LINE      CODE     ---       #642
      01002DB1H   LINE      CODE     ---       #643
      01002DB3H   LINE      CODE     ---       #644
      01002DB3H   LINE      CODE     ---       #645
      01002DCAH   LINE      CODE     ---       #646
      01002DD0H   LINE      CODE     ---       #647
      01002DD2H   LINE      CODE     ---       #648
      01002DD2H   LINE      CODE     ---       #649
      01002DE9H   LINE      CODE     ---       #650
LX51 LINKER/LOCATER V4.64.0.0                                                         06/11/2018  11:54:47  PAGE 46


      01002DEFH   LINE      CODE     ---       #651
      01002DF1H   LINE      CODE     ---       #652
      01002DF1H   LINE      CODE     ---       #653
      01002E08H   LINE      CODE     ---       #654
      01002E0EH   LINE      CODE     ---       #655
      01002E0EH   LINE      CODE     ---       #664
      01002E0EH   LINE      CODE     ---       #665
      01002E1DH   LINE      CODE     ---       #666
      01002E4BH   LINE      CODE     ---       #668
      01002E5BH   LINE      CODE     ---       #679
      01002E5FH   LINE      CODE     ---       #680
      01002E62H   LINE      CODE     ---       #681
      01002E72H   LINE      CODE     ---       #682
      01002E98H   LINE      CODE     ---       #683
      01002EA4H   LINE      CODE     ---       #684
      01002ED0H   LINE      CODE     ---       #688
      01002ED6H   LINE      CODE     ---       #689
      01002ED8H   LINE      CODE     ---       #690
      01002EE8H   LINE      CODE     ---       #691
      01002F41H   LINE      CODE     ---       #692
      01002F4DH   LINE      CODE     ---       #693
      01002F79H   LINE      CODE     ---       #697
      01002F7FH   LINE      CODE     ---       #698
      01002F83H   LINE      CODE     ---       #699
      01002F93H   LINE      CODE     ---       #700
      01002FE7H   LINE      CODE     ---       #701
      01002FFEH   LINE      CODE     ---       #702
      01003024H   LINE      CODE     ---       #706
      01003029H   LINE      CODE     ---       #707
      0100302CH   LINE      CODE     ---       #708
      01003034H   LINE      CODE     ---       #709
      01003039H   LINE      CODE     ---       #710
      01003050H   LINE      CODE     ---       #711
      01003056H   LINE      CODE     ---       #712
      01003058H   LINE      CODE     ---       #713
      01003058H   LINE      CODE     ---       #714
      0100306FH   LINE      CODE     ---       #715
      01003075H   LINE      CODE     ---       #716
      01003075H   LINE      CODE     ---       #717
      01003084H   LINE      CODE     ---       #718
      010030B2H   LINE      CODE     ---       #720
      010030C2H   LINE      CODE     ---       #724
      010030C8H   LINE      CODE     ---       #725
      010030CBH   LINE      CODE     ---       #726
      010030DEH   LINE      CODE     ---       #727
      0100313AH   LINE      CODE     ---       #728
      01003196H   LINE      CODE     ---       #729
      010031A1H   LINE      CODE     ---       #730
      010031ADH   LINE      CODE     ---       #731
      010031D9H   LINE      CODE     ---       #735
      010031DFH   LINE      CODE     ---       #736
      010031E3H   LINE      CODE     ---       #737
      010031F7H   LINE      CODE     ---       #738
      0100320BH   LINE      CODE     ---       #739
      01003222H   LINE      CODE     ---       #740
      01003248H   LINE      CODE     ---       #744
      0100324EH   LINE      CODE     ---       #745
      01003252H   LINE      CODE     ---       #746
      01003261H   LINE      CODE     ---       #747
      0100326DH   LINE      CODE     ---       #748
      01003299H   LINE      CODE     ---       #752
      0100329FH   LINE      CODE     ---       #753
      010032A3H   LINE      CODE     ---       #754
      010032B7H   LINE      CODE     ---       #755
      010032C3H   LINE      CODE     ---       #756
LX51 LINKER/LOCATER V4.64.0.0                                                         06/11/2018  11:54:47  PAGE 47


      010032EFH   LINE      CODE     ---       #760
      010032F5H   LINE      CODE     ---       #761
      010032F9H   LINE      CODE     ---       #762
      01003308H   LINE      CODE     ---       #763
      01003314H   LINE      CODE     ---       #764
      01003340H   LINE      CODE     ---       #768
      01003346H   LINE      CODE     ---       #769
      0100334AH   LINE      CODE     ---       #770
      01003359H   LINE      CODE     ---       #771
      01003365H   LINE      CODE     ---       #772
      01003391H   LINE      CODE     ---       #776
      01003396H   LINE      CODE     ---       #777
      01003399H   LINE      CODE     ---       #778
      010033A1H   LINE      CODE     ---       #779
      010033A6H   LINE      CODE     ---       #780
      010033BDH   LINE      CODE     ---       #781
      010033C3H   LINE      CODE     ---       #782
      010033C5H   LINE      CODE     ---       #783
      010033C5H   LINE      CODE     ---       #784
      010033DCH   LINE      CODE     ---       #785
      010033E2H   LINE      CODE     ---       #786
      010033E2H   LINE      CODE     ---       #787
      010033F1H   LINE      CODE     ---       #788
      0100341FH   LINE      CODE     ---       #790
      0100342FH   LINE      CODE     ---       #794
      01003434H   LINE      CODE     ---       #795
      01003438H   LINE      CODE     ---       #796
      01003447H   LINE      CODE     ---       #797
      01003453H   LINE      CODE     ---       #798
      0100347FH   LINE      CODE     ---       #802
      01003484H   LINE      CODE     ---       #803
      01003487H   LINE      CODE     ---       #804
      0100348FH   LINE      CODE     ---       #805
      01003494H   LINE      CODE     ---       #806
      010034ABH   LINE      CODE     ---       #807
      010034B1H   LINE      CODE     ---       #808
      010034B3H   LINE      CODE     ---       #809
      010034B3H   LINE      CODE     ---       #810
      010034CAH   LINE      CODE     ---       #811
      010034D0H   LINE      CODE     ---       #812
      010034D0H   LINE      CODE     ---       #813
      010034DFH   LINE      CODE     ---       #814
      0100350DH   LINE      CODE     ---       #816
      0100351DH   LINE      CODE     ---       #820
      01003523H   LINE      CODE     ---       #821
      01003527H   LINE      CODE     ---       #822
      0100353BH   LINE      CODE     ---       #823
      01003547H   LINE      CODE     ---       #824
      01003573H   LINE      CODE     ---       #828
      01003579H   LINE      CODE     ---       #829
      0100357DH   LINE      CODE     ---       #830
      01003591H   LINE      CODE     ---       #831
      0100359DH   LINE      CODE     ---       #832
      010035C9H   LINE      CODE     ---       #836
      010035CFH   LINE      CODE     ---       #837
      010035D2H   LINE      CODE     ---       #838
      010035DAH   LINE      CODE     ---       #839
      010035E6H   LINE      CODE     ---       #840
      01003612H   LINE      CODE     ---       #844
      01003617H   LINE      CODE     ---       #845
      0100361AH   LINE      CODE     ---       #846
      01003622H   LINE      CODE     ---       #847
      01003627H   LINE      CODE     ---       #848
      0100363EH   LINE      CODE     ---       #849
      01003644H   LINE      CODE     ---       #850
LX51 LINKER/LOCATER V4.64.0.0                                                         06/11/2018  11:54:47  PAGE 48


      01003646H   LINE      CODE     ---       #851
      01003646H   LINE      CODE     ---       #852
      0100365DH   LINE      CODE     ---       #853
      01003663H   LINE      CODE     ---       #854
      01003663H   LINE      CODE     ---       #855
      01003672H   LINE      CODE     ---       #856
      010036A0H   LINE      CODE     ---       #858
      010036B0H   LINE      CODE     ---       #863
      010036B6H   LINE      CODE     ---       #864
      010036BAH   LINE      CODE     ---       #865
      010036CEH   LINE      CODE     ---       #866
      010036DDH   LINE      CODE     ---       #867
      0100370BH   LINE      CODE     ---       #871
      01003710H   LINE      CODE     ---       #872
      01003713H   LINE      CODE     ---       #873
      0100371BH   LINE      CODE     ---       #874
      01003720H   LINE      CODE     ---       #875
      01003737H   LINE      CODE     ---       #876
      0100373DH   LINE      CODE     ---       #877
      0100373FH   LINE      CODE     ---       #878
      0100373FH   LINE      CODE     ---       #879
      01003756H   LINE      CODE     ---       #880
      0100375CH   LINE      CODE     ---       #881
      0100375CH   LINE      CODE     ---       #882
      0100376BH   LINE      CODE     ---       #883
      01003799H   LINE      CODE     ---       #885
      010037A9H   LINE      CODE     ---       #889
      010037B5H   LINE      CODE     ---       #890
      010037E1H   LINE      CODE     ---       #892
      010037EDH   LINE      CODE     ---       #893
      01003819H   LINE      CODE     ---       #895
      01003825H   LINE      CODE     ---       #896
      01003851H   LINE      CODE     ---       #898
      0100385DH   LINE      CODE     ---       #899
      01003889H   LINE      CODE     ---       #901
      010038ADH   LINE      CODE     ---       #902
      010038BBH   LINE      CODE     ---       #903
      010038BEH   LINE      CODE     ---       #904
      010038BFH   LINE      CODE     ---       #907
      010038BFH   LINE      CODE     ---       #908
      010038C7H   LINE      CODE     ---       #909
      010038C8H   LINE      CODE     ---       #912
      010038C8H   LINE      CODE     ---       #913
      010038D0H   LINE      CODE     ---       #914
      010038F1H   LINE      CODE     ---       #915
      01003912H   LINE      CODE     ---       #916
      01003933H   LINE      CODE     ---       #917
      01003934H   LINE      CODE     ---       #918
      01003934H   LINE      CODE     ---       #919
      01003955H   LINE      CODE     ---       #920
      01003976H   LINE      CODE     ---       #921
      01003997H   LINE      CODE     ---       #922
      01003997H   LINE      CODE     ---       #923
      01003998H   LINE      CODE     ---       #926
      01003998H   LINE      CODE     ---       #927
      010039A0H   LINE      CODE     ---       #928
      010039C1H   LINE      CODE     ---       #929
      010039E2H   LINE      CODE     ---       #930
      01003A03H   LINE      CODE     ---       #931
      01003A04H   LINE      CODE     ---       #932
      01003A04H   LINE      CODE     ---       #933
      01003A25H   LINE      CODE     ---       #934
      01003A46H   LINE      CODE     ---       #935
      01003A67H   LINE      CODE     ---       #936
      01003A67H   LINE      CODE     ---       #937
LX51 LINKER/LOCATER V4.64.0.0                                                         06/11/2018  11:54:47  PAGE 49


      01003A68H   LINE      CODE     ---       #940
      01003A68H   LINE      CODE     ---       #941
      01003A6EH   LINE      CODE     ---       #942
      01003A75H   LINE      CODE     ---       #944
      01003A7AH   LINE      CODE     ---       #945
      01003A7BH   LINE      CODE     ---       #948
      01003A7BH   LINE      CODE     ---       #949
      01003A83H   LINE      CODE     ---       #950
      01003A84H   LINE      CODE     ---       #953
      01003A84H   LINE      CODE     ---       #954
      01003A8CH   LINE      CODE     ---       #955
      01003A8DH   LINE      CODE     ---       #958
      01003A8DH   LINE      CODE     ---       #959
      01003AA0H   LINE      CODE     ---       #960
      01003AC6H   LINE      CODE     ---       #961
      01003AC6H   LINE      CODE     ---       #964
      01003AC6H   LINE      CODE     ---       #965
      01003AD9H   LINE      CODE     ---       #966
      01003B23H   LINE      CODE     ---       #967
      01003B55H   LINE      CODE     ---       #969
      01003B63H   LINE      CODE     ---       #970
      01003B6EH   LINE      CODE     ---       #971
      01003B70H   LINE      CODE     ---       #972
      01003B71H   LINE      CODE     ---       #975
      01003B71H   LINE      CODE     ---       #976
      01003B84H   LINE      CODE     ---       #977
      01003BD8H   LINE      CODE     ---       #978
      01003BD8H   LINE      CODE     ---       #981
      01003BD8H   LINE      CODE     ---       #982
      01003BE0H   LINE      CODE     ---       #983
      01003BE1H   LINE      CODE     ---       #986
      01003BE1H   LINE      CODE     ---       #987
      01003BF4H   LINE      CODE     ---       #988
      01003C3EH   LINE      CODE     ---       #989
      01003C8BH   LINE      CODE     ---       #991
      01003CBDH   LINE      CODE     ---       #992
      01003CFBH   LINE      CODE     ---       #993
      01003D06H   LINE      CODE     ---       #994
      01003D06H   LINE      CODE     ---       #997
      01003D06H   LINE      CODE     ---       #998
      01003D1AH   LINE      CODE     ---       #999
      01003D33H   LINE      CODE     ---       #1000
      01003D47H   LINE      CODE     ---       #1002
      01003D5BH   LINE      CODE     ---       #1003
      01003D77H   LINE      CODE     ---       #1004
      01003D8BH   LINE      CODE     ---       #1005
      01003D8CH   LINE      CODE     ---       #1008
      01003D8CH   LINE      CODE     ---       #1009
      01003D9BH   LINE      CODE     ---       #1010
      01003D9CH   LINE      CODE     ---       #1013
      01003D9CH   LINE      CODE     ---       #1014
      01003DB0H   LINE      CODE     ---       #1015
      01003DB1H   LINE      CODE     ---       #1018
      01003DB1H   LINE      CODE     ---       #1019
      01003DC0H   LINE      CODE     ---       #1020
      01003DC1H   LINE      CODE     ---       #1023
      01003DC1H   LINE      CODE     ---       #1024
      01003DD0H   LINE      CODE     ---       #1025
      01003DD1H   LINE      CODE     ---       #1028
      01003DD1H   LINE      CODE     ---       #1029
      01003DD9H   LINE      CODE     ---       #1030
      01003DDEH   LINE      CODE     ---       #1031
      01003DE3H   LINE      CODE     ---       #1032
      01003DE7H   LINE      CODE     ---       #1033
      01003DE7H   LINE      CODE     ---       #1034
LX51 LINKER/LOCATER V4.64.0.0                                                         06/11/2018  11:54:47  PAGE 50


      01003DE8H   LINE      CODE     ---       #1037
      01003DE8H   LINE      CODE     ---       #1038
      01003DF7H   LINE      CODE     ---       #1039
      01003DF8H   LINE      CODE     ---       #1042
      01003DF8H   LINE      CODE     ---       #1043
      01003E00H   LINE      CODE     ---       #1044
      01003E02H   LINE      CODE     ---       #1045
      01003E07H   LINE      CODE     ---       #1046
      01003E0BH   LINE      CODE     ---       #1047
      01003E0BH   LINE      CODE     ---       #1048
      01003E0CH   LINE      CODE     ---       #1051
      01003E0CH   LINE      CODE     ---       #1052
      01003E20H   LINE      CODE     ---       #1053
      01003E21H   LINE      CODE     ---       #1056
      01003E21H   LINE      CODE     ---       #1057
      01003E35H   LINE      CODE     ---       #1058
      01003E36H   LINE      CODE     ---       #1060
      01003E36H   LINE      CODE     ---       #1061
      01003E3EH   LINE      CODE     ---       #1062
      01003E3FH   LINE      CODE     ---       #1064
      01003E3FH   LINE      CODE     ---       #1065
      01003E47H   LINE      CODE     ---       #1066
      01003E49H   LINE      CODE     ---       #1067
      01003E4EH   LINE      CODE     ---       #1068
      01003E52H   LINE      CODE     ---       #1069
      01003E52H   LINE      CODE     ---       #1070
      01003E53H   LINE      CODE     ---       #1072
      01003E53H   LINE      CODE     ---       #1073
      01003E67H   LINE      CODE     ---       #1074
      01003E68H   LINE      CODE     ---       #1076
      01003E68H   LINE      CODE     ---       #1077
      01003E70H   LINE      CODE     ---       #1078
      01003E70H   LINE      CODE     ---       #1079
      01003E70H   LINE      CODE     ---       #1080
      ---         BLOCKEND  ---      ---       LVL=0

      01003E71H   BLOCK     CODE     ---       LVL=0
      02000605H   SYMBOL    XDATA    ---       info_string
      01003E7CH   BLOCK     CODE     NEAR LAB  LVL=1
      00000067H   SYMBOL    DATA     INT       i
      02000608H   SYMBOL    XDATA    ---       str
      ---         BLOCKEND  ---      ---       LVL=1
      01003E71H   LINE      CODE     ---       #1086
      01003E7CH   LINE      CODE     ---       #1087
      01003E7CH   LINE      CODE     ---       #1092
      01003E94H   LINE      CODE     ---       #1093
      01003EB0H   LINE      CODE     ---       #1094
      01003ECCH   LINE      CODE     ---       #1095
      01003EE8H   LINE      CODE     ---       #1096
      01003F04H   LINE      CODE     ---       #1098
      01003F20H   LINE      CODE     ---       #1099
      01003F44H   LINE      CODE     ---       #1100
      01003F60H   LINE      CODE     ---       #1101
      01003F7EH   LINE      CODE     ---       #1102
      01003F9AH   LINE      CODE     ---       #1103
      01003FC0H   LINE      CODE     ---       #1104
      01003FDCH   LINE      CODE     ---       #1105
      01004000H   LINE      CODE     ---       #1106
      0100401CH   LINE      CODE     ---       #1107
      01004038H   LINE      CODE     ---       #1109
      01004054H   LINE      CODE     ---       #1110
      01004070H   LINE      CODE     ---       #1112
      01004082H   LINE      CODE     ---       #1113
      010040D4H   LINE      CODE     ---       #1114
      010040F0H   LINE      CODE     ---       #1115
LX51 LINKER/LOCATER V4.64.0.0                                                         06/11/2018  11:54:47  PAGE 51


      010040FBH   LINE      CODE     ---       #1116
      01004117H   LINE      CODE     ---       #1118
      0100412EH   LINE      CODE     ---       #1120
      01004136H   LINE      CODE     ---       #1121
      0100414DH   LINE      CODE     ---       #1122
      0100414FH   LINE      CODE     ---       #1123
      01004166H   LINE      CODE     ---       #1124
      01004166H   LINE      CODE     ---       #1125
      01004182H   LINE      CODE     ---       #1128
      0100419EH   LINE      CODE     ---       #1129
      010041BAH   LINE      CODE     ---       #1130
      010041CFH   LINE      CODE     ---       #1132
      01004230H   LINE      CODE     ---       #1133
      0100424CH   LINE      CODE     ---       #1134
      01004268H   LINE      CODE     ---       #1135
      01004273H   LINE      CODE     ---       #1136
      0100429EH   LINE      CODE     ---       #1137
      010042BAH   LINE      CODE     ---       #1138
      010042D6H   LINE      CODE     ---       #1140
      01004301H   LINE      CODE     ---       #1141
      0100431DH   LINE      CODE     ---       #1142
      01004339H   LINE      CODE     ---       #1144
      01004364H   LINE      CODE     ---       #1145
      01004380H   LINE      CODE     ---       #1146
      0100439CH   LINE      CODE     ---       #1149
      010043B8H   LINE      CODE     ---       #1151
      010043D4H   LINE      CODE     ---       #1152
      010043DFH   LINE      CODE     ---       #1153
      01004418H   LINE      CODE     ---       #1154
      01004434H   LINE      CODE     ---       #1155
      0100446DH   LINE      CODE     ---       #1156
      01004489H   LINE      CODE     ---       #1157
      010044C2H   LINE      CODE     ---       #1158
      010044DEH   LINE      CODE     ---       #1159
      010044E1H   LINE      CODE     ---       #1160
      010044E1H   LINE      CODE     ---       #1161
      0100451AH   LINE      CODE     ---       #1162
      01004536H   LINE      CODE     ---       #1163
      0100456FH   LINE      CODE     ---       #1164
      0100458BH   LINE      CODE     ---       #1165
      010045C4H   LINE      CODE     ---       #1166
      010045E0H   LINE      CODE     ---       #1167
      010045E0H   LINE      CODE     ---       #1169
      010045FCH   LINE      CODE     ---       #1170
      01004607H   LINE      CODE     ---       #1171
      01004640H   LINE      CODE     ---       #1172
      0100465CH   LINE      CODE     ---       #1173
      01004695H   LINE      CODE     ---       #1174
      010046B1H   LINE      CODE     ---       #1175
      010046EAH   LINE      CODE     ---       #1176
      01004706H   LINE      CODE     ---       #1177
      01004709H   LINE      CODE     ---       #1178
      01004709H   LINE      CODE     ---       #1179
      01004742H   LINE      CODE     ---       #1180
      0100475EH   LINE      CODE     ---       #1181
      01004797H   LINE      CODE     ---       #1182
      010047B3H   LINE      CODE     ---       #1183
      010047ECH   LINE      CODE     ---       #1184
      01004808H   LINE      CODE     ---       #1185
      01004808H   LINE      CODE     ---       #1187
      01004824H   LINE      CODE     ---       #1189
      0100482BH   LINE      CODE     ---       #1190
      01004847H   LINE      CODE     ---       #1191
      01004849H   LINE      CODE     ---       #1192
      01004865H   LINE      CODE     ---       #1193
LX51 LINKER/LOCATER V4.64.0.0                                                         06/11/2018  11:54:47  PAGE 52


      01004865H   LINE      CODE     ---       #1195
      0100486FH   LINE      CODE     ---       #1196
      0100486FH   LINE      CODE     ---       #1197
      0100488BH   LINE      CODE     ---       #1198
      0100488DH   LINE      CODE     ---       #1199
      0100488DH   LINE      CODE     ---       #1200
      010048A9H   LINE      CODE     ---       #1201
      010048A9H   LINE      CODE     ---       #1202
      010048A9H   LINE      CODE     ---       #1204
      010048C5H   LINE      CODE     ---       #1205
      010048D6H   LINE      CODE     ---       #1206
      010048D6H   LINE      CODE     ---       #1207
      010048F2H   LINE      CODE     ---       #1208
      010048F4H   LINE      CODE     ---       #1209
      010048F4H   LINE      CODE     ---       #1210
      01004910H   LINE      CODE     ---       #1211
      01004912H   LINE      CODE     ---       #1212
      01004912H   LINE      CODE     ---       #1213
      0100492EH   LINE      CODE     ---       #1214
      01004930H   LINE      CODE     ---       #1215
      01004930H   LINE      CODE     ---       #1216
      0100494CH   LINE      CODE     ---       #1217
      0100494CH   LINE      CODE     ---       #1224
      0100494CH   LINE      CODE     ---       #1226
      01004968H   LINE      CODE     ---       #1227
      0100497AH   LINE      CODE     ---       #1228
      0100497AH   LINE      CODE     ---       #1230
      010049B6H   LINE      CODE     ---       #1231
      010049D2H   LINE      CODE     ---       #1232
      010049EEH   LINE      CODE     ---       #1233
      010049F9H   LINE      CODE     ---       #1236
      01004A15H   LINE      CODE     ---       #1237
      01004A2AH   LINE      CODE     ---       #1238
      01004A2AH   LINE      CODE     ---       #1240
      01004A89H   LINE      CODE     ---       #1241
      01004AA5H   LINE      CODE     ---       #1242
      01004AC1H   LINE      CODE     ---       #1243
      01004ACCH   LINE      CODE     ---       #1245
      01004AE8H   LINE      CODE     ---       #1246
      01004AFDH   LINE      CODE     ---       #1247
      01004AFDH   LINE      CODE     ---       #1249
      01004B4AH   LINE      CODE     ---       #1250
      01004B66H   LINE      CODE     ---       #1251
      01004B82H   LINE      CODE     ---       #1252
      01004B8DH   LINE      CODE     ---       #1254
      01004BA9H   LINE      CODE     ---       #1255
      01004BD4H   LINE      CODE     ---       #1256
      01004BF0H   LINE      CODE     ---       #1257
      01004C0CH   LINE      CODE     ---       #1259
      01004C28H   LINE      CODE     ---       #1260
      01004C4EH   LINE      CODE     ---       #1261
      01004C6AH   LINE      CODE     ---       #1262
      01004C86H   LINE      CODE     ---       #1264
      01004CA2H   LINE      CODE     ---       #1265
      01004CC8H   LINE      CODE     ---       #1266
      01004CE4H   LINE      CODE     ---       #1267
      01004D00H   LINE      CODE     ---       #1269
      01004D24H   LINE      CODE     ---       #1270
      01004D40H   LINE      CODE     ---       #1271
      01004D5CH   LINE      CODE     ---       #1273
      01004D71H   LINE      CODE     ---       #1275
      01004DD0H   LINE      CODE     ---       #1276
      01004DECH   LINE      CODE     ---       #1279
      01004E3CH   LINE      CODE     ---       #1280
      01004E58H   LINE      CODE     ---       #1281
LX51 LINKER/LOCATER V4.64.0.0                                                         06/11/2018  11:54:47  PAGE 53


      01004E63H   LINE      CODE     ---       #1283
      01004E9EH   LINE      CODE     ---       #1284
      01004EBAH   LINE      CODE     ---       #1285
      01004ED6H   LINE      CODE     ---       #1287
      01004EFCH   LINE      CODE     ---       #1288
      01004F18H   LINE      CODE     ---       #1289
      01004F34H   LINE      CODE     ---       #1291
      01004F3AH   LINE      CODE     ---       #1292
      01004F58H   LINE      CODE     ---       #1294
      01004F74H   LINE      CODE     ---       #1296
      01004F7AH   LINE      CODE     ---       #1297
      01004F98H   LINE      CODE     ---       #1299
      01004FB4H   LINE      CODE     ---       #1301
      01004FBAH   LINE      CODE     ---       #1302
      01004FD8H   LINE      CODE     ---       #1304
      01004FF4H   LINE      CODE     ---       #1306
      01004FF7H   LINE      CODE     ---       #1307
      01005015H   LINE      CODE     ---       #1309
      01005031H   LINE      CODE     ---       #1311
      01005034H   LINE      CODE     ---       #1312
      01005052H   LINE      CODE     ---       #1314
      0100506EH   LINE      CODE     ---       #1316
      01005071H   LINE      CODE     ---       #1317
      0100508FH   LINE      CODE     ---       #1319
      010050ABH   LINE      CODE     ---       #1321
      010050B1H   LINE      CODE     ---       #1322
      010050CFH   LINE      CODE     ---       #1324
      010050EBH   LINE      CODE     ---       #1326
      0100512FH   LINE      CODE     ---       #1327
      0100514BH   LINE      CODE     ---       #1328
      01005167H   LINE      CODE     ---       #1330
      ---         BLOCKEND  ---      ---       LVL=0

      0100AC19H   BLOCK     CODE     ---       LVL=0
      02000029H   SYMBOL    XDATA    ---       packet_data
      0200002CH   SYMBOL    XDATA    WORD      packet_lenght
      0200002EH   SYMBOL    XDATA    BYTE      old_id
      0100AC2AH   BLOCK     CODE     NEAR LAB  LVL=1
      0000006BH   SYMBOL    DATA     WORD      index
      ---         BLOCKEND  ---      ---       LVL=1
      0100AC19H   LINE      CODE     ---       #1336
      0100AC2AH   LINE      CODE     ---       #1337
      0100AC2AH   LINE      CODE     ---       #1341
      0100AC2FH   LINE      CODE     ---       #1342
      0100AC34H   LINE      CODE     ---       #1345
      0100AC3CH   LINE      CODE     ---       #1350
      0100AC46H   LINE      CODE     ---       #1352
      0100AC5AH   LINE      CODE     ---       #1353
      0100AC72H   LINE      CODE     ---       #1354
      0100AC7CH   LINE      CODE     ---       #1356
      0100AC81H   LINE      CODE     ---       #1358
      0100AC9BH   LINE      CODE     ---       #1360
      0100ACA0H   LINE      CODE     ---       #1361
      0100ACA5H   LINE      CODE     ---       #1362
      ---         BLOCKEND  ---      ---       LVL=0

      0100AAE7H   BLOCK     CODE     ---       LVL=0
      02000B00H   SYMBOL    XDATA    ---       packet_data
      02000B03H   SYMBOL    XDATA    WORD      packet_lenght
      02000B05H   SYMBOL    XDATA    BYTE      next
      0100AAF8H   BLOCK     CODE     NEAR LAB  LVL=1
      0000007CH   SYMBOL    DATA     WORD      index
      ---         BLOCKEND  ---      ---       LVL=1
      0100AAE7H   LINE      CODE     ---       #1364
      0100AAF8H   LINE      CODE     ---       #1365
LX51 LINKER/LOCATER V4.64.0.0                                                         06/11/2018  11:54:47  PAGE 54


      0100AAF8H   LINE      CODE     ---       #1369
      0100AAFDH   LINE      CODE     ---       #1370
      0100AB02H   LINE      CODE     ---       #1373
      0100AB08H   LINE      CODE     ---       #1376
      0100AB12H   LINE      CODE     ---       #1378
      0100AB1AH   LINE      CODE     ---       #1381
      0100AB24H   LINE      CODE     ---       #1384
      0100AB38H   LINE      CODE     ---       #1385
      0100AB5AH   LINE      CODE     ---       #1387
      0100AB5FH   LINE      CODE     ---       #1389
      0100AB79H   LINE      CODE     ---       #1391
      0100AB7FH   LINE      CODE     ---       #1392
      0100AB84H   LINE      CODE     ---       #1393
      0100AB89H   LINE      CODE     ---       #1394
      0100AB89H   LINE      CODE     ---       #1395
      ---         BLOCKEND  ---      ---       LVL=0

      0100B9EAH   BLOCK     CODE     ---       LVL=0
      00000007H   SYMBOL    DATA     BYTE      value
      0100B9EAH   BLOCK     CODE     NEAR LAB  LVL=1
      0000006BH   SYMBOL    DATA     ---       packet_data
      ---         BLOCKEND  ---      ---       LVL=1
      0100B9EAH   LINE      CODE     ---       #1401
      0100B9EAH   LINE      CODE     ---       #1408
      0100B9ECH   LINE      CODE     ---       #1411
      0100B9EEH   LINE      CODE     ---       #1413
      0100B9FFH   LINE      CODE     ---       #1414
      ---         BLOCKEND  ---      ---       LVL=0

      0100A77EH   BLOCK     CODE     ---       LVL=0
      02000029H   SYMBOL    XDATA    INT       displacement
      0100A786H   BLOCK     CODE     NEAR LAB  LVL=1
      00000007H   SYMBOL    DATA     BYTE      writeStatus
      0200002BH   SYMBOL    XDATA    INT       i
      0200002DH   SYMBOL    XDATA    INT       pages
      0200002FH   SYMBOL    XDATA    BYTE      ret_val
      ---         BLOCKEND  ---      ---       LVL=1
      0100A77EH   LINE      CODE     ---       #1424
      0100A786H   LINE      CODE     ---       #1429
      0100A78CH   LINE      CODE     ---       #1431
      0100A791H   LINE      CODE     ---       #1432
      0100A796H   LINE      CODE     ---       #1435
      0100A799H   LINE      CODE     ---       #1437
      0100A7ACH   LINE      CODE     ---       #1439
      0100A7B5H   LINE      CODE     ---       #1441
      0100A7D8H   LINE      CODE     ---       #1442
      0100A7FDH   LINE      CODE     ---       #1443
      0100A800H   LINE      CODE     ---       #1444
      0100A805H   LINE      CODE     ---       #1445
      0100A807H   LINE      CODE     ---       #1446
      0100A807H   LINE      CODE     ---       #1447
      0100A817H   LINE      CODE     ---       #1449
      0100A82AH   LINE      CODE     ---       #1451
      0100A82FH   LINE      CODE     ---       #1452
      ---         BLOCKEND  ---      ---       LVL=0

      0100B5E5H   BLOCK     CODE     ---       LVL=0
      0100B5E5H   BLOCK     CODE     NEAR LAB  LVL=1
      00000006H   SYMBOL    DATA     WORD      i
      ---         BLOCKEND  ---      ---       LVL=1
      0100B5E5H   LINE      CODE     ---       #1462
      0100B5E5H   LINE      CODE     ---       #1466
      0100B5F1H   LINE      CODE     ---       #1467
      0100B614H   LINE      CODE     ---       #1471
      0100B61AH   LINE      CODE     ---       #1472
LX51 LINKER/LOCATER V4.64.0.0                                                         06/11/2018  11:54:47  PAGE 55


      0100B61EH   LINE      CODE     ---       #1474
      0100B631H   LINE      CODE     ---       #1476
      ---         BLOCKEND  ---      ---       LVL=0

      0100B6C7H   BLOCK     CODE     ---       LVL=0
      0100B6C7H   BLOCK     CODE     NEAR LAB  LVL=1
      00000006H   SYMBOL    DATA     WORD      i
      ---         BLOCKEND  ---      ---       LVL=1
      0100B6C7H   LINE      CODE     ---       #1486
      0100B6C7H   LINE      CODE     ---       #1490
      0100B6D3H   LINE      CODE     ---       #1491
      0100B6FDH   LINE      CODE     ---       #1495
      0100B703H   LINE      CODE     ---       #1496
      0100B707H   LINE      CODE     ---       #1498
      0100B70DH   LINE      CODE     ---       #1500
      ---         BLOCKEND  ---      ---       LVL=0

      010092ADH   BLOCK     CODE     ---       LVL=0
      010092ADH   BLOCK     CODE     NEAR LAB  LVL=1
      00000067H   SYMBOL    DATA     BYTE      i
      ---         BLOCKEND  ---      ---       LVL=1
      010092ADH   LINE      CODE     ---       #1509
      010092ADH   LINE      CODE     ---       #1513
      010092B3H   LINE      CODE     ---       #1514
      010092BEH   LINE      CODE     ---       #1515
      010092C9H   LINE      CODE     ---       #1516
      010092D6H   LINE      CODE     ---       #1517
      010092E2H   LINE      CODE     ---       #1518
      010092EDH   LINE      CODE     ---       #1519
      010092F8H   LINE      CODE     ---       #1521
      01009306H   LINE      CODE     ---       #1522
      01009311H   LINE      CODE     ---       #1523
      0100931CH   LINE      CODE     ---       #1524
      01009329H   LINE      CODE     ---       #1525
      01009335H   LINE      CODE     ---       #1526
      01009340H   LINE      CODE     ---       #1528
      01009346H   LINE      CODE     ---       #1529
      01009349H   LINE      CODE     ---       #1530
      0100934DH   LINE      CODE     ---       #1531
      01009352H   LINE      CODE     ---       #1533
      01009356H   LINE      CODE     ---       #1535
      0100935FH   LINE      CODE     ---       #1536
      01009379H   LINE      CODE     ---       #1537
      01009392H   LINE      CODE     ---       #1538
      01009396H   LINE      CODE     ---       #1540
      010093A0H   LINE      CODE     ---       #1541
      010093A0H   LINE      CODE     ---       #1542
      010093B9H   LINE      CODE     ---       #1543
      010093C7H   LINE      CODE     ---       #1544
      010093EFH   LINE      CODE     ---       #1545
      010093F3H   LINE      CODE     ---       #1547
      01009401H   LINE      CODE     ---       #1548
      0100940BH   LINE      CODE     ---       #1549
      01009412H   LINE      CODE     ---       #1550
      01009417H   LINE      CODE     ---       #1551
      0100941BH   LINE      CODE     ---       #1552
      0100941FH   LINE      CODE     ---       #1553
      01009427H   LINE      CODE     ---       #1554
      0100942DH   LINE      CODE     ---       #1556
      01009438H   LINE      CODE     ---       #1557
      01009443H   LINE      CODE     ---       #1559
      01009450H   LINE      CODE     ---       #1560
      0100945DH   LINE      CODE     ---       #1562
      01009463H   LINE      CODE     ---       #1566
      0100946AH   LINE      CODE     ---       #1568
LX51 LINKER/LOCATER V4.64.0.0                                                         06/11/2018  11:54:47  PAGE 56


      01009474H   LINE      CODE     ---       #1571
      0100947AH   LINE      CODE     ---       #1573
      01009487H   LINE      CODE     ---       #1576
      010094A0H   LINE      CODE     ---       #1577
      ---         BLOCKEND  ---      ---       LVL=0

      0100B186H   BLOCK     CODE     ---       LVL=0
      0100B186H   BLOCK     CODE     NEAR LAB  LVL=1
      00000067H   SYMBOL    DATA     BYTE      index
      02000029H   SYMBOL    XDATA    ---       packet_data
      ---         BLOCKEND  ---      ---       LVL=1
      0100B186H   LINE      CODE     ---       #1586
      0100B186H   LINE      CODE     ---       #1604
      0100B18CH   LINE      CODE     ---       #1606
      0100B196H   LINE      CODE     ---       #1607
      0100B1D5H   LINE      CODE     ---       #1616
      0100B1E5H   LINE      CODE     ---       #1617
      0100B1F6H   LINE      CODE     ---       #1620
      ---         BLOCKEND  ---      ---       LVL=0

      0100B2CDH   BLOCK     CODE     ---       LVL=0
      0100B2CDH   BLOCK     CODE     NEAR LAB  LVL=1
      02000029H   SYMBOL    XDATA    ---       packet_data
      ---         BLOCKEND  ---      ---       LVL=1
      0100B2CDH   LINE      CODE     ---       #1622
      0100B2CDH   LINE      CODE     ---       #1630
      0100B2D3H   LINE      CODE     ---       #1632
      0100B2F2H   LINE      CODE     ---       #1633
      0100B311H   LINE      CODE     ---       #1637
      0100B321H   LINE      CODE     ---       #1639
      0100B332H   LINE      CODE     ---       #1641
      ---         BLOCKEND  ---      ---       LVL=0

      0100B70EH   BLOCK     CODE     ---       LVL=0
      0100B70EH   BLOCK     CODE     NEAR LAB  LVL=1
      02000029H   SYMBOL    XDATA    ---       packet_data
      ---         BLOCKEND  ---      ---       LVL=1
      0100B70EH   LINE      CODE     ---       #1643
      0100B70EH   LINE      CODE     ---       #1651
      0100B714H   LINE      CODE     ---       #1653
      0100B723H   LINE      CODE     ---       #1654
      0100B732H   LINE      CODE     ---       #1658
      0100B742H   LINE      CODE     ---       #1660
      0100B753H   LINE      CODE     ---       #1661
      ---         BLOCKEND  ---      ---       LVL=0

      0100AB8AH   BLOCK     CODE     ---       LVL=0
      0100AB8AH   BLOCK     CODE     NEAR LAB  LVL=1
      00000067H   SYMBOL    DATA     BYTE      index
      02000029H   SYMBOL    XDATA    ---       packet_data
      ---         BLOCKEND  ---      ---       LVL=1
      0100AB8AH   LINE      CODE     ---       #1663
      0100AB8AH   LINE      CODE     ---       #1672
      0100AB90H   LINE      CODE     ---       #1675
      0100AB9FH   LINE      CODE     ---       #1676
      0100ABAEH   LINE      CODE     ---       #1679
      0100ABB8H   LINE      CODE     ---       #1680
      0100ABF7H   LINE      CODE     ---       #1684
      0100AC07H   LINE      CODE     ---       #1685
      0100AC18H   LINE      CODE     ---       #1686
      ---         BLOCKEND  ---      ---       LVL=0

      01009A72H   BLOCK     CODE     ---       LVL=0
      01009A72H   LINE      CODE     ---       #1688
      01009A72H   LINE      CODE     ---       #1691
LX51 LINKER/LOCATER V4.64.0.0                                                         06/11/2018  11:54:47  PAGE 57


      01009A86H   LINE      CODE     ---       #1692
      01009AA3H   LINE      CODE     ---       #1694
      01009AB7H   LINE      CODE     ---       #1695
      01009AD4H   LINE      CODE     ---       #1698
      01009ADDH   LINE      CODE     ---       #1700
      01009AFDH   LINE      CODE     ---       #1701
      01009B11H   LINE      CODE     ---       #1702
      01009B33H   LINE      CODE     ---       #1703
      01009B47H   LINE      CODE     ---       #1705
      01009B69H   LINE      CODE     ---       #1706
      01009B7DH   LINE      CODE     ---       #1707
      01009B9FH   LINE      CODE     ---       #1708
      01009BB3H   LINE      CODE     ---       #1709
      01009BB3H   LINE      CODE     ---       #1710
      ---         BLOCKEND  ---      ---       LVL=0

      010097C1H   BLOCK     CODE     ---       LVL=0
      010097C1H   BLOCK     CODE     NEAR LAB  LVL=1
      00000067H   SYMBOL    DATA     LONG      pos
      0000006BH   SYMBOL    DATA     LONG      stiff
      ---         BLOCKEND  ---      ---       LVL=1
      010097C1H   LINE      CODE     ---       #1712
      010097C1H   LINE      CODE     ---       #1718
      010097D5H   LINE      CODE     ---       #1719
      010097E7H   LINE      CODE     ---       #1722
      01009800H   LINE      CODE     ---       #1725
      01009835H   LINE      CODE     ---       #1726
      0100985FH   LINE      CODE     ---       #1728
      01009890H   LINE      CODE     ---       #1729
      010098B7H   LINE      CODE     ---       #1734
      010098F6H   LINE      CODE     ---       #1737
      01009910H   LINE      CODE     ---       #1738
      0100992BH   LINE      CODE     ---       #1739
      ---         BLOCKEND  ---      ---       LVL=0

      0100B3EEH   BLOCK     CODE     ---       LVL=0
      0100B3EEH   BLOCK     CODE     NEAR LAB  LVL=1
      00000067H   SYMBOL    DATA     BYTE      index
      02000029H   SYMBOL    XDATA    ---       packet_data
      ---         BLOCKEND  ---      ---       LVL=1
      0100B3EEH   LINE      CODE     ---       #1741
      0100B3EEH   LINE      CODE     ---       #1759
      0100B3F4H   LINE      CODE     ---       #1761
      0100B3FEH   LINE      CODE     ---       #1762
      0100B426H   LINE      CODE     ---       #1771
      0100B436H   LINE      CODE     ---       #1772
      0100B447H   LINE      CODE     ---       #1774
      ---         BLOCKEND  ---      ---       LVL=0

      0100B798H   BLOCK     CODE     ---       LVL=0
      0100B798H   LINE      CODE     ---       #1776
      0100B798H   LINE      CODE     ---       #1779
      0100B7A0H   LINE      CODE     ---       #1782
      0100B7AAH   LINE      CODE     ---       #1783
      0100B7AAH   LINE      CODE     ---       #1784
      0100B7BEH   LINE      CODE     ---       #1785
      0100B7D2H   LINE      CODE     ---       #1786
      0100B7D2H   LINE      CODE     ---       #1795
      0100B7DAH   LINE      CODE     ---       #1797
      ---         BLOCKEND  ---      ---       LVL=0

      0100B7DBH   BLOCK     CODE     ---       LVL=0
      0100B7DBH   LINE      CODE     ---       #1799
      0100B7DBH   LINE      CODE     ---       #1801
      0100B7E4H   LINE      CODE     ---       #1803
LX51 LINKER/LOCATER V4.64.0.0                                                         06/11/2018  11:54:47  PAGE 58


      0100B7E9H   LINE      CODE     ---       #1804
      0100B7EEH   LINE      CODE     ---       #1805
      0100B7EFH   LINE      CODE     ---       #1806
      0100B7EFH   LINE      CODE     ---       #1808
      0100B7F8H   LINE      CODE     ---       #1809
      0100B7FBH   LINE      CODE     ---       #1814
      0100B813H   LINE      CODE     ---       #1815
      0100B816H   LINE      CODE     ---       #1816
      0100B81BH   LINE      CODE     ---       #1817
      0100B81BH   LINE      CODE     ---       #1818
      ---         BLOCKEND  ---      ---       LVL=0

      0100BB36H   BLOCK     CODE     ---       LVL=0
      0100BB36H   BLOCK     CODE     NEAR LAB  LVL=1
      02000029H   SYMBOL    XDATA    ---       packet_data
      ---         BLOCKEND  ---      ---       LVL=1
      0100BB36H   LINE      CODE     ---       #1820
      0100BB36H   LINE      CODE     ---       #1825
      0100BB3CH   LINE      CODE     ---       #1828
      0100BB44H   LINE      CODE     ---       #1831
      0100BB54H   LINE      CODE     ---       #1834
      0100BB65H   LINE      CODE     ---       #1836
      ---         BLOCKEND  ---      ---       LVL=0

      0100BE82H   BLOCK     CODE     ---       LVL=0
      0100BE82H   BLOCK     CODE     NEAR LAB  LVL=1
      02000029H   SYMBOL    XDATA    ---       packet_data
      ---         BLOCKEND  ---      ---       LVL=1
      0100BE82H   LINE      CODE     ---       #1838
      0100BE82H   LINE      CODE     ---       #1843
      0100BE87H   LINE      CODE     ---       #1846
      0100BE89H   LINE      CODE     ---       #1849
      0100BE99H   LINE      CODE     ---       #1850
      ---         BLOCKEND  ---      ---       LVL=0

      01008295H   BLOCK     CODE     ---       LVL=0
      01008295H   BLOCK     CODE     NEAR LAB  LVL=1
      00000067H   SYMBOL    DATA     BYTE      packet_lenght
      00000068H   SYMBOL    DATA     ---       packet_data
      0000006AH   SYMBOL    DATA     BYTE      old_id
      ---         BLOCKEND  ---      ---       LVL=1
      01008295H   LINE      CODE     ---       #1852
      01008295H   LINE      CODE     ---       #1854
      01008298H   LINE      CODE     ---       #1859
      010082A1H   LINE      CODE     ---       #1861
      010082C2H   LINE      CODE     ---       #1863
      010082EEH   LINE      CODE     ---       #1865
      0100831AH   LINE      CODE     ---       #1866
      0100831AH   LINE      CODE     ---       #1868
      0100833BH   LINE      CODE     ---       #1870
      01008367H   LINE      CODE     ---       #1872
      01008393H   LINE      CODE     ---       #1873
      01008393H   LINE      CODE     ---       #1875
      010083B5H   LINE      CODE     ---       #1876
      0100840CH   LINE      CODE     ---       #1878
      0100842EH   LINE      CODE     ---       #1879
      01008485H   LINE      CODE     ---       #1882
      0100848EH   LINE      CODE     ---       #1883
      010084C2H   LINE      CODE     ---       #1884
      010084F8H   LINE      CODE     ---       #1886
      0100852EH   LINE      CODE     ---       #1887
      01008564H   LINE      CODE     ---       #1888
      01008564H   LINE      CODE     ---       #1889
      01008564H   LINE      CODE     ---       #1892
      01008571H   LINE      CODE     ---       #1893
LX51 LINKER/LOCATER V4.64.0.0                                                         06/11/2018  11:54:47  PAGE 59


      01008573H   LINE      CODE     ---       #1894
      0100857CH   LINE      CODE     ---       #1895
      0100857FH   LINE      CODE     ---       #1896
      01008582H   LINE      CODE     ---       #1897
      01008596H   LINE      CODE     ---       #1898
      01008597H   LINE      CODE     ---       #1899
      01008597H   LINE      CODE     ---       #1900
      0100859AH   LINE      CODE     ---       #1901
      0100859CH   LINE      CODE     ---       #1902
      010085AFH   LINE      CODE     ---       #1903
      010085AFH   LINE      CODE     ---       #1904
      010085B0H   LINE      CODE     ---       #1905
      010085B0H   LINE      CODE     ---       #1906
      010085B9H   LINE      CODE     ---       #1907
      010085BEH   LINE      CODE     ---       #1908
      010085BFH   LINE      CODE     ---       #1909
      010085C4H   LINE      CODE     ---       #1910
      010085C4H   LINE      CODE     ---       #1911
      010085C4H   LINE      CODE     ---       #1912
      ---         BLOCKEND  ---      ---       LVL=0

      0100BD4CH   BLOCK     CODE     ---       LVL=0
      0100BD4CH   LINE      CODE     ---       #1914
      0100BD4CH   LINE      CODE     ---       #1917
      0100BD54H   LINE      CODE     ---       #1919
      0100BD58H   LINE      CODE     ---       #1920
      0100BD58H   LINE      CODE     ---       #1921
      0100BD61H   LINE      CODE     ---       #1922
      0100BD62H   LINE      CODE     ---       #1923
      0100BD62H   LINE      CODE     ---       #1924
      0100BD6BH   LINE      CODE     ---       #1925
      0100BD6BH   LINE      CODE     ---       #1926
      ---         BLOCKEND  ---      ---       LVL=0

      ---         MODULE    ---      ---       GLOBALS
      02000D18H   PUBLIC    XDATA    BYTE      dev_pwm_limit
      00000022H.2 PUBLIC    BIT      BIT       tension_valid
      00000022H.1 PUBLIC    BIT      BIT       interrupt_flag
      02000CF9H   PUBLIC    XDATA    ---       g_meas
      02000CF7H   PUBLIC    XDATA    ---       pwm_sign
      02000CF1H   PUBLIC    XDATA    ---       ADC_buf
      02000CE9H   PUBLIC    XDATA    ---       pret_offset_pos
      02000CE5H   PUBLIC    XDATA    DWORD     timer_value0
      00000022H.0 PUBLIC    BIT      BIT       watchdog_flag
      00000021H.7 PUBLIC    BIT      BIT       pret_done
      00000021H.6 PUBLIC    BIT      BIT       reset_last_value_flag
      02000CDCH   PUBLIC    XDATA    ---       g_refNew
      02000C57H   PUBLIC    XDATA    ---       g_rx
      02000C4EH   PUBLIC    XDATA    ---       g_refOld
      02000C4AH   PUBLIC    XDATA    LONG      dev_tension
      02000C46H   PUBLIC    XDATA    DWORD     timer_value
      00000021H.5 PUBLIC    BIT      BIT       cuff_flag_force
      00000021H.4 PUBLIC    BIT      BIT       cuff_flag_proprio
      02000C27H   PUBLIC    XDATA    ---       g_measOld
      02000C26H   PUBLIC    XDATA    BYTE      calibration_flag
      00000021H.3 PUBLIC    BIT      BIT       pretensioning_flag
      02000B9CH   PUBLIC    XDATA    ---       g_mem
      00000021H.2 PUBLIC    BIT      BIT       cuff_flag_force_proprio
      02000B93H   PUBLIC    XDATA    ---       g_ref
      02000B09H   PUBLIC    XDATA    ---       c_mem
      000000CAH   SFRSYM    DATA     BYTE      SFRPRT5SEL
      000000DAH   SFRSYM    DATA     BYTE      SFRPRT6SEL
      000000D0H.6 SFRSYM    DATA     BIT       AC
      000000A8H.7 SFRSYM    DATA     BIT       EA
      000000A8H   SFRSYM    DATA     BYTE      IE
LX51 LINKER/LOCATER V4.64.0.0                                                         06/11/2018  11:54:47  PAGE 60


      00000085H   SFRSYM    DATA     BYTE      DPH1
      00000084H   SFRSYM    DATA     BYTE      DPL1
      000000D0H.7 SFRSYM    DATA     BIT       CY
      000000A0H   SFRSYM    DATA     BYTE      P2AX
      00000095H   SFRSYM    DATA     BYTE      DPX1
      00000081H   SFRSYM    DATA     BYTE      SP
      000000D0H.2 SFRSYM    DATA     BIT       OV
      00000080H   SFRSYM    DATA     BYTE      SFRPRT0DR
      00000090H   SFRSYM    DATA     BYTE      SFRPRT1DR
      000000F2H   SFRSYM    DATA     BYTE      SFRPRT12SEL
      00000098H   SFRSYM    DATA     BYTE      SFRPRT2DR
      000000B0H   SFRSYM    DATA     BYTE      SFRPRT3DR
      000000C0H   SFRSYM    DATA     BYTE      SFRPRT4DR
      000000FAH   SFRSYM    DATA     BYTE      SFRPRT15SEL
      000000C8H   SFRSYM    DATA     BYTE      SFRPRT5DR
      000000D8H   SFRSYM    DATA     BYTE      SFRPRT6DR
      00000089H   SFRSYM    DATA     BYTE      SFRPRT0PS
      00000091H   SFRSYM    DATA     BYTE      SFRPRT1PS
      00000099H   SFRSYM    DATA     BYTE      SFRPRT2PS
      000000B1H   SFRSYM    DATA     BYTE      SFRPRT3PS
      000000C1H   SFRSYM    DATA     BYTE      SFRPRT4PS
      000000C9H   SFRSYM    DATA     BYTE      SFRPRT5PS
      000000D9H   SFRSYM    DATA     BYTE      SFRPRT6PS
      000000EAH   SFRSYM    DATA     BYTE      MXAX
      000000F0H   SFRSYM    DATA     BYTE      B
      000000E0H   SFRSYM    DATA     BYTE      ACC
      000000D0H   SFRSYM    DATA     BIT       P
      000000D0H.3 SFRSYM    DATA     BIT       RS0
      000000D0H.4 SFRSYM    DATA     BIT       RS1
      00000083H   SFRSYM    DATA     BYTE      DPH
      000000E8H   SFRSYM    DATA     BYTE      SFRPRT12DR
      00000082H   SFRSYM    DATA     BYTE      DPL
      000000F8H   SFRSYM    DATA     BYTE      SFRPRT15DR
      00000086H   SFRSYM    DATA     BYTE      DPS
      000000E9H   SFRSYM    DATA     BYTE      SFRPRT12PS
      00000093H   SFRSYM    DATA     BYTE      DPX
      000000F9H   SFRSYM    DATA     BYTE      SFRPRT15PS
      000000D0H.5 SFRSYM    DATA     BIT       F0
      000000D0H.1 SFRSYM    DATA     BIT       F1
      0000008AH   SFRSYM    DATA     BYTE      SFRPRT0SEL
      000000D0H   SFRSYM    DATA     BYTE      PSW
      000000A2H   SFRSYM    DATA     BYTE      SFRPRT1SEL
      0000009AH   SFRSYM    DATA     BYTE      SFRPRT2SEL
      000000B2H   SFRSYM    DATA     BYTE      SFRPRT3SEL
      000000C2H   SFRSYM    DATA     BYTE      SFRPRT4SEL

      ---         MODULE    ---      ---       MAIN
      01008B92H   PUBLIC    CODE     ---       main
      000000CAH   SFRSYM    DATA     BYTE      SFRPRT5SEL
      000000DAH   SFRSYM    DATA     BYTE      SFRPRT6SEL
      000000D0H.6 SFRSYM    DATA     BIT       AC
      000000A8H.7 SFRSYM    DATA     BIT       EA
      000000A8H   SFRSYM    DATA     BYTE      IE
      00000085H   SFRSYM    DATA     BYTE      DPH1
      00000084H   SFRSYM    DATA     BYTE      DPL1
      000000D0H.7 SFRSYM    DATA     BIT       CY
      000000A0H   SFRSYM    DATA     BYTE      P2AX
      00000095H   SFRSYM    DATA     BYTE      DPX1
      00000081H   SFRSYM    DATA     BYTE      SP
      000000D0H.2 SFRSYM    DATA     BIT       OV
      00000080H   SFRSYM    DATA     BYTE      SFRPRT0DR
      00000090H   SFRSYM    DATA     BYTE      SFRPRT1DR
      000000F2H   SFRSYM    DATA     BYTE      SFRPRT12SEL
      00000098H   SFRSYM    DATA     BYTE      SFRPRT2DR
      000000B0H   SFRSYM    DATA     BYTE      SFRPRT3DR
LX51 LINKER/LOCATER V4.64.0.0                                                         06/11/2018  11:54:47  PAGE 61


      000000C0H   SFRSYM    DATA     BYTE      SFRPRT4DR
      000000FAH   SFRSYM    DATA     BYTE      SFRPRT15SEL
      000000C8H   SFRSYM    DATA     BYTE      SFRPRT5DR
      000000D8H   SFRSYM    DATA     BYTE      SFRPRT6DR
      00000089H   SFRSYM    DATA     BYTE      SFRPRT0PS
      00000091H   SFRSYM    DATA     BYTE      SFRPRT1PS
      00000099H   SFRSYM    DATA     BYTE      SFRPRT2PS
      000000B1H   SFRSYM    DATA     BYTE      SFRPRT3PS
      000000C1H   SFRSYM    DATA     BYTE      SFRPRT4PS
      000000C9H   SFRSYM    DATA     BYTE      SFRPRT5PS
      000000D9H   SFRSYM    DATA     BYTE      SFRPRT6PS
      000000EAH   SFRSYM    DATA     BYTE      MXAX
      000000F0H   SFRSYM    DATA     BYTE      B
      000000E0H   SFRSYM    DATA     BYTE      ACC
      000000D0H   SFRSYM    DATA     BIT       P
      000000D0H.3 SFRSYM    DATA     BIT       RS0
      000000D0H.4 SFRSYM    DATA     BIT       RS1
      00000083H   SFRSYM    DATA     BYTE      DPH
      000000E8H   SFRSYM    DATA     BYTE      SFRPRT12DR
      00000082H   SFRSYM    DATA     BYTE      DPL
      000000F8H   SFRSYM    DATA     BYTE      SFRPRT15DR
      00000086H   SFRSYM    DATA     BYTE      DPS
      000000E9H   SFRSYM    DATA     BYTE      SFRPRT12PS
      00000093H   SFRSYM    DATA     BYTE      DPX
      000000F9H   SFRSYM    DATA     BYTE      SFRPRT15PS
      000000D0H.5 SFRSYM    DATA     BIT       F0
      000000D0H.1 SFRSYM    DATA     BIT       F1
      0000008AH   SFRSYM    DATA     BYTE      SFRPRT0SEL
      000000D0H   SFRSYM    DATA     BYTE      PSW
      000000A2H   SFRSYM    DATA     BYTE      SFRPRT1SEL
      0000009AH   SFRSYM    DATA     BYTE      SFRPRT2SEL
      000000B2H   SFRSYM    DATA     BYTE      SFRPRT3SEL
      000000C2H   SFRSYM    DATA     BYTE      SFRPRT4SEL

      01008B92H   BLOCK     CODE     ---       LVL=0
      01008B92H   BLOCK     CODE     NEAR LAB  LVL=1
      02000000H   SYMBOL    XDATA    BYTE      i
      02000001H   SYMBOL    XDATA    BYTE      DMA_Chan
      02000002H   SYMBOL    XDATA    ---       DMA_TD
      ---         BLOCKEND  ---      ---       LVL=1
      01008B92H   LINE      CODE     ---       #69
      01008B92H   LINE      CODE     ---       #83
      01008B95H   LINE      CODE     ---       #84
      01008B98H   LINE      CODE     ---       #88
      01008BA1H   LINE      CODE     ---       #89
      01008BA6H   LINE      CODE     ---       #93
      01008BA9H   LINE      CODE     ---       #94
      01008BACH   LINE      CODE     ---       #95
      01008BAFH   LINE      CODE     ---       #97
      01008BB2H   LINE      CODE     ---       #98
      01008BB5H   LINE      CODE     ---       #100
      01008BBCH   LINE      CODE     ---       #104
      01008BBFH   LINE      CODE     ---       #106
      01008BC6H   LINE      CODE     ---       #110
      01008BC9H   LINE      CODE     ---       #111
      01008BCEH   LINE      CODE     ---       #112
      01008BD3H   LINE      CODE     ---       #113
      01008BD8H   LINE      CODE     ---       #114
      01008BDDH   LINE      CODE     ---       #119
      01008BE0H   LINE      CODE     ---       #120
      01008BE3H   LINE      CODE     ---       #121
      01008BE6H   LINE      CODE     ---       #131
      01008BE9H   LINE      CODE     ---       #132
      01008BEEH   LINE      CODE     ---       #135
      01008C03H   LINE      CODE     ---       #136
LX51 LINKER/LOCATER V4.64.0.0                                                         06/11/2018  11:54:47  PAGE 62


      01008C0BH   LINE      CODE     ---       #137
      01008C1BH   LINE      CODE     ---       #138
      01008C32H   LINE      CODE     ---       #139
      01008C3DH   LINE      CODE     ---       #141
      01008C47H   LINE      CODE     ---       #143
      01008C4CH   LINE      CODE     ---       #147
      01008C4FH   LINE      CODE     ---       #148
      01008C52H   LINE      CODE     ---       #150
      01008C5AH   LINE      CODE     ---       #154
      01008C63H   LINE      CODE     ---       #157
      01008C73H   LINE      CODE     ---       #158
      01008C8BH   LINE      CODE     ---       #161
      01008C9BH   LINE      CODE     ---       #162
      01008CB2H   LINE      CODE     ---       #163
      01008CBEH   LINE      CODE     ---       #164
      01008CC0H   LINE      CODE     ---       #168
      01008CC8H   LINE      CODE     ---       #171
      01008CCFH   LINE      CODE     ---       #172
      01008CD3H   LINE      CODE     ---       #175
      01008CE8H   LINE      CODE     ---       #176
      01008CF1H   LINE      CODE     ---       #177
      01008CF8H   LINE      CODE     ---       #179
      01008CFDH   LINE      CODE     ---       #181
      01008D0CH   LINE      CODE     ---       #182
      01008D11H   LINE      CODE     ---       #183
      01008D42H   LINE      CODE     ---       #184
      01008D4AH   LINE      CODE     ---       #186
      01008D53H   LINE      CODE     ---       #187
      01008D5AH   LINE      CODE     ---       #189
      01008D5FH   LINE      CODE     ---       #191
      01008D72H   LINE      CODE     ---       #193
      01008D7AH   LINE      CODE     ---       #195
      01008D7FH   LINE      CODE     ---       #196
      01008D81H   LINE      CODE     ---       #198
      01008D89H   LINE      CODE     ---       #199
      01008D91H   LINE      CODE     ---       #200
      01008D99H   LINE      CODE     ---       #201
      01008D9EH   LINE      CODE     ---       #202
      01008DA0H   LINE      CODE     ---       #204
      01008DA2H   LINE      CODE     ---       #205
      01008DA4H   LINE      CODE     ---       #209
      01008DAAH   LINE      CODE     ---       #210
      01008DB1H   LINE      CODE     ---       #212
      01008DB6H   LINE      CODE     ---       #216
      01008DB6H   LINE      CODE     ---       #217
      01008DB6H   LINE      CODE     ---       #219
      01008DBBH   LINE      CODE     ---       #222
      01008DBEH   LINE      CODE     ---       #225
      01008DC4H   LINE      CODE     ---       #227
      01008DC7H   LINE      CODE     ---       #229
      01008DCCH   LINE      CODE     ---       #231
      01008DCEH   LINE      CODE     ---       #232
      01008DD0H   LINE      CODE     ---       #234
      01008DD3H   LINE      CODE     ---       #235
      01008DD5H   LINE      CODE     ---       #237
      01008DD5H   LINE      CODE     ---       #238
      01008DD8H   LINE      CODE     ---       #240
      01008DDDH   LINE      CODE     ---       #242
      01008DE2H   LINE      CODE     ---       #243
      01008DE2H   LINE      CODE     ---       #244
      01008DE2H   LINE      CODE     ---       #245
      01008DE4H   LINE      CODE     ---       #248
      01008DE9H   LINE      CODE     ---       #251
      01008DF1H   LINE      CODE     ---       #253
      01008DF8H   LINE      CODE     ---       #254
LX51 LINKER/LOCATER V4.64.0.0                                                         06/11/2018  11:54:47  PAGE 63


      01008DFBH   LINE      CODE     ---       #255
      01008DFDH   LINE      CODE     ---       #256
      01008DFDH   LINE      CODE     ---       #257
      ---         BLOCKEND  ---      ---       LVL=0

      ---         MODULE    ---      ---       UTILS
      0100BAA2H   PUBLIC    CODE     ---       _LCRChecksum
      0100B1F7H   PUBLIC    CODE     ---       _check_enc_data
      0100B09EH   PUBLIC    CODE     ---       _filter_i2
      0100B029H   PUBLIC    CODE     ---       _filter_i1
      000000CAH   SFRSYM    DATA     BYTE      SFRPRT5SEL
      000000DAH   SFRSYM    DATA     BYTE      SFRPRT6SEL
      000000D0H.6 SFRSYM    DATA     BIT       AC
      000000A8H.7 SFRSYM    DATA     BIT       EA
      000000A8H   SFRSYM    DATA     BYTE      IE
      00000085H   SFRSYM    DATA     BYTE      DPH1
      00000084H   SFRSYM    DATA     BYTE      DPL1
      000000D0H.7 SFRSYM    DATA     BIT       CY
      000000A0H   SFRSYM    DATA     BYTE      P2AX
      00000095H   SFRSYM    DATA     BYTE      DPX1
      00000081H   SFRSYM    DATA     BYTE      SP
      000000D0H.2 SFRSYM    DATA     BIT       OV
      00000080H   SFRSYM    DATA     BYTE      SFRPRT0DR
      00000090H   SFRSYM    DATA     BYTE      SFRPRT1DR
      000000F2H   SFRSYM    DATA     BYTE      SFRPRT12SEL
      00000098H   SFRSYM    DATA     BYTE      SFRPRT2DR
      000000B0H   SFRSYM    DATA     BYTE      SFRPRT3DR
      000000C0H   SFRSYM    DATA     BYTE      SFRPRT4DR
      000000FAH   SFRSYM    DATA     BYTE      SFRPRT15SEL
      000000C8H   SFRSYM    DATA     BYTE      SFRPRT5DR
      000000D8H   SFRSYM    DATA     BYTE      SFRPRT6DR
      00000089H   SFRSYM    DATA     BYTE      SFRPRT0PS
      00000091H   SFRSYM    DATA     BYTE      SFRPRT1PS
      00000099H   SFRSYM    DATA     BYTE      SFRPRT2PS
      000000B1H   SFRSYM    DATA     BYTE      SFRPRT3PS
      000000C1H   SFRSYM    DATA     BYTE      SFRPRT4PS
      000000C9H   SFRSYM    DATA     BYTE      SFRPRT5PS
      000000D9H   SFRSYM    DATA     BYTE      SFRPRT6PS
      000000EAH   SFRSYM    DATA     BYTE      MXAX
      000000F0H   SFRSYM    DATA     BYTE      B
      000000E0H   SFRSYM    DATA     BYTE      ACC
      000000D0H   SFRSYM    DATA     BIT       P
      000000D0H.3 SFRSYM    DATA     BIT       RS0
      000000D0H.4 SFRSYM    DATA     BIT       RS1
      00000083H   SFRSYM    DATA     BYTE      DPH
      000000E8H   SFRSYM    DATA     BYTE      SFRPRT12DR
      00000082H   SFRSYM    DATA     BYTE      DPL
      000000F8H   SFRSYM    DATA     BYTE      SFRPRT15DR
      00000086H   SFRSYM    DATA     BYTE      DPS
      000000E9H   SFRSYM    DATA     BYTE      SFRPRT12PS
      00000093H   SFRSYM    DATA     BYTE      DPX
      000000F9H   SFRSYM    DATA     BYTE      SFRPRT15PS
      000000D0H.5 SFRSYM    DATA     BIT       F0
      000000D0H.1 SFRSYM    DATA     BIT       F1
      0000008AH   SFRSYM    DATA     BYTE      SFRPRT0SEL
      000000D0H   SFRSYM    DATA     BYTE      PSW
      000000A2H   SFRSYM    DATA     BYTE      SFRPRT1SEL
      0000009AH   SFRSYM    DATA     BYTE      SFRPRT2SEL
      000000B2H   SFRSYM    DATA     BYTE      SFRPRT3SEL
      000000C2H   SFRSYM    DATA     BYTE      SFRPRT4SEL

      0100B029H   BLOCK     CODE     ---       LVL=0
      00000004H   SYMBOL    DATA     LONG      new_value
      0100B029H   BLOCK     CODE     NEAR LAB  LVL=1
      02000E09H   SYMBOL    XDATA    LONG      old_value
LX51 LINKER/LOCATER V4.64.0.0                                                         06/11/2018  11:54:47  PAGE 64


      02000E0DH   SYMBOL    XDATA    LONG      aux
      ---         BLOCKEND  ---      ---       LVL=1
      0100B029H   LINE      CODE     ---       #56
      0100B029H   LINE      CODE     ---       #60
      0100B076H   LINE      CODE     ---       #62
      0100B08AH   LINE      CODE     ---       #64
      0100B09DH   LINE      CODE     ---       #65
      ---         BLOCKEND  ---      ---       LVL=0

      0100B09EH   BLOCK     CODE     ---       LVL=0
      00000004H   SYMBOL    DATA     LONG      new_value
      0100B09EH   BLOCK     CODE     NEAR LAB  LVL=1
      02000E11H   SYMBOL    XDATA    LONG      old_value
      02000E15H   SYMBOL    XDATA    LONG      aux
      ---         BLOCKEND  ---      ---       LVL=1
      0100B09EH   LINE      CODE     ---       #67
      0100B09EH   LINE      CODE     ---       #71
      0100B0EBH   LINE      CODE     ---       #73
      0100B0FFH   LINE      CODE     ---       #75
      0100B112H   LINE      CODE     ---       #76
      ---         BLOCKEND  ---      ---       LVL=0
      00000004H   SYMBOL    DATA     LONG      new_value
      02000E19H   SYMBOL    XDATA    LONG      old_value
      02000E1DH   SYMBOL    XDATA    LONG      aux
      00000004H   SYMBOL    DATA     LONG      new_value
      02000E21H   SYMBOL    XDATA    LONG      old_value
      02000E25H   SYMBOL    XDATA    LONG      aux
      00000004H   SYMBOL    DATA     LONG      new_value
      02000E29H   SYMBOL    XDATA    LONG      old_value
      02000E2DH   SYMBOL    XDATA    LONG      aux

      0100B1F7H   BLOCK     CODE     ---       LVL=0
      00000001H   SYMBOL    DATA     ---       value
      0100B1F7H   BLOCK     CODE     NEAR LAB  LVL=1
      00000010H   SYMBOL    IDATA    ---       p
      00000024H   SYMBOL    DATA     BYTE      a
      ---         BLOCKEND  ---      ---       LVL=1
      0100B1F7H   LINE      CODE     ---       #122
      0100B1F7H   LINE      CODE     ---       #124
      0100B201H   LINE      CODE     ---       #125
      0100B206H   LINE      CODE     ---       #127
      0100B21AH   LINE      CODE     ---       #128
      0100B22EH   LINE      CODE     ---       #129
      0100B242H   LINE      CODE     ---       #130
      0100B24FH   LINE      CODE     ---       #132
      0100B261H   LINE      CODE     ---       #134
      ---         BLOCKEND  ---      ---       LVL=0

      0100BAA2H   BLOCK     CODE     ---       LVL=0
      02000B00H   SYMBOL    XDATA    ---       data_array
      00000005H   SYMBOL    DATA     BYTE      data_length
      0100BAADH   BLOCK     CODE     NEAR LAB  LVL=1
      0000007CH   SYMBOL    DATA     BYTE      i
      0000007DH   SYMBOL    DATA     BYTE      checksum
      ---         BLOCKEND  ---      ---       LVL=1
      0100BAA2H   LINE      CODE     ---       #143
      0100BAADH   LINE      CODE     ---       #146
      0100BAB0H   LINE      CODE     ---       #148
      0100BAB8H   LINE      CODE     ---       #149
      0100BAD1H   LINE      CODE     ---       #151
      0100BAD3H   LINE      CODE     ---       #152
      ---         BLOCKEND  ---      ---       LVL=0

      ---         MODULE    ---      ---       INTERRUPTIONS
      0100CE7DH   PUBLIC    CONST    ---       hitech_pwm_preload_values_6v
LX51 LINKER/LOCATER V4.64.0.0                                                         06/11/2018  11:54:47  PAGE 65


      0100CE59H   PUBLIC    CONST    ---       hitech_pwm_preload_values
      0100CE3CH   PUBLIC    CONST    ---       pwm_preload_values
      01008DFEH   PUBLIC    CODE     ---       pretensioning_process
      0100A070H   PUBLIC    CODE     ---       pwm_limit_search
      010085C5H   PUBLIC    CODE     ---       _encoder_reading
      0100A3CBH   PUBLIC    CODE     ---       analog_read_end
      010061E4H   PUBLIC    CODE     ---       _motor_control
      0100A4CDH   PUBLIC    CODE     ---       function_scheduler
      0100992CH   PUBLIC    CODE     ---       interrupt_manager
      0100C2DAH   PUBLIC    CODE     ---       ISR_RS485_RX_ExInterrupt
      0100C2D7H   PUBLIC    CODE     ---       ISR_WATCHDOG_Handler
      000000CAH   SFRSYM    DATA     BYTE      SFRPRT5SEL
      000000DAH   SFRSYM    DATA     BYTE      SFRPRT6SEL
      000000D0H.6 SFRSYM    DATA     BIT       AC
      000000A8H.7 SFRSYM    DATA     BIT       EA
      000000A8H   SFRSYM    DATA     BYTE      IE
      00000085H   SFRSYM    DATA     BYTE      DPH1
      00000084H   SFRSYM    DATA     BYTE      DPL1
      000000D0H.7 SFRSYM    DATA     BIT       CY
      000000A0H   SFRSYM    DATA     BYTE      P2AX
      00000095H   SFRSYM    DATA     BYTE      DPX1
      00000081H   SFRSYM    DATA     BYTE      SP
      000000D0H.2 SFRSYM    DATA     BIT       OV
      00000080H   SFRSYM    DATA     BYTE      SFRPRT0DR
      00000090H   SFRSYM    DATA     BYTE      SFRPRT1DR
      000000F2H   SFRSYM    DATA     BYTE      SFRPRT12SEL
      00000098H   SFRSYM    DATA     BYTE      SFRPRT2DR
      000000B0H   SFRSYM    DATA     BYTE      SFRPRT3DR
      000000C0H   SFRSYM    DATA     BYTE      SFRPRT4DR
      000000FAH   SFRSYM    DATA     BYTE      SFRPRT15SEL
      000000C8H   SFRSYM    DATA     BYTE      SFRPRT5DR
      000000D8H   SFRSYM    DATA     BYTE      SFRPRT6DR
      00000089H   SFRSYM    DATA     BYTE      SFRPRT0PS
      00000091H   SFRSYM    DATA     BYTE      SFRPRT1PS
      00000099H   SFRSYM    DATA     BYTE      SFRPRT2PS
      000000B1H   SFRSYM    DATA     BYTE      SFRPRT3PS
      000000C1H   SFRSYM    DATA     BYTE      SFRPRT4PS
      000000C9H   SFRSYM    DATA     BYTE      SFRPRT5PS
      000000D9H   SFRSYM    DATA     BYTE      SFRPRT6PS
      000000EAH   SFRSYM    DATA     BYTE      MXAX
      000000F0H   SFRSYM    DATA     BYTE      B
      000000E0H   SFRSYM    DATA     BYTE      ACC
      000000D0H   SFRSYM    DATA     BIT       P
      000000D0H.3 SFRSYM    DATA     BIT       RS0
      000000D0H.4 SFRSYM    DATA     BIT       RS1
      00000083H   SFRSYM    DATA     BYTE      DPH
      000000E8H   SFRSYM    DATA     BYTE      SFRPRT12DR
      00000082H   SFRSYM    DATA     BYTE      DPL
      000000F8H   SFRSYM    DATA     BYTE      SFRPRT15DR
      00000086H   SFRSYM    DATA     BYTE      DPS
      000000E9H   SFRSYM    DATA     BYTE      SFRPRT12PS
      00000093H   SFRSYM    DATA     BYTE      DPX
      000000F9H   SFRSYM    DATA     BYTE      SFRPRT15PS
      000000D0H.5 SFRSYM    DATA     BIT       F0
      000000D0H.1 SFRSYM    DATA     BIT       F1
      0000008AH   SFRSYM    DATA     BYTE      SFRPRT0SEL
      000000D0H   SFRSYM    DATA     BYTE      PSW
      000000A2H   SFRSYM    DATA     BYTE      SFRPRT1SEL
      0000009AH   SFRSYM    DATA     BYTE      SFRPRT2SEL
      000000B2H   SFRSYM    DATA     BYTE      SFRPRT3SEL
      000000C2H   SFRSYM    DATA     BYTE      SFRPRT4SEL

      0100C2D7H   BLOCK     CODE     ---       LVL=0
      0100C2D7H   LINE      CODE     ---       #161
      0100C2D7H   LINE      CODE     ---       #165
LX51 LINKER/LOCATER V4.64.0.0                                                         06/11/2018  11:54:47  PAGE 66


      0100C2D9H   LINE      CODE     ---       #167
      ---         BLOCKEND  ---      ---       LVL=0

      0100C2DAH   BLOCK     CODE     ---       LVL=0
      0100C2DAH   LINE      CODE     ---       #173
      0100C2DAH   LINE      CODE     ---       #177
      0100C2DCH   LINE      CODE     ---       #179
      ---         BLOCKEND  ---      ---       LVL=0

      0100992CH   BLOCK     CODE     ---       LVL=0
      0100992CH   BLOCK     CODE     NEAR LAB  LVL=1
      00000008H   SYMBOL    DATA     BYTE      state
      00000009H   SYMBOL    DATA     BYTE      data_packet_index
      0000000AH   SYMBOL    DATA     BYTE      data_packet_length
      02000D19H   SYMBOL    XDATA    ---       data_packet_buffer
      0000000BH   SYMBOL    DATA     ---       rx_queue
      00000064H   SYMBOL    DATA     BYTE      rx_data
      00000020H.0 SYMBOL    BIT      BIT       rx_data_type
      00000065H   SYMBOL    DATA     BYTE      package_count
      ---         BLOCKEND  ---      ---       LVL=1
      0100992CH   LINE      CODE     ---       #196
      0100992CH   LINE      CODE     ---       #212
      0100992FH   LINE      CODE     ---       #218
      01009942H   LINE      CODE     ---       #222
      01009947H   LINE      CODE     ---       #224
      0100995FH   LINE      CODE     ---       #226
      0100995FH   LINE      CODE     ---       #228
      01009962H   LINE      CODE     ---       #229
      01009965H   LINE      CODE     ---       #230
      01009968H   LINE      CODE     ---       #233
      01009972H   LINE      CODE     ---       #234
      01009975H   LINE      CODE     ---       #235
      01009977H   LINE      CODE     ---       #236
      01009979H   LINE      CODE     ---       #237
      0100997CH   LINE      CODE     ---       #238
      0100997EH   LINE      CODE     ---       #239
      0100998EH   LINE      CODE     ---       #242
      01009993H   LINE      CODE     ---       #243
      01009995H   LINE      CODE     ---       #246
      01009995H   LINE      CODE     ---       #249
      010099BFH   LINE      CODE     ---       #250
      010099C3H   LINE      CODE     ---       #252
      010099C5H   LINE      CODE     ---       #254
      010099C8H   LINE      CODE     ---       #255
      010099CBH   LINE      CODE     ---       #256
      010099CEH   LINE      CODE     ---       #259
      010099CEH   LINE      CODE     ---       #262
      010099D1H   LINE      CODE     ---       #264
      010099D8H   LINE      CODE     ---       #265
      010099DBH   LINE      CODE     ---       #266
      010099DDH   LINE      CODE     ---       #267
      010099E7H   LINE      CODE     ---       #268
      010099EAH   LINE      CODE     ---       #269
      010099ECH   LINE      CODE     ---       #270
      010099EFH   LINE      CODE     ---       #271
      010099F2H   LINE      CODE     ---       #273
      010099F5H   LINE      CODE     ---       #274
      010099FBH   LINE      CODE     ---       #276
      010099FEH   LINE      CODE     ---       #277
      010099FEH   LINE      CODE     ---       #278
      01009A01H   LINE      CODE     ---       #281
      01009A01H   LINE      CODE     ---       #283
      01009A0FH   LINE      CODE     ---       #284
      01009A11H   LINE      CODE     ---       #287
      01009A1BH   LINE      CODE     ---       #289
LX51 LINKER/LOCATER V4.64.0.0                                                         06/11/2018  11:54:47  PAGE 67


      01009A1EH   LINE      CODE     ---       #291
      01009A31H   LINE      CODE     ---       #292
      01009A3AH   LINE      CODE     ---       #293
      01009A40H   LINE      CODE     ---       #294
      01009A43H   LINE      CODE     ---       #295
      01009A43H   LINE      CODE     ---       #297
      01009A46H   LINE      CODE     ---       #298
      01009A48H   LINE      CODE     ---       #299
      01009A4AH   LINE      CODE     ---       #300
      01009A4CH   LINE      CODE     ---       #302
      01009A4CH   LINE      CODE     ---       #303
      01009A4FH   LINE      CODE     ---       #306
      01009A4FH   LINE      CODE     ---       #307
      01009A58H   LINE      CODE     ---       #308
      01009A5AH   LINE      CODE     ---       #309
      01009A5CH   LINE      CODE     ---       #310
      01009A61H   LINE      CODE     ---       #311
      01009A66H   LINE      CODE     ---       #312
      01009A69H   LINE      CODE     ---       #313
      01009A6BH   LINE      CODE     ---       #314
      01009A6BH   LINE      CODE     ---       #315
      01009A6EH   LINE      CODE     ---       #316
      01009A6EH   LINE      CODE     ---       #317
      01009A71H   LINE      CODE     ---       #318
      ---         BLOCKEND  ---      ---       LVL=0

      0100A4CDH   BLOCK     CODE     ---       LVL=0
      0100A4CDH   BLOCK     CODE     NEAR LAB  LVL=1
      02000D99H   SYMBOL    XDATA    WORD      counter_calibration
      ---         BLOCKEND  ---      ---       LVL=1
      0100A4CDH   LINE      CODE     ---       #328
      0100A4CDH   LINE      CODE     ---       #334
      0100A4D6H   LINE      CODE     ---       #336
      0100A4DBH   LINE      CODE     ---       #340
      0100A4DEH   LINE      CODE     ---       #341
      0100A4E0H   LINE      CODE     ---       #342
      0100A4E3H   LINE      CODE     ---       #343
      0100A4E3H   LINE      CODE     ---       #347
      0100A4E9H   LINE      CODE     ---       #351
      0100A4ECH   LINE      CODE     ---       #352
      0100A4EEH   LINE      CODE     ---       #353
      0100A4F1H   LINE      CODE     ---       #354
      0100A4F1H   LINE      CODE     ---       #356
      0100A4F8H   LINE      CODE     ---       #360
      0100A4FBH   LINE      CODE     ---       #361
      0100A4FDH   LINE      CODE     ---       #362
      0100A500H   LINE      CODE     ---       #363
      0100A500H   LINE      CODE     ---       #376
      0100A505H   LINE      CODE     ---       #380
      0100A508H   LINE      CODE     ---       #381
      0100A50AH   LINE      CODE     ---       #382
      0100A50DH   LINE      CODE     ---       #383
      0100A50DH   LINE      CODE     ---       #385
      0100A512H   LINE      CODE     ---       #389
      0100A515H   LINE      CODE     ---       #390
      0100A517H   LINE      CODE     ---       #391
      0100A51AH   LINE      CODE     ---       #392
      0100A51AH   LINE      CODE     ---       #396
      0100A51DH   LINE      CODE     ---       #416
      0100A520H   LINE      CODE     ---       #417
      0100A52CH   LINE      CODE     ---       #418
      0100A52FH   LINE      CODE     ---       #419
      0100A536H   LINE      CODE     ---       #420
      0100A536H   LINE      CODE     ---       #421
      0100A544H   LINE      CODE     ---       #422
LX51 LINKER/LOCATER V4.64.0.0                                                         06/11/2018  11:54:47  PAGE 68


      0100A546H   LINE      CODE     ---       #423
      0100A549H   LINE      CODE     ---       #424
      0100A54CH   LINE      CODE     ---       #426
      0100A54FH   LINE      CODE     ---       #427
      0100A552H   LINE      CODE     ---       #429
      0100A555H   LINE      CODE     ---       #430
      0100A558H   LINE      CODE     ---       #431
      0100A558H   LINE      CODE     ---       #433
      0100A55BH   LINE      CODE     ---       #434
      0100A55DH   LINE      CODE     ---       #435
      0100A560H   LINE      CODE     ---       #436
      0100A560H   LINE      CODE     ---       #442
      0100A573H   LINE      CODE     ---       #443
      0100A586H   LINE      CODE     ---       #446
      0100A599H   LINE      CODE     ---       #448
      0100A59CH   LINE      CODE     ---       #449
      0100A59EH   LINE      CODE     ---       #450
      0100A5A1H   LINE      CODE     ---       #451
      0100A5A1H   LINE      CODE     ---       #455
      0100A5AAH   LINE      CODE     ---       #456
      0100A5B5H   LINE      CODE     ---       #458
      ---         BLOCKEND  ---      ---       LVL=0

      010061E4H   BLOCK     CODE     ---       LVL=0
      00000007H   SYMBOL    DATA     BYTE      idx
      010061E4H   BLOCK     CODE     NEAR LAB  LVL=1
      00000023H   SYMBOL    DATA     BYTE      index
      00000024H   SYMBOL    DATA     LONG      curr_ref
      00000028H   SYMBOL    DATA     LONG      pwm_input
      0000002CH   SYMBOL    DATA     LONG      pos_error
      00000030H   SYMBOL    DATA     LONG      curr_error
      00000034H   SYMBOL    DATA     LONG      k_p
      00000038H   SYMBOL    DATA     LONG      k_i
      0000003CH   SYMBOL    DATA     LONG      k_d
      00000040H   SYMBOL    DATA     LONG      k_p_c
      00000044H   SYMBOL    DATA     LONG      k_i_c
      00000048H   SYMBOL    DATA     LONG      k_d_c
      0000004CH   SYMBOL    DATA     LONG      k_p_dl
      00000050H   SYMBOL    DATA     LONG      k_i_dl
      00000054H   SYMBOL    DATA     LONG      k_d_dl
      00000058H   SYMBOL    DATA     LONG      k_p_c_dl
      0000005CH   SYMBOL    DATA     LONG      k_i_c_dl
      00000060H   SYMBOL    DATA     LONG      k_d_c_dl
      00000022H.3 SYMBOL    BIT      BIT       dirM0
      00000022H.4 SYMBOL    BIT      BIT       dirM1
      02000D9BH   SYMBOL    XDATA    ---       prev_curr
      02000DA3H   SYMBOL    XDATA    ---       pos_error_sum
      02000DABH   SYMBOL    XDATA    ---       curr_error_sum
      ---         BLOCKEND  ---      ---       LVL=1
      010061E4H   LINE      CODE     ---       #465
      010061E4H   LINE      CODE     ---       #467
      010061E6H   LINE      CODE     ---       #471
      010061EFH   LINE      CODE     ---       #477
      01006204H   LINE      CODE     ---       #478
      01006217H   LINE      CODE     ---       #479
      0100622AH   LINE      CODE     ---       #481
      0100623DH   LINE      CODE     ---       #482
      01006250H   LINE      CODE     ---       #483
      01006263H   LINE      CODE     ---       #485
      01006276H   LINE      CODE     ---       #486
      01006289H   LINE      CODE     ---       #487
      0100629CH   LINE      CODE     ---       #489
      010062AFH   LINE      CODE     ---       #490
      010062C2H   LINE      CODE     ---       #491
      010062D5H   LINE      CODE     ---       #503
LX51 LINKER/LOCATER V4.64.0.0                                                         06/11/2018  11:54:47  PAGE 69


      010062DFH   LINE      CODE     ---       #506
      010062FCH   LINE      CODE     ---       #507
      010062FCH   LINE      CODE     ---       #518
      0100633FH   LINE      CODE     ---       #520
      01006342H   LINE      CODE     ---       #521
      01006344H   LINE      CODE     ---       #522
      01006347H   LINE      CODE     ---       #523
      01006347H   LINE      CODE     ---       #526
      0100637AH   LINE      CODE     ---       #529
      010063A2H   LINE      CODE     ---       #530
      010063BEH   LINE      CODE     ---       #531
      010063BEH   LINE      CODE     ---       #532
      010063E6H   LINE      CODE     ---       #533
      01006400H   LINE      CODE     ---       #534
      01006400H   LINE      CODE     ---       #536
      01006403H   LINE      CODE     ---       #537
      01006405H   LINE      CODE     ---       #538
      01006408H   LINE      CODE     ---       #539
      01006408H   LINE      CODE     ---       #541
      01006411H   LINE      CODE     ---       #543
      01006423H   LINE      CODE     ---       #545
      01006446H   LINE      CODE     ---       #546
      0100646DH   LINE      CODE     ---       #548
      0100648DH   LINE      CODE     ---       #549
      0100648DH   LINE      CODE     ---       #551
      01006490H   LINE      CODE     ---       #552
      01006492H   LINE      CODE     ---       #553
      01006495H   LINE      CODE     ---       #554
      01006495H   LINE      CODE     ---       #557
      010064A8H   LINE      CODE     ---       #558
      010064EBH   LINE      CODE     ---       #561
      010064FEH   LINE      CODE     ---       #562
      01006561H   LINE      CODE     ---       #565
      01006564H   LINE      CODE     ---       #566
      01006566H   LINE      CODE     ---       #567
      01006569H   LINE      CODE     ---       #568
      01006569H   LINE      CODE     ---       #573
      0100656DH   LINE      CODE     ---       #574
      0100657FH   LINE      CODE     ---       #575
      01006584H   LINE      CODE     ---       #578
      01006586H   LINE      CODE     ---       #580
      01006589H   LINE      CODE     ---       #581
      0100659CH   LINE      CODE     ---       #582
      010065A1H   LINE      CODE     ---       #585
      010065A3H   LINE      CODE     ---       #587
      010065A3H   LINE      CODE     ---       #589
      010065A6H   LINE      CODE     ---       #591
      010065A6H   LINE      CODE     ---       #601
      010065E9H   LINE      CODE     ---       #603
      0100661CH   LINE      CODE     ---       #605
      0100661FH   LINE      CODE     ---       #606
      01006621H   LINE      CODE     ---       #607
      01006624H   LINE      CODE     ---       #608
      01006624H   LINE      CODE     ---       #611
      0100664CH   LINE      CODE     ---       #612
      01006668H   LINE      CODE     ---       #613
      01006668H   LINE      CODE     ---       #614
      01006690H   LINE      CODE     ---       #615
      010066AAH   LINE      CODE     ---       #616
      010066AAH   LINE      CODE     ---       #619
      010066B3H   LINE      CODE     ---       #621
      010066B6H   LINE      CODE     ---       #622
      010066B8H   LINE      CODE     ---       #623
      010066BBH   LINE      CODE     ---       #624
      010066BBH   LINE      CODE     ---       #627
LX51 LINKER/LOCATER V4.64.0.0                                                         06/11/2018  11:54:47  PAGE 70


      010066CEH   LINE      CODE     ---       #628
      010066F4H   LINE      CODE     ---       #631
      01006707H   LINE      CODE     ---       #632
      0100673FH   LINE      CODE     ---       #635
      01006752H   LINE      CODE     ---       #636
      010067B5H   LINE      CODE     ---       #638
      010067B8H   LINE      CODE     ---       #639
      010067BAH   LINE      CODE     ---       #640
      010067BDH   LINE      CODE     ---       #641
      010067BDH   LINE      CODE     ---       #644
      010067D9H   LINE      CODE     ---       #645
      010067EFH   LINE      CODE     ---       #646
      010067EFH   LINE      CODE     ---       #647
      01006811H   LINE      CODE     ---       #648
      0100682BH   LINE      CODE     ---       #649
      0100682BH   LINE      CODE     ---       #651
      0100682EH   LINE      CODE     ---       #652
      01006830H   LINE      CODE     ---       #653
      01006833H   LINE      CODE     ---       #654
      01006833H   LINE      CODE     ---       #657
      01006863H   LINE      CODE     ---       #659
      01006896H   LINE      CODE     ---       #661
      010068BEH   LINE      CODE     ---       #662
      010068DAH   LINE      CODE     ---       #663
      010068DAH   LINE      CODE     ---       #664
      01006902H   LINE      CODE     ---       #665
      0100691CH   LINE      CODE     ---       #666
      0100691CH   LINE      CODE     ---       #668
      0100691FH   LINE      CODE     ---       #669
      01006921H   LINE      CODE     ---       #670
      01006924H   LINE      CODE     ---       #671
      01006924H   LINE      CODE     ---       #675
      0100692DH   LINE      CODE     ---       #678
      0100693FH   LINE      CODE     ---       #679
      01006965H   LINE      CODE     ---       #682
      01006978H   LINE      CODE     ---       #683
      010069B0H   LINE      CODE     ---       #686
      010069C3H   LINE      CODE     ---       #687
      01006A27H   LINE      CODE     ---       #690
      01006A51H   LINE      CODE     ---       #692
      01006A54H   LINE      CODE     ---       #693
      01006A56H   LINE      CODE     ---       #694
      01006A59H   LINE      CODE     ---       #695
      01006A59H   LINE      CODE     ---       #697
      01006A5DH   LINE      CODE     ---       #698
      01006A6FH   LINE      CODE     ---       #699
      01006A74H   LINE      CODE     ---       #702
      01006A76H   LINE      CODE     ---       #704
      01006A79H   LINE      CODE     ---       #705
      01006A8CH   LINE      CODE     ---       #706
      01006A91H   LINE      CODE     ---       #709
      01006A93H   LINE      CODE     ---       #711
      01006A93H   LINE      CODE     ---       #713
      01006A96H   LINE      CODE     ---       #715
      01006A96H   LINE      CODE     ---       #718
      01006AC9H   LINE      CODE     ---       #721
      01006AE5H   LINE      CODE     ---       #722
      01006AF9H   LINE      CODE     ---       #725
      01006B24H   LINE      CODE     ---       #728
      01006B57H   LINE      CODE     ---       #731
      01006B7FH   LINE      CODE     ---       #732
      01006B9BH   LINE      CODE     ---       #733
      01006B9BH   LINE      CODE     ---       #734
      01006BC0H   LINE      CODE     ---       #735
      01006BD7H   LINE      CODE     ---       #736
LX51 LINKER/LOCATER V4.64.0.0                                                         06/11/2018  11:54:47  PAGE 71


      01006BD7H   LINE      CODE     ---       #739
      01006BE0H   LINE      CODE     ---       #742
      01006BF2H   LINE      CODE     ---       #743
      01006C1EH   LINE      CODE     ---       #747
      01006C31H   LINE      CODE     ---       #748
      01006C6EH   LINE      CODE     ---       #751
      01006C81H   LINE      CODE     ---       #752
      01006CE5H   LINE      CODE     ---       #755
      01006CF8H   LINE      CODE     ---       #756
      01006D01H   LINE      CODE     ---       #759
      01006D2BH   LINE      CODE     ---       #761
      01006D2FH   LINE      CODE     ---       #762
      01006D41H   LINE      CODE     ---       #763
      01006D46H   LINE      CODE     ---       #766
      01006D48H   LINE      CODE     ---       #768
      01006D4BH   LINE      CODE     ---       #769
      01006D5EH   LINE      CODE     ---       #770
      01006D62H   LINE      CODE     ---       #773
      01006D64H   LINE      CODE     ---       #775
      01006D64H   LINE      CODE     ---       #777
      01006D66H   LINE      CODE     ---       #779
      01006D66H   LINE      CODE     ---       #781
      01006D99H   LINE      CODE     ---       #783
      01006D9DH   LINE      CODE     ---       #784
      01006DAFH   LINE      CODE     ---       #785
      01006DB3H   LINE      CODE     ---       #788
      01006DB5H   LINE      CODE     ---       #790
      01006DB7H   LINE      CODE     ---       #791
      01006DCAH   LINE      CODE     ---       #792
      01006DCEH   LINE      CODE     ---       #795
      01006DD0H   LINE      CODE     ---       #797
      01006DD0H   LINE      CODE     ---       #799
      01006DD0H   LINE      CODE     ---       #801
      01006DD0H   LINE      CODE     ---       #802
      01006DD0H   LINE      CODE     ---       #803
      01006DD0H   LINE      CODE     ---       #805
      01006DD3H   LINE      CODE     ---       #806
      01006DD5H   LINE      CODE     ---       #807
      01006DD8H   LINE      CODE     ---       #808
      01006DD8H   LINE      CODE     ---       #811
      01006DECH   LINE      CODE     ---       #812
      01006DF6H   LINE      CODE     ---       #813
      01006E0BH   LINE      CODE     ---       #814
      01006E16H   LINE      CODE     ---       #816
      01006E19H   LINE      CODE     ---       #817
      01006E1BH   LINE      CODE     ---       #818
      01006E1EH   LINE      CODE     ---       #819
      01006E1EH   LINE      CODE     ---       #822
      01006E26H   LINE      CODE     ---       #823
      01006E5DH   LINE      CODE     ---       #827
      01006E60H   LINE      CODE     ---       #828
      01006E63H   LINE      CODE     ---       #829
      01006E6AH   LINE      CODE     ---       #831
      01006E6FH   LINE      CODE     ---       #832
      01006E71H   LINE      CODE     ---       #833
      01006E71H   LINE      CODE     ---       #834
      01006E74H   LINE      CODE     ---       #835
      01006E7BH   LINE      CODE     ---       #837
      01006E80H   LINE      CODE     ---       #838
      01006E80H   LINE      CODE     ---       #840
      01006E83H   LINE      CODE     ---       #841
      01006E85H   LINE      CODE     ---       #842
      01006E88H   LINE      CODE     ---       #843
      01006E88H   LINE      CODE     ---       #845
      01006E8CH   LINE      CODE     ---       #846
LX51 LINKER/LOCATER V4.64.0.0                                                         06/11/2018  11:54:47  PAGE 72


      01006EC6H   LINE      CODE     ---       #847
      01006ED0H   LINE      CODE     ---       #848
      01006ED2H   LINE      CODE     ---       #849
      01006ED2H   LINE      CODE     ---       #850
      01006F0DH   LINE      CODE     ---       #851
      01006F17H   LINE      CODE     ---       #852
      01006F17H   LINE      CODE     ---       #854
      01006F1AH   LINE      CODE     ---       #855
      01006F1CH   LINE      CODE     ---       #856
      01006F1FH   LINE      CODE     ---       #857
      01006F1FH   LINE      CODE     ---       #858
      ---         BLOCKEND  ---      ---       LVL=0

      0100A3CBH   BLOCK     CODE     ---       LVL=0
      0100A3CBH   LINE      CODE     ---       #864
      0100A3CBH   LINE      CODE     ---       #885
      0100A3D1H   LINE      CODE     ---       #886
      0100A3D4H   LINE      CODE     ---       #887
      0100A3D6H   LINE      CODE     ---       #888
      0100A3D9H   LINE      CODE     ---       #889
      0100A3D9H   LINE      CODE     ---       #890
      0100A3DBH   LINE      CODE     ---       #893
      0100A403H   LINE      CODE     ---       #895
      0100A406H   LINE      CODE     ---       #896
      0100A408H   LINE      CODE     ---       #897
      0100A40BH   LINE      CODE     ---       #898
      0100A40BH   LINE      CODE     ---       #902
      0100A427H   LINE      CODE     ---       #905
      0100A42AH   LINE      CODE     ---       #909
      0100A42DH   LINE      CODE     ---       #910
      0100A42FH   LINE      CODE     ---       #911
      0100A432H   LINE      CODE     ---       #912
      0100A432H   LINE      CODE     ---       #915
      0100A471H   LINE      CODE     ---       #919
      0100A474H   LINE      CODE     ---       #920
      0100A476H   LINE      CODE     ---       #921
      0100A479H   LINE      CODE     ---       #922
      0100A479H   LINE      CODE     ---       #923
      0100A4B8H   LINE      CODE     ---       #927
      0100A4BBH   LINE      CODE     ---       #928
      0100A4BDH   LINE      CODE     ---       #929
      0100A4C0H   LINE      CODE     ---       #930
      0100A4C0H   LINE      CODE     ---       #931
      0100A4C1H   LINE      CODE     ---       #932
      0100A4C1H   LINE      CODE     ---       #933
      0100A4C8H   LINE      CODE     ---       #934
      0100A4CCH   LINE      CODE     ---       #935
      0100A4CCH   LINE      CODE     ---       #936
      ---         BLOCKEND  ---      ---       LVL=0

      010085C5H   BLOCK     CODE     ---       LVL=0
      00000007H   SYMBOL    DATA     BYTE      idx
      02000003H   SYMBOL    XDATA    BYTE      flag
      010085CAH   BLOCK     CODE     NEAR LAB  LVL=1
      00000023H   SYMBOL    DATA     BYTE      index
      00000003H   SYMBOL    DATA     BYTE      jj
      02000004H   SYMBOL    XDATA    DWORD     data_encoder
      02000008H   SYMBOL    XDATA    LONG      value_encoder
      0200000CH   SYMBOL    XDATA    LONG      aux
      02000DB3H   SYMBOL    XDATA    ---       last_value_encoder
      02000DBFH   SYMBOL    XDATA    ---       error
      00000022H.5 SYMBOL    BIT      BIT       only_first_time
      ---         BLOCKEND  ---      ---       LVL=1
      010085C5H   LINE      CODE     ---       #942
      010085CAH   LINE      CODE     ---       #943
LX51 LINKER/LOCATER V4.64.0.0                                                         06/11/2018  11:54:47  PAGE 73


      010085CAH   LINE      CODE     ---       #944
      010085CCH   LINE      CODE     ---       #962
      010085D6H   LINE      CODE     ---       #965
      010085D9H   LINE      CODE     ---       #966
      010085E1H   LINE      CODE     ---       #967
      010085F7H   LINE      CODE     ---       #968
      010085F9H   LINE      CODE     ---       #969
      010085FBH   LINE      CODE     ---       #970
      010085FBH   LINE      CODE     ---       #973
      010085FFH   LINE      CODE     ---       #974
      01008612H   LINE      CODE     ---       #975
      01008612H   LINE      CODE     ---       #976
      01008617H   LINE      CODE     ---       #977
      0100862AH   LINE      CODE     ---       #978
      0100862AH   LINE      CODE     ---       #979
      0100862FH   LINE      CODE     ---       #980
      01008642H   LINE      CODE     ---       #982
      01008653H   LINE      CODE     ---       #983
      01008653H   LINE      CODE     ---       #984
      01008653H   LINE      CODE     ---       #986
      01008661H   LINE      CODE     ---       #987
      01008667H   LINE      CODE     ---       #988
      01008694H   LINE      CODE     ---       #990
      010086DFH   LINE      CODE     ---       #993
      010086E2H   LINE      CODE     ---       #994
      01008702H   LINE      CODE     ---       #996
      01008707H   LINE      CODE     ---       #997
      01008709H   LINE      CODE     ---       #998
      01008709H   LINE      CODE     ---       #1001
      01008740H   LINE      CODE     ---       #1021
      0100875AH   LINE      CODE     ---       #1022
      0100876AH   LINE      CODE     ---       #1023
      0100876AH   LINE      CODE     ---       #1024
      01008786H   LINE      CODE     ---       #1025
      01008796H   LINE      CODE     ---       #1026
      01008796H   LINE      CODE     ---       #1027
      010087B0H   LINE      CODE     ---       #1028
      010087BEH   LINE      CODE     ---       #1029
      010087D2H   LINE      CODE     ---       #1032
      010087D2H   LINE      CODE     ---       #1033
      010087D2H   LINE      CODE     ---       #1034
      010087D2H   LINE      CODE     ---       #1036
      010087DFH   LINE      CODE     ---       #1038
      010087FFH   LINE      CODE     ---       #1040
      0100883BH   LINE      CODE     ---       #1042
      01008861H   LINE      CODE     ---       #1043
      01008899H   LINE      CODE     ---       #1045
      010088B9H   LINE      CODE     ---       #1046
      010088B9H   LINE      CODE     ---       #1068
      ---         BLOCKEND  ---      ---       LVL=0

      0100A070H   BLOCK     CODE     ---       LVL=0
      0100A070H   BLOCK     CODE     NEAR LAB  LVL=1
      00000023H   SYMBOL    DATA     BYTE      index
      00000024H   SYMBOL    DATA     WORD      max_tension
      00000026H   SYMBOL    DATA     WORD      max_tension_6v_mod
      ---         BLOCKEND  ---      ---       LVL=1
      0100A070H   LINE      CODE     ---       #1073
      0100A070H   LINE      CODE     ---       #1076
      0100A076H   LINE      CODE     ---       #1077
      0100A07CH   LINE      CODE     ---       #1079
      0100A08BH   LINE      CODE     ---       #1081
      0100A0A5H   LINE      CODE     ---       #1082
      0100A0ABH   LINE      CODE     ---       #1084
      0100A0ABH   LINE      CODE     ---       #1085
LX51 LINKER/LOCATER V4.64.0.0                                                         06/11/2018  11:54:47  PAGE 74


      0100A0CAH   LINE      CODE     ---       #1086
      0100A0D1H   LINE      CODE     ---       #1087
      0100A0D1H   LINE      CODE     ---       #1088
      0100A0FFH   LINE      CODE     ---       #1089
      0100A108H   LINE      CODE     ---       #1090
      0100A108H   LINE      CODE     ---       #1091
      0100A108H   LINE      CODE     ---       #1092
      0100A109H   LINE      CODE     ---       #1093
      0100A109H   LINE      CODE     ---       #1095
      0100A124H   LINE      CODE     ---       #1096
      0100A12AH   LINE      CODE     ---       #1097
      0100A12AH   LINE      CODE     ---       #1098
      0100A149H   LINE      CODE     ---       #1099
      0100A150H   LINE      CODE     ---       #1100
      0100A150H   LINE      CODE     ---       #1101
      0100A173H   LINE      CODE     ---       #1102
      0100A182H   LINE      CODE     ---       #1103
      0100A18CH   LINE      CODE     ---       #1105
      0100A196H   LINE      CODE     ---       #1106
      0100A196H   LINE      CODE     ---       #1107
      0100A196H   LINE      CODE     ---       #1108
      0100A196H   LINE      CODE     ---       #1109
      ---         BLOCKEND  ---      ---       LVL=0

      01008DFEH   BLOCK     CODE     ---       LVL=0
      01008DFEH   BLOCK     CODE     NEAR LAB  LVL=1
      02000DC2H   SYMBOL    XDATA    INT       epsilon
      02000DC4H   SYMBOL    XDATA    BYTE      phase
      02000DC5H   SYMBOL    XDATA    BYTE      phase_counter
      02000003H   SYMBOL    XDATA    LONG      aux
      02000007H   SYMBOL    XDATA    BYTE      i
      ---         BLOCKEND  ---      ---       LVL=1
      01008DFEH   LINE      CODE     ---       #1115
      01008DFEH   LINE      CODE     ---       #1121
      01008E03H   LINE      CODE     ---       #1123
      01008E13H   LINE      CODE     ---       #1124
      01008E13H   LINE      CODE     ---       #1125
      01008E49H   LINE      CODE     ---       #1126
      01008E76H   LINE      CODE     ---       #1128
      01008EAAH   LINE      CODE     ---       #1129
      01008ED6H   LINE      CODE     ---       #1131
      01008EF8H   LINE      CODE     ---       #1132
      01008EFAH   LINE      CODE     ---       #1133
      01008F05H   LINE      CODE     ---       #1134
      01008F10H   LINE      CODE     ---       #1135
      01008F10H   LINE      CODE     ---       #1137
      01008F16H   LINE      CODE     ---       #1139
      01008F5AH   LINE      CODE     ---       #1140
      01008F60H   LINE      CODE     ---       #1141
      01008F63H   LINE      CODE     ---       #1144
      01008F63H   LINE      CODE     ---       #1145
      01008F64H   LINE      CODE     ---       #1146
      01008F64H   LINE      CODE     ---       #1148
      01008F86H   LINE      CODE     ---       #1149
      01008FB2H   LINE      CODE     ---       #1151
      01008FD4H   LINE      CODE     ---       #1152
      01009001H   LINE      CODE     ---       #1154
      0100900AH   LINE      CODE     ---       #1155
      0100900CH   LINE      CODE     ---       #1156
      0100900EH   LINE      CODE     ---       #1157
      01009013H   LINE      CODE     ---       #1158
      01009015H   LINE      CODE     ---       #1159
      01009023H   LINE      CODE     ---       #1160
      0100904DH   LINE      CODE     ---       #1167
      01009055H   LINE      CODE     ---       #1179
LX51 LINKER/LOCATER V4.64.0.0                                                         06/11/2018  11:54:47  PAGE 75


      01009055H   LINE      CODE     ---       #1181
      0100905BH   LINE      CODE     ---       #1182
      0100905BH   LINE      CODE     ---       #1183
      0100905BH   LINE      CODE     ---       #1184
      0100905BH   LINE      CODE     ---       #1185
      0100905BH   LINE      CODE     ---       #1186
      ---         BLOCKEND  ---      ---       LVL=0

      ---         MODULE    ---      ---       CYFITTER_CFG
      0100CE12H   PUBLIC    CONST    ---       ADC_AMux__maskTable
      0100CE0EH   PUBLIC    CONST    ---       ADC_AMux__addrTable
      0100A2B4H   PUBLIC    CODE     ---       cyfitter_cfg
      0100BAD4H   PUBLIC    CODE     ---       _ADC_AMux_Unset
      0100BB66H   PUBLIC    CODE     ---       _ADC_AMux_Set
      000000CAH   SFRSYM    DATA     BYTE      SFRPRT5SEL
      000000DAH   SFRSYM    DATA     BYTE      SFRPRT6SEL
      000000D0H.6 SFRSYM    DATA     BIT       AC
      000000A8H.7 SFRSYM    DATA     BIT       EA
      000000A8H   SFRSYM    DATA     BYTE      IE
      00000085H   SFRSYM    DATA     BYTE      DPH1
      00000084H   SFRSYM    DATA     BYTE      DPL1
      000000D0H.7 SFRSYM    DATA     BIT       CY
      000000A0H   SFRSYM    DATA     BYTE      P2AX
      00000095H   SFRSYM    DATA     BYTE      DPX1
      00000081H   SFRSYM    DATA     BYTE      SP
      000000D0H.2 SFRSYM    DATA     BIT       OV
      00000080H   SFRSYM    DATA     BYTE      SFRPRT0DR
      00000090H   SFRSYM    DATA     BYTE      SFRPRT1DR
      000000F2H   SFRSYM    DATA     BYTE      SFRPRT12SEL
      00000098H   SFRSYM    DATA     BYTE      SFRPRT2DR
      000000B0H   SFRSYM    DATA     BYTE      SFRPRT3DR
      000000C0H   SFRSYM    DATA     BYTE      SFRPRT4DR
      000000FAH   SFRSYM    DATA     BYTE      SFRPRT15SEL
      000000C8H   SFRSYM    DATA     BYTE      SFRPRT5DR
      000000D8H   SFRSYM    DATA     BYTE      SFRPRT6DR
      00000089H   SFRSYM    DATA     BYTE      SFRPRT0PS
      00000091H   SFRSYM    DATA     BYTE      SFRPRT1PS
      00000099H   SFRSYM    DATA     BYTE      SFRPRT2PS
      000000B1H   SFRSYM    DATA     BYTE      SFRPRT3PS
      000000C1H   SFRSYM    DATA     BYTE      SFRPRT4PS
      000000C9H   SFRSYM    DATA     BYTE      SFRPRT5PS
      000000D9H   SFRSYM    DATA     BYTE      SFRPRT6PS
      000000EAH   SFRSYM    DATA     BYTE      MXAX
      000000F0H   SFRSYM    DATA     BYTE      B
      000000E0H   SFRSYM    DATA     BYTE      ACC
      000000D0H   SFRSYM    DATA     BIT       P
      000000D0H.3 SFRSYM    DATA     BIT       RS0
      000000D0H.4 SFRSYM    DATA     BIT       RS1
      00000083H   SFRSYM    DATA     BYTE      DPH
      000000E8H   SFRSYM    DATA     BYTE      SFRPRT12DR
      00000082H   SFRSYM    DATA     BYTE      DPL
      000000F8H   SFRSYM    DATA     BYTE      SFRPRT15DR
      00000086H   SFRSYM    DATA     BYTE      DPS
      000000E9H   SFRSYM    DATA     BYTE      SFRPRT12PS
      00000093H   SFRSYM    DATA     BYTE      DPX
      000000F9H   SFRSYM    DATA     BYTE      SFRPRT15PS
      000000D0H.5 SFRSYM    DATA     BIT       F0
      000000D0H.1 SFRSYM    DATA     BIT       F1
      0000008AH   SFRSYM    DATA     BYTE      SFRPRT0SEL
      000000D0H   SFRSYM    DATA     BYTE      PSW
      000000A2H   SFRSYM    DATA     BYTE      SFRPRT1SEL
      0000009AH   SFRSYM    DATA     BYTE      SFRPRT2SEL
      000000B2H   SFRSYM    DATA     BYTE      SFRPRT3SEL
      000000C2H   SFRSYM    DATA     BYTE      SFRPRT4SEL
      01009642H   SYMBOL    CODE     ---       ClockSetup
LX51 LINKER/LOCATER V4.64.0.0                                                         06/11/2018  11:54:47  PAGE 76


      0100C2DDH   SYMBOL    CODE     ---       _CyClockStartupError
      0100BC4DH   SYMBOL    CODE     ---       AnalogSetDefault
      0100A5B6H   SYMBOL    CODE     ---       cfg_dma_init

      0100C2DDH   BLOCK     CODE     ---       LVL=0
      02000000H   SYMBOL    XDATA    BYTE      errorCode
      0100C2DDH   LINE      CODE     ---       #77
      0100C2DDH   LINE      CODE     ---       #78
      0100C2DDH   LINE      CODE     ---       #80
      0100C2DDH   LINE      CODE     ---       #98
      ---         BLOCKEND  ---      ---       LVL=0

      0100A5B6H   BLOCK     CODE     ---       LVL=0
      0100A5B6H   BLOCK     CODE     NEAR LAB  LVL=1
      0100C2E5H   SYMBOL    CONST    ---       BS_UDB_2_4_HV_ROUTING_VAL
      0100C365H   SYMBOL    CONST    ---       BS_UDBSWITCH_0_5_VAL
      0100C3E5H   SYMBOL    CONST    ---       BS_UDB_1_5_HV_ROUTING_VAL
      0100C465H   SYMBOL    CONST    ---       BS_UDBSWITCH_1_5_VAL
      0100C4E5H   SYMBOL    CONST    ---       BS_UDB_2_5_HV_ROUTING_VAL
      0100C565H   SYMBOL    CONST    ---       BS_DSI3_0_HV_ROUTING_VAL
      0100C5E5H   SYMBOL    CONST    ---       BS_DSISWITCH_1_1_VAL
      0100C665H   SYMBOL    CONST    ---       BS_DSI3_1_HV_ROUTING_VAL
      0100C6E5H   SYMBOL    CONST    ---       BS_DSISWITCH_1_2_VAL
      0100C765H   SYMBOL    CONST    ---       BS_DSI3_2_HV_ROUTING_VAL
      0100C7E5H   SYMBOL    CONST    ---       BS_DSISWITCH_1_3_VAL
      0100C865H   SYMBOL    CONST    ---       BS_DSI3_3_HV_ROUTING_VAL
      0100C8E5H   SYMBOL    CONST    ---       BS_DSISWITCH_1_4_VAL
      0100C965H   SYMBOL    CONST    ---       BS_DSI3_4_HV_ROUTING_VAL
      0100C9E5H   SYMBOL    CONST    ---       BS_DSISWITCH_1_5_VAL
      0100CA65H   SYMBOL    CONST    ---       BS_DSI3_5_HV_ROUTING_VAL
      0100CAE5H   SYMBOL    CONST    ---       CH1_ADDR_DATA0
      0100CAEDH   SYMBOL    CONST    ---       CH2_ADDR_DATA0
      0100CAF5H   SYMBOL    CONST    ---       CH4_ADDR_DATA0
      0100CAFDH   SYMBOL    CONST    ---       CH5_ADDR_DATA0
      0100CB05H   SYMBOL    CONST    ---       CH6_ADDR_DATA0
      0100CB0DH   SYMBOL    CONST    ---       DMA_TD_START_CMD
      02000E82H   SYMBOL    XDATA    DWORD     DMA_ZERO_VAL
      0100CB12H   SYMBOL    CONST    ---       CFG_TD_LIST0
      ---         BLOCKEND  ---      ---       LVL=1
      0100A5B6H   LINE      CODE     ---       #321
      0100A5B6H   LINE      CODE     ---       #322
      0100A5B6H   LINE      CODE     ---       #629
      0100A5C1H   LINE      CODE     ---       #630
      0100A5C7H   LINE      CODE     ---       #631
      0100A5CDH   LINE      CODE     ---       #632
      0100A5D2H   LINE      CODE     ---       #633
      0100A5DEH   LINE      CODE     ---       #634
      0100A5E4H   LINE      CODE     ---       #635
      0100A5E8H   LINE      CODE     ---       #636
      0100A60AH   LINE      CODE     ---       #637
      0100A617H   LINE      CODE     ---       #638
      0100A624H   LINE      CODE     ---       #639
      0100A630H   LINE      CODE     ---       #640
      0100A636H   LINE      CODE     ---       #641
      0100A63BH   LINE      CODE     ---       #642
      0100A641H   LINE      CODE     ---       #643
      0100A647H   LINE      CODE     ---       #644
      0100A64DH   LINE      CODE     ---       #646
      0100A64DH   LINE      CODE     ---       #647
      0100A653H   LINE      CODE     ---       #648
      0100A653H   LINE      CODE     ---       #651
      0100A65BH   LINE      CODE     ---       #652
      0100A663H   LINE      CODE     ---       #653
      0100A66BH   LINE      CODE     ---       #654
      0100A673H   LINE      CODE     ---       #655
LX51 LINKER/LOCATER V4.64.0.0                                                         06/11/2018  11:54:47  PAGE 77


      0100A67BH   LINE      CODE     ---       #656
      0100A683H   LINE      CODE     ---       #659
      0100A69EH   LINE      CODE     ---       #661
      ---         BLOCKEND  ---      ---       LVL=0

      01009642H   BLOCK     CODE     ---       LVL=0
      01009642H   BLOCK     CODE     NEAR LAB  LVL=1
      0100CE0AH   SYMBOL    CONST    ---       BS_CYDEV_CLKDIST_ACFG0_CFG0_VAL
      02000000H   SYMBOL    XDATA    DWORD     timeout
      02000004H   SYMBOL    XDATA    BYTE      pllLock
      ---         BLOCKEND  ---      ---       LVL=1
      01009642H   LINE      CODE     ---       #679
      01009642H   LINE      CODE     ---       #680
      01009642H   LINE      CODE     ---       #690
      0100964FH   LINE      CODE     ---       #691
      01009655H   LINE      CODE     ---       #692
      01009661H   LINE      CODE     ---       #693
      01009667H   LINE      CODE     ---       #694
      01009674H   LINE      CODE     ---       #695
      0100967AH   LINE      CODE     ---       #696
      01009687H   LINE      CODE     ---       #697
      0100968DH   LINE      CODE     ---       #698
      0100969AH   LINE      CODE     ---       #699
      010096A0H   LINE      CODE     ---       #700
      010096ADH   LINE      CODE     ---       #701
      010096B3H   LINE      CODE     ---       #704
      010096C4H   LINE      CODE     ---       #707
      010096CAH   LINE      CODE     ---       #710
      010096D0H   LINE      CODE     ---       #711
      010096DEH   LINE      CODE     ---       #714
      010096EBH   LINE      CODE     ---       #715
      010096F8H   LINE      CODE     ---       #717
      010096FDH   LINE      CODE     ---       #718
      01009722H   LINE      CODE     ---       #719
      01009722H   LINE      CODE     ---       #720
      01009733H   LINE      CODE     ---       #721
      0100973DH   LINE      CODE     ---       #722
      01009765H   LINE      CODE     ---       #724
      01009773H   LINE      CODE     ---       #725
      01009773H   LINE      CODE     ---       #726
      01009778H   LINE      CODE     ---       #727
      01009778H   LINE      CODE     ---       #730
      01009785H   LINE      CODE     ---       #731
      0100978BH   LINE      CODE     ---       #732
      01009790H   LINE      CODE     ---       #733
      01009796H   LINE      CODE     ---       #734
      0100979BH   LINE      CODE     ---       #737
      0100979FH   LINE      CODE     ---       #738
      010097A5H   LINE      CODE     ---       #739
      010097ABH   LINE      CODE     ---       #741
      010097B2H   LINE      CODE     ---       #742
      010097B9H   LINE      CODE     ---       #743
      010097C0H   LINE      CODE     ---       #744
      ---         BLOCKEND  ---      ---       LVL=0

      0100BC4DH   BLOCK     CODE     ---       LVL=0
      0100BC4DH   BLOCK     CODE     NEAR LAB  LVL=1
      00000007H   SYMBOL    DATA     BYTE      bg_xover_inl_trim
      ---         BLOCKEND  ---      ---       LVL=1
      0100BC4DH   LINE      CODE     ---       #766
      0100BC4DH   LINE      CODE     ---       #767
      0100BC4DH   LINE      CODE     ---       #768
      0100BC56H   LINE      CODE     ---       #769
      0100BC5DH   LINE      CODE     ---       #770
      0100BC63H   LINE      CODE     ---       #771
LX51 LINKER/LOCATER V4.64.0.0                                                         06/11/2018  11:54:47  PAGE 78


      0100BC69H   LINE      CODE     ---       #772
      0100BC6DH   LINE      CODE     ---       #773
      0100BC73H   LINE      CODE     ---       #774
      ---         BLOCKEND  ---      ---       LVL=0
      00000007H   SYMBOL    DATA     BYTE      enabled
      00000006H   SYMBOL    DATA     BYTE      regValue

      0100BB66H   BLOCK     CODE     ---       LVL=0
      00000007H   SYMBOL    DATA     BYTE      channel
      0100BB66H   LINE      CODE     ---       #837
      0100BB66H   LINE      CODE     ---       #838
      0100BB66H   LINE      CODE     ---       #839
      0100BB6CH   LINE      CODE     ---       #840
      0100BB6CH   LINE      CODE     ---       #841
      0100BB95H   LINE      CODE     ---       #842
      0100BB95H   LINE      CODE     ---       #843
      ---         BLOCKEND  ---      ---       LVL=0

      0100BAD4H   BLOCK     CODE     ---       LVL=0
      00000007H   SYMBOL    DATA     BYTE      channel
      0100BAD4H   LINE      CODE     ---       #859
      0100BAD4H   LINE      CODE     ---       #860
      0100BAD4H   LINE      CODE     ---       #861
      0100BADAH   LINE      CODE     ---       #862
      0100BADAH   LINE      CODE     ---       #863
      0100BB04H   LINE      CODE     ---       #864
      0100BB04H   LINE      CODE     ---       #865
      ---         BLOCKEND  ---      ---       LVL=0

      0100A2B4H   BLOCK     CODE     ---       LVL=0
      0100A2B4H   BLOCK     CODE     NEAR LAB  LVL=1
      0100CE14H   SYMBOL    CONST    ---       BS_IOPINS0_7_VAL
      0100CE1CH   SYMBOL    CONST    ---       BS_IOPINS0_8_VAL
      0100CE26H   SYMBOL    CONST    ---       BS_IOPINS0_1_VAL
      0100CE30H   SYMBOL    CONST    ---       BS_IOPINS0_2_VAL
      0100CE38H   SYMBOL    CONST    ---       BS_PHUB_CFGMEM10_VAL
      ---         BLOCKEND  ---      ---       LVL=1
      0100A2B4H   LINE      CODE     ---       #886
      0100A2B4H   LINE      CODE     ---       #887
      0100A2B4H   LINE      CODE     ---       #909
      0100A2CAH   LINE      CODE     ---       #911
      0100A2CAH   LINE      CODE     ---       #912
      0100A2CDH   LINE      CODE     ---       #915
      0100A2D3H   LINE      CODE     ---       #916
      0100A2E4H   LINE      CODE     ---       #919
      0100A2FAH   LINE      CODE     ---       #920
      0100A310H   LINE      CODE     ---       #923
      0100A317H   LINE      CODE     ---       #924
      0100A31EH   LINE      CODE     ---       #925
      0100A31EH   LINE      CODE     ---       #929
      0100A336H   LINE      CODE     ---       #930
      0100A347H   LINE      CODE     ---       #931
      0100A358H   LINE      CODE     ---       #932
      0100A369H   LINE      CODE     ---       #933
      0100A37AH   LINE      CODE     ---       #934
      0100A380H   LINE      CODE     ---       #936
      0100A387H   LINE      CODE     ---       #937
      0100A390H   LINE      CODE     ---       #938
      0100A390H   LINE      CODE     ---       #939
      0100A396H   LINE      CODE     ---       #940
      0100A396H   LINE      CODE     ---       #944
      0100A39CH   LINE      CODE     ---       #946
      0100A39FH   LINE      CODE     ---       #949
      0100A3A2H   LINE      CODE     ---       #952
      0100A3C3H   LINE      CODE     ---       #953
LX51 LINKER/LOCATER V4.64.0.0                                                         06/11/2018  11:54:47  PAGE 79


      0100A3CAH   LINE      CODE     ---       #954
      ---         BLOCKEND  ---      ---       LVL=0

      ---         MODULE    ---      ---       UART_RS485
      02000E57H   PUBLIC    XDATA    BYTE      UART_RS485_errorStatus
      02000E56H   PUBLIC    XDATA    BYTE      UART_RS485_rxBufferOverflow
      02000E55H   PUBLIC    XDATA    BYTE      UART_RS485_initVar
      02000E54H   PUBLIC    XDATA    BYTE      UART_RS485_rxBufferWrite
      02000E34H   PUBLIC    XDATA    ---       UART_RS485_rxBuffer
      02000E33H   PUBLIC    XDATA    BYTE      UART_RS485_rxBufferRead
      02000E32H   PUBLIC    XDATA    BYTE      UART_RS485_rxBufferLoopDetect
      0100BFF4H   PUBLIC    CODE     ---       UART_RS485_ClearTxBuffer
      0100B9B6H   PUBLIC    CODE     ---       _UART_RS485_PutString
      0100C0C9H   PUBLIC    CODE     ---       _UART_RS485_PutChar
      0100C22DH   PUBLIC    CODE     ---       UART_RS485_ReadTxStatus
      0100BB96H   PUBLIC    CODE     ---       UART_RS485_ClearRxBuffer
      0100B596H   PUBLIC    CODE     ---       UART_RS485_GetRxBufferSize
      0100B393H   PUBLIC    CODE     ---       UART_RS485_GetChar
      0100BF35H   PUBLIC    CODE     ---       UART_RS485_ReadRxStatus
      0100BD09H   PUBLIC    CODE     ---       UART_RS485_Stop
      0100BCE7H   PUBLIC    CODE     ---       UART_RS485_Enable
      0100BA6FH   PUBLIC    CODE     ---       UART_RS485_Init
      0100BF49H   PUBLIC    CODE     ---       UART_RS485_Start
      000000CAH   SFRSYM    DATA     BYTE      SFRPRT5SEL
      000000DAH   SFRSYM    DATA     BYTE      SFRPRT6SEL
      000000D0H.6 SFRSYM    DATA     BIT       AC
      000000A8H.7 SFRSYM    DATA     BIT       EA
      000000A8H   SFRSYM    DATA     BYTE      IE
      00000085H   SFRSYM    DATA     BYTE      DPH1
      00000084H   SFRSYM    DATA     BYTE      DPL1
      000000D0H.7 SFRSYM    DATA     BIT       CY
      000000A0H   SFRSYM    DATA     BYTE      P2AX
      00000095H   SFRSYM    DATA     BYTE      DPX1
      00000081H   SFRSYM    DATA     BYTE      SP
      000000D0H.2 SFRSYM    DATA     BIT       OV
      00000080H   SFRSYM    DATA     BYTE      SFRPRT0DR
      00000090H   SFRSYM    DATA     BYTE      SFRPRT1DR
      000000F2H   SFRSYM    DATA     BYTE      SFRPRT12SEL
      00000098H   SFRSYM    DATA     BYTE      SFRPRT2DR
      000000B0H   SFRSYM    DATA     BYTE      SFRPRT3DR
      000000C0H   SFRSYM    DATA     BYTE      SFRPRT4DR
      000000FAH   SFRSYM    DATA     BYTE      SFRPRT15SEL
      000000C8H   SFRSYM    DATA     BYTE      SFRPRT5DR
      000000D8H   SFRSYM    DATA     BYTE      SFRPRT6DR
      00000089H   SFRSYM    DATA     BYTE      SFRPRT0PS
      00000091H   SFRSYM    DATA     BYTE      SFRPRT1PS
      00000099H   SFRSYM    DATA     BYTE      SFRPRT2PS
      000000B1H   SFRSYM    DATA     BYTE      SFRPRT3PS
      000000C1H   SFRSYM    DATA     BYTE      SFRPRT4PS
      000000C9H   SFRSYM    DATA     BYTE      SFRPRT5PS
      000000D9H   SFRSYM    DATA     BYTE      SFRPRT6PS
      000000EAH   SFRSYM    DATA     BYTE      MXAX
      000000F0H   SFRSYM    DATA     BYTE      B
      000000E0H   SFRSYM    DATA     BYTE      ACC
      000000D0H   SFRSYM    DATA     BIT       P
      000000D0H.3 SFRSYM    DATA     BIT       RS0
      000000D0H.4 SFRSYM    DATA     BIT       RS1
      00000083H   SFRSYM    DATA     BYTE      DPH
      000000E8H   SFRSYM    DATA     BYTE      SFRPRT12DR
      00000082H   SFRSYM    DATA     BYTE      DPL
      000000F8H   SFRSYM    DATA     BYTE      SFRPRT15DR
      00000086H   SFRSYM    DATA     BYTE      DPS
      000000E9H   SFRSYM    DATA     BYTE      SFRPRT12PS
      00000093H   SFRSYM    DATA     BYTE      DPX
      000000F9H   SFRSYM    DATA     BYTE      SFRPRT15PS
LX51 LINKER/LOCATER V4.64.0.0                                                         06/11/2018  11:54:47  PAGE 80


      000000D0H.5 SFRSYM    DATA     BIT       F0
      000000D0H.1 SFRSYM    DATA     BIT       F1
      0000008AH   SFRSYM    DATA     BYTE      SFRPRT0SEL
      000000D0H   SFRSYM    DATA     BYTE      PSW
      000000A2H   SFRSYM    DATA     BYTE      SFRPRT1SEL
      0000009AH   SFRSYM    DATA     BYTE      SFRPRT2SEL
      000000B2H   SFRSYM    DATA     BYTE      SFRPRT3SEL
      000000C2H   SFRSYM    DATA     BYTE      SFRPRT4SEL

      0100BF49H   BLOCK     CODE     ---       LVL=0
      0100BF49H   LINE      CODE     ---       #76
      0100BF49H   LINE      CODE     ---       #77
      0100BF49H   LINE      CODE     ---       #79
      0100BF4FH   LINE      CODE     ---       #80
      0100BF4FH   LINE      CODE     ---       #81
      0100BF52H   LINE      CODE     ---       #82
      0100BF58H   LINE      CODE     ---       #83
      0100BF58H   LINE      CODE     ---       #85
      0100BF5BH   LINE      CODE     ---       #86
      ---         BLOCKEND  ---      ---       LVL=0

      0100BA6FH   BLOCK     CODE     ---       LVL=0
      0100BA6FH   LINE      CODE     ---       #106
      0100BA6FH   LINE      CODE     ---       #107
      0100BA6FH   LINE      CODE     ---       #112
      0100BA78H   LINE      CODE     ---       #113
      0100BA7FH   LINE      CODE     ---       #114
      0100BA84H   LINE      CODE     ---       #124
      0100BA8AH   LINE      CODE     ---       #126
      0100BA90H   LINE      CODE     ---       #138
      0100BA96H   LINE      CODE     ---       #139
      0100BA9CH   LINE      CODE     ---       #150
      0100BAA1H   LINE      CODE     ---       #160
      ---         BLOCKEND  ---      ---       LVL=0

      0100BCE7H   BLOCK     CODE     ---       LVL=0
      0100BCE7H   BLOCK     CODE     NEAR LAB  LVL=1
      00000007H   SYMBOL    DATA     BYTE      enableInterrupts
      ---         BLOCKEND  ---      ---       LVL=1
      0100BCE7H   LINE      CODE     ---       #183
      0100BCE7H   LINE      CODE     ---       #184
      0100BCE7H   LINE      CODE     ---       #186
      0100BCEAH   LINE      CODE     ---       #190
      0100BCF1H   LINE      CODE     ---       #193
      0100BCF8H   LINE      CODE     ---       #196
      0100BCFEH   LINE      CODE     ---       #211
      0100BD05H   LINE      CODE     ---       #222
      0100BD08H   LINE      CODE     ---       #223
      ---         BLOCKEND  ---      ---       LVL=0

      0100BD09H   BLOCK     CODE     ---       LVL=0
      0100BD09H   BLOCK     CODE     NEAR LAB  LVL=1
      00000007H   SYMBOL    DATA     BYTE      enableInterrupts
      ---         BLOCKEND  ---      ---       LVL=1
      0100BD09H   LINE      CODE     ---       #240
      0100BD09H   LINE      CODE     ---       #241
      0100BD09H   LINE      CODE     ---       #243
      0100BD0CH   LINE      CODE     ---       #247
      0100BD13H   LINE      CODE     ---       #262
      0100BD1AH   LINE      CODE     ---       #265
      0100BD20H   LINE      CODE     ---       #270
      0100BD27H   LINE      CODE     ---       #277
      0100BD2AH   LINE      CODE     ---       #278
      ---         BLOCKEND  ---      ---       LVL=0
      00000007H   SYMBOL    DATA     BYTE      intSrc
LX51 LINKER/LOCATER V4.64.0.0                                                         06/11/2018  11:54:47  PAGE 81


      00000007H   SYMBOL    DATA     BYTE      rxData
      00000006H   SYMBOL    DATA     BYTE      locRxBufferRead
      00000005H   SYMBOL    DATA     BYTE      locRxBufferWrite

      0100BF35H   BLOCK     CODE     ---       LVL=0
      0100BF35H   BLOCK     CODE     NEAR LAB  LVL=1
      00000007H   SYMBOL    DATA     BYTE      status
      ---         BLOCKEND  ---      ---       LVL=1
      0100BF35H   LINE      CODE     ---       #485
      0100BF35H   LINE      CODE     ---       #486
      0100BF35H   LINE      CODE     ---       #489
      0100BF3CH   LINE      CODE     ---       #492
      0100BF42H   LINE      CODE     ---       #493
      0100BF42H   LINE      CODE     ---       #494
      0100BF46H   LINE      CODE     ---       #495
      0100BF48H   LINE      CODE     ---       #496
      0100BF48H   LINE      CODE     ---       #499
      0100BF48H   LINE      CODE     ---       #500
      ---         BLOCKEND  ---      ---       LVL=0

      0100B393H   BLOCK     CODE     ---       LVL=0
      0100B393H   BLOCK     CODE     NEAR LAB  LVL=1
      00000007H   SYMBOL    DATA     BYTE      rxData
      00000006H   SYMBOL    DATA     BYTE      rxStatus
      00000006H   SYMBOL    DATA     BYTE      locRxBufferRead
      00000005H   SYMBOL    DATA     BYTE      locRxBufferWrite
      ---         BLOCKEND  ---      ---       LVL=1
      0100B393H   LINE      CODE     ---       #532
      0100B393H   LINE      CODE     ---       #533
      0100B393H   LINE      CODE     ---       #534
      0100B395H   LINE      CODE     ---       #542
      0100B39BH   LINE      CODE     ---       #544
      0100B3A0H   LINE      CODE     ---       #545
      0100B3A5H   LINE      CODE     ---       #547
      0100B3AFH   LINE      CODE     ---       #548
      0100B3AFH   LINE      CODE     ---       #549
      0100B3BBH   LINE      CODE     ---       #550
      0100B3BCH   LINE      CODE     ---       #551
      0100B3C2H   LINE      CODE     ---       #552
      0100B3C2H   LINE      CODE     ---       #553
      0100B3C4H   LINE      CODE     ---       #554
      0100B3C4H   LINE      CODE     ---       #556
      0100B3C9H   LINE      CODE     ---       #558
      0100B3CFH   LINE      CODE     ---       #559
      0100B3CFH   LINE      CODE     ---       #560
      0100B3D1H   LINE      CODE     ---       #575
      0100B3D1H   LINE      CODE     ---       #577
      0100B3D3H   LINE      CODE     ---       #579
      0100B3D8H   LINE      CODE     ---       #580
      0100B3DBH   LINE      CODE     ---       #581
      0100B3DBH   LINE      CODE     ---       #582
      0100B3E0H   LINE      CODE     ---       #585
      0100B3E5H   LINE      CODE     ---       #586
      0100B3E5H   LINE      CODE     ---       #587
      0100B3E7H   LINE      CODE     ---       #588
      0100B3E7H   LINE      CODE     ---       #589
      0100B3E7H   LINE      CODE     ---       #590
      0100B3E7H   LINE      CODE     ---       #592
      0100B3EDH   LINE      CODE     ---       #611
      0100B3EDH   LINE      CODE     ---       #612
      ---         BLOCKEND  ---      ---       LVL=0
      00000002H   SYMBOL    DATA     WORD      locErrorStatus

      0100B596H   BLOCK     CODE     ---       LVL=0
      0100B596H   BLOCK     CODE     NEAR LAB  LVL=1
LX51 LINKER/LOCATER V4.64.0.0                                                         06/11/2018  11:54:47  PAGE 82


      00000007H   SYMBOL    DATA     BYTE      size
      ---         BLOCKEND  ---      ---       LVL=1
      0100B596H   LINE      CODE     ---       #683
      0100B596H   LINE      CODE     ---       #685
      0100B596H   LINE      CODE     ---       #691
      0100B59CH   LINE      CODE     ---       #693
      0100B5A8H   LINE      CODE     ---       #694
      0100B5A8H   LINE      CODE     ---       #695
      0100B5AEH   LINE      CODE     ---       #696
      0100B5AEH   LINE      CODE     ---       #697
      0100B5B0H   LINE      CODE     ---       #698
      0100B5B2H   LINE      CODE     ---       #700
      0100B5B2H   LINE      CODE     ---       #701
      0100B5B4H   LINE      CODE     ---       #702
      0100B5B4H   LINE      CODE     ---       #703
      0100B5B6H   LINE      CODE     ---       #704
      0100B5C3H   LINE      CODE     ---       #705
      0100B5C3H   LINE      CODE     ---       #706
      0100B5CCH   LINE      CODE     ---       #707
      0100B5CEH   LINE      CODE     ---       #709
      0100B5CEH   LINE      CODE     ---       #710
      0100B5DEH   LINE      CODE     ---       #711
      0100B5DEH   LINE      CODE     ---       #713
      0100B5E4H   LINE      CODE     ---       #722
      0100B5E4H   LINE      CODE     ---       #723
      ---         BLOCKEND  ---      ---       LVL=0

      0100BB96H   BLOCK     CODE     ---       LVL=0
      0100BB96H   BLOCK     CODE     NEAR LAB  LVL=1
      00000007H   SYMBOL    DATA     BYTE      enableInterrupts
      ---         BLOCKEND  ---      ---       LVL=1
      0100BB96H   LINE      CODE     ---       #757
      0100BB96H   LINE      CODE     ---       #758
      0100BB96H   LINE      CODE     ---       #762
      0100BB99H   LINE      CODE     ---       #763
      0100BBA0H   LINE      CODE     ---       #764
      0100BBA4H   LINE      CODE     ---       #765
      0100BBA7H   LINE      CODE     ---       #770
      0100BBADH   LINE      CODE     ---       #772
      0100BBB2H   LINE      CODE     ---       #773
      0100BBB6H   LINE      CODE     ---       #774
      0100BBBAH   LINE      CODE     ---       #775
      0100BBBEH   LINE      CODE     ---       #777
      0100BBC4H   LINE      CODE     ---       #781
      ---         BLOCKEND  ---      ---       LVL=0
      00000007H   SYMBOL    DATA     BYTE      address
      00000007H   SYMBOL    DATA     BYTE      address
      00000007H   SYMBOL    DATA     BYTE      intSrc
      00000007H   SYMBOL    DATA     BYTE      txDataByte

      0100C22DH   BLOCK     CODE     ---       LVL=0
      0100C22DH   LINE      CODE     ---       #1003
      0100C22DH   LINE      CODE     ---       #1004
      0100C22DH   LINE      CODE     ---       #1005
      0100C232H   LINE      CODE     ---       #1006
      ---         BLOCKEND  ---      ---       LVL=0

      0100C0C9H   BLOCK     CODE     ---       LVL=0
      00000007H   SYMBOL    DATA     BYTE      txDataByte
      0100C0C9H   LINE      CODE     ---       #1041
      0100C0C9H   LINE      CODE     ---       #1042
      0100C0C9H   LINE      CODE     ---       #1107
      0100C0D0H   LINE      CODE     ---       #1108
      0100C0D0H   LINE      CODE     ---       #1110
      0100C0D0H   LINE      CODE     ---       #1113
LX51 LINKER/LOCATER V4.64.0.0                                                         06/11/2018  11:54:47  PAGE 83


      0100C0D5H   LINE      CODE     ---       #1116
      ---         BLOCKEND  ---      ---       LVL=0

      0100B9B6H   BLOCK     CODE     ---       LVL=0
      02000605H   SYMBOL    XDATA    ---       string
      0100B9C1H   BLOCK     CODE     NEAR LAB  LVL=1
      00000004H   SYMBOL    DATA     WORD      bufIndex
      ---         BLOCKEND  ---      ---       LVL=1
      0100B9B6H   LINE      CODE     ---       #1145
      0100B9C1H   LINE      CODE     ---       #1146
      0100B9C1H   LINE      CODE     ---       #1147
      0100B9C4H   LINE      CODE     ---       #1150
      0100B9CAH   LINE      CODE     ---       #1151
      0100B9CAH   LINE      CODE     ---       #1153
      0100B9DFH   LINE      CODE     ---       #1154
      0100B9DFH   LINE      CODE     ---       #1155
      0100B9E2H   LINE      CODE     ---       #1156
      0100B9E7H   LINE      CODE     ---       #1157
      0100B9E9H   LINE      CODE     ---       #1158
      0100B9E9H   LINE      CODE     ---       #1159
      ---         BLOCKEND  ---      ---       LVL=0
      00000005H   SYMBOL    DATA     BYTE      byteCount
      00000006H   SYMBOL    DATA     BYTE      bufIndex
      00000007H   SYMBOL    DATA     BYTE      txDataByte
      00000007H   SYMBOL    DATA     BYTE      size

      0100BFF4H   BLOCK     CODE     ---       LVL=0
      0100BFF4H   BLOCK     CODE     NEAR LAB  LVL=1
      00000007H   SYMBOL    DATA     BYTE      enableInterrupts
      ---         BLOCKEND  ---      ---       LVL=1
      0100BFF4H   LINE      CODE     ---       #1354
      0100BFF4H   LINE      CODE     ---       #1355
      0100BFF4H   LINE      CODE     ---       #1358
      0100BFF7H   LINE      CODE     ---       #1360
      0100BFFEH   LINE      CODE     ---       #1361
      0100C002H   LINE      CODE     ---       #1362
      0100C005H   LINE      CODE     ---       #1376
      ---         BLOCKEND  ---      ---       LVL=0
      00000007H   SYMBOL    DATA     BYTE      retMode
      02000E31H   SYMBOL    XDATA    BYTE      txPeriod

      ---         MODULE    ---      ---       PWM_MOTORS
      02000E88H   PUBLIC    XDATA    BYTE      PWM_MOTORS_initVar
      0100C245H   PUBLIC    CODE     ---       _PWM_MOTORS_WriteCompare2
      0100C23FH   PUBLIC    CODE     ---       _PWM_MOTORS_WriteCompare1
      0100C239H   PUBLIC    CODE     ---       _PWM_MOTORS_WritePeriod
      0100C233H   PUBLIC    CODE     ---       _PWM_MOTORS_WriteCounter
      0100C1D2H   PUBLIC    CODE     ---       PWM_MOTORS_Enable
      0100BC9BH   PUBLIC    CODE     ---       PWM_MOTORS_Init
      0100BF5CH   PUBLIC    CODE     ---       PWM_MOTORS_Start
      000000CAH   SFRSYM    DATA     BYTE      SFRPRT5SEL
      000000DAH   SFRSYM    DATA     BYTE      SFRPRT6SEL
      000000D0H.6 SFRSYM    DATA     BIT       AC
      000000A8H.7 SFRSYM    DATA     BIT       EA
      000000A8H   SFRSYM    DATA     BYTE      IE
      00000085H   SFRSYM    DATA     BYTE      DPH1
      00000084H   SFRSYM    DATA     BYTE      DPL1
      000000D0H.7 SFRSYM    DATA     BIT       CY
      000000A0H   SFRSYM    DATA     BYTE      P2AX
      00000095H   SFRSYM    DATA     BYTE      DPX1
      00000081H   SFRSYM    DATA     BYTE      SP
      000000D0H.2 SFRSYM    DATA     BIT       OV
      00000080H   SFRSYM    DATA     BYTE      SFRPRT0DR
      00000090H   SFRSYM    DATA     BYTE      SFRPRT1DR
      000000F2H   SFRSYM    DATA     BYTE      SFRPRT12SEL
LX51 LINKER/LOCATER V4.64.0.0                                                         06/11/2018  11:54:47  PAGE 84


      00000098H   SFRSYM    DATA     BYTE      SFRPRT2DR
      000000B0H   SFRSYM    DATA     BYTE      SFRPRT3DR
      000000C0H   SFRSYM    DATA     BYTE      SFRPRT4DR
      000000FAH   SFRSYM    DATA     BYTE      SFRPRT15SEL
      000000C8H   SFRSYM    DATA     BYTE      SFRPRT5DR
      000000D8H   SFRSYM    DATA     BYTE      SFRPRT6DR
      00000089H   SFRSYM    DATA     BYTE      SFRPRT0PS
      00000091H   SFRSYM    DATA     BYTE      SFRPRT1PS
      00000099H   SFRSYM    DATA     BYTE      SFRPRT2PS
      000000B1H   SFRSYM    DATA     BYTE      SFRPRT3PS
      000000C1H   SFRSYM    DATA     BYTE      SFRPRT4PS
      000000C9H   SFRSYM    DATA     BYTE      SFRPRT5PS
      000000D9H   SFRSYM    DATA     BYTE      SFRPRT6PS
      000000EAH   SFRSYM    DATA     BYTE      MXAX
      000000F0H   SFRSYM    DATA     BYTE      B
      000000E0H   SFRSYM    DATA     BYTE      ACC
      000000D0H   SFRSYM    DATA     BIT       P
      000000D0H.3 SFRSYM    DATA     BIT       RS0
      000000D0H.4 SFRSYM    DATA     BIT       RS1
      00000083H   SFRSYM    DATA     BYTE      DPH
      000000E8H   SFRSYM    DATA     BYTE      SFRPRT12DR
      00000082H   SFRSYM    DATA     BYTE      DPL
      000000F8H   SFRSYM    DATA     BYTE      SFRPRT15DR
      00000086H   SFRSYM    DATA     BYTE      DPS
      000000E9H   SFRSYM    DATA     BYTE      SFRPRT12PS
      00000093H   SFRSYM    DATA     BYTE      DPX
      000000F9H   SFRSYM    DATA     BYTE      SFRPRT15PS
      000000D0H.5 SFRSYM    DATA     BIT       F0
      000000D0H.1 SFRSYM    DATA     BIT       F1
      0000008AH   SFRSYM    DATA     BYTE      SFRPRT0SEL
      000000D0H   SFRSYM    DATA     BYTE      PSW
      000000A2H   SFRSYM    DATA     BYTE      SFRPRT1SEL
      0000009AH   SFRSYM    DATA     BYTE      SFRPRT2SEL
      000000B2H   SFRSYM    DATA     BYTE      SFRPRT3SEL
      000000C2H   SFRSYM    DATA     BYTE      SFRPRT4SEL

      0100BF5CH   BLOCK     CODE     ---       LVL=0
      0100BF5CH   LINE      CODE     ---       #55
      0100BF5CH   LINE      CODE     ---       #56
      0100BF5CH   LINE      CODE     ---       #58
      0100BF62H   LINE      CODE     ---       #59
      0100BF62H   LINE      CODE     ---       #60
      0100BF65H   LINE      CODE     ---       #61
      0100BF6BH   LINE      CODE     ---       #62
      0100BF6BH   LINE      CODE     ---       #63
      0100BF6EH   LINE      CODE     ---       #65
      ---         BLOCKEND  ---      ---       LVL=0

      0100BC9BH   BLOCK     CODE     ---       LVL=0
      0100BC9BH   BLOCK     CODE     NEAR LAB  LVL=1
      00000007H   SYMBOL    DATA     BYTE      ctrl
      ---         BLOCKEND  ---      ---       LVL=1
      0100BC9BH   LINE      CODE     ---       #84
      0100BC9BH   LINE      CODE     ---       #85
      0100BC9BH   LINE      CODE     ---       #118
      0100BCA2H   LINE      CODE     ---       #120
      0100BCA5H   LINE      CODE     ---       #126
      0100BCACH   LINE      CODE     ---       #133
      0100BCB1H   LINE      CODE     ---       #136
      0100BCB6H   LINE      CODE     ---       #141
      0100BCBBH   LINE      CODE     ---       #142
      0100BCC0H   LINE      CODE     ---       #179
      ---         BLOCKEND  ---      ---       LVL=0

      0100C1D2H   BLOCK     CODE     ---       LVL=0
LX51 LINKER/LOCATER V4.64.0.0                                                         06/11/2018  11:54:47  PAGE 85


      0100C1D2H   LINE      CODE     ---       #199
      0100C1D2H   LINE      CODE     ---       #200
      0100C1D2H   LINE      CODE     ---       #209
      0100C1D9H   LINE      CODE     ---       #211
      ---         BLOCKEND  ---      ---       LVL=0

      0100C233H   BLOCK     CODE     ---       LVL=0
      00000007H   SYMBOL    DATA     BYTE      counter
      0100C233H   LINE      CODE     ---       #403
      0100C233H   LINE      CODE     ---       #405
      0100C233H   LINE      CODE     ---       #406
      0100C238H   LINE      CODE     ---       #407
      ---         BLOCKEND  ---      ---       LVL=0

      0100C239H   BLOCK     CODE     ---       LVL=0
      00000007H   SYMBOL    DATA     BYTE      period
      0100C239H   LINE      CODE     ---       #482
      0100C239H   LINE      CODE     ---       #483
      0100C239H   LINE      CODE     ---       #487
      0100C23EH   LINE      CODE     ---       #489
      ---         BLOCKEND  ---      ---       LVL=0

      0100C23FH   BLOCK     CODE     ---       LVL=0
      00000007H   SYMBOL    DATA     BYTE      compare
      0100C23FH   LINE      CODE     ---       #555
      0100C23FH   LINE      CODE     ---       #557
      0100C23FH   LINE      CODE     ---       #561
      0100C244H   LINE      CODE     ---       #563
      ---         BLOCKEND  ---      ---       LVL=0

      0100C245H   BLOCK     CODE     ---       LVL=0
      00000007H   SYMBOL    DATA     BYTE      compare
      0100C245H   LINE      CODE     ---       #584
      0100C245H   LINE      CODE     ---       #586
      0100C245H   LINE      CODE     ---       #590
      0100C24AH   LINE      CODE     ---       #592
      ---         BLOCKEND  ---      ---       LVL=0
      00000007H   SYMBOL    DATA     BYTE      result
      00000007H   SYMBOL    DATA     BYTE      control

      ---         MODULE    ---      ---       ISR_RS485_RX
      0100C211H   PUBLIC    CODE     ---       ISR_RS485_RX_Disable
      0100C20AH   PUBLIC    CODE     ---       ISR_RS485_RX_Enable
      0100C150H   PUBLIC    CODE     ---       _ISR_RS485_RX_SetPriority
      0100C067H   PUBLIC    CODE     ---       _ISR_RS485_RX_SetVector
      0100BBF3H   PUBLIC    CODE     ---       ISR_RS485_RX_Interrupt
      0100BD6CH   PUBLIC    CODE     ---       _ISR_RS485_RX_StartEx
      000000CAH   SFRSYM    DATA     BYTE      SFRPRT5SEL
      000000DAH   SFRSYM    DATA     BYTE      SFRPRT6SEL
      000000D0H.6 SFRSYM    DATA     BIT       AC
      000000A8H.7 SFRSYM    DATA     BIT       EA
      000000A8H   SFRSYM    DATA     BYTE      IE
      00000085H   SFRSYM    DATA     BYTE      DPH1
      00000084H   SFRSYM    DATA     BYTE      DPL1
      000000D0H.7 SFRSYM    DATA     BIT       CY
      000000A0H   SFRSYM    DATA     BYTE      P2AX
      00000095H   SFRSYM    DATA     BYTE      DPX1
      00000081H   SFRSYM    DATA     BYTE      SP
      000000D0H.2 SFRSYM    DATA     BIT       OV
      00000080H   SFRSYM    DATA     BYTE      SFRPRT0DR
      00000090H   SFRSYM    DATA     BYTE      SFRPRT1DR
      000000F2H   SFRSYM    DATA     BYTE      SFRPRT12SEL
      00000098H   SFRSYM    DATA     BYTE      SFRPRT2DR
      000000B0H   SFRSYM    DATA     BYTE      SFRPRT3DR
      000000C0H   SFRSYM    DATA     BYTE      SFRPRT4DR
LX51 LINKER/LOCATER V4.64.0.0                                                         06/11/2018  11:54:47  PAGE 86


      000000FAH   SFRSYM    DATA     BYTE      SFRPRT15SEL
      000000C8H   SFRSYM    DATA     BYTE      SFRPRT5DR
      000000D8H   SFRSYM    DATA     BYTE      SFRPRT6DR
      00000089H   SFRSYM    DATA     BYTE      SFRPRT0PS
      00000091H   SFRSYM    DATA     BYTE      SFRPRT1PS
      00000099H   SFRSYM    DATA     BYTE      SFRPRT2PS
      000000B1H   SFRSYM    DATA     BYTE      SFRPRT3PS
      000000C1H   SFRSYM    DATA     BYTE      SFRPRT4PS
      000000C9H   SFRSYM    DATA     BYTE      SFRPRT5PS
      000000D9H   SFRSYM    DATA     BYTE      SFRPRT6PS
      000000EAH   SFRSYM    DATA     BYTE      MXAX
      000000F0H   SFRSYM    DATA     BYTE      B
      000000E0H   SFRSYM    DATA     BYTE      ACC
      000000D0H   SFRSYM    DATA     BIT       P
      000000D0H.3 SFRSYM    DATA     BIT       RS0
      000000D0H.4 SFRSYM    DATA     BIT       RS1
      00000083H   SFRSYM    DATA     BYTE      DPH
      000000E8H   SFRSYM    DATA     BYTE      SFRPRT12DR
      00000082H   SFRSYM    DATA     BYTE      DPL
      000000F8H   SFRSYM    DATA     BYTE      SFRPRT15DR
      00000086H   SFRSYM    DATA     BYTE      DPS
      000000E9H   SFRSYM    DATA     BYTE      SFRPRT12PS
      00000093H   SFRSYM    DATA     BYTE      DPX
      000000F9H   SFRSYM    DATA     BYTE      SFRPRT15PS
      000000D0H.5 SFRSYM    DATA     BIT       F0
      000000D0H.1 SFRSYM    DATA     BIT       F1
      0000008AH   SFRSYM    DATA     BYTE      SFRPRT0SEL
      000000D0H   SFRSYM    DATA     BYTE      PSW
      000000A2H   SFRSYM    DATA     BYTE      SFRPRT1SEL
      0000009AH   SFRSYM    DATA     BYTE      SFRPRT2SEL
      000000B2H   SFRSYM    DATA     BYTE      SFRPRT3SEL
      000000C2H   SFRSYM    DATA     BYTE      SFRPRT4SEL

      0100BD6CH   BLOCK     CODE     ---       LVL=0
      02000003H   SYMBOL    XDATA    ---       address
      0100BD6CH   LINE      CODE     ---       #94
      0100BD74H   LINE      CODE     ---       #95
      0100BD74H   LINE      CODE     ---       #97
      0100BD77H   LINE      CODE     ---       #100
      0100BD82H   LINE      CODE     ---       #103
      0100BD87H   LINE      CODE     ---       #106
      0100BD8AH   LINE      CODE     ---       #107
      ---         BLOCKEND  ---      ---       LVL=0

      0100BBF3H   BLOCK     CODE     ---       LVL=0
      0100BBF3H   LINE      CODE     ---       #151
      0100BBF3H   LINE      CODE     ---       #168
      ---         BLOCKEND  ---      ---       LVL=0

      0100C067H   BLOCK     CODE     ---       LVL=0
      00000006H   SYMBOL    DATA     ---       address
      0100C067H   LINE      CODE     ---       #198
      0100C067H   LINE      CODE     ---       #199
      0100C067H   LINE      CODE     ---       #200
      0100C074H   LINE      CODE     ---       #201
      ---         BLOCKEND  ---      ---       LVL=0

      0100C150H   BLOCK     CODE     ---       LVL=0
      00000007H   SYMBOL    DATA     BYTE      priority
      0100C150H   LINE      CODE     ---       #248
      0100C150H   LINE      CODE     ---       #249
      0100C150H   LINE      CODE     ---       #250
      0100C159H   LINE      CODE     ---       #251
      ---         BLOCKEND  ---      ---       LVL=0
      00000007H   SYMBOL    DATA     BYTE      priority
LX51 LINKER/LOCATER V4.64.0.0                                                         06/11/2018  11:54:47  PAGE 87



      0100C20AH   BLOCK     CODE     ---       LVL=0
      0100C20AH   LINE      CODE     ---       #297
      0100C20AH   LINE      CODE     ---       #298
      0100C20AH   LINE      CODE     ---       #300
      0100C210H   LINE      CODE     ---       #301
      ---         BLOCKEND  ---      ---       LVL=0

      0100C211H   BLOCK     CODE     ---       LVL=0
      0100C211H   LINE      CODE     ---       #339
      0100C211H   LINE      CODE     ---       #340
      0100C211H   LINE      CODE     ---       #342
      0100C217H   LINE      CODE     ---       #343
      ---         BLOCKEND  ---      ---       LVL=0

      ---         MODULE    ---      ---       CLOCK_UART
      0100C1DAH   PUBLIC    CODE     ---       CLOCK_UART_GetSourceRegister
      0100C15AH   PUBLIC    CODE     ---       CLOCK_UART_GetDividerRegister
      01009CE5H   PUBLIC    CODE     ---       _CLOCK_UART_SetDividerRegister
      00000007H   SYMBOL    DATA     BYTE      state

      01009CE5H   BLOCK     CODE     ---       LVL=0
      02000029H   SYMBOL    XDATA    WORD      clkDivider
      0200002BH   SYMBOL    XDATA    BYTE      restart
      01009CF0H   BLOCK     CODE     NEAR LAB  LVL=1
      0200002CH   SYMBOL    XDATA    BYTE      enabled
      0200002DH   SYMBOL    XDATA    BYTE      currSrc
      0200002EH   SYMBOL    XDATA    WORD      oldDivider
      ---         BLOCKEND  ---      ---       LVL=1
      01009CE5H   LINE      CODE     ---       #193
      01009CF0H   LINE      CODE     ---       #195
      01009CF0H   LINE      CODE     ---       #198
      01009CF8H   LINE      CODE     ---       #199
      01009D03H   LINE      CODE     ---       #201
      01009D15H   LINE      CODE     ---       #202
      01009D15H   LINE      CODE     ---       #203
      01009D1FH   LINE      CODE     ---       #205
      01009D30H   LINE      CODE     ---       #206
      01009D30H   LINE      CODE     ---       #208
      01009D34H   LINE      CODE     ---       #209
      01009D34H   LINE      CODE     ---       #213
      01009D3DH   LINE      CODE     ---       #214
      01009D44H   LINE      CODE     ---       #215
      01009D45H   LINE      CODE     ---       #217
      01009D45H   LINE      CODE     ---       #220
      01009D4CH   LINE      CODE     ---       #221
      01009D5DH   LINE      CODE     ---       #222
      01009D5DH   LINE      CODE     ---       #223
      01009D5EH   LINE      CODE     ---       #225
      01009D5EH   LINE      CODE     ---       #227
      01009D64H   LINE      CODE     ---       #228
      01009D64H   LINE      CODE     ---       #229
      01009D69H   LINE      CODE     ---       #236
      01009D6EH   LINE      CODE     ---       #237
      01009D73H   LINE      CODE     ---       #240
      01009D7AH   LINE      CODE     ---       #243
      01009D8CH   LINE      CODE     ---       #244
      01009D8CH   LINE      CODE     ---       #246
      01009D9DH   LINE      CODE     ---       #247
      01009DA3H   LINE      CODE     ---       #250
      01009DABH   LINE      CODE     ---       #253
      01009DB2H   LINE      CODE     ---       #257
      01009DB7H   LINE      CODE     ---       #259
      01009DB7H   LINE      CODE     ---       #260
      01009DB7H   LINE      CODE     ---       #263
LX51 LINKER/LOCATER V4.64.0.0                                                         06/11/2018  11:54:47  PAGE 88


      01009DBFH   LINE      CODE     ---       #264
      01009DBFH   LINE      CODE     ---       #266
      01009DD0H   LINE      CODE     ---       #268
      01009DE3H   LINE      CODE     ---       #269
      01009DEDH   LINE      CODE     ---       #270
      01009DEEH   LINE      CODE     ---       #272
      01009DEEH   LINE      CODE     ---       #274
      01009DFFH   LINE      CODE     ---       #275
      01009E14H   LINE      CODE     ---       #276
      01009E14H   LINE      CODE     ---       #277
      01009E14H   LINE      CODE     ---       #278
      01009E14H   LINE      CODE     ---       #279
      ---         BLOCKEND  ---      ---       LVL=0

      0100C15AH   BLOCK     CODE     ---       LVL=0
      0100C15AH   LINE      CODE     ---       #297
      0100C15AH   LINE      CODE     ---       #298
      0100C15AH   LINE      CODE     ---       #299
      0100C163H   LINE      CODE     ---       #300
      ---         BLOCKEND  ---      ---       LVL=0
      00000007H   SYMBOL    DATA     BYTE      modeBitMask
      00000007H   SYMBOL    DATA     BYTE      modeBitMask
      00000007H   SYMBOL    DATA     BYTE      oldSrc

      0100C1DAH   BLOCK     CODE     ---       LVL=0
      0100C1DAH   LINE      CODE     ---       #464
      0100C1DAH   LINE      CODE     ---       #465
      0100C1DAH   LINE      CODE     ---       #466
      0100C1E1H   LINE      CODE     ---       #467
      ---         BLOCKEND  ---      ---       LVL=0

      ---         MODULE    ---      ---       COUNTER_ENC
      02000E89H   PUBLIC    XDATA    BYTE      COUNTER_ENC_initVar
      0100C0D6H   PUBLIC    CODE     ---       COUNTER_ENC_ClearFIFO
      0100C269H   PUBLIC    CODE     ---       _COUNTER_ENC_WriteCompare
      0100C263H   PUBLIC    CODE     ---       _COUNTER_ENC_WritePeriod
      0100C25DH   PUBLIC    CODE     ---       COUNTER_ENC_ReadCapture
      0100C257H   PUBLIC    CODE     ---       _COUNTER_ENC_WriteCounter
      0100C251H   PUBLIC    CODE     ---       COUNTER_ENC_ReadStatusRegister
      0100C24BH   PUBLIC    CODE     ---       _COUNTER_ENC_SetInterruptMode
      0100BF6FH   PUBLIC    CODE     ---       COUNTER_ENC_Start
      0100C1E2H   PUBLIC    CODE     ---       COUNTER_ENC_Enable
      0100B981H   PUBLIC    CODE     ---       COUNTER_ENC_Init
      000000CAH   SFRSYM    DATA     BYTE      SFRPRT5SEL
      000000DAH   SFRSYM    DATA     BYTE      SFRPRT6SEL
      000000D0H.6 SFRSYM    DATA     BIT       AC
      000000A8H.7 SFRSYM    DATA     BIT       EA
      000000A8H   SFRSYM    DATA     BYTE      IE
      00000085H   SFRSYM    DATA     BYTE      DPH1
      00000084H   SFRSYM    DATA     BYTE      DPL1
      000000D0H.7 SFRSYM    DATA     BIT       CY
      000000A0H   SFRSYM    DATA     BYTE      P2AX
      00000095H   SFRSYM    DATA     BYTE      DPX1
      00000081H   SFRSYM    DATA     BYTE      SP
      000000D0H.2 SFRSYM    DATA     BIT       OV
      00000080H   SFRSYM    DATA     BYTE      SFRPRT0DR
      00000090H   SFRSYM    DATA     BYTE      SFRPRT1DR
      000000F2H   SFRSYM    DATA     BYTE      SFRPRT12SEL
      00000098H   SFRSYM    DATA     BYTE      SFRPRT2DR
      000000B0H   SFRSYM    DATA     BYTE      SFRPRT3DR
      000000C0H   SFRSYM    DATA     BYTE      SFRPRT4DR
      000000FAH   SFRSYM    DATA     BYTE      SFRPRT15SEL
      000000C8H   SFRSYM    DATA     BYTE      SFRPRT5DR
      000000D8H   SFRSYM    DATA     BYTE      SFRPRT6DR
      00000089H   SFRSYM    DATA     BYTE      SFRPRT0PS
LX51 LINKER/LOCATER V4.64.0.0                                                         06/11/2018  11:54:47  PAGE 89


      00000091H   SFRSYM    DATA     BYTE      SFRPRT1PS
      00000099H   SFRSYM    DATA     BYTE      SFRPRT2PS
      000000B1H   SFRSYM    DATA     BYTE      SFRPRT3PS
      000000C1H   SFRSYM    DATA     BYTE      SFRPRT4PS
      000000C9H   SFRSYM    DATA     BYTE      SFRPRT5PS
      000000D9H   SFRSYM    DATA     BYTE      SFRPRT6PS
      000000EAH   SFRSYM    DATA     BYTE      MXAX
      000000F0H   SFRSYM    DATA     BYTE      B
      000000E0H   SFRSYM    DATA     BYTE      ACC
      000000D0H   SFRSYM    DATA     BIT       P
      000000D0H.3 SFRSYM    DATA     BIT       RS0
      000000D0H.4 SFRSYM    DATA     BIT       RS1
      00000083H   SFRSYM    DATA     BYTE      DPH
      000000E8H   SFRSYM    DATA     BYTE      SFRPRT12DR
      00000082H   SFRSYM    DATA     BYTE      DPL
      000000F8H   SFRSYM    DATA     BYTE      SFRPRT15DR
      00000086H   SFRSYM    DATA     BYTE      DPS
      000000E9H   SFRSYM    DATA     BYTE      SFRPRT12PS
      00000093H   SFRSYM    DATA     BYTE      DPX
      000000F9H   SFRSYM    DATA     BYTE      SFRPRT15PS
      000000D0H.5 SFRSYM    DATA     BIT       F0
      000000D0H.1 SFRSYM    DATA     BIT       F1
      0000008AH   SFRSYM    DATA     BYTE      SFRPRT0SEL
      000000D0H   SFRSYM    DATA     BYTE      PSW
      000000A2H   SFRSYM    DATA     BYTE      SFRPRT1SEL
      0000009AH   SFRSYM    DATA     BYTE      SFRPRT2SEL
      000000B2H   SFRSYM    DATA     BYTE      SFRPRT3SEL
      000000C2H   SFRSYM    DATA     BYTE      SFRPRT4SEL

      0100B981H   BLOCK     CODE     ---       LVL=0
      0100B981H   BLOCK     CODE     NEAR LAB  LVL=1
      00000007H   SYMBOL    DATA     BYTE      ctrl
      00000007H   SYMBOL    DATA     BYTE      COUNTER_ENC_interruptState
      ---         BLOCKEND  ---      ---       LVL=1
      0100B981H   LINE      CODE     ---       #37
      0100B981H   LINE      CODE     ---       #38
      0100B981H   LINE      CODE     ---       #79
      0100B988H   LINE      CODE     ---       #80
      0100B989H   LINE      CODE     ---       #83
      0100B98DH   LINE      CODE     ---       #88
      0100B98EH   LINE      CODE     ---       #96
      0100B991H   LINE      CODE     ---       #100
      0100B996H   LINE      CODE     ---       #102
      0100B99BH   LINE      CODE     ---       #104
      0100B9A0H   LINE      CODE     ---       #108
      0100B9A3H   LINE      CODE     ---       #110
      0100B9A8H   LINE      CODE     ---       #115
      0100B9ABH   LINE      CODE     ---       #117
      0100B9B2H   LINE      CODE     ---       #120
      0100B9B5H   LINE      CODE     ---       #123
      ---         BLOCKEND  ---      ---       LVL=0

      0100C1E2H   BLOCK     CODE     ---       LVL=0
      0100C1E2H   LINE      CODE     ---       #143
      0100C1E2H   LINE      CODE     ---       #144
      0100C1E2H   LINE      CODE     ---       #155
      0100C1E9H   LINE      CODE     ---       #158
      ---         BLOCKEND  ---      ---       LVL=0

      0100BF6FH   BLOCK     CODE     ---       LVL=0
      0100BF6FH   LINE      CODE     ---       #178
      0100BF6FH   LINE      CODE     ---       #179
      0100BF6FH   LINE      CODE     ---       #180
      0100BF75H   LINE      CODE     ---       #181
      0100BF75H   LINE      CODE     ---       #182
LX51 LINKER/LOCATER V4.64.0.0                                                         06/11/2018  11:54:47  PAGE 90


      0100BF78H   LINE      CODE     ---       #184
      0100BF7EH   LINE      CODE     ---       #185
      0100BF7EH   LINE      CODE     ---       #188
      0100BF81H   LINE      CODE     ---       #189
      ---         BLOCKEND  ---      ---       LVL=0

      0100C24BH   BLOCK     CODE     ---       LVL=0
      00000007H   SYMBOL    DATA     BYTE      interruptsMask
      0100C24BH   LINE      CODE     ---       #237
      0100C24BH   LINE      CODE     ---       #238
      0100C24BH   LINE      CODE     ---       #239
      0100C250H   LINE      CODE     ---       #240
      ---         BLOCKEND  ---      ---       LVL=0

      0100C251H   BLOCK     CODE     ---       LVL=0
      0100C251H   LINE      CODE     ---       #261
      0100C251H   LINE      CODE     ---       #262
      0100C251H   LINE      CODE     ---       #263
      0100C256H   LINE      CODE     ---       #264
      ---         BLOCKEND  ---      ---       LVL=0
      00000007H   SYMBOL    DATA     BYTE      control

      0100C257H   BLOCK     CODE     ---       LVL=0
      00000007H   SYMBOL    DATA     BYTE      counter
      0100C257H   LINE      CODE     ---       #326
      0100C257H   LINE      CODE     ---       #328
      0100C257H   LINE      CODE     ---       #337
      0100C25CH   LINE      CODE     ---       #339
      ---         BLOCKEND  ---      ---       LVL=0

      0100C25DH   BLOCK     CODE     ---       LVL=0
      0100C25DH   LINE      CODE     ---       #390
      0100C25DH   LINE      CODE     ---       #391
      0100C25DH   LINE      CODE     ---       #395
      0100C262H   LINE      CODE     ---       #397
      ---         BLOCKEND  ---      ---       LVL=0

      0100C263H   BLOCK     CODE     ---       LVL=0
      00000007H   SYMBOL    DATA     BYTE      period
      0100C263H   LINE      CODE     ---       #415
      0100C263H   LINE      CODE     ---       #416
      0100C263H   LINE      CODE     ---       #420
      0100C268H   LINE      CODE     ---       #422
      ---         BLOCKEND  ---      ---       LVL=0

      0100C269H   BLOCK     CODE     ---       LVL=0
      00000007H   SYMBOL    DATA     BYTE      compare
      0100C269H   LINE      CODE     ---       #465
      0100C269H   LINE      CODE     ---       #467
      0100C269H   LINE      CODE     ---       #471
      0100C26EH   LINE      CODE     ---       #473
      ---         BLOCKEND  ---      ---       LVL=0

      0100C0D6H   BLOCK     CODE     ---       LVL=0
      0100C0D6H   LINE      CODE     ---       #558
      0100C0D6H   LINE      CODE     ---       #559
      0100C0D6H   LINE      CODE     ---       #561
      0100C0DDH   LINE      CODE     ---       #562
      0100C0DDH   LINE      CODE     ---       #563
      0100C0E0H   LINE      CODE     ---       #564
      0100C0E2H   LINE      CODE     ---       #566
      ---         BLOCKEND  ---      ---       LVL=0

      ---         MODULE    ---      ---       SHIFTREG_ENC_1
      02000E8AH   PUBLIC    XDATA    BYTE      SHIFTREG_ENC_1_initVar
LX51 LINKER/LOCATER V4.64.0.0                                                         06/11/2018  11:54:47  PAGE 91


      0100C164H   PUBLIC    CODE     ---       SHIFTREG_ENC_1_ReadData
      0100C018H   PUBLIC    CODE     ---       _SHIFTREG_ENC_1_SetIntMode
      0100C075H   PUBLIC    CODE     ---       SHIFTREG_ENC_1_EnableInt
      0100C26FH   PUBLIC    CODE     ---       SHIFTREG_ENC_1_Init
      0100C13AH   PUBLIC    CODE     ---       SHIFTREG_ENC_1_Enable
      0100BF82H   PUBLIC    CODE     ---       SHIFTREG_ENC_1_Start
      000000CAH   SFRSYM    DATA     BYTE      SFRPRT5SEL
      000000DAH   SFRSYM    DATA     BYTE      SFRPRT6SEL
      000000D0H.6 SFRSYM    DATA     BIT       AC
      000000A8H.7 SFRSYM    DATA     BIT       EA
      000000A8H   SFRSYM    DATA     BYTE      IE
      00000085H   SFRSYM    DATA     BYTE      DPH1
      00000084H   SFRSYM    DATA     BYTE      DPL1
      000000D0H.7 SFRSYM    DATA     BIT       CY
      000000A0H   SFRSYM    DATA     BYTE      P2AX
      00000095H   SFRSYM    DATA     BYTE      DPX1
      00000081H   SFRSYM    DATA     BYTE      SP
      000000D0H.2 SFRSYM    DATA     BIT       OV
      00000080H   SFRSYM    DATA     BYTE      SFRPRT0DR
      00000090H   SFRSYM    DATA     BYTE      SFRPRT1DR
      000000F2H   SFRSYM    DATA     BYTE      SFRPRT12SEL
      00000098H   SFRSYM    DATA     BYTE      SFRPRT2DR
      000000B0H   SFRSYM    DATA     BYTE      SFRPRT3DR
      000000C0H   SFRSYM    DATA     BYTE      SFRPRT4DR
      000000FAH   SFRSYM    DATA     BYTE      SFRPRT15SEL
      000000C8H   SFRSYM    DATA     BYTE      SFRPRT5DR
      000000D8H   SFRSYM    DATA     BYTE      SFRPRT6DR
      00000089H   SFRSYM    DATA     BYTE      SFRPRT0PS
      00000091H   SFRSYM    DATA     BYTE      SFRPRT1PS
      00000099H   SFRSYM    DATA     BYTE      SFRPRT2PS
      000000B1H   SFRSYM    DATA     BYTE      SFRPRT3PS
      000000C1H   SFRSYM    DATA     BYTE      SFRPRT4PS
      000000C9H   SFRSYM    DATA     BYTE      SFRPRT5PS
      000000D9H   SFRSYM    DATA     BYTE      SFRPRT6PS
      000000EAH   SFRSYM    DATA     BYTE      MXAX
      000000F0H   SFRSYM    DATA     BYTE      B
      000000E0H   SFRSYM    DATA     BYTE      ACC
      000000D0H   SFRSYM    DATA     BIT       P
      000000D0H.3 SFRSYM    DATA     BIT       RS0
      000000D0H.4 SFRSYM    DATA     BIT       RS1
      00000083H   SFRSYM    DATA     BYTE      DPH
      000000E8H   SFRSYM    DATA     BYTE      SFRPRT12DR
      00000082H   SFRSYM    DATA     BYTE      DPL
      000000F8H   SFRSYM    DATA     BYTE      SFRPRT15DR
      00000086H   SFRSYM    DATA     BYTE      DPS
      000000E9H   SFRSYM    DATA     BYTE      SFRPRT12PS
      00000093H   SFRSYM    DATA     BYTE      DPX
      000000F9H   SFRSYM    DATA     BYTE      SFRPRT15PS
      000000D0H.5 SFRSYM    DATA     BIT       F0
      000000D0H.1 SFRSYM    DATA     BIT       F1
      0000008AH   SFRSYM    DATA     BYTE      SFRPRT0SEL
      000000D0H   SFRSYM    DATA     BYTE      PSW
      000000A2H   SFRSYM    DATA     BYTE      SFRPRT1SEL
      0000009AH   SFRSYM    DATA     BYTE      SFRPRT2SEL
      000000B2H   SFRSYM    DATA     BYTE      SFRPRT3SEL
      000000C2H   SFRSYM    DATA     BYTE      SFRPRT4SEL

      0100BF82H   BLOCK     CODE     ---       LVL=0
      0100BF82H   LINE      CODE     ---       #43
      0100BF82H   LINE      CODE     ---       #44
      0100BF82H   LINE      CODE     ---       #45
      0100BF88H   LINE      CODE     ---       #46
      0100BF88H   LINE      CODE     ---       #47
      0100BF8BH   LINE      CODE     ---       #48
      0100BF91H   LINE      CODE     ---       #49
LX51 LINKER/LOCATER V4.64.0.0                                                         06/11/2018  11:54:47  PAGE 92


      0100BF91H   LINE      CODE     ---       #51
      0100BF94H   LINE      CODE     ---       #52
      ---         BLOCKEND  ---      ---       LVL=0

      0100C13AH   BLOCK     CODE     ---       LVL=0
      0100C13AH   LINE      CODE     ---       #69
      0100C13AH   LINE      CODE     ---       #70
      0100C13AH   LINE      CODE     ---       #73
      0100C141H   LINE      CODE     ---       #75
      0100C144H   LINE      CODE     ---       #76
      ---         BLOCKEND  ---      ---       LVL=0

      0100C26FH   BLOCK     CODE     ---       LVL=0
      0100C26FH   LINE      CODE     ---       #93
      0100C26FH   LINE      CODE     ---       #94
      0100C26FH   LINE      CODE     ---       #95
      0100C274H   LINE      CODE     ---       #96
      ---         BLOCKEND  ---      ---       LVL=0

      0100C075H   BLOCK     CODE     ---       LVL=0
      0100C075H   BLOCK     CODE     NEAR LAB  LVL=1
      00000007H   SYMBOL    DATA     BYTE      interruptState
      ---         BLOCKEND  ---      ---       LVL=1
      0100C075H   LINE      CODE     ---       #135
      0100C075H   LINE      CODE     ---       #136
      0100C075H   LINE      CODE     ---       #139
      0100C078H   LINE      CODE     ---       #140
      0100C07FH   LINE      CODE     ---       #141
      0100C082H   LINE      CODE     ---       #142
      ---         BLOCKEND  ---      ---       LVL=0
      00000007H   SYMBOL    DATA     BYTE      interruptState
      00000007H   SYMBOL    DATA     BYTE      fifoId
      00000005H   SYMBOL    DATA     BYTE      result

      0100C018H   BLOCK     CODE     ---       LVL=0
      00000007H   SYMBOL    DATA     BYTE      interruptSource
      0100C018H   LINE      CODE     ---       #261
      0100C018H   LINE      CODE     ---       #262
      0100C018H   LINE      CODE     ---       #263
      0100C01FH   LINE      CODE     ---       #264
      0100C028H   LINE      CODE     ---       #265
      ---         BLOCKEND  ---      ---       LVL=0
      00000004H   SYMBOL    DATA     DWORD     shiftData

      0100C164H   BLOCK     CODE     ---       LVL=0
      0100C164H   LINE      CODE     ---       #366
      0100C164H   LINE      CODE     ---       #367
      0100C164H   LINE      CODE     ---       #368
      0100C16DH   LINE      CODE     ---       #369
      ---         BLOCKEND  ---      ---       LVL=0

      ---         MODULE    ---      ---       SHIFTREG_ENC_2
      02000E8BH   PUBLIC    XDATA    BYTE      SHIFTREG_ENC_2_initVar
      0100C16EH   PUBLIC    CODE     ---       SHIFTREG_ENC_2_ReadData
      0100C029H   PUBLIC    CODE     ---       _SHIFTREG_ENC_2_SetIntMode
      0100C083H   PUBLIC    CODE     ---       SHIFTREG_ENC_2_EnableInt
      0100C275H   PUBLIC    CODE     ---       SHIFTREG_ENC_2_Init
      0100C145H   PUBLIC    CODE     ---       SHIFTREG_ENC_2_Enable
      0100BF95H   PUBLIC    CODE     ---       SHIFTREG_ENC_2_Start
      000000CAH   SFRSYM    DATA     BYTE      SFRPRT5SEL
      000000DAH   SFRSYM    DATA     BYTE      SFRPRT6SEL
      000000D0H.6 SFRSYM    DATA     BIT       AC
      000000A8H.7 SFRSYM    DATA     BIT       EA
      000000A8H   SFRSYM    DATA     BYTE      IE
      00000085H   SFRSYM    DATA     BYTE      DPH1
LX51 LINKER/LOCATER V4.64.0.0                                                         06/11/2018  11:54:47  PAGE 93


      00000084H   SFRSYM    DATA     BYTE      DPL1
      000000D0H.7 SFRSYM    DATA     BIT       CY
      000000A0H   SFRSYM    DATA     BYTE      P2AX
      00000095H   SFRSYM    DATA     BYTE      DPX1
      00000081H   SFRSYM    DATA     BYTE      SP
      000000D0H.2 SFRSYM    DATA     BIT       OV
      00000080H   SFRSYM    DATA     BYTE      SFRPRT0DR
      00000090H   SFRSYM    DATA     BYTE      SFRPRT1DR
      000000F2H   SFRSYM    DATA     BYTE      SFRPRT12SEL
      00000098H   SFRSYM    DATA     BYTE      SFRPRT2DR
      000000B0H   SFRSYM    DATA     BYTE      SFRPRT3DR
      000000C0H   SFRSYM    DATA     BYTE      SFRPRT4DR
      000000FAH   SFRSYM    DATA     BYTE      SFRPRT15SEL
      000000C8H   SFRSYM    DATA     BYTE      SFRPRT5DR
      000000D8H   SFRSYM    DATA     BYTE      SFRPRT6DR
      00000089H   SFRSYM    DATA     BYTE      SFRPRT0PS
      00000091H   SFRSYM    DATA     BYTE      SFRPRT1PS
      00000099H   SFRSYM    DATA     BYTE      SFRPRT2PS
      000000B1H   SFRSYM    DATA     BYTE      SFRPRT3PS
      000000C1H   SFRSYM    DATA     BYTE      SFRPRT4PS
      000000C9H   SFRSYM    DATA     BYTE      SFRPRT5PS
      000000D9H   SFRSYM    DATA     BYTE      SFRPRT6PS
      000000EAH   SFRSYM    DATA     BYTE      MXAX
      000000F0H   SFRSYM    DATA     BYTE      B
      000000E0H   SFRSYM    DATA     BYTE      ACC
      000000D0H   SFRSYM    DATA     BIT       P
      000000D0H.3 SFRSYM    DATA     BIT       RS0
      000000D0H.4 SFRSYM    DATA     BIT       RS1
      00000083H   SFRSYM    DATA     BYTE      DPH
      000000E8H   SFRSYM    DATA     BYTE      SFRPRT12DR
      00000082H   SFRSYM    DATA     BYTE      DPL
      000000F8H   SFRSYM    DATA     BYTE      SFRPRT15DR
      00000086H   SFRSYM    DATA     BYTE      DPS
      000000E9H   SFRSYM    DATA     BYTE      SFRPRT12PS
      00000093H   SFRSYM    DATA     BYTE      DPX
      000000F9H   SFRSYM    DATA     BYTE      SFRPRT15PS
      000000D0H.5 SFRSYM    DATA     BIT       F0
      000000D0H.1 SFRSYM    DATA     BIT       F1
      0000008AH   SFRSYM    DATA     BYTE      SFRPRT0SEL
      000000D0H   SFRSYM    DATA     BYTE      PSW
      000000A2H   SFRSYM    DATA     BYTE      SFRPRT1SEL
      0000009AH   SFRSYM    DATA     BYTE      SFRPRT2SEL
      000000B2H   SFRSYM    DATA     BYTE      SFRPRT3SEL
      000000C2H   SFRSYM    DATA     BYTE      SFRPRT4SEL

      0100BF95H   BLOCK     CODE     ---       LVL=0
      0100BF95H   LINE      CODE     ---       #43
      0100BF95H   LINE      CODE     ---       #44
      0100BF95H   LINE      CODE     ---       #45
      0100BF9BH   LINE      CODE     ---       #46
      0100BF9BH   LINE      CODE     ---       #47
      0100BF9EH   LINE      CODE     ---       #48
      0100BFA4H   LINE      CODE     ---       #49
      0100BFA4H   LINE      CODE     ---       #51
      0100BFA7H   LINE      CODE     ---       #52
      ---         BLOCKEND  ---      ---       LVL=0

      0100C145H   BLOCK     CODE     ---       LVL=0
      0100C145H   LINE      CODE     ---       #69
      0100C145H   LINE      CODE     ---       #70
      0100C145H   LINE      CODE     ---       #73
      0100C14CH   LINE      CODE     ---       #75
      0100C14FH   LINE      CODE     ---       #76
      ---         BLOCKEND  ---      ---       LVL=0

LX51 LINKER/LOCATER V4.64.0.0                                                         06/11/2018  11:54:47  PAGE 94


      0100C275H   BLOCK     CODE     ---       LVL=0
      0100C275H   LINE      CODE     ---       #93
      0100C275H   LINE      CODE     ---       #94
      0100C275H   LINE      CODE     ---       #95
      0100C27AH   LINE      CODE     ---       #96
      ---         BLOCKEND  ---      ---       LVL=0

      0100C083H   BLOCK     CODE     ---       LVL=0
      0100C083H   BLOCK     CODE     NEAR LAB  LVL=1
      00000007H   SYMBOL    DATA     BYTE      interruptState
      ---         BLOCKEND  ---      ---       LVL=1
      0100C083H   LINE      CODE     ---       #135
      0100C083H   LINE      CODE     ---       #136
      0100C083H   LINE      CODE     ---       #139
      0100C086H   LINE      CODE     ---       #140
      0100C08DH   LINE      CODE     ---       #141
      0100C090H   LINE      CODE     ---       #142
      ---         BLOCKEND  ---      ---       LVL=0
      00000007H   SYMBOL    DATA     BYTE      interruptState
      00000007H   SYMBOL    DATA     BYTE      fifoId
      00000005H   SYMBOL    DATA     BYTE      result

      0100C029H   BLOCK     CODE     ---       LVL=0
      00000007H   SYMBOL    DATA     BYTE      interruptSource
      0100C029H   LINE      CODE     ---       #261
      0100C029H   LINE      CODE     ---       #262
      0100C029H   LINE      CODE     ---       #263
      0100C030H   LINE      CODE     ---       #264
      0100C039H   LINE      CODE     ---       #265
      ---         BLOCKEND  ---      ---       LVL=0
      00000004H   SYMBOL    DATA     DWORD     shiftData

      0100C16EH   BLOCK     CODE     ---       LVL=0
      0100C16EH   LINE      CODE     ---       #366
      0100C16EH   LINE      CODE     ---       #367
      0100C16EH   LINE      CODE     ---       #368
      0100C177H   LINE      CODE     ---       #369
      ---         BLOCKEND  ---      ---       LVL=0

      ---         MODULE    ---      ---       SHIFTREG_ENC_3
      02000E8CH   PUBLIC    XDATA    BYTE      SHIFTREG_ENC_3_initVar
      0100C178H   PUBLIC    CODE     ---       SHIFTREG_ENC_3_ReadData
      000000CAH   SFRSYM    DATA     BYTE      SFRPRT5SEL
      000000DAH   SFRSYM    DATA     BYTE      SFRPRT6SEL
      000000D0H.6 SFRSYM    DATA     BIT       AC
      000000A8H.7 SFRSYM    DATA     BIT       EA
      000000A8H   SFRSYM    DATA     BYTE      IE
      00000085H   SFRSYM    DATA     BYTE      DPH1
      00000084H   SFRSYM    DATA     BYTE      DPL1
      000000D0H.7 SFRSYM    DATA     BIT       CY
      000000A0H   SFRSYM    DATA     BYTE      P2AX
      00000095H   SFRSYM    DATA     BYTE      DPX1
      00000081H   SFRSYM    DATA     BYTE      SP
      000000D0H.2 SFRSYM    DATA     BIT       OV
      00000080H   SFRSYM    DATA     BYTE      SFRPRT0DR
      00000090H   SFRSYM    DATA     BYTE      SFRPRT1DR
      000000F2H   SFRSYM    DATA     BYTE      SFRPRT12SEL
      00000098H   SFRSYM    DATA     BYTE      SFRPRT2DR
      000000B0H   SFRSYM    DATA     BYTE      SFRPRT3DR
      000000C0H   SFRSYM    DATA     BYTE      SFRPRT4DR
      000000FAH   SFRSYM    DATA     BYTE      SFRPRT15SEL
      000000C8H   SFRSYM    DATA     BYTE      SFRPRT5DR
      000000D8H   SFRSYM    DATA     BYTE      SFRPRT6DR
      00000089H   SFRSYM    DATA     BYTE      SFRPRT0PS
      00000091H   SFRSYM    DATA     BYTE      SFRPRT1PS
LX51 LINKER/LOCATER V4.64.0.0                                                         06/11/2018  11:54:47  PAGE 95


      00000099H   SFRSYM    DATA     BYTE      SFRPRT2PS
      000000B1H   SFRSYM    DATA     BYTE      SFRPRT3PS
      000000C1H   SFRSYM    DATA     BYTE      SFRPRT4PS
      000000C9H   SFRSYM    DATA     BYTE      SFRPRT5PS
      000000D9H   SFRSYM    DATA     BYTE      SFRPRT6PS
      000000EAH   SFRSYM    DATA     BYTE      MXAX
      000000F0H   SFRSYM    DATA     BYTE      B
      000000E0H   SFRSYM    DATA     BYTE      ACC
      000000D0H   SFRSYM    DATA     BIT       P
      000000D0H.3 SFRSYM    DATA     BIT       RS0
      000000D0H.4 SFRSYM    DATA     BIT       RS1
      00000083H   SFRSYM    DATA     BYTE      DPH
      000000E8H   SFRSYM    DATA     BYTE      SFRPRT12DR
      00000082H   SFRSYM    DATA     BYTE      DPL
      000000F8H   SFRSYM    DATA     BYTE      SFRPRT15DR
      00000086H   SFRSYM    DATA     BYTE      DPS
      000000E9H   SFRSYM    DATA     BYTE      SFRPRT12PS
      00000093H   SFRSYM    DATA     BYTE      DPX
      000000F9H   SFRSYM    DATA     BYTE      SFRPRT15PS
      000000D0H.5 SFRSYM    DATA     BIT       F0
      000000D0H.1 SFRSYM    DATA     BIT       F1
      0000008AH   SFRSYM    DATA     BYTE      SFRPRT0SEL
      000000D0H   SFRSYM    DATA     BYTE      PSW
      000000A2H   SFRSYM    DATA     BYTE      SFRPRT1SEL
      0000009AH   SFRSYM    DATA     BYTE      SFRPRT2SEL
      000000B2H   SFRSYM    DATA     BYTE      SFRPRT3SEL
      000000C2H   SFRSYM    DATA     BYTE      SFRPRT4SEL
      00000007H   SYMBOL    DATA     BYTE      interruptState
      00000007H   SYMBOL    DATA     BYTE      interruptState
      00000007H   SYMBOL    DATA     BYTE      fifoId
      00000005H   SYMBOL    DATA     BYTE      result
      00000007H   SYMBOL    DATA     BYTE      interruptSource
      00000004H   SYMBOL    DATA     DWORD     shiftData

      0100C178H   BLOCK     CODE     ---       LVL=0
      0100C178H   LINE      CODE     ---       #366
      0100C178H   LINE      CODE     ---       #367
      0100C178H   LINE      CODE     ---       #368
      0100C181H   LINE      CODE     ---       #369
      ---         BLOCKEND  ---      ---       LVL=0

      ---         MODULE    ---      ---       EEPROM
      0100A69FH   PUBLIC    CODE     ---       _EEPROM_Write
      0100C2D3H   PUBLIC    CODE     ---       EEPROM_UpdateTemperature
      0100C2CFH   PUBLIC    CODE     ---       EEPROM_Start
      0100C218H   PUBLIC    CODE     ---       EEPROM_Enable
      000000CAH   SFRSYM    DATA     BYTE      SFRPRT5SEL
      000000DAH   SFRSYM    DATA     BYTE      SFRPRT6SEL
      000000D0H.6 SFRSYM    DATA     BIT       AC
      000000A8H.7 SFRSYM    DATA     BIT       EA
      000000A8H   SFRSYM    DATA     BYTE      IE
      00000085H   SFRSYM    DATA     BYTE      DPH1
      00000084H   SFRSYM    DATA     BYTE      DPL1
      000000D0H.7 SFRSYM    DATA     BIT       CY
      000000A0H   SFRSYM    DATA     BYTE      P2AX
      00000095H   SFRSYM    DATA     BYTE      DPX1
      00000081H   SFRSYM    DATA     BYTE      SP
      000000D0H.2 SFRSYM    DATA     BIT       OV
      00000080H   SFRSYM    DATA     BYTE      SFRPRT0DR
      00000090H   SFRSYM    DATA     BYTE      SFRPRT1DR
      000000F2H   SFRSYM    DATA     BYTE      SFRPRT12SEL
      00000098H   SFRSYM    DATA     BYTE      SFRPRT2DR
      000000B0H   SFRSYM    DATA     BYTE      SFRPRT3DR
      000000C0H   SFRSYM    DATA     BYTE      SFRPRT4DR
      000000FAH   SFRSYM    DATA     BYTE      SFRPRT15SEL
LX51 LINKER/LOCATER V4.64.0.0                                                         06/11/2018  11:54:47  PAGE 96


      000000C8H   SFRSYM    DATA     BYTE      SFRPRT5DR
      000000D8H   SFRSYM    DATA     BYTE      SFRPRT6DR
      00000089H   SFRSYM    DATA     BYTE      SFRPRT0PS
      00000091H   SFRSYM    DATA     BYTE      SFRPRT1PS
      00000099H   SFRSYM    DATA     BYTE      SFRPRT2PS
      000000B1H   SFRSYM    DATA     BYTE      SFRPRT3PS
      000000C1H   SFRSYM    DATA     BYTE      SFRPRT4PS
      000000C9H   SFRSYM    DATA     BYTE      SFRPRT5PS
      000000D9H   SFRSYM    DATA     BYTE      SFRPRT6PS
      000000EAH   SFRSYM    DATA     BYTE      MXAX
      000000F0H   SFRSYM    DATA     BYTE      B
      000000E0H   SFRSYM    DATA     BYTE      ACC
      000000D0H   SFRSYM    DATA     BIT       P
      000000D0H.3 SFRSYM    DATA     BIT       RS0
      000000D0H.4 SFRSYM    DATA     BIT       RS1
      00000083H   SFRSYM    DATA     BYTE      DPH
      000000E8H   SFRSYM    DATA     BYTE      SFRPRT12DR
      00000082H   SFRSYM    DATA     BYTE      DPL
      000000F8H   SFRSYM    DATA     BYTE      SFRPRT15DR
      00000086H   SFRSYM    DATA     BYTE      DPS
      000000E9H   SFRSYM    DATA     BYTE      SFRPRT12PS
      00000093H   SFRSYM    DATA     BYTE      DPX
      000000F9H   SFRSYM    DATA     BYTE      SFRPRT15PS
      000000D0H.5 SFRSYM    DATA     BIT       F0
      000000D0H.1 SFRSYM    DATA     BIT       F1
      0000008AH   SFRSYM    DATA     BYTE      SFRPRT0SEL
      000000D0H   SFRSYM    DATA     BYTE      PSW
      000000A2H   SFRSYM    DATA     BYTE      SFRPRT1SEL
      0000009AH   SFRSYM    DATA     BYTE      SFRPRT2SEL
      000000B2H   SFRSYM    DATA     BYTE      SFRPRT3SEL
      000000C2H   SFRSYM    DATA     BYTE      SFRPRT4SEL

      0100C218H   BLOCK     CODE     ---       LVL=0
      0100C218H   LINE      CODE     ---       #33
      0100C218H   LINE      CODE     ---       #34
      0100C218H   LINE      CODE     ---       #36
      0100C21BH   LINE      CODE     ---       #39
      0100C21EH   LINE      CODE     ---       #40
      ---         BLOCKEND  ---      ---       LVL=0

      0100C2CFH   BLOCK     CODE     ---       LVL=0
      0100C2CFH   LINE      CODE     ---       #57
      0100C2CFH   LINE      CODE     ---       #58
      0100C2CFH   LINE      CODE     ---       #59
      0100C2D2H   LINE      CODE     ---       #60
      ---         BLOCKEND  ---      ---       LVL=0

      0100C2D3H   BLOCK     CODE     ---       LVL=0
      0100C2D3H   LINE      CODE     ---       #247
      0100C2D3H   LINE      CODE     ---       #248
      0100C2D3H   LINE      CODE     ---       #249
      0100C2D6H   LINE      CODE     ---       #250
      ---         BLOCKEND  ---      ---       LVL=0

      0100A69FH   BLOCK     CODE     ---       LVL=0
      02000030H   SYMBOL    XDATA    ---       rowData
      02000033H   SYMBOL    XDATA    BYTE      rowNumber
      0100A6ADH   BLOCK     CODE     NEAR LAB  LVL=1
      02000034H   SYMBOL    XDATA    BYTE      status
      ---         BLOCKEND  ---      ---       LVL=1
      0100A69FH   LINE      CODE     ---       #345
      0100A6ADH   LINE      CODE     ---       #346
      0100A6ADH   LINE      CODE     ---       #349
      0100A6B0H   LINE      CODE     ---       #351
      0100A6BCH   LINE      CODE     ---       #352
LX51 LINKER/LOCATER V4.64.0.0                                                         06/11/2018  11:54:47  PAGE 97


      0100A6BCH   LINE      CODE     ---       #354
      0100A6C5H   LINE      CODE     ---       #355
      0100A6C5H   LINE      CODE     ---       #357
      0100A6CBH   LINE      CODE     ---       #360
      0100A6E9H   LINE      CODE     ---       #361
      0100A6E9H   LINE      CODE     ---       #362
      0100A6F1H   LINE      CODE     ---       #363
      0100A6F1H   LINE      CODE     ---       #365
      0100A6F1H   LINE      CODE     ---       #368
      0100A707H   LINE      CODE     ---       #369
      0100A707H   LINE      CODE     ---       #370
      0100A70BH   LINE      CODE     ---       #371
      0100A70BH   LINE      CODE     ---       #374
      0100A711H   LINE      CODE     ---       #375
      0100A711H   LINE      CODE     ---       #376
      0100A72DH   LINE      CODE     ---       #378
      0100A72DH   LINE      CODE     ---       #380
      0100A733H   LINE      CODE     ---       #382
      0100A73BH   LINE      CODE     ---       #383
      0100A73BH   LINE      CODE     ---       #385
      0100A73BH   LINE      CODE     ---       #388
      0100A751H   LINE      CODE     ---       #389
      0100A751H   LINE      CODE     ---       #390
      0100A755H   LINE      CODE     ---       #391
      0100A755H   LINE      CODE     ---       #392
      0100A757H   LINE      CODE     ---       #394
      0100A757H   LINE      CODE     ---       #395
      0100A75DH   LINE      CODE     ---       #396
      0100A75DH   LINE      CODE     ---       #397
      0100A75FH   LINE      CODE     ---       #399
      0100A75FH   LINE      CODE     ---       #400
      0100A765H   LINE      CODE     ---       #401
      0100A765H   LINE      CODE     ---       #402
      0100A765H   LINE      CODE     ---       #405
      0100A768H   LINE      CODE     ---       #406
      0100A76AH   LINE      CODE     ---       #408
      0100A76AH   LINE      CODE     ---       #409
      0100A770H   LINE      CODE     ---       #410
      0100A770H   LINE      CODE     ---       #411
      0100A772H   LINE      CODE     ---       #413
      0100A772H   LINE      CODE     ---       #414
      0100A778H   LINE      CODE     ---       #415
      0100A778H   LINE      CODE     ---       #417
      0100A77DH   LINE      CODE     ---       #418
      ---         BLOCKEND  ---      ---       LVL=0

      ---         MODULE    ---      ---       SHIFTREG_ENC_4
      02000E8DH   PUBLIC    XDATA    BYTE      SHIFTREG_ENC_4_initVar
      0100C182H   PUBLIC    CODE     ---       SHIFTREG_ENC_4_ReadData
      000000CAH   SFRSYM    DATA     BYTE      SFRPRT5SEL
      000000DAH   SFRSYM    DATA     BYTE      SFRPRT6SEL
      000000D0H.6 SFRSYM    DATA     BIT       AC
      000000A8H.7 SFRSYM    DATA     BIT       EA
      000000A8H   SFRSYM    DATA     BYTE      IE
      00000085H   SFRSYM    DATA     BYTE      DPH1
      00000084H   SFRSYM    DATA     BYTE      DPL1
      000000D0H.7 SFRSYM    DATA     BIT       CY
      000000A0H   SFRSYM    DATA     BYTE      P2AX
      00000095H   SFRSYM    DATA     BYTE      DPX1
      00000081H   SFRSYM    DATA     BYTE      SP
      000000D0H.2 SFRSYM    DATA     BIT       OV
      00000080H   SFRSYM    DATA     BYTE      SFRPRT0DR
      00000090H   SFRSYM    DATA     BYTE      SFRPRT1DR
      000000F2H   SFRSYM    DATA     BYTE      SFRPRT12SEL
      00000098H   SFRSYM    DATA     BYTE      SFRPRT2DR
LX51 LINKER/LOCATER V4.64.0.0                                                         06/11/2018  11:54:47  PAGE 98


      000000B0H   SFRSYM    DATA     BYTE      SFRPRT3DR
      000000C0H   SFRSYM    DATA     BYTE      SFRPRT4DR
      000000FAH   SFRSYM    DATA     BYTE      SFRPRT15SEL
      000000C8H   SFRSYM    DATA     BYTE      SFRPRT5DR
      000000D8H   SFRSYM    DATA     BYTE      SFRPRT6DR
      00000089H   SFRSYM    DATA     BYTE      SFRPRT0PS
      00000091H   SFRSYM    DATA     BYTE      SFRPRT1PS
      00000099H   SFRSYM    DATA     BYTE      SFRPRT2PS
      000000B1H   SFRSYM    DATA     BYTE      SFRPRT3PS
      000000C1H   SFRSYM    DATA     BYTE      SFRPRT4PS
      000000C9H   SFRSYM    DATA     BYTE      SFRPRT5PS
      000000D9H   SFRSYM    DATA     BYTE      SFRPRT6PS
      000000EAH   SFRSYM    DATA     BYTE      MXAX
      000000F0H   SFRSYM    DATA     BYTE      B
      000000E0H   SFRSYM    DATA     BYTE      ACC
      000000D0H   SFRSYM    DATA     BIT       P
      000000D0H.3 SFRSYM    DATA     BIT       RS0
      000000D0H.4 SFRSYM    DATA     BIT       RS1
      00000083H   SFRSYM    DATA     BYTE      DPH
      000000E8H   SFRSYM    DATA     BYTE      SFRPRT12DR
      00000082H   SFRSYM    DATA     BYTE      DPL
      000000F8H   SFRSYM    DATA     BYTE      SFRPRT15DR
      00000086H   SFRSYM    DATA     BYTE      DPS
      000000E9H   SFRSYM    DATA     BYTE      SFRPRT12PS
      00000093H   SFRSYM    DATA     BYTE      DPX
      000000F9H   SFRSYM    DATA     BYTE      SFRPRT15PS
      000000D0H.5 SFRSYM    DATA     BIT       F0
      000000D0H.1 SFRSYM    DATA     BIT       F1
      0000008AH   SFRSYM    DATA     BYTE      SFRPRT0SEL
      000000D0H   SFRSYM    DATA     BYTE      PSW
      000000A2H   SFRSYM    DATA     BYTE      SFRPRT1SEL
      0000009AH   SFRSYM    DATA     BYTE      SFRPRT2SEL
      000000B2H   SFRSYM    DATA     BYTE      SFRPRT3SEL
      000000C2H   SFRSYM    DATA     BYTE      SFRPRT4SEL
      00000007H   SYMBOL    DATA     BYTE      interruptState
      00000007H   SYMBOL    DATA     BYTE      interruptState
      00000007H   SYMBOL    DATA     BYTE      fifoId
      00000005H   SYMBOL    DATA     BYTE      result
      00000007H   SYMBOL    DATA     BYTE      interruptSource
      00000004H   SYMBOL    DATA     DWORD     shiftData

      0100C182H   BLOCK     CODE     ---       LVL=0
      0100C182H   LINE      CODE     ---       #366
      0100C182H   LINE      CODE     ---       #367
      0100C182H   LINE      CODE     ---       #368
      0100C18BH   LINE      CODE     ---       #369
      ---         BLOCKEND  ---      ---       LVL=0

      ---         MODULE    ---      ---       RS485_CTS
      0100C27BH   PUBLIC    CODE     ---       _RS485_CTS_Write

      0100C27BH   BLOCK     CODE     ---       LVL=0
      00000007H   SYMBOL    DATA     BYTE      control
      0100C27BH   LINE      CODE     ---       #37
      0100C27BH   LINE      CODE     ---       #38
      0100C27BH   LINE      CODE     ---       #39
      0100C280H   LINE      CODE     ---       #40
      ---         BLOCKEND  ---      ---       LVL=0

      ---         MODULE    ---      ---       MOTOR_ON_OFF
      0100C281H   PUBLIC    CODE     ---       _MOTOR_ON_OFF_Write

      0100C281H   BLOCK     CODE     ---       LVL=0
      00000007H   SYMBOL    DATA     BYTE      control
      0100C281H   LINE      CODE     ---       #37
LX51 LINKER/LOCATER V4.64.0.0                                                         06/11/2018  11:54:47  PAGE 99


      0100C281H   LINE      CODE     ---       #38
      0100C281H   LINE      CODE     ---       #39
      0100C286H   LINE      CODE     ---       #40
      ---         BLOCKEND  ---      ---       LVL=0

      ---         MODULE    ---      ---       BOOTLOADABLE
      0100C18CH   PUBLIC    CODE     ---       Bootloadable_Load
      000000CAH   SFRSYM    DATA     BYTE      SFRPRT5SEL
      000000DAH   SFRSYM    DATA     BYTE      SFRPRT6SEL
      000000D0H.6 SFRSYM    DATA     BIT       AC
      000000A8H.7 SFRSYM    DATA     BIT       EA
      000000A8H   SFRSYM    DATA     BYTE      IE
      00000085H   SFRSYM    DATA     BYTE      DPH1
      00000084H   SFRSYM    DATA     BYTE      DPL1
      000000D0H.7 SFRSYM    DATA     BIT       CY
      000000A0H   SFRSYM    DATA     BYTE      P2AX
      00000095H   SFRSYM    DATA     BYTE      DPX1
      00000081H   SFRSYM    DATA     BYTE      SP
      000000D0H.2 SFRSYM    DATA     BIT       OV
      00000080H   SFRSYM    DATA     BYTE      SFRPRT0DR
      00000090H   SFRSYM    DATA     BYTE      SFRPRT1DR
      000000F2H   SFRSYM    DATA     BYTE      SFRPRT12SEL
      00000098H   SFRSYM    DATA     BYTE      SFRPRT2DR
      000000B0H   SFRSYM    DATA     BYTE      SFRPRT3DR
      000000C0H   SFRSYM    DATA     BYTE      SFRPRT4DR
      000000FAH   SFRSYM    DATA     BYTE      SFRPRT15SEL
      000000C8H   SFRSYM    DATA     BYTE      SFRPRT5DR
      000000D8H   SFRSYM    DATA     BYTE      SFRPRT6DR
      00000089H   SFRSYM    DATA     BYTE      SFRPRT0PS
      00000091H   SFRSYM    DATA     BYTE      SFRPRT1PS
      00000099H   SFRSYM    DATA     BYTE      SFRPRT2PS
      000000B1H   SFRSYM    DATA     BYTE      SFRPRT3PS
      000000C1H   SFRSYM    DATA     BYTE      SFRPRT4PS
      000000C9H   SFRSYM    DATA     BYTE      SFRPRT5PS
      000000D9H   SFRSYM    DATA     BYTE      SFRPRT6PS
      000000EAH   SFRSYM    DATA     BYTE      MXAX
      000000F0H   SFRSYM    DATA     BYTE      B
      000000E0H   SFRSYM    DATA     BYTE      ACC
      000000D0H   SFRSYM    DATA     BIT       P
      000000D0H.3 SFRSYM    DATA     BIT       RS0
      000000D0H.4 SFRSYM    DATA     BIT       RS1
      00000083H   SFRSYM    DATA     BYTE      DPH
      000000E8H   SFRSYM    DATA     BYTE      SFRPRT12DR
      00000082H   SFRSYM    DATA     BYTE      DPL
      000000F8H   SFRSYM    DATA     BYTE      SFRPRT15DR
      00000086H   SFRSYM    DATA     BYTE      DPS
      000000E9H   SFRSYM    DATA     BYTE      SFRPRT12PS
      00000093H   SFRSYM    DATA     BYTE      DPX
      000000F9H   SFRSYM    DATA     BYTE      SFRPRT15PS
      000000D0H.5 SFRSYM    DATA     BIT       F0
      000000D0H.1 SFRSYM    DATA     BIT       F1
      0000008AH   SFRSYM    DATA     BYTE      SFRPRT0SEL
      000000D0H   SFRSYM    DATA     BYTE      PSW
      000000A2H   SFRSYM    DATA     BYTE      SFRPRT1SEL
      0000009AH   SFRSYM    DATA     BYTE      SFRPRT2SEL
      000000B2H   SFRSYM    DATA     BYTE      SFRPRT3SEL
      000000C2H   SFRSYM    DATA     BYTE      SFRPRT4SEL

      0100C18CH   BLOCK     CODE     ---       LVL=0
      0100C18CH   LINE      CODE     ---       #41
      0100C18CH   LINE      CODE     ---       #42
      0100C18CH   LINE      CODE     ---       #44
      0100C192H   LINE      CODE     ---       #46
      0100C195H   LINE      CODE     ---       #47
      ---         BLOCKEND  ---      ---       LVL=0
LX51 LINKER/LOCATER V4.64.0.0                                                         06/11/2018  11:54:47  PAGE 100


      00000002H   SYMBOL    DATA     WORD      idx

      ---         MODULE    ---      ---       MY_TIMER
      02000E8EH   PUBLIC    XDATA    BYTE      MY_TIMER_initVar
      0100C0E3H   PUBLIC    CODE     ---       MY_TIMER_ClearFIFO
      0100C03AH   PUBLIC    CODE     ---       MY_TIMER_ReadCounter
      0100C1AAH   PUBLIC    CODE     ---       _MY_TIMER_WriteCounter
      0100C1A0H   PUBLIC    CODE     ---       MY_TIMER_ReadCapture
      0100C196H   PUBLIC    CODE     ---       _MY_TIMER_WritePeriod
      0100C28DH   PUBLIC    CODE     ---       MY_TIMER_ReadStatusRegister
      0100C287H   PUBLIC    CODE     ---       _MY_TIMER_SetInterruptMode
      0100BFA8H   PUBLIC    CODE     ---       MY_TIMER_Start
      0100C1EAH   PUBLIC    CODE     ---       MY_TIMER_Enable
      0100BC21H   PUBLIC    CODE     ---       MY_TIMER_Init
      000000CAH   SFRSYM    DATA     BYTE      SFRPRT5SEL
      000000DAH   SFRSYM    DATA     BYTE      SFRPRT6SEL
      000000D0H.6 SFRSYM    DATA     BIT       AC
      000000A8H.7 SFRSYM    DATA     BIT       EA
      000000A8H   SFRSYM    DATA     BYTE      IE
      00000085H   SFRSYM    DATA     BYTE      DPH1
      00000084H   SFRSYM    DATA     BYTE      DPL1
      000000D0H.7 SFRSYM    DATA     BIT       CY
      000000A0H   SFRSYM    DATA     BYTE      P2AX
      00000095H   SFRSYM    DATA     BYTE      DPX1
      00000081H   SFRSYM    DATA     BYTE      SP
      000000D0H.2 SFRSYM    DATA     BIT       OV
      00000080H   SFRSYM    DATA     BYTE      SFRPRT0DR
      00000090H   SFRSYM    DATA     BYTE      SFRPRT1DR
      000000F2H   SFRSYM    DATA     BYTE      SFRPRT12SEL
      00000098H   SFRSYM    DATA     BYTE      SFRPRT2DR
      000000B0H   SFRSYM    DATA     BYTE      SFRPRT3DR
      000000C0H   SFRSYM    DATA     BYTE      SFRPRT4DR
      000000FAH   SFRSYM    DATA     BYTE      SFRPRT15SEL
      000000C8H   SFRSYM    DATA     BYTE      SFRPRT5DR
      000000D8H   SFRSYM    DATA     BYTE      SFRPRT6DR
      00000089H   SFRSYM    DATA     BYTE      SFRPRT0PS
      00000091H   SFRSYM    DATA     BYTE      SFRPRT1PS
      00000099H   SFRSYM    DATA     BYTE      SFRPRT2PS
      000000B1H   SFRSYM    DATA     BYTE      SFRPRT3PS
      000000C1H   SFRSYM    DATA     BYTE      SFRPRT4PS
      000000C9H   SFRSYM    DATA     BYTE      SFRPRT5PS
      000000D9H   SFRSYM    DATA     BYTE      SFRPRT6PS
      000000EAH   SFRSYM    DATA     BYTE      MXAX
      000000F0H   SFRSYM    DATA     BYTE      B
      000000E0H   SFRSYM    DATA     BYTE      ACC
      000000D0H   SFRSYM    DATA     BIT       P
      000000D0H.3 SFRSYM    DATA     BIT       RS0
      000000D0H.4 SFRSYM    DATA     BIT       RS1
      00000083H   SFRSYM    DATA     BYTE      DPH
      000000E8H   SFRSYM    DATA     BYTE      SFRPRT12DR
      00000082H   SFRSYM    DATA     BYTE      DPL
      000000F8H   SFRSYM    DATA     BYTE      SFRPRT15DR
      00000086H   SFRSYM    DATA     BYTE      DPS
      000000E9H   SFRSYM    DATA     BYTE      SFRPRT12PS
      00000093H   SFRSYM    DATA     BYTE      DPX
      000000F9H   SFRSYM    DATA     BYTE      SFRPRT15PS
      000000D0H.5 SFRSYM    DATA     BIT       F0
      000000D0H.1 SFRSYM    DATA     BIT       F1
      0000008AH   SFRSYM    DATA     BYTE      SFRPRT0SEL
      000000D0H   SFRSYM    DATA     BYTE      PSW
      000000A2H   SFRSYM    DATA     BYTE      SFRPRT1SEL
      0000009AH   SFRSYM    DATA     BYTE      SFRPRT2SEL
      000000B2H   SFRSYM    DATA     BYTE      SFRPRT3SEL
      000000C2H   SFRSYM    DATA     BYTE      SFRPRT4SEL

LX51 LINKER/LOCATER V4.64.0.0                                                         06/11/2018  11:54:47  PAGE 101


      0100BC21H   BLOCK     CODE     ---       LVL=0
      0100BC21H   BLOCK     CODE     NEAR LAB  LVL=1
      00000007H   SYMBOL    DATA     BYTE      MY_TIMER_interruptState
      ---         BLOCKEND  ---      ---       LVL=1
      0100BC21H   LINE      CODE     ---       #43
      0100BC21H   LINE      CODE     ---       #44
      0100BC21H   LINE      CODE     ---       #118
      0100BC2CH   LINE      CODE     ---       #119
      0100BC37H   LINE      CODE     ---       #142
      0100BC3AH   LINE      CODE     ---       #145
      0100BC41H   LINE      CODE     ---       #148
      0100BC44H   LINE      CODE     ---       #159
      0100BC47H   LINE      CODE     ---       #162
      0100BC4CH   LINE      CODE     ---       #163
      ---         BLOCKEND  ---      ---       LVL=0

      0100C1EAH   BLOCK     CODE     ---       LVL=0
      0100C1EAH   LINE      CODE     ---       #180
      0100C1EAH   LINE      CODE     ---       #181
      0100C1EAH   LINE      CODE     ---       #190
      0100C1F1H   LINE      CODE     ---       #192
      ---         BLOCKEND  ---      ---       LVL=0

      0100BFA8H   BLOCK     CODE     ---       LVL=0
      0100BFA8H   LINE      CODE     ---       #215
      0100BFA8H   LINE      CODE     ---       #216
      0100BFA8H   LINE      CODE     ---       #217
      0100BFAEH   LINE      CODE     ---       #218
      0100BFAEH   LINE      CODE     ---       #219
      0100BFB1H   LINE      CODE     ---       #221
      0100BFB7H   LINE      CODE     ---       #222
      0100BFB7H   LINE      CODE     ---       #225
      0100BFBAH   LINE      CODE     ---       #226
      ---         BLOCKEND  ---      ---       LVL=0

      0100C287H   BLOCK     CODE     ---       LVL=0
      00000007H   SYMBOL    DATA     BYTE      interruptMode
      0100C287H   LINE      CODE     ---       #279
      0100C287H   LINE      CODE     ---       #280
      0100C287H   LINE      CODE     ---       #281
      0100C28CH   LINE      CODE     ---       #282
      ---         BLOCKEND  ---      ---       LVL=0

      0100C28DH   BLOCK     CODE     ---       LVL=0
      0100C28DH   LINE      CODE     ---       #333
      0100C28DH   LINE      CODE     ---       #334
      0100C28DH   LINE      CODE     ---       #335
      0100C292H   LINE      CODE     ---       #336
      ---         BLOCKEND  ---      ---       LVL=0
      00000007H   SYMBOL    DATA     BYTE      control

      0100C196H   BLOCK     CODE     ---       LVL=0
      00000004H   SYMBOL    DATA     DWORD     period
      0100C196H   LINE      CODE     ---       #431
      0100C196H   LINE      CODE     ---       #432
      0100C196H   LINE      CODE     ---       #437
      0100C19FH   LINE      CODE     ---       #439
      ---         BLOCKEND  ---      ---       LVL=0

      0100C1A0H   BLOCK     CODE     ---       LVL=0
      0100C1A0H   LINE      CODE     ---       #456
      0100C1A0H   LINE      CODE     ---       #457
      0100C1A0H   LINE      CODE     ---       #461
      0100C1A9H   LINE      CODE     ---       #463
      ---         BLOCKEND  ---      ---       LVL=0
LX51 LINKER/LOCATER V4.64.0.0                                                         06/11/2018  11:54:47  PAGE 102



      0100C1AAH   BLOCK     CODE     ---       LVL=0
      00000004H   SYMBOL    DATA     DWORD     counter
      0100C1AAH   LINE      CODE     ---       #480
      0100C1AAH   LINE      CODE     ---       #481
      0100C1AAH   LINE      CODE     ---       #489
      0100C1B3H   LINE      CODE     ---       #491
      ---         BLOCKEND  ---      ---       LVL=0

      0100C03AH   BLOCK     CODE     ---       LVL=0
      0100C03AH   LINE      CODE     ---       #508
      0100C03AH   LINE      CODE     ---       #509
      0100C03AH   LINE      CODE     ---       #516
      0100C03FH   LINE      CODE     ---       #523
      0100C048H   LINE      CODE     ---       #525
      ---         BLOCKEND  ---      ---       LVL=0

      0100C0E3H   BLOCK     CODE     ---       LVL=0
      0100C0E3H   LINE      CODE     ---       #763
      0100C0E3H   LINE      CODE     ---       #764
      0100C0E3H   LINE      CODE     ---       #765
      0100C0EAH   LINE      CODE     ---       #766
      0100C0EAH   LINE      CODE     ---       #767
      0100C0EDH   LINE      CODE     ---       #768
      0100C0EFH   LINE      CODE     ---       #769
      ---         BLOCKEND  ---      ---       LVL=0

      ---         MODULE    ---      ---       FTDI_ENABLE_REG
      0100C293H   PUBLIC    CODE     ---       _FTDI_ENABLE_REG_Write

      0100C293H   BLOCK     CODE     ---       LVL=0
      00000007H   SYMBOL    DATA     BYTE      control
      0100C293H   LINE      CODE     ---       #37
      0100C293H   LINE      CODE     ---       #38
      0100C293H   LINE      CODE     ---       #39
      0100C298H   LINE      CODE     ---       #40
      ---         BLOCKEND  ---      ---       LVL=0

      ---         MODULE    ---      ---       PACER_TIMER
      02000E8FH   PUBLIC    XDATA    BYTE      PACER_TIMER_initVar
      0100C09FH   PUBLIC    CODE     ---       _PACER_TIMER_WriteCounter
      0100C091H   PUBLIC    CODE     ---       _PACER_TIMER_WritePeriod
      0100C299H   PUBLIC    CODE     ---       _PACER_TIMER_SetInterruptMode
      0100BFBBH   PUBLIC    CODE     ---       PACER_TIMER_Start
      0100BECAH   PUBLIC    CODE     ---       PACER_TIMER_Enable
      0100B8D7H   PUBLIC    CODE     ---       PACER_TIMER_Init
      000000CAH   SFRSYM    DATA     BYTE      SFRPRT5SEL
      000000DAH   SFRSYM    DATA     BYTE      SFRPRT6SEL
      000000D0H.6 SFRSYM    DATA     BIT       AC
      000000A8H.7 SFRSYM    DATA     BIT       EA
      000000A8H   SFRSYM    DATA     BYTE      IE
      00000085H   SFRSYM    DATA     BYTE      DPH1
      00000084H   SFRSYM    DATA     BYTE      DPL1
      000000D0H.7 SFRSYM    DATA     BIT       CY
      000000A0H   SFRSYM    DATA     BYTE      P2AX
      00000095H   SFRSYM    DATA     BYTE      DPX1
      00000081H   SFRSYM    DATA     BYTE      SP
      000000D0H.2 SFRSYM    DATA     BIT       OV
      00000080H   SFRSYM    DATA     BYTE      SFRPRT0DR
      00000090H   SFRSYM    DATA     BYTE      SFRPRT1DR
      000000F2H   SFRSYM    DATA     BYTE      SFRPRT12SEL
      00000098H   SFRSYM    DATA     BYTE      SFRPRT2DR
      000000B0H   SFRSYM    DATA     BYTE      SFRPRT3DR
      000000C0H   SFRSYM    DATA     BYTE      SFRPRT4DR
      000000FAH   SFRSYM    DATA     BYTE      SFRPRT15SEL
LX51 LINKER/LOCATER V4.64.0.0                                                         06/11/2018  11:54:47  PAGE 103


      000000C8H   SFRSYM    DATA     BYTE      SFRPRT5DR
      000000D8H   SFRSYM    DATA     BYTE      SFRPRT6DR
      00000089H   SFRSYM    DATA     BYTE      SFRPRT0PS
      00000091H   SFRSYM    DATA     BYTE      SFRPRT1PS
      00000099H   SFRSYM    DATA     BYTE      SFRPRT2PS
      000000B1H   SFRSYM    DATA     BYTE      SFRPRT3PS
      000000C1H   SFRSYM    DATA     BYTE      SFRPRT4PS
      000000C9H   SFRSYM    DATA     BYTE      SFRPRT5PS
      000000D9H   SFRSYM    DATA     BYTE      SFRPRT6PS
      000000EAH   SFRSYM    DATA     BYTE      MXAX
      000000F0H   SFRSYM    DATA     BYTE      B
      000000E0H   SFRSYM    DATA     BYTE      ACC
      000000D0H   SFRSYM    DATA     BIT       P
      000000D0H.3 SFRSYM    DATA     BIT       RS0
      000000D0H.4 SFRSYM    DATA     BIT       RS1
      00000083H   SFRSYM    DATA     BYTE      DPH
      000000E8H   SFRSYM    DATA     BYTE      SFRPRT12DR
      00000082H   SFRSYM    DATA     BYTE      DPL
      000000F8H   SFRSYM    DATA     BYTE      SFRPRT15DR
      00000086H   SFRSYM    DATA     BYTE      DPS
      000000E9H   SFRSYM    DATA     BYTE      SFRPRT12PS
      00000093H   SFRSYM    DATA     BYTE      DPX
      000000F9H   SFRSYM    DATA     BYTE      SFRPRT15PS
      000000D0H.5 SFRSYM    DATA     BIT       F0
      000000D0H.1 SFRSYM    DATA     BIT       F1
      0000008AH   SFRSYM    DATA     BYTE      SFRPRT0SEL
      000000D0H   SFRSYM    DATA     BYTE      PSW
      000000A2H   SFRSYM    DATA     BYTE      SFRPRT1SEL
      0000009AH   SFRSYM    DATA     BYTE      SFRPRT2SEL
      000000B2H   SFRSYM    DATA     BYTE      SFRPRT3SEL
      000000C2H   SFRSYM    DATA     BYTE      SFRPRT4SEL

      0100B8D7H   BLOCK     CODE     ---       LVL=0
      0100B8D7H   LINE      CODE     ---       #43
      0100B8D7H   LINE      CODE     ---       #44
      0100B8D7H   LINE      CODE     ---       #52
      0100B8DEH   LINE      CODE     ---       #60
      0100B8E5H   LINE      CODE     ---       #106
      0100B8ECH   LINE      CODE     ---       #107
      0100B8F0H   LINE      CODE     ---       #110
      0100B8F4H   LINE      CODE     ---       #111
      0100B8F8H   LINE      CODE     ---       #114
      0100B8FFH   LINE      CODE     ---       #118
      0100B906H   LINE      CODE     ---       #119
      0100B90DH   LINE      CODE     ---       #162
      0100B912H   LINE      CODE     ---       #163
      ---         BLOCKEND  ---      ---       LVL=0

      0100BECAH   BLOCK     CODE     ---       LVL=0
      0100BECAH   LINE      CODE     ---       #180
      0100BECAH   LINE      CODE     ---       #181
      0100BECAH   LINE      CODE     ---       #184
      0100BED1H   LINE      CODE     ---       #185
      0100BED8H   LINE      CODE     ---       #190
      0100BEDFH   LINE      CODE     ---       #192
      ---         BLOCKEND  ---      ---       LVL=0

      0100BFBBH   BLOCK     CODE     ---       LVL=0
      0100BFBBH   LINE      CODE     ---       #215
      0100BFBBH   LINE      CODE     ---       #216
      0100BFBBH   LINE      CODE     ---       #217
      0100BFC1H   LINE      CODE     ---       #218
      0100BFC1H   LINE      CODE     ---       #219
      0100BFC4H   LINE      CODE     ---       #221
      0100BFCAH   LINE      CODE     ---       #222
LX51 LINKER/LOCATER V4.64.0.0                                                         06/11/2018  11:54:47  PAGE 104


      0100BFCAH   LINE      CODE     ---       #225
      0100BFCDH   LINE      CODE     ---       #226
      ---         BLOCKEND  ---      ---       LVL=0

      0100C299H   BLOCK     CODE     ---       LVL=0
      00000007H   SYMBOL    DATA     BYTE      interruptMode
      0100C299H   LINE      CODE     ---       #279
      0100C299H   LINE      CODE     ---       #280
      0100C299H   LINE      CODE     ---       #281
      0100C29EH   LINE      CODE     ---       #282
      ---         BLOCKEND  ---      ---       LVL=0
      00000007H   SYMBOL    DATA     BYTE      control

      0100C091H   BLOCK     CODE     ---       LVL=0
      00000006H   SYMBOL    DATA     WORD      period
      0100C091H   BLOCK     CODE     NEAR LAB  LVL=1
      00000006H   SYMBOL    DATA     WORD      period_temp
      ---         BLOCKEND  ---      ---       LVL=1
      0100C091H   LINE      CODE     ---       #431
      0100C091H   LINE      CODE     ---       #432
      0100C091H   LINE      CODE     ---       #434
      0100C091H   LINE      CODE     ---       #435
      0100C09EH   LINE      CODE     ---       #439
      ---         BLOCKEND  ---      ---       LVL=0

      0100C09FH   BLOCK     CODE     ---       LVL=0
      00000006H   SYMBOL    DATA     WORD      counter
      0100C09FH   LINE      CODE     ---       #480
      0100C09FH   LINE      CODE     ---       #481
      0100C09FH   LINE      CODE     ---       #486
      0100C0ACH   LINE      CODE     ---       #491
      ---         BLOCKEND  ---      ---       LVL=0

      ---         MODULE    ---      ---       FF_STATUS
      0100C29FH   PUBLIC    CODE     ---       FF_STATUS_Read
      000000CAH   SFRSYM    DATA     BYTE      SFRPRT5SEL
      000000DAH   SFRSYM    DATA     BYTE      SFRPRT6SEL
      000000D0H.6 SFRSYM    DATA     BIT       AC
      000000A8H.7 SFRSYM    DATA     BIT       EA
      000000A8H   SFRSYM    DATA     BYTE      IE
      00000085H   SFRSYM    DATA     BYTE      DPH1
      00000084H   SFRSYM    DATA     BYTE      DPL1
      000000D0H.7 SFRSYM    DATA     BIT       CY
      000000A0H   SFRSYM    DATA     BYTE      P2AX
      00000095H   SFRSYM    DATA     BYTE      DPX1
      00000081H   SFRSYM    DATA     BYTE      SP
      000000D0H.2 SFRSYM    DATA     BIT       OV
      00000080H   SFRSYM    DATA     BYTE      SFRPRT0DR
      00000090H   SFRSYM    DATA     BYTE      SFRPRT1DR
      000000F2H   SFRSYM    DATA     BYTE      SFRPRT12SEL
      00000098H   SFRSYM    DATA     BYTE      SFRPRT2DR
      000000B0H   SFRSYM    DATA     BYTE      SFRPRT3DR
      000000C0H   SFRSYM    DATA     BYTE      SFRPRT4DR
      000000FAH   SFRSYM    DATA     BYTE      SFRPRT15SEL
      000000C8H   SFRSYM    DATA     BYTE      SFRPRT5DR
      000000D8H   SFRSYM    DATA     BYTE      SFRPRT6DR
      00000089H   SFRSYM    DATA     BYTE      SFRPRT0PS
      00000091H   SFRSYM    DATA     BYTE      SFRPRT1PS
      00000099H   SFRSYM    DATA     BYTE      SFRPRT2PS
      000000B1H   SFRSYM    DATA     BYTE      SFRPRT3PS
      000000C1H   SFRSYM    DATA     BYTE      SFRPRT4PS
      000000C9H   SFRSYM    DATA     BYTE      SFRPRT5PS
      000000D9H   SFRSYM    DATA     BYTE      SFRPRT6PS
      000000EAH   SFRSYM    DATA     BYTE      MXAX
      000000F0H   SFRSYM    DATA     BYTE      B
LX51 LINKER/LOCATER V4.64.0.0                                                         06/11/2018  11:54:47  PAGE 105


      000000E0H   SFRSYM    DATA     BYTE      ACC
      000000D0H   SFRSYM    DATA     BIT       P
      000000D0H.3 SFRSYM    DATA     BIT       RS0
      000000D0H.4 SFRSYM    DATA     BIT       RS1
      00000083H   SFRSYM    DATA     BYTE      DPH
      000000E8H   SFRSYM    DATA     BYTE      SFRPRT12DR
      00000082H   SFRSYM    DATA     BYTE      DPL
      000000F8H   SFRSYM    DATA     BYTE      SFRPRT15DR
      00000086H   SFRSYM    DATA     BYTE      DPS
      000000E9H   SFRSYM    DATA     BYTE      SFRPRT12PS
      00000093H   SFRSYM    DATA     BYTE      DPX
      000000F9H   SFRSYM    DATA     BYTE      SFRPRT15PS
      000000D0H.5 SFRSYM    DATA     BIT       F0
      000000D0H.1 SFRSYM    DATA     BIT       F1
      0000008AH   SFRSYM    DATA     BYTE      SFRPRT0SEL
      000000D0H   SFRSYM    DATA     BYTE      PSW
      000000A2H   SFRSYM    DATA     BYTE      SFRPRT1SEL
      0000009AH   SFRSYM    DATA     BYTE      SFRPRT2SEL
      000000B2H   SFRSYM    DATA     BYTE      SFRPRT3SEL
      000000C2H   SFRSYM    DATA     BYTE      SFRPRT4SEL

      0100C29FH   BLOCK     CODE     ---       LVL=0
      0100C29FH   LINE      CODE     ---       #37
      0100C29FH   LINE      CODE     ---       #38
      0100C29FH   LINE      CODE     ---       #39
      0100C2A4H   LINE      CODE     ---       #40
      ---         BLOCKEND  ---      ---       LVL=0
      00000007H   SYMBOL    DATA     BYTE      interruptState
      00000007H   SYMBOL    DATA     BYTE      interruptState
      00000007H   SYMBOL    DATA     BYTE      mask

      ---         MODULE    ---      ---       RESET_FF
      0100C2A5H   PUBLIC    CODE     ---       _RESET_FF_Write

      0100C2A5H   BLOCK     CODE     ---       LVL=0
      00000007H   SYMBOL    DATA     BYTE      control
      0100C2A5H   LINE      CODE     ---       #37
      0100C2A5H   LINE      CODE     ---       #38
      0100C2A5H   LINE      CODE     ---       #39
      0100C2AAH   LINE      CODE     ---       #40
      ---         BLOCKEND  ---      ---       LVL=0

      ---         MODULE    ---      ---       MOTOR_DIR
      0100C2ABH   PUBLIC    CODE     ---       _MOTOR_DIR_Write

      0100C2ABH   BLOCK     CODE     ---       LVL=0
      00000007H   SYMBOL    DATA     BYTE      control
      0100C2ABH   LINE      CODE     ---       #37
      0100C2ABH   LINE      CODE     ---       #38
      0100C2ABH   LINE      CODE     ---       #39
      0100C2B0H   LINE      CODE     ---       #40
      ---         BLOCKEND  ---      ---       LVL=0

      ---         MODULE    ---      ---       ADC_STATUS
      0100C2B1H   PUBLIC    CODE     ---       ADC_STATUS_Read
      000000CAH   SFRSYM    DATA     BYTE      SFRPRT5SEL
      000000DAH   SFRSYM    DATA     BYTE      SFRPRT6SEL
      000000D0H.6 SFRSYM    DATA     BIT       AC
      000000A8H.7 SFRSYM    DATA     BIT       EA
      000000A8H   SFRSYM    DATA     BYTE      IE
      00000085H   SFRSYM    DATA     BYTE      DPH1
      00000084H   SFRSYM    DATA     BYTE      DPL1
      000000D0H.7 SFRSYM    DATA     BIT       CY
      000000A0H   SFRSYM    DATA     BYTE      P2AX
      00000095H   SFRSYM    DATA     BYTE      DPX1
LX51 LINKER/LOCATER V4.64.0.0                                                         06/11/2018  11:54:47  PAGE 106


      00000081H   SFRSYM    DATA     BYTE      SP
      000000D0H.2 SFRSYM    DATA     BIT       OV
      00000080H   SFRSYM    DATA     BYTE      SFRPRT0DR
      00000090H   SFRSYM    DATA     BYTE      SFRPRT1DR
      000000F2H   SFRSYM    DATA     BYTE      SFRPRT12SEL
      00000098H   SFRSYM    DATA     BYTE      SFRPRT2DR
      000000B0H   SFRSYM    DATA     BYTE      SFRPRT3DR
      000000C0H   SFRSYM    DATA     BYTE      SFRPRT4DR
      000000FAH   SFRSYM    DATA     BYTE      SFRPRT15SEL
      000000C8H   SFRSYM    DATA     BYTE      SFRPRT5DR
      000000D8H   SFRSYM    DATA     BYTE      SFRPRT6DR
      00000089H   SFRSYM    DATA     BYTE      SFRPRT0PS
      00000091H   SFRSYM    DATA     BYTE      SFRPRT1PS
      00000099H   SFRSYM    DATA     BYTE      SFRPRT2PS
      000000B1H   SFRSYM    DATA     BYTE      SFRPRT3PS
      000000C1H   SFRSYM    DATA     BYTE      SFRPRT4PS
      000000C9H   SFRSYM    DATA     BYTE      SFRPRT5PS
      000000D9H   SFRSYM    DATA     BYTE      SFRPRT6PS
      000000EAH   SFRSYM    DATA     BYTE      MXAX
      000000F0H   SFRSYM    DATA     BYTE      B
      000000E0H   SFRSYM    DATA     BYTE      ACC
      000000D0H   SFRSYM    DATA     BIT       P
      000000D0H.3 SFRSYM    DATA     BIT       RS0
      000000D0H.4 SFRSYM    DATA     BIT       RS1
      00000083H   SFRSYM    DATA     BYTE      DPH
      000000E8H   SFRSYM    DATA     BYTE      SFRPRT12DR
      00000082H   SFRSYM    DATA     BYTE      DPL
      000000F8H   SFRSYM    DATA     BYTE      SFRPRT15DR
      00000086H   SFRSYM    DATA     BYTE      DPS
      000000E9H   SFRSYM    DATA     BYTE      SFRPRT12PS
      00000093H   SFRSYM    DATA     BYTE      DPX
      000000F9H   SFRSYM    DATA     BYTE      SFRPRT15PS
      000000D0H.5 SFRSYM    DATA     BIT       F0
      000000D0H.1 SFRSYM    DATA     BIT       F1
      0000008AH   SFRSYM    DATA     BYTE      SFRPRT0SEL
      000000D0H   SFRSYM    DATA     BYTE      PSW
      000000A2H   SFRSYM    DATA     BYTE      SFRPRT1SEL
      0000009AH   SFRSYM    DATA     BYTE      SFRPRT2SEL
      000000B2H   SFRSYM    DATA     BYTE      SFRPRT3SEL
      000000C2H   SFRSYM    DATA     BYTE      SFRPRT4SEL

      0100C2B1H   BLOCK     CODE     ---       LVL=0
      0100C2B1H   LINE      CODE     ---       #37
      0100C2B1H   LINE      CODE     ---       #38
      0100C2B1H   LINE      CODE     ---       #39
      0100C2B6H   LINE      CODE     ---       #40
      ---         BLOCKEND  ---      ---       LVL=0
      00000007H   SYMBOL    DATA     BYTE      interruptState
      00000007H   SYMBOL    DATA     BYTE      interruptState
      00000007H   SYMBOL    DATA     BYTE      mask

      ---         MODULE    ---      ---       ADC
      02000E64H   PUBLIC    XDATA    LONG      ADC_CountsPerVolt
      02000E63H   PUBLIC    XDATA    BYTE      ADC_convDone
      02000E5FH   PUBLIC    XDATA    BYTE      ADC_started
      02000E5EH   PUBLIC    XDATA    BYTE      ADC_stopConversion
      02000E5AH   PUBLIC    XDATA    LONG      ADC_Offset
      02000E59H   PUBLIC    XDATA    BYTE      ADC_initVar
      02000E58H   PUBLIC    XDATA    BYTE      ADC_Config
      0100BE37H   PUBLIC    CODE     ---       ADC_Start
      0100ACA6H   PUBLIC    CODE     ---       ADC_Enable
      0100A830H   PUBLIC    CODE     ---       ADC_Init
      000000CAH   SFRSYM    DATA     BYTE      SFRPRT5SEL
      000000DAH   SFRSYM    DATA     BYTE      SFRPRT6SEL
      000000D0H.6 SFRSYM    DATA     BIT       AC
LX51 LINKER/LOCATER V4.64.0.0                                                         06/11/2018  11:54:47  PAGE 107


      000000A8H.7 SFRSYM    DATA     BIT       EA
      000000A8H   SFRSYM    DATA     BYTE      IE
      00000085H   SFRSYM    DATA     BYTE      DPH1
      00000084H   SFRSYM    DATA     BYTE      DPL1
      000000D0H.7 SFRSYM    DATA     BIT       CY
      000000A0H   SFRSYM    DATA     BYTE      P2AX
      00000095H   SFRSYM    DATA     BYTE      DPX1
      00000081H   SFRSYM    DATA     BYTE      SP
      000000D0H.2 SFRSYM    DATA     BIT       OV
      00000080H   SFRSYM    DATA     BYTE      SFRPRT0DR
      00000090H   SFRSYM    DATA     BYTE      SFRPRT1DR
      000000F2H   SFRSYM    DATA     BYTE      SFRPRT12SEL
      00000098H   SFRSYM    DATA     BYTE      SFRPRT2DR
      000000B0H   SFRSYM    DATA     BYTE      SFRPRT3DR
      000000C0H   SFRSYM    DATA     BYTE      SFRPRT4DR
      000000FAH   SFRSYM    DATA     BYTE      SFRPRT15SEL
      000000C8H   SFRSYM    DATA     BYTE      SFRPRT5DR
      000000D8H   SFRSYM    DATA     BYTE      SFRPRT6DR
      00000089H   SFRSYM    DATA     BYTE      SFRPRT0PS
      00000091H   SFRSYM    DATA     BYTE      SFRPRT1PS
      00000099H   SFRSYM    DATA     BYTE      SFRPRT2PS
      000000B1H   SFRSYM    DATA     BYTE      SFRPRT3PS
      000000C1H   SFRSYM    DATA     BYTE      SFRPRT4PS
      000000C9H   SFRSYM    DATA     BYTE      SFRPRT5PS
      000000D9H   SFRSYM    DATA     BYTE      SFRPRT6PS
      000000EAH   SFRSYM    DATA     BYTE      MXAX
      000000F0H   SFRSYM    DATA     BYTE      B
      000000E0H   SFRSYM    DATA     BYTE      ACC
      000000D0H   SFRSYM    DATA     BIT       P
      000000D0H.3 SFRSYM    DATA     BIT       RS0
      000000D0H.4 SFRSYM    DATA     BIT       RS1
      00000083H   SFRSYM    DATA     BYTE      DPH
      000000E8H   SFRSYM    DATA     BYTE      SFRPRT12DR
      00000082H   SFRSYM    DATA     BYTE      DPL
      000000F8H   SFRSYM    DATA     BYTE      SFRPRT15DR
      00000086H   SFRSYM    DATA     BYTE      DPS
      000000E9H   SFRSYM    DATA     BYTE      SFRPRT12PS
      00000093H   SFRSYM    DATA     BYTE      DPX
      000000F9H   SFRSYM    DATA     BYTE      SFRPRT15PS
      000000D0H.5 SFRSYM    DATA     BIT       F0
      000000D0H.1 SFRSYM    DATA     BIT       F1
      0000008AH   SFRSYM    DATA     BYTE      SFRPRT0SEL
      000000D0H   SFRSYM    DATA     BYTE      PSW
      000000A2H   SFRSYM    DATA     BYTE      SFRPRT1SEL
      0000009AH   SFRSYM    DATA     BYTE      SFRPRT2SEL
      000000B2H   SFRSYM    DATA     BYTE      SFRPRT3SEL
      000000C2H   SFRSYM    DATA     BYTE      SFRPRT4SEL
      0100A992H   SYMBOL    CODE     ---       _ADC_InitConfig
      010094A1H   SYMBOL    CODE     ---       _ADC_GainCompensation
      0100B89AH   SYMBOL    CODE     ---       _ADC_SetDSMRef0Reg
      02000E60H   SYMBOL    XDATA    ---       ADC_gcor

      0100A830H   BLOCK     CODE     ---       LVL=0
      0100A830H   LINE      CODE     ---       #91
      0100A830H   LINE      CODE     ---       #92
      0100A830H   LINE      CODE     ---       #94
      0100A836H   LINE      CODE     ---       #95
      0100A83BH   LINE      CODE     ---       #97
      0100A840H   LINE      CODE     ---       #101
      0100A845H   LINE      CODE     ---       #106
      0100A84CH   LINE      CODE     ---       #110
      0100A852H   LINE      CODE     ---       #111
      0100A855H   LINE      CODE     ---       #112
      0100A859H   LINE      CODE     ---       #113
      0100A860H   LINE      CODE     ---       #114
LX51 LINKER/LOCATER V4.64.0.0                                                         06/11/2018  11:54:47  PAGE 108


      0100A865H   LINE      CODE     ---       #116
      0100A869H   LINE      CODE     ---       #117
      0100A86BH   LINE      CODE     ---       #119
      0100A871H   LINE      CODE     ---       #120
      0100A874H   LINE      CODE     ---       #124
      0100A878H   LINE      CODE     ---       #126
      0100A87EH   LINE      CODE     ---       #127
      0100A881H   LINE      CODE     ---       #128
      0100A886H   LINE      CODE     ---       #130
      0100A88CH   LINE      CODE     ---       #133
      0100A8A3H   LINE      CODE     ---       #161
      0100A8B9H   LINE      CODE     ---       #162
      0100A8D8H   LINE      CODE     ---       #165
      0100A8E0H   LINE      CODE     ---       #166
      ---         BLOCKEND  ---      ---       LVL=0

      0100ACA6H   BLOCK     CODE     ---       LVL=0
      0100ACA6H   BLOCK     CODE     NEAR LAB  LVL=1
      02000003H   SYMBOL    XDATA    BYTE      config
      02000004H   SYMBOL    XDATA    BYTE      enableInterrupts
      ---         BLOCKEND  ---      ---       LVL=1
      0100ACA6H   LINE      CODE     ---       #184
      0100ACA6H   LINE      CODE     ---       #185
      0100ACA6H   LINE      CODE     ---       #188
      0100ACAEH   LINE      CODE     ---       #191
      0100ACB6H   LINE      CODE     ---       #194
      0100ACBDH   LINE      CODE     ---       #195
      0100ACC1H   LINE      CODE     ---       #198
      0100ACC8H   LINE      CODE     ---       #199
      0100ACCCH   LINE      CODE     ---       #202
      0100ACD3H   LINE      CODE     ---       #203
      0100ACD8H   LINE      CODE     ---       #205
      0100ACDFH   LINE      CODE     ---       #265
      0100ACDFH   LINE      CODE     ---       #266
      0100ACDFH   LINE      CODE     ---       #268
      0100ACDFH   LINE      CODE     ---       #271
      0100ACE6H   LINE      CODE     ---       #274
      0100ACEDH   LINE      CODE     ---       #275
      0100ACF2H   LINE      CODE     ---       #278
      0100ACF9H   LINE      CODE     ---       #281
      0100ACFFH   LINE      CODE     ---       #285
      0100AD06H   LINE      CODE     ---       #286
      0100AD0DH   LINE      CODE     ---       #290
      0100AD14H   LINE      CODE     ---       #291
      0100AD1BH   LINE      CODE     ---       #295
      0100AD21H   LINE      CODE     ---       #297
      0100AD25H   LINE      CODE     ---       #300
      0100AD2DH   LINE      CODE     ---       #302
      ---         BLOCKEND  ---      ---       LVL=0

      0100BE37H   BLOCK     CODE     ---       LVL=0
      0100BE37H   LINE      CODE     ---       #329
      0100BE37H   LINE      CODE     ---       #330
      0100BE37H   LINE      CODE     ---       #331
      0100BE3DH   LINE      CODE     ---       #332
      0100BE3DH   LINE      CODE     ---       #333
      0100BE43H   LINE      CODE     ---       #334
      0100BE43H   LINE      CODE     ---       #335
      0100BE46H   LINE      CODE     ---       #336
      0100BE46H   LINE      CODE     ---       #337
      0100BE4CH   LINE      CODE     ---       #338
      0100BE4CH   LINE      CODE     ---       #341
      0100BE4FH   LINE      CODE     ---       #342
      ---         BLOCKEND  ---      ---       LVL=0
      00000007H   SYMBOL    DATA     BYTE      gain
LX51 LINKER/LOCATER V4.64.0.0                                                         06/11/2018  11:54:47  PAGE 109


      00000006H   SYMBOL    DATA     BYTE      tmpReg
      00000007H   SYMBOL    DATA     BYTE      coherency
      00000006H   SYMBOL    DATA     BYTE      tmpReg
      00000004H   SYMBOL    DATA     WORD      gcorValue
      00000007H   SYMBOL    DATA     BYTE      retMode
      00000006H   SYMBOL    DATA     BYTE      status
      00000006H   SYMBOL    DATA     CHAR      result
      00000007H   SYMBOL    DATA     BYTE      coherency
      00000004H   SYMBOL    DATA     LONG      offset
      00000004H   SYMBOL    DATA     LONG      adcGain
      00000006H   SYMBOL    DATA     INT       mVolts
      00000004H   SYMBOL    DATA     FLOAT     Volts
      00000004H   SYMBOL    DATA     LONG      uVolts

      0100A992H   BLOCK     CODE     ---       LVL=0
      00000007H   SYMBOL    DATA     BYTE      config
      0100A992H   LINE      CODE     ---       #1242
      0100A992H   LINE      CODE     ---       #1243
      0100A992H   LINE      CODE     ---       #1244
      0100A997H   LINE      CODE     ---       #1246
      0100A99FH   LINE      CODE     ---       #1247
      0100A99FH   LINE      CODE     ---       #1249
      0100A9A5H   LINE      CODE     ---       #1250
      0100A9ABH   LINE      CODE     ---       #1251
      0100A9AFH   LINE      CODE     ---       #1252
      0100A9B2H   LINE      CODE     ---       #1253
      0100A9B4H   LINE      CODE     ---       #1254
      0100A9B8H   LINE      CODE     ---       #1255
      0100A9BDH   LINE      CODE     ---       #1256
      0100A9BFH   LINE      CODE     ---       #1257
      0100A9C1H   LINE      CODE     ---       #1258
      0100A9C6H   LINE      CODE     ---       #1260
      0100A9CCH   LINE      CODE     ---       #1261
      0100A9D0H   LINE      CODE     ---       #1262
      0100A9D4H   LINE      CODE     ---       #1263
      0100A9D7H   LINE      CODE     ---       #1264
      0100A9DDH   LINE      CODE     ---       #1265
      0100A9E1H   LINE      CODE     ---       #1266
      0100A9E5H   LINE      CODE     ---       #1267
      0100A9EAH   LINE      CODE     ---       #1268
      0100A9EEH   LINE      CODE     ---       #1269
      0100A9F2H   LINE      CODE     ---       #1270
      0100A9F6H   LINE      CODE     ---       #1272
      0100A9FBH   LINE      CODE     ---       #1273
      0100AA01H   LINE      CODE     ---       #1274
      0100AA04H   LINE      CODE     ---       #1276
      0100AA09H   LINE      CODE     ---       #1277
      0100AA0BH   LINE      CODE     ---       #1278
      0100AA0EH   LINE      CODE     ---       #1279
      0100AA12H   LINE      CODE     ---       #1288
      0100AA17H   LINE      CODE     ---       #1300
      0100AA24H   LINE      CODE     ---       #1302
      0100AA2DH   LINE      CODE     ---       #1306
      0100AA36H   LINE      CODE     ---       #1311
      0100AA3FH   LINE      CODE     ---       #1313
      0100AA3FH   LINE      CODE     ---       #1526
      ---         BLOCKEND  ---      ---       LVL=0

      010094A1H   BLOCK     CODE     ---       LVL=0
      00000007H   SYMBOL    DATA     BYTE      inputRange
      02000004H   SYMBOL    XDATA    WORD      idealDecGain
      02000006H   SYMBOL    XDATA    WORD      idealOddDecGain
      02000008H   SYMBOL    XDATA    BYTE      resolution
      02000009H   SYMBOL    XDATA    BYTE      config
      010094AFH   BLOCK     CODE     NEAR LAB  LVL=1
LX51 LINKER/LOCATER V4.64.0.0                                                         06/11/2018  11:54:47  PAGE 110


      0200000AH   SYMBOL    XDATA    CHAR      flash
      00000004H   SYMBOL    DATA     LONG      normalised
      00000004H   SYMBOL    DATA     WORD      gcorValue
      00000004H   SYMBOL    DATA     DWORD     gcorTmp
      ---         BLOCKEND  ---      ---       LVL=1
      010094A1H   LINE      CODE     ---       #1617
      010094AFH   LINE      CODE     ---       #1619
      010094AFH   LINE      CODE     ---       #1625
      010094C5H   LINE      CODE     ---       #1626
      010094C5H   LINE      CODE     ---       #1627
      010094DFH   LINE      CODE     ---       #1628
      010094DFH   LINE      CODE     ---       #1629
      010094DFH   LINE      CODE     ---       #1630
      010094DFH   LINE      CODE     ---       #1632
      010094E8H   LINE      CODE     ---       #1633
      010094E8H   LINE      CODE     ---       #1634
      010094F6H   LINE      CODE     ---       #1635
      010094F9H   LINE      CODE     ---       #1637
      010094F9H   LINE      CODE     ---       #1638
      01009507H   LINE      CODE     ---       #1639
      01009507H   LINE      CODE     ---       #1640
      0100950AH   LINE      CODE     ---       #1642
      0100950AH   LINE      CODE     ---       #1644
      01009513H   LINE      CODE     ---       #1645
      01009513H   LINE      CODE     ---       #1646
      01009521H   LINE      CODE     ---       #1647
      01009523H   LINE      CODE     ---       #1649
      01009523H   LINE      CODE     ---       #1650
      01009531H   LINE      CODE     ---       #1651
      01009531H   LINE      CODE     ---       #1652
      01009533H   LINE      CODE     ---       #1654
      01009533H   LINE      CODE     ---       #1656
      0100953CH   LINE      CODE     ---       #1657
      0100953CH   LINE      CODE     ---       #1658
      0100954AH   LINE      CODE     ---       #1659
      0100954CH   LINE      CODE     ---       #1661
      0100954CH   LINE      CODE     ---       #1662
      0100955AH   LINE      CODE     ---       #1663
      0100955AH   LINE      CODE     ---       #1664
      0100955CH   LINE      CODE     ---       #1666
      0100955CH   LINE      CODE     ---       #1668
      01009565H   LINE      CODE     ---       #1669
      01009565H   LINE      CODE     ---       #1670
      01009573H   LINE      CODE     ---       #1671
      01009575H   LINE      CODE     ---       #1673
      01009575H   LINE      CODE     ---       #1674
      01009583H   LINE      CODE     ---       #1675
      01009583H   LINE      CODE     ---       #1676
      01009585H   LINE      CODE     ---       #1678
      01009585H   LINE      CODE     ---       #1679
      0100958AH   LINE      CODE     ---       #1680
      0100958AH   LINE      CODE     ---       #1681
      0100958AH   LINE      CODE     ---       #1684
      010095BDH   LINE      CODE     ---       #1685
      010095D0H   LINE      CODE     ---       #1686
      010095DDH   LINE      CODE     ---       #1688
      010095E6H   LINE      CODE     ---       #1689
      010095E6H   LINE      CODE     ---       #1690
      010095FDH   LINE      CODE     ---       #1691
      01009613H   LINE      CODE     ---       #1692
      01009615H   LINE      CODE     ---       #1694
      01009615H   LINE      CODE     ---       #1696
      01009629H   LINE      CODE     ---       #1697
      01009629H   LINE      CODE     ---       #1700
      01009641H   LINE      CODE     ---       #1701
LX51 LINKER/LOCATER V4.64.0.0                                                         06/11/2018  11:54:47  PAGE 111


      01009641H   LINE      CODE     ---       #1703
      01009641H   LINE      CODE     ---       #1706
      01009641H   LINE      CODE     ---       #1707
      ---         BLOCKEND  ---      ---       LVL=0

      0100B89AH   BLOCK     CODE     ---       LVL=0
      02000003H   SYMBOL    XDATA    BYTE      value
      0100B89FH   BLOCK     CODE     NEAR LAB  LVL=1
      02000004H   SYMBOL    XDATA    BYTE      enableInterrupts
      ---         BLOCKEND  ---      ---       LVL=1
      0100B89AH   LINE      CODE     ---       #1724
      0100B89FH   LINE      CODE     ---       #1725
      0100B89FH   LINE      CODE     ---       #1727
      0100B8A7H   LINE      CODE     ---       #1730
      0100B8AEH   LINE      CODE     ---       #1731
      0100B8B3H   LINE      CODE     ---       #1732
      0100B8BBH   LINE      CODE     ---       #1735
      0100B8C2H   LINE      CODE     ---       #1737
      0100B8C9H   LINE      CODE     ---       #1738
      0100B8CEH   LINE      CODE     ---       #1740
      0100B8D6H   LINE      CODE     ---       #1741
      ---         BLOCKEND  ---      ---       LVL=0
      00000007H   SYMBOL    DATA     CHAR      result
      00000006H   SYMBOL    DATA     INT       result
      00000004H   SYMBOL    DATA     LONG      result

      ---         MODULE    ---      ---       DMA_DMA
      02000E90H   PUBLIC    XDATA    BYTE      DMA_DmaHandle
      02000003H   PUBLIC    XDATA    BYTE      ?_DMA_DmaInitialize?BYTE
      0100B67DH   PUBLIC    CODE     ---       _DMA_DmaInitialize
      000000CAH   SFRSYM    DATA     BYTE      SFRPRT5SEL
      000000DAH   SFRSYM    DATA     BYTE      SFRPRT6SEL
      000000D0H.6 SFRSYM    DATA     BIT       AC
      000000A8H.7 SFRSYM    DATA     BIT       EA
      000000A8H   SFRSYM    DATA     BYTE      IE
      00000085H   SFRSYM    DATA     BYTE      DPH1
      00000084H   SFRSYM    DATA     BYTE      DPL1
      000000D0H.7 SFRSYM    DATA     BIT       CY
      000000A0H   SFRSYM    DATA     BYTE      P2AX
      00000095H   SFRSYM    DATA     BYTE      DPX1
      00000081H   SFRSYM    DATA     BYTE      SP
      000000D0H.2 SFRSYM    DATA     BIT       OV
      00000080H   SFRSYM    DATA     BYTE      SFRPRT0DR
      00000090H   SFRSYM    DATA     BYTE      SFRPRT1DR
      000000F2H   SFRSYM    DATA     BYTE      SFRPRT12SEL
      00000098H   SFRSYM    DATA     BYTE      SFRPRT2DR
      000000B0H   SFRSYM    DATA     BYTE      SFRPRT3DR
      000000C0H   SFRSYM    DATA     BYTE      SFRPRT4DR
      000000FAH   SFRSYM    DATA     BYTE      SFRPRT15SEL
      000000C8H   SFRSYM    DATA     BYTE      SFRPRT5DR
      000000D8H   SFRSYM    DATA     BYTE      SFRPRT6DR
      00000089H   SFRSYM    DATA     BYTE      SFRPRT0PS
      00000091H   SFRSYM    DATA     BYTE      SFRPRT1PS
      00000099H   SFRSYM    DATA     BYTE      SFRPRT2PS
      000000B1H   SFRSYM    DATA     BYTE      SFRPRT3PS
      000000C1H   SFRSYM    DATA     BYTE      SFRPRT4PS
      000000C9H   SFRSYM    DATA     BYTE      SFRPRT5PS
      000000D9H   SFRSYM    DATA     BYTE      SFRPRT6PS
      000000EAH   SFRSYM    DATA     BYTE      MXAX
      000000F0H   SFRSYM    DATA     BYTE      B
      000000E0H   SFRSYM    DATA     BYTE      ACC
      000000D0H   SFRSYM    DATA     BIT       P
      000000D0H.3 SFRSYM    DATA     BIT       RS0
      000000D0H.4 SFRSYM    DATA     BIT       RS1
      00000083H   SFRSYM    DATA     BYTE      DPH
LX51 LINKER/LOCATER V4.64.0.0                                                         06/11/2018  11:54:47  PAGE 112


      000000E8H   SFRSYM    DATA     BYTE      SFRPRT12DR
      00000082H   SFRSYM    DATA     BYTE      DPL
      000000F8H   SFRSYM    DATA     BYTE      SFRPRT15DR
      00000086H   SFRSYM    DATA     BYTE      DPS
      000000E9H   SFRSYM    DATA     BYTE      SFRPRT12PS
      00000093H   SFRSYM    DATA     BYTE      DPX
      000000F9H   SFRSYM    DATA     BYTE      SFRPRT15PS
      000000D0H.5 SFRSYM    DATA     BIT       F0
      000000D0H.1 SFRSYM    DATA     BIT       F1
      0000008AH   SFRSYM    DATA     BYTE      SFRPRT0SEL
      000000D0H   SFRSYM    DATA     BYTE      PSW
      000000A2H   SFRSYM    DATA     BYTE      SFRPRT1SEL
      0000009AH   SFRSYM    DATA     BYTE      SFRPRT2SEL
      000000B2H   SFRSYM    DATA     BYTE      SFRPRT3SEL
      000000C2H   SFRSYM    DATA     BYTE      SFRPRT4SEL

      0100B67DH   BLOCK     CODE     ---       LVL=0
      00000007H   SYMBOL    DATA     BYTE      BurstCount
      00000006H   SYMBOL    DATA     BYTE      ReqestPerBurst
      02000005H   SYMBOL    XDATA    WORD      UpperSrcAddress
      02000007H   SYMBOL    XDATA    WORD      UpperDestAddress
      0100B67DH   LINE      CODE     ---       #97
      0100B687H   LINE      CODE     ---       #98
      0100B687H   LINE      CODE     ---       #101
      0100B68DH   LINE      CODE     ---       #109
      0100B6A1H   LINE      CODE     ---       #112
      0100B6B7H   LINE      CODE     ---       #115
      0100B6C1H   LINE      CODE     ---       #117
      0100B6C6H   LINE      CODE     ---       #118
      ---         BLOCKEND  ---      ---       LVL=0

      ---         MODULE    ---      ---       ADC_SOC
      0100C2B7H   PUBLIC    CODE     ---       _ADC_SOC_Write

      0100C2B7H   BLOCK     CODE     ---       LVL=0
      00000007H   SYMBOL    DATA     BYTE      control
      0100C2B7H   LINE      CODE     ---       #37
      0100C2B7H   LINE      CODE     ---       #38
      0100C2B7H   LINE      CODE     ---       #39
      0100C2BCH   LINE      CODE     ---       #40
      ---         BLOCKEND  ---      ---       LVL=0

      ---         MODULE    ---      ---       ISR_WATCHDOG
      0100C226H   PUBLIC    CODE     ---       ISR_WATCHDOG_Disable
      0100C21FH   PUBLIC    CODE     ---       ISR_WATCHDOG_Enable
      0100C1B4H   PUBLIC    CODE     ---       _ISR_WATCHDOG_SetPriority
      0100C0ADH   PUBLIC    CODE     ---       _ISR_WATCHDOG_SetVector
      0100C2E0H   PUBLIC    CODE     ---       ISR_WATCHDOG_Interrupt
      0100BD8BH   PUBLIC    CODE     ---       _ISR_WATCHDOG_StartEx
      000000CAH   SFRSYM    DATA     BYTE      SFRPRT5SEL
      000000DAH   SFRSYM    DATA     BYTE      SFRPRT6SEL
      000000D0H.6 SFRSYM    DATA     BIT       AC
      000000A8H.7 SFRSYM    DATA     BIT       EA
      000000A8H   SFRSYM    DATA     BYTE      IE
      00000085H   SFRSYM    DATA     BYTE      DPH1
      00000084H   SFRSYM    DATA     BYTE      DPL1
      000000D0H.7 SFRSYM    DATA     BIT       CY
      000000A0H   SFRSYM    DATA     BYTE      P2AX
      00000095H   SFRSYM    DATA     BYTE      DPX1
      00000081H   SFRSYM    DATA     BYTE      SP
      000000D0H.2 SFRSYM    DATA     BIT       OV
      00000080H   SFRSYM    DATA     BYTE      SFRPRT0DR
      00000090H   SFRSYM    DATA     BYTE      SFRPRT1DR
      000000F2H   SFRSYM    DATA     BYTE      SFRPRT12SEL
      00000098H   SFRSYM    DATA     BYTE      SFRPRT2DR
LX51 LINKER/LOCATER V4.64.0.0                                                         06/11/2018  11:54:47  PAGE 113


      000000B0H   SFRSYM    DATA     BYTE      SFRPRT3DR
      000000C0H   SFRSYM    DATA     BYTE      SFRPRT4DR
      000000FAH   SFRSYM    DATA     BYTE      SFRPRT15SEL
      000000C8H   SFRSYM    DATA     BYTE      SFRPRT5DR
      000000D8H   SFRSYM    DATA     BYTE      SFRPRT6DR
      00000089H   SFRSYM    DATA     BYTE      SFRPRT0PS
      00000091H   SFRSYM    DATA     BYTE      SFRPRT1PS
      00000099H   SFRSYM    DATA     BYTE      SFRPRT2PS
      000000B1H   SFRSYM    DATA     BYTE      SFRPRT3PS
      000000C1H   SFRSYM    DATA     BYTE      SFRPRT4PS
      000000C9H   SFRSYM    DATA     BYTE      SFRPRT5PS
      000000D9H   SFRSYM    DATA     BYTE      SFRPRT6PS
      000000EAH   SFRSYM    DATA     BYTE      MXAX
      000000F0H   SFRSYM    DATA     BYTE      B
      000000E0H   SFRSYM    DATA     BYTE      ACC
      000000D0H   SFRSYM    DATA     BIT       P
      000000D0H.3 SFRSYM    DATA     BIT       RS0
      000000D0H.4 SFRSYM    DATA     BIT       RS1
      00000083H   SFRSYM    DATA     BYTE      DPH
      000000E8H   SFRSYM    DATA     BYTE      SFRPRT12DR
      00000082H   SFRSYM    DATA     BYTE      DPL
      000000F8H   SFRSYM    DATA     BYTE      SFRPRT15DR
      00000086H   SFRSYM    DATA     BYTE      DPS
      000000E9H   SFRSYM    DATA     BYTE      SFRPRT12PS
      00000093H   SFRSYM    DATA     BYTE      DPX
      000000F9H   SFRSYM    DATA     BYTE      SFRPRT15PS
      000000D0H.5 SFRSYM    DATA     BIT       F0
      000000D0H.1 SFRSYM    DATA     BIT       F1
      0000008AH   SFRSYM    DATA     BYTE      SFRPRT0SEL
      000000D0H   SFRSYM    DATA     BYTE      PSW
      000000A2H   SFRSYM    DATA     BYTE      SFRPRT1SEL
      0000009AH   SFRSYM    DATA     BYTE      SFRPRT2SEL
      000000B2H   SFRSYM    DATA     BYTE      SFRPRT3SEL
      000000C2H   SFRSYM    DATA     BYTE      SFRPRT4SEL

      0100BD8BH   BLOCK     CODE     ---       LVL=0
      02000003H   SYMBOL    XDATA    ---       address
      0100BD8BH   LINE      CODE     ---       #94
      0100BD93H   LINE      CODE     ---       #95
      0100BD93H   LINE      CODE     ---       #97
      0100BD96H   LINE      CODE     ---       #100
      0100BDA1H   LINE      CODE     ---       #103
      0100BDA6H   LINE      CODE     ---       #106
      0100BDA9H   LINE      CODE     ---       #107
      ---         BLOCKEND  ---      ---       LVL=0

      0100C2E0H   BLOCK     CODE     ---       LVL=0
      0100C2E0H   LINE      CODE     ---       #151
      0100C2E0H   LINE      CODE     ---       #168
      ---         BLOCKEND  ---      ---       LVL=0

      0100C0ADH   BLOCK     CODE     ---       LVL=0
      00000006H   SYMBOL    DATA     ---       address
      0100C0ADH   LINE      CODE     ---       #198
      0100C0ADH   LINE      CODE     ---       #199
      0100C0ADH   LINE      CODE     ---       #200
      0100C0BAH   LINE      CODE     ---       #201
      ---         BLOCKEND  ---      ---       LVL=0

      0100C1B4H   BLOCK     CODE     ---       LVL=0
      00000007H   SYMBOL    DATA     BYTE      priority
      0100C1B4H   LINE      CODE     ---       #248
      0100C1B4H   LINE      CODE     ---       #249
      0100C1B4H   LINE      CODE     ---       #250
      0100C1BDH   LINE      CODE     ---       #251
LX51 LINKER/LOCATER V4.64.0.0                                                         06/11/2018  11:54:47  PAGE 114


      ---         BLOCKEND  ---      ---       LVL=0
      00000007H   SYMBOL    DATA     BYTE      priority

      0100C21FH   BLOCK     CODE     ---       LVL=0
      0100C21FH   LINE      CODE     ---       #297
      0100C21FH   LINE      CODE     ---       #298
      0100C21FH   LINE      CODE     ---       #300
      0100C225H   LINE      CODE     ---       #301
      ---         BLOCKEND  ---      ---       LVL=0

      0100C226H   BLOCK     CODE     ---       LVL=0
      0100C226H   LINE      CODE     ---       #339
      0100C226H   LINE      CODE     ---       #340
      0100C226H   LINE      CODE     ---       #342
      0100C22CH   LINE      CODE     ---       #343
      ---         BLOCKEND  ---      ---       LVL=0

      ---         MODULE    ---      ---       WATCHDOG_COUNTER
      02000E91H   PUBLIC    XDATA    BYTE      WATCHDOG_COUNTER_initVar
      0100C0BBH   PUBLIC    CODE     ---       _WATCHDOG_COUNTER_WritePeriod
      0100BDE7H   PUBLIC    CODE     ---       _WATCHDOG_COUNTER_WriteCounter
      0100C2BDH   PUBLIC    CODE     ---       _WATCHDOG_COUNTER_SetInterruptMode
      0100BFCEH   PUBLIC    CODE     ---       WATCHDOG_COUNTER_Start
      0100BEE0H   PUBLIC    CODE     ---       WATCHDOG_COUNTER_Enable
      0100B913H   PUBLIC    CODE     ---       WATCHDOG_COUNTER_Init
      000000CAH   SFRSYM    DATA     BYTE      SFRPRT5SEL
      000000DAH   SFRSYM    DATA     BYTE      SFRPRT6SEL
      000000D0H.6 SFRSYM    DATA     BIT       AC
      000000A8H.7 SFRSYM    DATA     BIT       EA
      000000A8H   SFRSYM    DATA     BYTE      IE
      00000085H   SFRSYM    DATA     BYTE      DPH1
      00000084H   SFRSYM    DATA     BYTE      DPL1
      000000D0H.7 SFRSYM    DATA     BIT       CY
      000000A0H   SFRSYM    DATA     BYTE      P2AX
      00000095H   SFRSYM    DATA     BYTE      DPX1
      00000081H   SFRSYM    DATA     BYTE      SP
      000000D0H.2 SFRSYM    DATA     BIT       OV
      00000080H   SFRSYM    DATA     BYTE      SFRPRT0DR
      00000090H   SFRSYM    DATA     BYTE      SFRPRT1DR
      000000F2H   SFRSYM    DATA     BYTE      SFRPRT12SEL
      00000098H   SFRSYM    DATA     BYTE      SFRPRT2DR
      000000B0H   SFRSYM    DATA     BYTE      SFRPRT3DR
      000000C0H   SFRSYM    DATA     BYTE      SFRPRT4DR
      000000FAH   SFRSYM    DATA     BYTE      SFRPRT15SEL
      000000C8H   SFRSYM    DATA     BYTE      SFRPRT5DR
      000000D8H   SFRSYM    DATA     BYTE      SFRPRT6DR
      00000089H   SFRSYM    DATA     BYTE      SFRPRT0PS
      00000091H   SFRSYM    DATA     BYTE      SFRPRT1PS
      00000099H   SFRSYM    DATA     BYTE      SFRPRT2PS
      000000B1H   SFRSYM    DATA     BYTE      SFRPRT3PS
      000000C1H   SFRSYM    DATA     BYTE      SFRPRT4PS
      000000C9H   SFRSYM    DATA     BYTE      SFRPRT5PS
      000000D9H   SFRSYM    DATA     BYTE      SFRPRT6PS
      000000EAH   SFRSYM    DATA     BYTE      MXAX
      000000F0H   SFRSYM    DATA     BYTE      B
      000000E0H   SFRSYM    DATA     BYTE      ACC
      000000D0H   SFRSYM    DATA     BIT       P
      000000D0H.3 SFRSYM    DATA     BIT       RS0
      000000D0H.4 SFRSYM    DATA     BIT       RS1
      00000083H   SFRSYM    DATA     BYTE      DPH
      000000E8H   SFRSYM    DATA     BYTE      SFRPRT12DR
      00000082H   SFRSYM    DATA     BYTE      DPL
      000000F8H   SFRSYM    DATA     BYTE      SFRPRT15DR
      00000086H   SFRSYM    DATA     BYTE      DPS
      000000E9H   SFRSYM    DATA     BYTE      SFRPRT12PS
LX51 LINKER/LOCATER V4.64.0.0                                                         06/11/2018  11:54:47  PAGE 115


      00000093H   SFRSYM    DATA     BYTE      DPX
      000000F9H   SFRSYM    DATA     BYTE      SFRPRT15PS
      000000D0H.5 SFRSYM    DATA     BIT       F0
      000000D0H.1 SFRSYM    DATA     BIT       F1
      0000008AH   SFRSYM    DATA     BYTE      SFRPRT0SEL
      000000D0H   SFRSYM    DATA     BYTE      PSW
      000000A2H   SFRSYM    DATA     BYTE      SFRPRT1SEL
      0000009AH   SFRSYM    DATA     BYTE      SFRPRT2SEL
      000000B2H   SFRSYM    DATA     BYTE      SFRPRT3SEL
      000000C2H   SFRSYM    DATA     BYTE      SFRPRT4SEL

      0100B913H   BLOCK     CODE     ---       LVL=0
      0100B913H   LINE      CODE     ---       #37
      0100B913H   LINE      CODE     ---       #38
      0100B913H   LINE      CODE     ---       #50
      0100B91AH   LINE      CODE     ---       #57
      0100B921H   LINE      CODE     ---       #66
      0100B928H   LINE      CODE     ---       #69
      0100B92FH   LINE      CODE     ---       #70
      0100B933H   LINE      CODE     ---       #73
      0100B937H   LINE      CODE     ---       #74
      0100B93BH   LINE      CODE     ---       #100
      0100B940H   LINE      CODE     ---       #102
      0100B945H   LINE      CODE     ---       #104
      0100B94AH   LINE      CODE     ---       #123
      ---         BLOCKEND  ---      ---       LVL=0

      0100BEE0H   BLOCK     CODE     ---       LVL=0
      0100BEE0H   LINE      CODE     ---       #143
      0100BEE0H   LINE      CODE     ---       #144
      0100BEE0H   LINE      CODE     ---       #147
      0100BEE7H   LINE      CODE     ---       #148
      0100BEEEH   LINE      CODE     ---       #155
      0100BEF5H   LINE      CODE     ---       #158
      ---         BLOCKEND  ---      ---       LVL=0

      0100BFCEH   BLOCK     CODE     ---       LVL=0
      0100BFCEH   LINE      CODE     ---       #178
      0100BFCEH   LINE      CODE     ---       #179
      0100BFCEH   LINE      CODE     ---       #180
      0100BFD4H   LINE      CODE     ---       #181
      0100BFD4H   LINE      CODE     ---       #182
      0100BFD7H   LINE      CODE     ---       #184
      0100BFDDH   LINE      CODE     ---       #185
      0100BFDDH   LINE      CODE     ---       #188
      0100BFE0H   LINE      CODE     ---       #189
      ---         BLOCKEND  ---      ---       LVL=0

      0100C2BDH   BLOCK     CODE     ---       LVL=0
      00000007H   SYMBOL    DATA     BYTE      interruptsMask
      0100C2BDH   LINE      CODE     ---       #237
      0100C2BDH   LINE      CODE     ---       #238
      0100C2BDH   LINE      CODE     ---       #239
      0100C2C2H   LINE      CODE     ---       #240
      ---         BLOCKEND  ---      ---       LVL=0
      00000007H   SYMBOL    DATA     BYTE      control

      0100BDE7H   BLOCK     CODE     ---       LVL=0
      00000007H   SYMBOL    DATA     BYTE      counter
      0100BDE7H   LINE      CODE     ---       #326
      0100BDE7H   LINE      CODE     ---       #328
      0100BDE7H   LINE      CODE     ---       #333
      0100BDEEH   LINE      CODE     ---       #334
      0100BDFBH   LINE      CODE     ---       #335
      0100BE02H   LINE      CODE     ---       #339
LX51 LINKER/LOCATER V4.64.0.0                                                         06/11/2018  11:54:47  PAGE 116


      ---         BLOCKEND  ---      ---       LVL=0

      0100C0BBH   BLOCK     CODE     ---       LVL=0
      00000007H   SYMBOL    DATA     BYTE      period
      0100C0BBH   LINE      CODE     ---       #415
      0100C0BBH   LINE      CODE     ---       #416
      0100C0BBH   LINE      CODE     ---       #418
      0100C0C8H   LINE      CODE     ---       #422
      ---         BLOCKEND  ---      ---       LVL=0

      ---         MODULE    ---      ---       WATCHDOG_ENABLER
      0100C2C3H   PUBLIC    CODE     ---       _WATCHDOG_ENABLER_Write

      0100C2C3H   BLOCK     CODE     ---       LVL=0
      00000007H   SYMBOL    DATA     BYTE      control
      0100C2C3H   LINE      CODE     ---       #37
      0100C2C3H   LINE      CODE     ---       #38
      0100C2C3H   LINE      CODE     ---       #39
      0100C2C8H   LINE      CODE     ---       #40
      ---         BLOCKEND  ---      ---       LVL=0

      ---         MODULE    ---      ---       WATCHDOG_REFRESH
      0100C2C9H   PUBLIC    CODE     ---       _WATCHDOG_REFRESH_Write

      0100C2C9H   BLOCK     CODE     ---       LVL=0
      00000007H   SYMBOL    DATA     BYTE      control
      0100C2C9H   LINE      CODE     ---       #37
      0100C2C9H   LINE      CODE     ---       #38
      0100C2C9H   LINE      CODE     ---       #39
      0100C2CEH   LINE      CODE     ---       #40
      ---         BLOCKEND  ---      ---       LVL=0

      ---         MODULE    ---      ---       CYDMAC
      0100AFB1H   PUBLIC    CODE     ---       _CyDmaTdSetAddress
      02000003H   PUBLIC    XDATA    BYTE      ?_CyDmaTdSetConfiguration?BYTE
      0100ADB6H   PUBLIC    CODE     ---       _CyDmaTdSetConfiguration
      0100B85CH   PUBLIC    CODE     ---       CyDmaTdAllocate
      02000009H   PUBLIC    XDATA    BYTE      ?_CyDmaChSetConfiguration?BYTE
      0100AEC0H   PUBLIC    CODE     ---       _CyDmaChSetConfiguration
      0100BDC9H   PUBLIC    CODE     ---       _CyDmaChSetInitialTd
      0100AF39H   PUBLIC    CODE     ---       _CyDmaChSetExtendedAddress
      0100B81CH   PUBLIC    CODE     ---       _CyDmaChPriority
      0100B632H   PUBLIC    CODE     ---       _CyDmaChEnable
      0100B94BH   PUBLIC    CODE     ---       CyDmacConfigure
      000000CAH   SFRSYM    DATA     BYTE      SFRPRT5SEL
      000000DAH   SFRSYM    DATA     BYTE      SFRPRT6SEL
      000000D0H.6 SFRSYM    DATA     BIT       AC
      000000A8H.7 SFRSYM    DATA     BIT       EA
      000000A8H   SFRSYM    DATA     BYTE      IE
      00000085H   SFRSYM    DATA     BYTE      DPH1
      00000084H   SFRSYM    DATA     BYTE      DPL1
      000000D0H.7 SFRSYM    DATA     BIT       CY
      000000A0H   SFRSYM    DATA     BYTE      P2AX
      00000095H   SFRSYM    DATA     BYTE      DPX1
      00000081H   SFRSYM    DATA     BYTE      SP
      000000D0H.2 SFRSYM    DATA     BIT       OV
      00000080H   SFRSYM    DATA     BYTE      SFRPRT0DR
      00000090H   SFRSYM    DATA     BYTE      SFRPRT1DR
      000000F2H   SFRSYM    DATA     BYTE      SFRPRT12SEL
      00000098H   SFRSYM    DATA     BYTE      SFRPRT2DR
      000000B0H   SFRSYM    DATA     BYTE      SFRPRT3DR
      000000C0H   SFRSYM    DATA     BYTE      SFRPRT4DR
      000000FAH   SFRSYM    DATA     BYTE      SFRPRT15SEL
      000000C8H   SFRSYM    DATA     BYTE      SFRPRT5DR
      000000D8H   SFRSYM    DATA     BYTE      SFRPRT6DR
LX51 LINKER/LOCATER V4.64.0.0                                                         06/11/2018  11:54:47  PAGE 117


      00000089H   SFRSYM    DATA     BYTE      SFRPRT0PS
      00000091H   SFRSYM    DATA     BYTE      SFRPRT1PS
      00000099H   SFRSYM    DATA     BYTE      SFRPRT2PS
      000000B1H   SFRSYM    DATA     BYTE      SFRPRT3PS
      000000C1H   SFRSYM    DATA     BYTE      SFRPRT4PS
      000000C9H   SFRSYM    DATA     BYTE      SFRPRT5PS
      000000D9H   SFRSYM    DATA     BYTE      SFRPRT6PS
      000000EAH   SFRSYM    DATA     BYTE      MXAX
      000000F0H   SFRSYM    DATA     BYTE      B
      000000E0H   SFRSYM    DATA     BYTE      ACC
      000000D0H   SFRSYM    DATA     BIT       P
      000000D0H.3 SFRSYM    DATA     BIT       RS0
      000000D0H.4 SFRSYM    DATA     BIT       RS1
      00000083H   SFRSYM    DATA     BYTE      DPH
      000000E8H   SFRSYM    DATA     BYTE      SFRPRT12DR
      00000082H   SFRSYM    DATA     BYTE      DPL
      000000F8H   SFRSYM    DATA     BYTE      SFRPRT15DR
      00000086H   SFRSYM    DATA     BYTE      DPS
      000000E9H   SFRSYM    DATA     BYTE      SFRPRT12PS
      00000093H   SFRSYM    DATA     BYTE      DPX
      000000F9H   SFRSYM    DATA     BYTE      SFRPRT15PS
      000000D0H.5 SFRSYM    DATA     BIT       F0
      000000D0H.1 SFRSYM    DATA     BIT       F1
      0000008AH   SFRSYM    DATA     BYTE      SFRPRT0SEL
      000000D0H   SFRSYM    DATA     BYTE      PSW
      000000A2H   SFRSYM    DATA     BYTE      SFRPRT1SEL
      0000009AH   SFRSYM    DATA     BYTE      SFRPRT2SEL
      000000B2H   SFRSYM    DATA     BYTE      SFRPRT3SEL
      000000C2H   SFRSYM    DATA     BYTE      SFRPRT4SEL
      02000E77H   SYMBOL    XDATA    DWORD     CyDmaChannels
      02000E7BH   SYMBOL    XDATA    BYTE      CyDmaTdFreeIndex
      02000E7CH   SYMBOL    XDATA    BYTE      CyDmaTdCurrentNumber

      0100B94BH   BLOCK     CODE     ---       LVL=0
      0100B94BH   BLOCK     CODE     NEAR LAB  LVL=1
      00000007H   SYMBOL    DATA     BYTE      dmaIndex
      ---         BLOCKEND  ---      ---       LVL=1
      0100B94BH   LINE      CODE     ---       #61
      0100B94BH   LINE      CODE     ---       #62
      0100B94BH   LINE      CODE     ---       #66
      0100B951H   LINE      CODE     ---       #67
      0100B954H   LINE      CODE     ---       #70
      0100B959H   LINE      CODE     ---       #71
      0100B959H   LINE      CODE     ---       #72
      0100B96CH   LINE      CODE     ---       #73
      0100B96FH   LINE      CODE     ---       #76
      0100B980H   LINE      CODE     ---       #77
      ---         BLOCKEND  ---      ---       LVL=0
      00000007H   SYMBOL    DATA     BYTE      error

      0100B632H   BLOCK     CODE     ---       LVL=0
      00000007H   SYMBOL    DATA     BYTE      chHandle
      00000005H   SYMBOL    DATA     BYTE      preserveTds
      0100B632H   BLOCK     CODE     NEAR LAB  LVL=1
      00000006H   SYMBOL    DATA     BYTE      status
      ---         BLOCKEND  ---      ---       LVL=1
      0100B632H   LINE      CODE     ---       #304
      0100B632H   LINE      CODE     ---       #305
      0100B632H   LINE      CODE     ---       #306
      0100B634H   LINE      CODE     ---       #308
      0100B63AH   LINE      CODE     ---       #309
      0100B63AH   LINE      CODE     ---       #310
      0100B63DH   LINE      CODE     ---       #311
      0100B63DH   LINE      CODE     ---       #315
      0100B650H   LINE      CODE     ---       #316
LX51 LINKER/LOCATER V4.64.0.0                                                         06/11/2018  11:54:47  PAGE 118


      0100B652H   LINE      CODE     ---       #318
      0100B652H   LINE      CODE     ---       #320
      0100B665H   LINE      CODE     ---       #321
      0100B665H   LINE      CODE     ---       #324
      0100B678H   LINE      CODE     ---       #326
      0100B67AH   LINE      CODE     ---       #327
      0100B67AH   LINE      CODE     ---       #329
      0100B67CH   LINE      CODE     ---       #330
      ---         BLOCKEND  ---      ---       LVL=0
      00000007H   SYMBOL    DATA     BYTE      chHandle
      00000006H   SYMBOL    DATA     BYTE      status
      00000007H   SYMBOL    DATA     BYTE      chHandle
      00000006H   SYMBOL    DATA     BYTE      status

      0100B81CH   BLOCK     CODE     ---       LVL=0
      00000004H   SYMBOL    DATA     BYTE      chHandle
      00000005H   SYMBOL    DATA     BYTE      priority
      0100B81EH   BLOCK     CODE     NEAR LAB  LVL=1
      00000002H   SYMBOL    DATA     BYTE      value
      00000003H   SYMBOL    DATA     BYTE      status
      ---         BLOCKEND  ---      ---       LVL=1
      0100B81CH   LINE      CODE     ---       #429
      0100B81EH   LINE      CODE     ---       #430
      0100B81EH   LINE      CODE     ---       #432
      0100B820H   LINE      CODE     ---       #434
      0100B826H   LINE      CODE     ---       #435
      0100B826H   LINE      CODE     ---       #436
      0100B839H   LINE      CODE     ---       #438
      0100B857H   LINE      CODE     ---       #440
      0100B859H   LINE      CODE     ---       #441
      0100B859H   LINE      CODE     ---       #443
      0100B85BH   LINE      CODE     ---       #444
      ---         BLOCKEND  ---      ---       LVL=0

      0100AF39H   BLOCK     CODE     ---       LVL=0
      02000009H   SYMBOL    XDATA    BYTE      chHandle
      0200000AH   SYMBOL    XDATA    WORD      source
      0200000CH   SYMBOL    XDATA    WORD      destination
      0100AF4CH   BLOCK     CODE     NEAR LAB  LVL=1
      0200000EH   SYMBOL    XDATA    BYTE      status
      0200000FH   SYMBOL    XDATA    ---       convert
      ---         BLOCKEND  ---      ---       LVL=1
      0100AF39H   LINE      CODE     ---       #470
      0100AF4CH   LINE      CODE     ---       #472
      0100AF4CH   LINE      CODE     ---       #473
      0100AF52H   LINE      CODE     ---       #492
      0100AF58H   LINE      CODE     ---       #493
      0100AF58H   LINE      CODE     ---       #495
      0100AF6FH   LINE      CODE     ---       #496
      0100AF7FH   LINE      CODE     ---       #499
      0100AF96H   LINE      CODE     ---       #500
      0100AFA6H   LINE      CODE     ---       #501
      0100AFABH   LINE      CODE     ---       #502
      0100AFABH   LINE      CODE     ---       #504
      0100AFB0H   LINE      CODE     ---       #505
      ---         BLOCKEND  ---      ---       LVL=0

      0100BDC9H   BLOCK     CODE     ---       LVL=0
      00000007H   SYMBOL    DATA     BYTE      chHandle
      00000005H   SYMBOL    DATA     BYTE      startTd
      0100BDC9H   BLOCK     CODE     NEAR LAB  LVL=1
      00000006H   SYMBOL    DATA     BYTE      status
      ---         BLOCKEND  ---      ---       LVL=1
      0100BDC9H   LINE      CODE     ---       #529
      0100BDC9H   LINE      CODE     ---       #530
LX51 LINKER/LOCATER V4.64.0.0                                                         06/11/2018  11:54:47  PAGE 119


      0100BDC9H   LINE      CODE     ---       #531
      0100BDCBH   LINE      CODE     ---       #533
      0100BDD1H   LINE      CODE     ---       #534
      0100BDD1H   LINE      CODE     ---       #535
      0100BDE2H   LINE      CODE     ---       #536
      0100BDE4H   LINE      CODE     ---       #537
      0100BDE4H   LINE      CODE     ---       #539
      0100BDE6H   LINE      CODE     ---       #540
      ---         BLOCKEND  ---      ---       LVL=0
      00000007H   SYMBOL    DATA     BYTE      chHandle
      00000005H   SYMBOL    DATA     BYTE      request
      00000006H   SYMBOL    DATA     BYTE      status
      00000007H   SYMBOL    DATA     BYTE      chHandle
      00000003H   SYMBOL    DATA     BYTE      status
      00000007H   SYMBOL    DATA     BYTE      chHandle
      00000006H   SYMBOL    DATA     BYTE      status

      0100AEC0H   BLOCK     CODE     ---       LVL=0
      00000004H   SYMBOL    DATA     BYTE      chHandle
      00000005H   SYMBOL    DATA     BYTE      burstCount
      00000003H   SYMBOL    DATA     BYTE      requestPerBurst
      0200000CH   SYMBOL    XDATA    BYTE      tdDone0
      0200000DH   SYMBOL    XDATA    BYTE      tdDone1
      0200000EH   SYMBOL    XDATA    BYTE      tdStop
      0100AEC2H   BLOCK     CODE     NEAR LAB  LVL=1
      00000002H   SYMBOL    DATA     BYTE      status
      ---         BLOCKEND  ---      ---       LVL=1
      0100AEC0H   LINE      CODE     ---       #716
      0100AEC2H   LINE      CODE     ---       #718
      0100AEC2H   LINE      CODE     ---       #719
      0100AEC4H   LINE      CODE     ---       #721
      0100AECAH   LINE      CODE     ---       #722
      0100AECAH   LINE      CODE     ---       #723
      0100AEE8H   LINE      CODE     ---       #724
      0100AF0CH   LINE      CODE     ---       #725
      0100AF24H   LINE      CODE     ---       #726
      0100AF35H   LINE      CODE     ---       #728
      0100AF36H   LINE      CODE     ---       #729
      0100AF36H   LINE      CODE     ---       #731
      0100AF38H   LINE      CODE     ---       #732
      ---         BLOCKEND  ---      ---       LVL=0

      0100B85CH   BLOCK     CODE     ---       LVL=0
      0100B85CH   BLOCK     CODE     NEAR LAB  LVL=1
      00000007H   SYMBOL    DATA     BYTE      interruptState
      02000003H   SYMBOL    XDATA    BYTE      element
      ---         BLOCKEND  ---      ---       LVL=1
      0100B85CH   LINE      CODE     ---       #752
      0100B85CH   LINE      CODE     ---       #753
      0100B85CH   LINE      CODE     ---       #755
      0100B862H   LINE      CODE     ---       #758
      0100B865H   LINE      CODE     ---       #760
      0100B86EH   LINE      CODE     ---       #761
      0100B86EH   LINE      CODE     ---       #763
      0100B877H   LINE      CODE     ---       #766
      0100B87DH   LINE      CODE     ---       #769
      0100B891H   LINE      CODE     ---       #770
      0100B891H   LINE      CODE     ---       #773
      0100B894H   LINE      CODE     ---       #775
      0100B899H   LINE      CODE     ---       #776
      ---         BLOCKEND  ---      ---       LVL=0

      0100ADB6H   BLOCK     CODE     ---       LVL=0
      02000003H   SYMBOL    XDATA    BYTE      tdHandle
      02000004H   SYMBOL    XDATA    WORD      transferCount
LX51 LINKER/LOCATER V4.64.0.0                                                         06/11/2018  11:54:47  PAGE 120


      02000006H   SYMBOL    XDATA    BYTE      nextTd
      02000007H   SYMBOL    XDATA    BYTE      configuration
      0100ADC6H   BLOCK     CODE     NEAR LAB  LVL=1
      02000008H   SYMBOL    XDATA    BYTE      status
      0100ADDBH   BLOCK     CODE     NEAR LAB  LVL=2
      02000009H   SYMBOL    XDATA    ---       convert
      ---         BLOCKEND  ---      ---       LVL=2
      ---         BLOCKEND  ---      ---       LVL=1
      0100ADB6H   LINE      CODE     ---       #891
      0100ADC6H   LINE      CODE     ---       #893
      0100ADC6H   LINE      CODE     ---       #894
      0100ADCCH   LINE      CODE     ---       #896
      0100ADDBH   LINE      CODE     ---       #897
      0100ADDBH   LINE      CODE     ---       #899
      0100ADF2H   LINE      CODE     ---       #900
      0100AE02H   LINE      CODE     ---       #903
      0100AE1CH   LINE      CODE     ---       #906
      0100AE32H   LINE      CODE     ---       #908
      0100AE37H   LINE      CODE     ---       #909
      0100AE37H   LINE      CODE     ---       #911
      0100AE3CH   LINE      CODE     ---       #912
      ---         BLOCKEND  ---      ---       LVL=0

      0100AFB1H   BLOCK     CODE     ---       LVL=0
      02000003H   SYMBOL    XDATA    BYTE      tdHandle
      02000004H   SYMBOL    XDATA    WORD      source
      02000006H   SYMBOL    XDATA    WORD      destination
      0100AFC4H   BLOCK     CODE     NEAR LAB  LVL=1
      02000008H   SYMBOL    XDATA    BYTE      status
      02000009H   SYMBOL    XDATA    ---       convert
      ---         BLOCKEND  ---      ---       LVL=1
      0100AFB1H   LINE      CODE     ---       #1010
      0100AFC4H   LINE      CODE     ---       #1011
      0100AFC4H   LINE      CODE     ---       #1012
      0100AFCAH   LINE      CODE     ---       #1015
      0100AFD0H   LINE      CODE     ---       #1016
      0100AFD0H   LINE      CODE     ---       #1018
      0100AFE7H   LINE      CODE     ---       #1019
      0100AFF7H   LINE      CODE     ---       #1022
      0100B00EH   LINE      CODE     ---       #1023
      0100B01EH   LINE      CODE     ---       #1025
      0100B023H   LINE      CODE     ---       #1026
      0100B023H   LINE      CODE     ---       #1028
      0100B028H   LINE      CODE     ---       #1029
      ---         BLOCKEND  ---      ---       LVL=0
      00000007H   SYMBOL    DATA     BYTE      chHandle
      00000005H   SYMBOL    DATA     BYTE      enableRR
      00000006H   SYMBOL    DATA     BYTE      status

      ---         MODULE    ---      ---       CYLIB
      02000E73H   PUBLIC    XDATA    DWORD     cydelay_32k_ms
      02000E72H   PUBLIC    XDATA    BYTE      CyResetStatus
      02000E6EH   PUBLIC    XDATA    DWORD     cydelay_freq_hz
      02000E6DH   PUBLIC    XDATA    BYTE      cydelay_freq_mhz
      02000E69H   PUBLIC    XDATA    DWORD     cydelay_freq_khz
      0100BE50H   PUBLIC    CODE     ---       _CyIntSetPriority
      0100B49EH   PUBLIC    CODE     ---       _CyIntSetVector
      0100AD2EH   PUBLIC    CODE     ---       _?CyDelay
      0100C1F2H   PUBLIC    CODE     ---       CySoftwareReset
      000000CAH   SFRSYM    DATA     BYTE      SFRPRT5SEL
      000000DAH   SFRSYM    DATA     BYTE      SFRPRT6SEL
      000000D0H.6 SFRSYM    DATA     BIT       AC
      000000A8H.7 SFRSYM    DATA     BIT       EA
      000000A8H   SFRSYM    DATA     BYTE      IE
      00000085H   SFRSYM    DATA     BYTE      DPH1
LX51 LINKER/LOCATER V4.64.0.0                                                         06/11/2018  11:54:47  PAGE 121


      00000084H   SFRSYM    DATA     BYTE      DPL1
      000000D0H.7 SFRSYM    DATA     BIT       CY
      000000A0H   SFRSYM    DATA     BYTE      P2AX
      00000095H   SFRSYM    DATA     BYTE      DPX1
      00000081H   SFRSYM    DATA     BYTE      SP
      000000D0H.2 SFRSYM    DATA     BIT       OV
      00000080H   SFRSYM    DATA     BYTE      SFRPRT0DR
      00000090H   SFRSYM    DATA     BYTE      SFRPRT1DR
      000000F2H   SFRSYM    DATA     BYTE      SFRPRT12SEL
      00000098H   SFRSYM    DATA     BYTE      SFRPRT2DR
      000000B0H   SFRSYM    DATA     BYTE      SFRPRT3DR
      000000C0H   SFRSYM    DATA     BYTE      SFRPRT4DR
      000000FAH   SFRSYM    DATA     BYTE      SFRPRT15SEL
      000000C8H   SFRSYM    DATA     BYTE      SFRPRT5DR
      000000D8H   SFRSYM    DATA     BYTE      SFRPRT6DR
      00000089H   SFRSYM    DATA     BYTE      SFRPRT0PS
      00000091H   SFRSYM    DATA     BYTE      SFRPRT1PS
      00000099H   SFRSYM    DATA     BYTE      SFRPRT2PS
      000000B1H   SFRSYM    DATA     BYTE      SFRPRT3PS
      000000C1H   SFRSYM    DATA     BYTE      SFRPRT4PS
      000000C9H   SFRSYM    DATA     BYTE      SFRPRT5PS
      000000D9H   SFRSYM    DATA     BYTE      SFRPRT6PS
      000000EAH   SFRSYM    DATA     BYTE      MXAX
      000000F0H   SFRSYM    DATA     BYTE      B
      000000E0H   SFRSYM    DATA     BYTE      ACC
      000000D0H   SFRSYM    DATA     BIT       P
      000000D0H.3 SFRSYM    DATA     BIT       RS0
      000000D0H.4 SFRSYM    DATA     BIT       RS1
      00000083H   SFRSYM    DATA     BYTE      DPH
      000000E8H   SFRSYM    DATA     BYTE      SFRPRT12DR
      00000082H   SFRSYM    DATA     BYTE      DPL
      000000F8H   SFRSYM    DATA     BYTE      SFRPRT15DR
      00000086H   SFRSYM    DATA     BYTE      DPS
      000000E9H   SFRSYM    DATA     BYTE      SFRPRT12PS
      00000093H   SFRSYM    DATA     BYTE      DPX
      000000F9H   SFRSYM    DATA     BYTE      SFRPRT15PS
      000000D0H.5 SFRSYM    DATA     BIT       F0
      000000D0H.1 SFRSYM    DATA     BIT       F1
      0000008AH   SFRSYM    DATA     BYTE      SFRPRT0SEL
      000000D0H   SFRSYM    DATA     BYTE      PSW
      000000A2H   SFRSYM    DATA     BYTE      SFRPRT1SEL
      0000009AH   SFRSYM    DATA     BYTE      SFRPRT2SEL
      000000B2H   SFRSYM    DATA     BYTE      SFRPRT3SEL
      000000C2H   SFRSYM    DATA     BYTE      SFRPRT4SEL
      00000007H   SYMBOL    DATA     BYTE      wait
      00000007H   SYMBOL    DATA     BYTE      pDiv
      00000005H   SYMBOL    DATA     BYTE      qDiv
      00000003H   SYMBOL    DATA     BYTE      current
      00000007H   SYMBOL    DATA     BYTE      source
      00000007H   SYMBOL    DATA     BYTE      wait
      00000007H   SYMBOL    DATA     BYTE      poweredOn
      00000006H   SYMBOL    DATA     BYTE      freq
      00000007H   SYMBOL    DATA     BYTE      source
      00000007H   SYMBOL    DATA     BYTE      source
      00000007H   SYMBOL    DATA     BYTE      divider
      00000006H   SYMBOL    DATA     WORD      divider
      00000005H   SYMBOL    DATA     BYTE      masterClkDiv
      00000006H   SYMBOL    DATA     WORD      busClkDiv
      00000001H   SYMBOL    DATA     BYTE      interruptState
      00000007H   SYMBOL    DATA     BYTE      divider
      00000007H   SYMBOL    DATA     BYTE      source
      00000007H   SYMBOL    DATA     BYTE      source
      00000007H   SYMBOL    DATA     BYTE      mode
      00000006H   SYMBOL    DATA     BYTE      state
      00000007H   SYMBOL    DATA     BYTE      mode
LX51 LINKER/LOCATER V4.64.0.0                                                         06/11/2018  11:54:47  PAGE 122


      00000007H   SYMBOL    DATA     BYTE      wait
      00000007H   SYMBOL    DATA     BYTE      setting
      00000007H   SYMBOL    DATA     BYTE      setting
      00000007H   SYMBOL    DATA     BYTE      setting
      00000000H   SYMBOL    XSTK     BYTE      reason

      0100C1F2H   BLOCK     CODE     ---       LVL=0
      0100C1F2H   LINE      CODE     ---       #1666
      0100C1F2H   LINE      CODE     ---       #1667
      0100C1F2H   LINE      CODE     ---       #1668
      0100C1F9H   LINE      CODE     ---       #1669
      ---         BLOCKEND  ---      ---       LVL=0

      0100AD2EH   BLOCK     CODE     ---       LVL=0
      00000000H   SYMBOL    XSTK     DWORD     milliseconds
      0100AD2EH   LINE      CODE     ---       #1692
      0100AD37H   LINE      CODE     ---       #1694
      0100AD4DH   LINE      CODE     ---       #1695
      0100AD4DH   LINE      CODE     ---       #1700
      0100AD5EH   LINE      CODE     ---       #1701
      0100AD88H   LINE      CODE     ---       #1702
      0100AD8AH   LINE      CODE     ---       #1704
      0100ADAFH   LINE      CODE     ---       #1705
      ---         BLOCKEND  ---      ---       LVL=0
      00000000H   SYMBOL    XSTK     DWORD     freq
      00000007H   SYMBOL    DATA     BYTE      ticks
      00000005H   SYMBOL    DATA     BYTE      lpMode
      02000E68H   SYMBOL    XDATA    BYTE      interruptStatus
      00000005H   SYMBOL    DATA     BYTE      interruptState
      00000005H   SYMBOL    DATA     BYTE      interruptState
      00000003H   SYMBOL    DATA     BYTE      interruptState

      0100B49EH   BLOCK     CODE     ---       LVL=0
      02000003H   SYMBOL    XDATA    BYTE      number
      02000004H   SYMBOL    XDATA    ---       address
      0100B4ABH   BLOCK     CODE     NEAR LAB  LVL=1
      02000006H   SYMBOL    XDATA    ---       oldIsr
      ---         BLOCKEND  ---      ---       LVL=1
      0100B49EH   LINE      CODE     ---       #2641
      0100B4ABH   LINE      CODE     ---       #2642
      0100B4ABH   LINE      CODE     ---       #2648
      0100B4C9H   LINE      CODE     ---       #2652
      0100B4E9H   LINE      CODE     ---       #2654
      0100B4F1H   LINE      CODE     ---       #2655
      ---         BLOCKEND  ---      ---       LVL=0
      00000007H   SYMBOL    DATA     BYTE      number

      0100BE50H   BLOCK     CODE     ---       LVL=0
      00000004H   SYMBOL    DATA     BYTE      number
      00000005H   SYMBOL    DATA     BYTE      priority
      0100BE50H   LINE      CODE     ---       #2696
      0100BE52H   LINE      CODE     ---       #2697
      0100BE52H   LINE      CODE     ---       #2702
      0100BE68H   LINE      CODE     ---       #2704
      ---         BLOCKEND  ---      ---       LVL=0
      00000007H   SYMBOL    DATA     BYTE      number
      00000007H   SYMBOL    DATA     BYTE      priority
      00000005H   SYMBOL    DATA     BYTE      number
      00000006H   SYMBOL    DATA     ---       stateReg

      ---         MODULE    ---      ---       CYBOOTASMKEIL
      0100BEF6H   PUBLIC    CODE     NEAR LAB  CyEnterCriticalSection
      0100BA00H   PUBLIC    CODE     NEAR LAB  _CyDelayCycles
      0100BBF4H   PUBLIC    CODE     NEAR LAB  _CyDelayUs
      0100BE9AH   PUBLIC    CODE     NEAR LAB  _CyExitCriticalSection
LX51 LINKER/LOCATER V4.64.0.0                                                         06/11/2018  11:54:47  PAGE 123



      ---         MODULE    ---      ---       CYMEM
      02000000H   PUBLIC    XDATA    BYTE      ?_cyconfigcpy?BYTE
      0100BA3BH   PUBLIC    CODE     NEAR LAB  _cyconfigcpy
      0100BCC1H   PUBLIC    CODE     NEAR LAB  _cyconfigcpycode
      0100C049H   PUBLIC    CODE     NEAR LAB  _cyread16
      0100C04BH   PUBLIC    CODE     NEAR LAB  _cyread16_nodpx
      0100BFE1H   PUBLIC    CODE     NEAR LAB  _cyread24
      0100BFE3H   PUBLIC    CODE     NEAR LAB  _cyread24_nodpx
      0100C10AH   PUBLIC    CODE     NEAR LAB  _cyread8
      0100C10CH   PUBLIC    CODE     NEAR LAB  _cyread8_nodpx
      0100C058H   PUBLIC    CODE     NEAR LAB  _cywrite16
      0100C05AH   PUBLIC    CODE     NEAR LAB  _cywrite16_nodpx
      0100C006H   PUBLIC    CODE     NEAR LAB  _cywrite24
      0100C008H   PUBLIC    CODE     NEAR LAB  _cywrite24_nodpx
      0100C116H   PUBLIC    CODE     NEAR LAB  _cywrite8
      0100C118H   PUBLIC    CODE     NEAR LAB  _cywrite8_nodpx

      ---         MODULE    ---      ---       ?C_STARTUP
      00000000H   PUBLIC    NUMBER   ---       ?C?XPAGE1RST
      00000093H   PUBLIC    DATA     BYTE      ?C?XPAGE1SFR
      01002600H   PUBLIC    CODE     NEAR LAB  ?C_STARTUP
      0100A197H   PUBLIC    CODE     NEAR LAB  STARTUP1
      01002604H   PUBLIC    CODE     NEAR LAB  _dma_wait

      ---         MODULE    ---      ---       UART_RS485_INT
      0100A8E1H   PUBLIC    CODE     ---       UART_RS485_RXISR
      000000CAH   SFRSYM    DATA     BYTE      SFRPRT5SEL
      000000DAH   SFRSYM    DATA     BYTE      SFRPRT6SEL
      000000D0H.6 SFRSYM    DATA     BIT       AC
      000000A8H.7 SFRSYM    DATA     BIT       EA
      000000A8H   SFRSYM    DATA     BYTE      IE
      00000085H   SFRSYM    DATA     BYTE      DPH1
      00000084H   SFRSYM    DATA     BYTE      DPL1
      000000D0H.7 SFRSYM    DATA     BIT       CY
      000000A0H   SFRSYM    DATA     BYTE      P2AX
      00000095H   SFRSYM    DATA     BYTE      DPX1
      00000081H   SFRSYM    DATA     BYTE      SP
      000000D0H.2 SFRSYM    DATA     BIT       OV
      00000080H   SFRSYM    DATA     BYTE      SFRPRT0DR
      00000090H   SFRSYM    DATA     BYTE      SFRPRT1DR
      000000F2H   SFRSYM    DATA     BYTE      SFRPRT12SEL
      00000098H   SFRSYM    DATA     BYTE      SFRPRT2DR
      000000B0H   SFRSYM    DATA     BYTE      SFRPRT3DR
      000000C0H   SFRSYM    DATA     BYTE      SFRPRT4DR
      000000FAH   SFRSYM    DATA     BYTE      SFRPRT15SEL
      000000C8H   SFRSYM    DATA     BYTE      SFRPRT5DR
      000000D8H   SFRSYM    DATA     BYTE      SFRPRT6DR
      00000089H   SFRSYM    DATA     BYTE      SFRPRT0PS
      00000091H   SFRSYM    DATA     BYTE      SFRPRT1PS
      00000099H   SFRSYM    DATA     BYTE      SFRPRT2PS
      000000B1H   SFRSYM    DATA     BYTE      SFRPRT3PS
      000000C1H   SFRSYM    DATA     BYTE      SFRPRT4PS
      000000C9H   SFRSYM    DATA     BYTE      SFRPRT5PS
      000000D9H   SFRSYM    DATA     BYTE      SFRPRT6PS
      000000EAH   SFRSYM    DATA     BYTE      MXAX
      000000F0H   SFRSYM    DATA     BYTE      B
      000000E0H   SFRSYM    DATA     BYTE      ACC
      000000D0H   SFRSYM    DATA     BIT       P
      000000D0H.3 SFRSYM    DATA     BIT       RS0
      000000D0H.4 SFRSYM    DATA     BIT       RS1
      00000083H   SFRSYM    DATA     BYTE      DPH
      000000E8H   SFRSYM    DATA     BYTE      SFRPRT12DR
      00000082H   SFRSYM    DATA     BYTE      DPL
      000000F8H   SFRSYM    DATA     BYTE      SFRPRT15DR
LX51 LINKER/LOCATER V4.64.0.0                                                         06/11/2018  11:54:47  PAGE 124


      00000086H   SFRSYM    DATA     BYTE      DPS
      000000E9H   SFRSYM    DATA     BYTE      SFRPRT12PS
      00000093H   SFRSYM    DATA     BYTE      DPX
      000000F9H   SFRSYM    DATA     BYTE      SFRPRT15PS
      000000D0H.5 SFRSYM    DATA     BIT       F0
      000000D0H.1 SFRSYM    DATA     BIT       F1
      0000008AH   SFRSYM    DATA     BYTE      SFRPRT0SEL
      000000D0H   SFRSYM    DATA     BYTE      PSW
      000000A2H   SFRSYM    DATA     BYTE      SFRPRT1SEL
      0000009AH   SFRSYM    DATA     BYTE      SFRPRT2SEL
      000000B2H   SFRSYM    DATA     BYTE      SFRPRT3SEL
      000000C2H   SFRSYM    DATA     BYTE      SFRPRT4SEL

      0100A8E1H   BLOCK     CODE     ---       LVL=0
      0100A904H   BLOCK     CODE     NEAR LAB  LVL=1
      00000006H   SYMBOL    DATA     BYTE      readData
      00000007H   SYMBOL    DATA     BYTE      readStatus
      00000003H   SYMBOL    DATA     BYTE      increment_pointer
      00000002H   SYMBOL    DATA     BYTE      int_en
      ---         BLOCKEND  ---      ---       LVL=1
      0100A8E1H   LINE      CODE     ---       #59
      0100A904H   LINE      CODE     ---       #63
      0100A906H   LINE      CODE     ---       #79
      0100A90AH   LINE      CODE     ---       #80
      0100A912H   LINE      CODE     ---       #84
      0100A912H   LINE      CODE     ---       #86
      0100A917H   LINE      CODE     ---       #90
      0100A918H   LINE      CODE     ---       #95
      0100A91DH   LINE      CODE     ---       #96
      0100A91DH   LINE      CODE     ---       #101
      0100A923H   LINE      CODE     ---       #109
      0100A923H   LINE      CODE     ---       #111
      0100A927H   LINE      CODE     ---       #112
      0100A927H   LINE      CODE     ---       #114
      0100A92CH   LINE      CODE     ---       #141
      0100A93BH   LINE      CODE     ---       #142
      0100A93DH   LINE      CODE     ---       #146
      0100A940H   LINE      CODE     ---       #147
      0100A940H   LINE      CODE     ---       #148
      0100A946H   LINE      CODE     ---       #149
      0100A946H   LINE      CODE     ---       #150
      0100A94CH   LINE      CODE     ---       #151
      0100A94CH   LINE      CODE     ---       #153
      0100A952H   LINE      CODE     ---       #156
      0100A958H   LINE      CODE     ---       #157
      0100A958H   LINE      CODE     ---       #158
      0100A95AH   LINE      CODE     ---       #159
      0100A95AH   LINE      CODE     ---       #162
      0100A966H   LINE      CODE     ---       #163
      0100A966H   LINE      CODE     ---       #164
      0100A96CH   LINE      CODE     ---       #172
      0100A96CH   LINE      CODE     ---       #173
      0100A96CH   LINE      CODE     ---       #174
      0100A96CH   LINE      CODE     ---       #175
      0100A970H   LINE      CODE     ---       #187
      0100A977H   LINE      CODE     ---       #189
      ---         BLOCKEND  ---      ---       LVL=0

      ---         MODULE    ---      ---       ADC_INT
      0100C2E4H   PUBLIC    CODE     ---       ADC_ISR4
      0100C2E3H   PUBLIC    CODE     ---       ADC_ISR3
      0100C2E2H   PUBLIC    CODE     ---       ADC_ISR2
      0100C2E1H   PUBLIC    CODE     ---       ADC_ISR1
      000000CAH   SFRSYM    DATA     BYTE      SFRPRT5SEL
      000000DAH   SFRSYM    DATA     BYTE      SFRPRT6SEL
LX51 LINKER/LOCATER V4.64.0.0                                                         06/11/2018  11:54:47  PAGE 125


      000000D0H.6 SFRSYM    DATA     BIT       AC
      000000A8H.7 SFRSYM    DATA     BIT       EA
      000000A8H   SFRSYM    DATA     BYTE      IE
      00000085H   SFRSYM    DATA     BYTE      DPH1
      00000084H   SFRSYM    DATA     BYTE      DPL1
      000000D0H.7 SFRSYM    DATA     BIT       CY
      000000A0H   SFRSYM    DATA     BYTE      P2AX
      00000095H   SFRSYM    DATA     BYTE      DPX1
      00000081H   SFRSYM    DATA     BYTE      SP
      000000D0H.2 SFRSYM    DATA     BIT       OV
      00000080H   SFRSYM    DATA     BYTE      SFRPRT0DR
      00000090H   SFRSYM    DATA     BYTE      SFRPRT1DR
      000000F2H   SFRSYM    DATA     BYTE      SFRPRT12SEL
      00000098H   SFRSYM    DATA     BYTE      SFRPRT2DR
      000000B0H   SFRSYM    DATA     BYTE      SFRPRT3DR
      000000C0H   SFRSYM    DATA     BYTE      SFRPRT4DR
      000000FAH   SFRSYM    DATA     BYTE      SFRPRT15SEL
      000000C8H   SFRSYM    DATA     BYTE      SFRPRT5DR
      000000D8H   SFRSYM    DATA     BYTE      SFRPRT6DR
      00000089H   SFRSYM    DATA     BYTE      SFRPRT0PS
      00000091H   SFRSYM    DATA     BYTE      SFRPRT1PS
      00000099H   SFRSYM    DATA     BYTE      SFRPRT2PS
      000000B1H   SFRSYM    DATA     BYTE      SFRPRT3PS
      000000C1H   SFRSYM    DATA     BYTE      SFRPRT4PS
      000000C9H   SFRSYM    DATA     BYTE      SFRPRT5PS
      000000D9H   SFRSYM    DATA     BYTE      SFRPRT6PS
      000000EAH   SFRSYM    DATA     BYTE      MXAX
      000000F0H   SFRSYM    DATA     BYTE      B
      000000E0H   SFRSYM    DATA     BYTE      ACC
      000000D0H   SFRSYM    DATA     BIT       P
      000000D0H.3 SFRSYM    DATA     BIT       RS0
      000000D0H.4 SFRSYM    DATA     BIT       RS1
      00000083H   SFRSYM    DATA     BYTE      DPH
      000000E8H   SFRSYM    DATA     BYTE      SFRPRT12DR
      00000082H   SFRSYM    DATA     BYTE      DPL
      000000F8H   SFRSYM    DATA     BYTE      SFRPRT15DR
      00000086H   SFRSYM    DATA     BYTE      DPS
      000000E9H   SFRSYM    DATA     BYTE      SFRPRT12PS
      00000093H   SFRSYM    DATA     BYTE      DPX
      000000F9H   SFRSYM    DATA     BYTE      SFRPRT15PS
      000000D0H.5 SFRSYM    DATA     BIT       F0
      000000D0H.1 SFRSYM    DATA     BIT       F1
      0000008AH   SFRSYM    DATA     BYTE      SFRPRT0SEL
      000000D0H   SFRSYM    DATA     BYTE      PSW
      000000A2H   SFRSYM    DATA     BYTE      SFRPRT1SEL
      0000009AH   SFRSYM    DATA     BYTE      SFRPRT2SEL
      000000B2H   SFRSYM    DATA     BYTE      SFRPRT3SEL
      000000C2H   SFRSYM    DATA     BYTE      SFRPRT4SEL

      0100C2E1H   BLOCK     CODE     ---       LVL=0
      0100C2E1H   LINE      CODE     ---       #51
      0100C2E1H   LINE      CODE     ---       #81
      ---         BLOCKEND  ---      ---       LVL=0

      0100C2E2H   BLOCK     CODE     ---       LVL=0
      0100C2E2H   LINE      CODE     ---       #101
      0100C2E2H   LINE      CODE     ---       #131
      ---         BLOCKEND  ---      ---       LVL=0

      0100C2E3H   BLOCK     CODE     ---       LVL=0
      0100C2E3H   LINE      CODE     ---       #151
      0100C2E3H   LINE      CODE     ---       #181
      ---         BLOCKEND  ---      ---       LVL=0

      0100C2E4H   BLOCK     CODE     ---       LVL=0
LX51 LINKER/LOCATER V4.64.0.0                                                         06/11/2018  11:54:47  PAGE 126


      0100C2E4H   LINE      CODE     ---       #201
      0100C2E4H   LINE      CODE     ---       #231
      ---         BLOCKEND  ---      ---       LVL=0

      ---         MODULE    ---      ---       ADC_AMUX
      0100BE69H   PUBLIC    CODE     ---       _ADC_AMux_Select
      0100BD2BH   PUBLIC    CODE     ---       ADC_AMux_Start
      02000E92H   SYMBOL    XDATA    BYTE      ADC_AMux_lastChannel

      0100BD2BH   BLOCK     CODE     ---       LVL=0
      0100BD2BH   BLOCK     CODE     NEAR LAB  LVL=1
      02000004H   SYMBOL    XDATA    BYTE      chan
      ---         BLOCKEND  ---      ---       LVL=1
      0100BD2BH   LINE      CODE     ---       #36
      0100BD2BH   LINE      CODE     ---       #37
      0100BD2BH   LINE      CODE     ---       #40
      0100BD3AH   LINE      CODE     ---       #41
      0100BD3AH   LINE      CODE     ---       #43
      0100BD3DH   LINE      CODE     ---       #48
      0100BD45H   LINE      CODE     ---       #50
      0100BD4BH   LINE      CODE     ---       #51
      ---         BLOCKEND  ---      ---       LVL=0

      0100BE69H   BLOCK     CODE     ---       LVL=0
      02000003H   SYMBOL    XDATA    BYTE      channel
      0100BE69H   LINE      CODE     ---       #69
      0100BE6EH   LINE      CODE     ---       #70
      0100BE6EH   LINE      CODE     ---       #71
      0100BE71H   LINE      CODE     ---       #72
      0100BE79H   LINE      CODE     ---       #73
      0100BE81H   LINE      CODE     ---       #74
      ---         BLOCKEND  ---      ---       LVL=0

      ---         MODULE    ---      ---       ADC_EXT_CP_CLK
      0100C1FAH   PUBLIC    CODE     ---       ADC_Ext_CP_Clk_GetSourceRegister
      0100C0F0H   PUBLIC    CODE     ---       _ADC_Ext_CP_Clk_SetModeRegister
      0100C1BEH   PUBLIC    CODE     ---       ADC_Ext_CP_Clk_GetDividerRegister
      01009BB4H   PUBLIC    CODE     ---       _ADC_Ext_CP_Clk_SetDividerRegister
      00000007H   SYMBOL    DATA     BYTE      state

      01009BB4H   BLOCK     CODE     ---       LVL=0
      02000003H   SYMBOL    XDATA    WORD      clkDivider
      02000005H   SYMBOL    XDATA    BYTE      restart
      01009BBFH   BLOCK     CODE     NEAR LAB  LVL=1
      02000006H   SYMBOL    XDATA    BYTE      enabled
      02000007H   SYMBOL    XDATA    BYTE      currSrc
      02000008H   SYMBOL    XDATA    WORD      oldDivider
      ---         BLOCKEND  ---      ---       LVL=1
      01009BB4H   LINE      CODE     ---       #193
      01009BBFH   LINE      CODE     ---       #195
      01009BBFH   LINE      CODE     ---       #198
      01009BC7H   LINE      CODE     ---       #199
      01009BD2H   LINE      CODE     ---       #201
      01009BE4H   LINE      CODE     ---       #202
      01009BE4H   LINE      CODE     ---       #203
      01009BEEH   LINE      CODE     ---       #205
      01009BFFH   LINE      CODE     ---       #206
      01009BFFH   LINE      CODE     ---       #208
      01009C03H   LINE      CODE     ---       #209
      01009C03H   LINE      CODE     ---       #213
      01009C0CH   LINE      CODE     ---       #214
      01009C13H   LINE      CODE     ---       #215
      01009C14H   LINE      CODE     ---       #217
      01009C14H   LINE      CODE     ---       #220
      01009C1BH   LINE      CODE     ---       #221
LX51 LINKER/LOCATER V4.64.0.0                                                         06/11/2018  11:54:47  PAGE 127


      01009C2CH   LINE      CODE     ---       #222
      01009C2CH   LINE      CODE     ---       #223
      01009C2DH   LINE      CODE     ---       #225
      01009C2DH   LINE      CODE     ---       #227
      01009C33H   LINE      CODE     ---       #228
      01009C33H   LINE      CODE     ---       #229
      01009C38H   LINE      CODE     ---       #236
      01009C3EH   LINE      CODE     ---       #237
      01009C43H   LINE      CODE     ---       #240
      01009C4AH   LINE      CODE     ---       #243
      01009C5CH   LINE      CODE     ---       #244
      01009C5CH   LINE      CODE     ---       #246
      01009C6DH   LINE      CODE     ---       #247
      01009C73H   LINE      CODE     ---       #250
      01009C7BH   LINE      CODE     ---       #253
      01009C82H   LINE      CODE     ---       #257
      01009C87H   LINE      CODE     ---       #259
      01009C87H   LINE      CODE     ---       #260
      01009C87H   LINE      CODE     ---       #263
      01009C8FH   LINE      CODE     ---       #264
      01009C8FH   LINE      CODE     ---       #266
      01009CA0H   LINE      CODE     ---       #268
      01009CB3H   LINE      CODE     ---       #269
      01009CBDH   LINE      CODE     ---       #270
      01009CBEH   LINE      CODE     ---       #272
      01009CBEH   LINE      CODE     ---       #274
      01009CCFH   LINE      CODE     ---       #275
      01009CE4H   LINE      CODE     ---       #276
      01009CE4H   LINE      CODE     ---       #277
      01009CE4H   LINE      CODE     ---       #278
      01009CE4H   LINE      CODE     ---       #279
      ---         BLOCKEND  ---      ---       LVL=0

      0100C1BEH   BLOCK     CODE     ---       LVL=0
      0100C1BEH   LINE      CODE     ---       #297
      0100C1BEH   LINE      CODE     ---       #298
      0100C1BEH   LINE      CODE     ---       #299
      0100C1C7H   LINE      CODE     ---       #300
      ---         BLOCKEND  ---      ---       LVL=0

      0100C0F0H   BLOCK     CODE     ---       LVL=0
      00000007H   SYMBOL    DATA     BYTE      modeBitMask
      0100C0F0H   LINE      CODE     ---       #332
      0100C0F0H   LINE      CODE     ---       #333
      0100C0F0H   LINE      CODE     ---       #334
      0100C0FCH   LINE      CODE     ---       #335
      ---         BLOCKEND  ---      ---       LVL=0
      00000007H   SYMBOL    DATA     BYTE      modeBitMask
      00000007H   SYMBOL    DATA     BYTE      oldSrc

      0100C1FAH   BLOCK     CODE     ---       LVL=0
      0100C1FAH   LINE      CODE     ---       #464
      0100C1FAH   LINE      CODE     ---       #465
      0100C1FAH   LINE      CODE     ---       #466
      0100C201H   LINE      CODE     ---       #467
      ---         BLOCKEND  ---      ---       LVL=0

      ---         MODULE    ---      ---       ADC_THEACLK
      0100C202H   PUBLIC    CODE     ---       ADC_theACLK_GetSourceRegister
      0100C0FDH   PUBLIC    CODE     ---       _ADC_theACLK_SetModeRegister
      0100C1C8H   PUBLIC    CODE     ---       ADC_theACLK_GetDividerRegister
      01009E15H   PUBLIC    CODE     ---       _ADC_theACLK_SetDividerRegister
      00000007H   SYMBOL    DATA     BYTE      state

      01009E15H   BLOCK     CODE     ---       LVL=0
LX51 LINKER/LOCATER V4.64.0.0                                                         06/11/2018  11:54:47  PAGE 128


      02000003H   SYMBOL    XDATA    WORD      clkDivider
      02000005H   SYMBOL    XDATA    BYTE      restart
      01009E20H   BLOCK     CODE     NEAR LAB  LVL=1
      02000006H   SYMBOL    XDATA    BYTE      enabled
      02000007H   SYMBOL    XDATA    BYTE      currSrc
      02000008H   SYMBOL    XDATA    WORD      oldDivider
      ---         BLOCKEND  ---      ---       LVL=1
      01009E15H   LINE      CODE     ---       #193
      01009E20H   LINE      CODE     ---       #195
      01009E20H   LINE      CODE     ---       #198
      01009E28H   LINE      CODE     ---       #199
      01009E33H   LINE      CODE     ---       #201
      01009E45H   LINE      CODE     ---       #202
      01009E45H   LINE      CODE     ---       #203
      01009E4FH   LINE      CODE     ---       #205
      01009E60H   LINE      CODE     ---       #206
      01009E60H   LINE      CODE     ---       #208
      01009E64H   LINE      CODE     ---       #209
      01009E64H   LINE      CODE     ---       #213
      01009E6CH   LINE      CODE     ---       #214
      01009E73H   LINE      CODE     ---       #215
      01009E74H   LINE      CODE     ---       #217
      01009E74H   LINE      CODE     ---       #220
      01009E7BH   LINE      CODE     ---       #221
      01009E8CH   LINE      CODE     ---       #222
      01009E8CH   LINE      CODE     ---       #223
      01009E8DH   LINE      CODE     ---       #225
      01009E8DH   LINE      CODE     ---       #227
      01009E93H   LINE      CODE     ---       #228
      01009E93H   LINE      CODE     ---       #229
      01009E98H   LINE      CODE     ---       #233
      01009E9DH   LINE      CODE     ---       #234
      01009EA2H   LINE      CODE     ---       #240
      01009EA9H   LINE      CODE     ---       #243
      01009EBBH   LINE      CODE     ---       #244
      01009EBBH   LINE      CODE     ---       #246
      01009ECCH   LINE      CODE     ---       #247
      01009ED2H   LINE      CODE     ---       #250
      01009EDAH   LINE      CODE     ---       #253
      01009EE1H   LINE      CODE     ---       #257
      01009EE6H   LINE      CODE     ---       #259
      01009EE6H   LINE      CODE     ---       #260
      01009EE6H   LINE      CODE     ---       #263
      01009EEEH   LINE      CODE     ---       #264
      01009EEEH   LINE      CODE     ---       #266
      01009EFFH   LINE      CODE     ---       #268
      01009F12H   LINE      CODE     ---       #269
      01009F1CH   LINE      CODE     ---       #270
      01009F1DH   LINE      CODE     ---       #272
      01009F1DH   LINE      CODE     ---       #274
      01009F2EH   LINE      CODE     ---       #275
      01009F43H   LINE      CODE     ---       #276
      01009F43H   LINE      CODE     ---       #277
      01009F43H   LINE      CODE     ---       #278
      01009F43H   LINE      CODE     ---       #279
      ---         BLOCKEND  ---      ---       LVL=0

      0100C1C8H   BLOCK     CODE     ---       LVL=0
      0100C1C8H   LINE      CODE     ---       #297
      0100C1C8H   LINE      CODE     ---       #298
      0100C1C8H   LINE      CODE     ---       #299
      0100C1D1H   LINE      CODE     ---       #300
      ---         BLOCKEND  ---      ---       LVL=0

      0100C0FDH   BLOCK     CODE     ---       LVL=0
LX51 LINKER/LOCATER V4.64.0.0                                                         06/11/2018  11:54:47  PAGE 129


      00000007H   SYMBOL    DATA     BYTE      modeBitMask
      0100C0FDH   LINE      CODE     ---       #332
      0100C0FDH   LINE      CODE     ---       #333
      0100C0FDH   LINE      CODE     ---       #334
      0100C109H   LINE      CODE     ---       #335
      ---         BLOCKEND  ---      ---       LVL=0
      00000007H   SYMBOL    DATA     BYTE      modeBitMask
      00000007H   SYMBOL    DATA     BYTE      oldSrc

      0100C202H   BLOCK     CODE     ---       LVL=0
      0100C202H   LINE      CODE     ---       #464
      0100C202H   LINE      CODE     ---       #465
      0100C202H   LINE      CODE     ---       #466
      0100C209H   LINE      CODE     ---       #467
      ---         BLOCKEND  ---      ---       LVL=0
      00000007H   SYMBOL    DATA     BYTE      clkPhase

      ---         MODULE    ---      ---       CYFLASH
      02000E80H   PUBLIC    XDATA    ---       dieTemperature
      0100BB05H   PUBLIC    CODE     ---       CyEEPROM_Start
      0100BEB2H   PUBLIC    CODE     ---       CySetTemp
      000000CAH   SFRSYM    DATA     BYTE      SFRPRT5SEL
      000000DAH   SFRSYM    DATA     BYTE      SFRPRT6SEL
      000000D0H.6 SFRSYM    DATA     BIT       AC
      000000A8H.7 SFRSYM    DATA     BIT       EA
      000000A8H   SFRSYM    DATA     BYTE      IE
      00000085H   SFRSYM    DATA     BYTE      DPH1
      00000084H   SFRSYM    DATA     BYTE      DPL1
      000000D0H.7 SFRSYM    DATA     BIT       CY
      000000A0H   SFRSYM    DATA     BYTE      P2AX
      00000095H   SFRSYM    DATA     BYTE      DPX1
      00000081H   SFRSYM    DATA     BYTE      SP
      000000D0H.2 SFRSYM    DATA     BIT       OV
      00000080H   SFRSYM    DATA     BYTE      SFRPRT0DR
      00000090H   SFRSYM    DATA     BYTE      SFRPRT1DR
      000000F2H   SFRSYM    DATA     BYTE      SFRPRT12SEL
      00000098H   SFRSYM    DATA     BYTE      SFRPRT2DR
      000000B0H   SFRSYM    DATA     BYTE      SFRPRT3DR
      000000C0H   SFRSYM    DATA     BYTE      SFRPRT4DR
      000000FAH   SFRSYM    DATA     BYTE      SFRPRT15SEL
      000000C8H   SFRSYM    DATA     BYTE      SFRPRT5DR
      000000D8H   SFRSYM    DATA     BYTE      SFRPRT6DR
      00000089H   SFRSYM    DATA     BYTE      SFRPRT0PS
      00000091H   SFRSYM    DATA     BYTE      SFRPRT1PS
      00000099H   SFRSYM    DATA     BYTE      SFRPRT2PS
      000000B1H   SFRSYM    DATA     BYTE      SFRPRT3PS
      000000C1H   SFRSYM    DATA     BYTE      SFRPRT4PS
      000000C9H   SFRSYM    DATA     BYTE      SFRPRT5PS
      000000D9H   SFRSYM    DATA     BYTE      SFRPRT6PS
      000000EAH   SFRSYM    DATA     BYTE      MXAX
      000000F0H   SFRSYM    DATA     BYTE      B
      000000E0H   SFRSYM    DATA     BYTE      ACC
      000000D0H   SFRSYM    DATA     BIT       P
      000000D0H.3 SFRSYM    DATA     BIT       RS0
      000000D0H.4 SFRSYM    DATA     BIT       RS1
      00000083H   SFRSYM    DATA     BYTE      DPH
      000000E8H   SFRSYM    DATA     BYTE      SFRPRT12DR
      00000082H   SFRSYM    DATA     BYTE      DPL
      000000F8H   SFRSYM    DATA     BYTE      SFRPRT15DR
      00000086H   SFRSYM    DATA     BYTE      DPS
      000000E9H   SFRSYM    DATA     BYTE      SFRPRT12PS
      00000093H   SFRSYM    DATA     BYTE      DPX
      000000F9H   SFRSYM    DATA     BYTE      SFRPRT15PS
      000000D0H.5 SFRSYM    DATA     BIT       F0
      000000D0H.1 SFRSYM    DATA     BIT       F1
LX51 LINKER/LOCATER V4.64.0.0                                                         06/11/2018  11:54:47  PAGE 130


      0000008AH   SFRSYM    DATA     BYTE      SFRPRT0SEL
      000000D0H   SFRSYM    DATA     BYTE      PSW
      000000A2H   SFRSYM    DATA     BYTE      SFRPRT1SEL
      0000009AH   SFRSYM    DATA     BYTE      SFRPRT2SEL
      000000B2H   SFRSYM    DATA     BYTE      SFRPRT3SEL
      000000C2H   SFRSYM    DATA     BYTE      SFRPRT4SEL
      0100B546H   SYMBOL    CODE     ---       CyFlashGetSpcAlgorithm
      0100B448H   SYMBOL    CODE     ---       CySetTempInt
      02000E7DH   SYMBOL    XDATA    ---       rowBuffer
      00000007H   SYMBOL    DATA     BYTE      interruptState
      00000007H   SYMBOL    DATA     BYTE      interruptState

      0100B448H   BLOCK     CODE     ---       LVL=0
      0100B448H   BLOCK     CODE     NEAR LAB  LVL=1
      02000031H   SYMBOL    XDATA    BYTE      status
      ---         BLOCKEND  ---      ---       LVL=1
      0100B448H   LINE      CODE     ---       #155
      0100B448H   LINE      CODE     ---       #156
      0100B448H   LINE      CODE     ---       #160
      0100B44BH   LINE      CODE     ---       #163
      0100B451H   LINE      CODE     ---       #165
      0100B457H   LINE      CODE     ---       #166
      0100B457H   LINE      CODE     ---       #168
      0100B461H   LINE      CODE     ---       #169
      0100B461H   LINE      CODE     ---       #171
      0100B461H   LINE      CODE     ---       #172
      0100B470H   LINE      CODE     ---       #173
      0100B470H   LINE      CODE     ---       #174
      0100B475H   LINE      CODE     ---       #176
      0100B47DH   LINE      CODE     ---       #177
      0100B47DH   LINE      CODE     ---       #179
      0100B483H   LINE      CODE     ---       #180
      0100B485H   LINE      CODE     ---       #181
      0100B485H   LINE      CODE     ---       #182
      0100B485H   LINE      CODE     ---       #184
      0100B48DH   LINE      CODE     ---       #185
      0100B48DH   LINE      CODE     ---       #187
      0100B490H   LINE      CODE     ---       #188
      0100B492H   LINE      CODE     ---       #190
      0100B492H   LINE      CODE     ---       #191
      0100B498H   LINE      CODE     ---       #192
      0100B498H   LINE      CODE     ---       #194
      0100B49DH   LINE      CODE     ---       #195
      ---         BLOCKEND  ---      ---       LVL=0

      0100B546H   BLOCK     CODE     ---       LVL=0
      0100B546H   BLOCK     CODE     NEAR LAB  LVL=1
      02000031H   SYMBOL    XDATA    BYTE      status
      ---         BLOCKEND  ---      ---       LVL=1
      0100B546H   LINE      CODE     ---       #215
      0100B546H   LINE      CODE     ---       #216
      0100B546H   LINE      CODE     ---       #220
      0100B549H   LINE      CODE     ---       #222
      0100B54FH   LINE      CODE     ---       #223
      0100B54FH   LINE      CODE     ---       #224
      0100B557H   LINE      CODE     ---       #226
      0100B55BH   LINE      CODE     ---       #227
      0100B55BH   LINE      CODE     ---       #228
      0100B563H   LINE      CODE     ---       #229
      0100B563H   LINE      CODE     ---       #231
      0100B569H   LINE      CODE     ---       #232
      0100B56BH   LINE      CODE     ---       #234
      0100B581H   LINE      CODE     ---       #235
      0100B581H   LINE      CODE     ---       #236
      0100B585H   LINE      CODE     ---       #237
LX51 LINKER/LOCATER V4.64.0.0                                                         06/11/2018  11:54:47  PAGE 131


      0100B585H   LINE      CODE     ---       #238
      0100B585H   LINE      CODE     ---       #239
      0100B588H   LINE      CODE     ---       #240
      0100B58AH   LINE      CODE     ---       #242
      0100B58AH   LINE      CODE     ---       #243
      0100B590H   LINE      CODE     ---       #244
      0100B590H   LINE      CODE     ---       #246
      0100B595H   LINE      CODE     ---       #247
      ---         BLOCKEND  ---      ---       LVL=0

      0100BEB2H   BLOCK     CODE     ---       LVL=0
      0100BEB2H   BLOCK     CODE     NEAR LAB  LVL=1
      02000030H   SYMBOL    XDATA    BYTE      status
      ---         BLOCKEND  ---      ---       LVL=1
      0100BEB2H   LINE      CODE     ---       #273
      0100BEB2H   LINE      CODE     ---       #274
      0100BEB2H   LINE      CODE     ---       #275
      0100BEBAH   LINE      CODE     ---       #277
      0100BEBCH   LINE      CODE     ---       #278
      0100BEBCH   LINE      CODE     ---       #279
      0100BEC4H   LINE      CODE     ---       #280
      0100BEC4H   LINE      CODE     ---       #282
      0100BEC9H   LINE      CODE     ---       #283
      ---         BLOCKEND  ---      ---       LVL=0
      00000004H   SYMBOL    DATA     WORD      rowAddress
      00000001H   SYMBOL    DATA     ---       rowData
      00000007H   SYMBOL    DATA     BYTE      status
      00000007H   SYMBOL    DATA     BYTE      interruptState

      0100BB05H   BLOCK     CODE     ---       LVL=0
      0100BB05H   BLOCK     CODE     NEAR LAB  LVL=1
      00000007H   SYMBOL    DATA     BYTE      interruptState
      ---         BLOCKEND  ---      ---       LVL=1
      0100BB05H   LINE      CODE     ---       #636
      0100BB05H   LINE      CODE     ---       #637
      0100BB05H   LINE      CODE     ---       #640
      0100BB08H   LINE      CODE     ---       #647
      0100BB0FH   LINE      CODE     ---       #648
      0100BB16H   LINE      CODE     ---       #661
      0100BB1CH   LINE      CODE     ---       #668
      0100BB23H   LINE      CODE     ---       #669
      0100BB2AH   LINE      CODE     ---       #671
      0100BB32H   LINE      CODE     ---       #672
      0100BB32H   LINE      CODE     ---       #674
      0100BB32H   LINE      CODE     ---       #676
      0100BB35H   LINE      CODE     ---       #677
      ---         BLOCKEND  ---      ---       LVL=0
      00000007H   SYMBOL    DATA     BYTE      interruptState

      ---         MODULE    ---      ---       CYPM
      000000CAH   SFRSYM    DATA     BYTE      SFRPRT5SEL
      000000DAH   SFRSYM    DATA     BYTE      SFRPRT6SEL
      000000D0H.6 SFRSYM    DATA     BIT       AC
      000000A8H.7 SFRSYM    DATA     BIT       EA
      000000A8H   SFRSYM    DATA     BYTE      IE
      00000085H   SFRSYM    DATA     BYTE      DPH1
      00000084H   SFRSYM    DATA     BYTE      DPL1
      000000D0H.7 SFRSYM    DATA     BIT       CY
      000000A0H   SFRSYM    DATA     BYTE      P2AX
      00000095H   SFRSYM    DATA     BYTE      DPX1
      00000081H   SFRSYM    DATA     BYTE      SP
      000000D0H.2 SFRSYM    DATA     BIT       OV
      00000080H   SFRSYM    DATA     BYTE      SFRPRT0DR
      00000090H   SFRSYM    DATA     BYTE      SFRPRT1DR
      000000F2H   SFRSYM    DATA     BYTE      SFRPRT12SEL
LX51 LINKER/LOCATER V4.64.0.0                                                         06/11/2018  11:54:47  PAGE 132


      00000098H   SFRSYM    DATA     BYTE      SFRPRT2DR
      000000B0H   SFRSYM    DATA     BYTE      SFRPRT3DR
      000000C0H   SFRSYM    DATA     BYTE      SFRPRT4DR
      000000FAH   SFRSYM    DATA     BYTE      SFRPRT15SEL
      000000C8H   SFRSYM    DATA     BYTE      SFRPRT5DR
      000000D8H   SFRSYM    DATA     BYTE      SFRPRT6DR
      00000089H   SFRSYM    DATA     BYTE      SFRPRT0PS
      00000091H   SFRSYM    DATA     BYTE      SFRPRT1PS
      00000099H   SFRSYM    DATA     BYTE      SFRPRT2PS
      000000B1H   SFRSYM    DATA     BYTE      SFRPRT3PS
      000000C1H   SFRSYM    DATA     BYTE      SFRPRT4PS
      000000C9H   SFRSYM    DATA     BYTE      SFRPRT5PS
      000000D9H   SFRSYM    DATA     BYTE      SFRPRT6PS
      000000EAH   SFRSYM    DATA     BYTE      MXAX
      000000F0H   SFRSYM    DATA     BYTE      B
      000000E0H   SFRSYM    DATA     BYTE      ACC
      000000D0H   SFRSYM    DATA     BIT       P
      000000D0H.3 SFRSYM    DATA     BIT       RS0
      000000D0H.4 SFRSYM    DATA     BIT       RS1
      00000083H   SFRSYM    DATA     BYTE      DPH
      000000E8H   SFRSYM    DATA     BYTE      SFRPRT12DR
      00000082H   SFRSYM    DATA     BYTE      DPL
      000000F8H   SFRSYM    DATA     BYTE      SFRPRT15DR
      00000086H   SFRSYM    DATA     BYTE      DPS
      000000E9H   SFRSYM    DATA     BYTE      SFRPRT12PS
      00000093H   SFRSYM    DATA     BYTE      DPX
      000000F9H   SFRSYM    DATA     BYTE      SFRPRT15PS
      000000D0H.5 SFRSYM    DATA     BIT       F0
      000000D0H.1 SFRSYM    DATA     BIT       F1
      0000008AH   SFRSYM    DATA     BYTE      SFRPRT0SEL
      000000D0H   SFRSYM    DATA     BYTE      PSW
      000000A2H   SFRSYM    DATA     BYTE      SFRPRT1SEL
      0000009AH   SFRSYM    DATA     BYTE      SFRPRT2SEL
      000000B2H   SFRSYM    DATA     BYTE      SFRPRT3SEL
      000000C2H   SFRSYM    DATA     BYTE      SFRPRT4SEL
      02000DC7H   SYMBOL    XDATA    ---       cyPmClockBackup
      02000DD7H   SYMBOL    XDATA    ---       cyPmBackup
      00000006H   SYMBOL    DATA     WORD      clkBusDivTmp
      02000DC6H   SYMBOL    XDATA    BYTE      interruptStatus
      00000005H   SYMBOL    DATA     BYTE      interruptState

      ---         MODULE    ---      ---       CYSPC
      02000E93H   PUBLIC    XDATA    BYTE      SpcLockState
      0100BE03H   PUBLIC    CODE     ---       CySpcGetAlgorithm
      0100C122H   PUBLIC    CODE     ---       CySpcUnlock
      0100BDAAH   PUBLIC    CODE     ---       CySpcLock
      0100BBC5H   PUBLIC    CODE     ---       _CySpcGetTemp
      02000035H   PUBLIC    XDATA    BYTE      ?_CySpcWriteRow?BYTE
      0100B4F2H   PUBLIC    CODE     ---       _CySpcWriteRow
      02000035H   PUBLIC    XDATA    BYTE      ?_CySpcLoadRow?BYTE
      0100B113H   PUBLIC    CODE     ---       _CySpcLoadRow
      0100B333H   PUBLIC    CODE     ---       _CySpcReadData
      0100BF0BH   PUBLIC    CODE     ---       CySpcStart
      000000CAH   SFRSYM    DATA     BYTE      SFRPRT5SEL
      000000DAH   SFRSYM    DATA     BYTE      SFRPRT6SEL
      000000D0H.6 SFRSYM    DATA     BIT       AC
      000000A8H.7 SFRSYM    DATA     BIT       EA
      000000A8H   SFRSYM    DATA     BYTE      IE
      00000085H   SFRSYM    DATA     BYTE      DPH1
      00000084H   SFRSYM    DATA     BYTE      DPL1
      000000D0H.7 SFRSYM    DATA     BIT       CY
      000000A0H   SFRSYM    DATA     BYTE      P2AX
      00000095H   SFRSYM    DATA     BYTE      DPX1
      00000081H   SFRSYM    DATA     BYTE      SP
      000000D0H.2 SFRSYM    DATA     BIT       OV
LX51 LINKER/LOCATER V4.64.0.0                                                         06/11/2018  11:54:47  PAGE 133


      00000080H   SFRSYM    DATA     BYTE      SFRPRT0DR
      00000090H   SFRSYM    DATA     BYTE      SFRPRT1DR
      000000F2H   SFRSYM    DATA     BYTE      SFRPRT12SEL
      00000098H   SFRSYM    DATA     BYTE      SFRPRT2DR
      000000B0H   SFRSYM    DATA     BYTE      SFRPRT3DR
      000000C0H   SFRSYM    DATA     BYTE      SFRPRT4DR
      000000FAH   SFRSYM    DATA     BYTE      SFRPRT15SEL
      000000C8H   SFRSYM    DATA     BYTE      SFRPRT5DR
      000000D8H   SFRSYM    DATA     BYTE      SFRPRT6DR
      00000089H   SFRSYM    DATA     BYTE      SFRPRT0PS
      00000091H   SFRSYM    DATA     BYTE      SFRPRT1PS
      00000099H   SFRSYM    DATA     BYTE      SFRPRT2PS
      000000B1H   SFRSYM    DATA     BYTE      SFRPRT3PS
      000000C1H   SFRSYM    DATA     BYTE      SFRPRT4PS
      000000C9H   SFRSYM    DATA     BYTE      SFRPRT5PS
      000000D9H   SFRSYM    DATA     BYTE      SFRPRT6PS
      000000EAH   SFRSYM    DATA     BYTE      MXAX
      000000F0H   SFRSYM    DATA     BYTE      B
      000000E0H   SFRSYM    DATA     BYTE      ACC
      000000D0H   SFRSYM    DATA     BIT       P
      000000D0H.3 SFRSYM    DATA     BIT       RS0
      000000D0H.4 SFRSYM    DATA     BIT       RS1
      00000083H   SFRSYM    DATA     BYTE      DPH
      000000E8H   SFRSYM    DATA     BYTE      SFRPRT12DR
      00000082H   SFRSYM    DATA     BYTE      DPL
      000000F8H   SFRSYM    DATA     BYTE      SFRPRT15DR
      00000086H   SFRSYM    DATA     BYTE      DPS
      000000E9H   SFRSYM    DATA     BYTE      SFRPRT12PS
      00000093H   SFRSYM    DATA     BYTE      DPX
      000000F9H   SFRSYM    DATA     BYTE      SFRPRT15PS
      000000D0H.5 SFRSYM    DATA     BIT       F0
      000000D0H.1 SFRSYM    DATA     BIT       F1
      0000008AH   SFRSYM    DATA     BYTE      SFRPRT0SEL
      000000D0H   SFRSYM    DATA     BYTE      PSW
      000000A2H   SFRSYM    DATA     BYTE      SFRPRT1SEL
      0000009AH   SFRSYM    DATA     BYTE      SFRPRT2SEL
      000000B2H   SFRSYM    DATA     BYTE      SFRPRT3SEL
      000000C2H   SFRSYM    DATA     BYTE      SFRPRT4SEL

      0100BF0BH   BLOCK     CODE     ---       LVL=0
      0100BF0BH   BLOCK     CODE     NEAR LAB  LVL=1
      00000007H   SYMBOL    DATA     BYTE      interruptState
      ---         BLOCKEND  ---      ---       LVL=1
      0100BF0BH   LINE      CODE     ---       #78
      0100BF0BH   LINE      CODE     ---       #79
      0100BF0BH   LINE      CODE     ---       #81
      0100BF0EH   LINE      CODE     ---       #83
      0100BF15H   LINE      CODE     ---       #84
      0100BF1CH   LINE      CODE     ---       #87
      0100BF1FH   LINE      CODE     ---       #88
      ---         BLOCKEND  ---      ---       LVL=0
      00000007H   SYMBOL    DATA     BYTE      interruptState

      0100B333H   BLOCK     CODE     ---       LVL=0
      02000032H   SYMBOL    XDATA    ---       buffer
      02000035H   SYMBOL    XDATA    BYTE      size
      0100B341H   BLOCK     CODE     NEAR LAB  LVL=1
      02000036H   SYMBOL    XDATA    BYTE      i
      ---         BLOCKEND  ---      ---       LVL=1
      0100B333H   LINE      CODE     ---       #135
      0100B341H   LINE      CODE     ---       #136
      0100B341H   LINE      CODE     ---       #139
      0100B34FH   LINE      CODE     ---       #140
      0100B34FH   LINE      CODE     ---       #141
      0100B35DH   LINE      CODE     ---       #142
LX51 LINKER/LOCATER V4.64.0.0                                                         06/11/2018  11:54:47  PAGE 134


      0100B35DH   LINE      CODE     ---       #143
      0100B364H   LINE      CODE     ---       #144
      0100B366H   LINE      CODE     ---       #145
      0100B385H   LINE      CODE     ---       #146
      0100B38DH   LINE      CODE     ---       #148
      0100B392H   LINE      CODE     ---       #149
      ---         BLOCKEND  ---      ---       LVL=0
      00000005H   SYMBOL    DATA     BYTE      status
      00000007H   SYMBOL    DATA     BYTE      i

      0100B113H   BLOCK     CODE     ---       LVL=0
      00000007H   SYMBOL    DATA     BYTE      array
      02000036H   SYMBOL    XDATA    ---       buffer
      02000039H   SYMBOL    XDATA    WORD      size
      0100B11EH   BLOCK     CODE     NEAR LAB  LVL=1
      0200003BH   SYMBOL    XDATA    BYTE      status
      00000006H   SYMBOL    DATA     WORD      i
      ---         BLOCKEND  ---      ---       LVL=1
      0100B113H   LINE      CODE     ---       #258
      0100B11EH   LINE      CODE     ---       #259
      0100B11EH   LINE      CODE     ---       #260
      0100B124H   LINE      CODE     ---       #264
      0100B12CH   LINE      CODE     ---       #265
      0100B12CH   LINE      CODE     ---       #266
      0100B132H   LINE      CODE     ---       #267
      0100B135H   LINE      CODE     ---       #268
      0100B138H   LINE      CODE     ---       #271
      0100B140H   LINE      CODE     ---       #272
      0100B140H   LINE      CODE     ---       #273
      0100B145H   LINE      CODE     ---       #275
      0100B155H   LINE      CODE     ---       #276
      0100B155H   LINE      CODE     ---       #277
      0100B16BH   LINE      CODE     ---       #278
      0100B172H   LINE      CODE     ---       #279
      0100B172H   LINE      CODE     ---       #281
      0100B172H   LINE      CODE     ---       #282
      0100B178H   LINE      CODE     ---       #283
      0100B178H   LINE      CODE     ---       #284
      0100B17AH   LINE      CODE     ---       #286
      0100B17AH   LINE      CODE     ---       #287
      0100B180H   LINE      CODE     ---       #288
      0100B180H   LINE      CODE     ---       #290
      0100B185H   LINE      CODE     ---       #291
      ---         BLOCKEND  ---      ---       LVL=0

      0100B4F2H   BLOCK     CODE     ---       LVL=0
      00000004H   SYMBOL    DATA     BYTE      array
      02000036H   SYMBOL    XDATA    WORD      address
      00000003H   SYMBOL    DATA     BYTE      tempPolarity
      02000039H   SYMBOL    XDATA    BYTE      tempMagnitude
      0100B4FCH   BLOCK     CODE     NEAR LAB  LVL=1
      00000005H   SYMBOL    DATA     BYTE      status
      ---         BLOCKEND  ---      ---       LVL=1
      0100B4F2H   LINE      CODE     ---       #464
      0100B4FCH   LINE      CODE     ---       #466
      0100B4FCH   LINE      CODE     ---       #467
      0100B4FEH   LINE      CODE     ---       #470
      0100B506H   LINE      CODE     ---       #471
      0100B506H   LINE      CODE     ---       #472
      0100B50CH   LINE      CODE     ---       #473
      0100B50FH   LINE      CODE     ---       #474
      0100B512H   LINE      CODE     ---       #477
      0100B51AH   LINE      CODE     ---       #478
      0100B51AH   LINE      CODE     ---       #479
      0100B51FH   LINE      CODE     ---       #480
LX51 LINKER/LOCATER V4.64.0.0                                                         06/11/2018  11:54:47  PAGE 135


      0100B527H   LINE      CODE     ---       #481
      0100B531H   LINE      CODE     ---       #482
      0100B533H   LINE      CODE     ---       #483
      0100B53BH   LINE      CODE     ---       #484
      0100B53DH   LINE      CODE     ---       #486
      0100B53DH   LINE      CODE     ---       #487
      0100B53FH   LINE      CODE     ---       #488
      0100B53FH   LINE      CODE     ---       #489
      0100B541H   LINE      CODE     ---       #491
      0100B541H   LINE      CODE     ---       #492
      0100B543H   LINE      CODE     ---       #493
      0100B543H   LINE      CODE     ---       #495
      0100B545H   LINE      CODE     ---       #496
      ---         BLOCKEND  ---      ---       LVL=0
      00000007H   SYMBOL    DATA     BYTE      array
      00000005H   SYMBOL    DATA     BYTE      sectorNumber
      00000006H   SYMBOL    DATA     BYTE      status

      0100BBC5H   BLOCK     CODE     ---       LVL=0
      00000007H   SYMBOL    DATA     BYTE      numSamples
      0100BBC5H   BLOCK     CODE     NEAR LAB  LVL=1
      00000006H   SYMBOL    DATA     BYTE      status
      ---         BLOCKEND  ---      ---       LVL=1
      0100BBC5H   LINE      CODE     ---       #573
      0100BBC5H   LINE      CODE     ---       #574
      0100BBC5H   LINE      CODE     ---       #575
      0100BBC7H   LINE      CODE     ---       #578
      0100BBCFH   LINE      CODE     ---       #579
      0100BBCFH   LINE      CODE     ---       #580
      0100BBD5H   LINE      CODE     ---       #581
      0100BBD8H   LINE      CODE     ---       #582
      0100BBDBH   LINE      CODE     ---       #585
      0100BBE3H   LINE      CODE     ---       #586
      0100BBE3H   LINE      CODE     ---       #587
      0100BBE8H   LINE      CODE     ---       #588
      0100BBEAH   LINE      CODE     ---       #590
      0100BBEAH   LINE      CODE     ---       #591
      0100BBECH   LINE      CODE     ---       #592
      0100BBECH   LINE      CODE     ---       #593
      0100BBEEH   LINE      CODE     ---       #595
      0100BBEEH   LINE      CODE     ---       #596
      0100BBF0H   LINE      CODE     ---       #597
      0100BBF0H   LINE      CODE     ---       #599
      0100BBF2H   LINE      CODE     ---       #600
      ---         BLOCKEND  ---      ---       LVL=0

      0100BDAAH   BLOCK     CODE     ---       LVL=0
      0100BDAAH   BLOCK     CODE     NEAR LAB  LVL=1
      02000035H   SYMBOL    XDATA    BYTE      status
      00000007H   SYMBOL    DATA     BYTE      interruptState
      ---         BLOCKEND  ---      ---       LVL=1
      0100BDAAH   LINE      CODE     ---       #618
      0100BDAAH   LINE      CODE     ---       #619
      0100BDAAH   LINE      CODE     ---       #620
      0100BDB0H   LINE      CODE     ---       #624
      0100BDB3H   LINE      CODE     ---       #626
      0100BDB9H   LINE      CODE     ---       #627
      0100BDB9H   LINE      CODE     ---       #628
      0100BDBBH   LINE      CODE     ---       #629
      0100BDC0H   LINE      CODE     ---       #647
      0100BDC0H   LINE      CODE     ---       #650
      0100BDC3H   LINE      CODE     ---       #652
      0100BDC8H   LINE      CODE     ---       #653
      ---         BLOCKEND  ---      ---       LVL=0

LX51 LINKER/LOCATER V4.64.0.0                                                         06/11/2018  11:54:47  PAGE 136


      0100C122H   BLOCK     CODE     ---       LVL=0
      0100C122H   BLOCK     CODE     NEAR LAB  LVL=1
      00000007H   SYMBOL    DATA     BYTE      interruptState
      ---         BLOCKEND  ---      ---       LVL=1
      0100C122H   LINE      CODE     ---       #670
      0100C122H   LINE      CODE     ---       #671
      0100C122H   LINE      CODE     ---       #675
      0100C125H   LINE      CODE     ---       #678
      0100C12AH   LINE      CODE     ---       #698
      0100C12DH   LINE      CODE     ---       #699
      ---         BLOCKEND  ---      ---       LVL=0

      0100BE03H   BLOCK     CODE     ---       LVL=0
      0100BE03H   BLOCK     CODE     NEAR LAB  LVL=1
      00000007H   SYMBOL    DATA     BYTE      status
      ---         BLOCKEND  ---      ---       LVL=1
      0100BE03H   LINE      CODE     ---       #716
      0100BE03H   LINE      CODE     ---       #717
      0100BE03H   LINE      CODE     ---       #718
      0100BE05H   LINE      CODE     ---       #721
      0100BE0DH   LINE      CODE     ---       #722
      0100BE0DH   LINE      CODE     ---       #723
      0100BE13H   LINE      CODE     ---       #724
      0100BE16H   LINE      CODE     ---       #725
      0100BE19H   LINE      CODE     ---       #726
      0100BE1BH   LINE      CODE     ---       #728
      0100BE1BH   LINE      CODE     ---       #729
      0100BE1DH   LINE      CODE     ---       #730
      0100BE1DH   LINE      CODE     ---       #732
      0100BE1DH   LINE      CODE     ---       #733
      ---         BLOCKEND  ---      ---       LVL=0

      ---         MODULE    ---      ---       ?C?FPMUL
      01006F20H   PUBLIC    CODE     ---       ?C?FPMUL

      ---         MODULE    ---      ---       ?C?FPDIV
      01007029H   PUBLIC    CODE     ---       ?C?FPDIV

      ---         MODULE    ---      ---       ?C?FPCMP
      010070C8H   PUBLIC    CODE     ---       ?C?FPCMP
      010070C6H   PUBLIC    CODE     ---       ?C?FPCMP3

      ---         MODULE    ---      ---       ?C?FCAST
      01007149H   PUBLIC    CODE     ---       ?C?FCASTC
      01007144H   PUBLIC    CODE     ---       ?C?FCASTI
      0100713FH   PUBLIC    CODE     ---       ?C?FCASTL

      ---         MODULE    ---      ---       ?C?CASTF
      0100717DH   PUBLIC    CODE     ---       ?C?CASTF

      ---         MODULE    ---      ---       PRINTF
      0200063AH   PUBLIC    XDATA    ---       ?_PRINTF?BYTE
      0200063AH   PUBLIC    XDATA    ---       ?_SPRINTF?BYTE
      01007A41H   PUBLIC    CODE     ---       _PRINTF
      01007A3BH   PUBLIC    CODE     ---       _SPRINTF

      ---         MODULE    ---      ---       ?C?FPGETOPN
      010071B4H   PUBLIC    CODE     ---       ?C?FPGETOPN2
      010071E9H   PUBLIC    CODE     ---       ?C?FPNANRESULT
      010071F3H   PUBLIC    CODE     ---       ?C?FPOVERFLOW
      010071CBH   PUBLIC    CODE     ---       ?C?FPRESULT
      010071DFH   PUBLIC    CODE     ---       ?C?FPRESULT2
      010071F0H   PUBLIC    CODE     ---       ?C?FPUNDERFLOW

      ---         MODULE    ---      ---       ?C?FPROUND
LX51 LINKER/LOCATER V4.64.0.0                                                         06/11/2018  11:54:47  PAGE 137


      010071FEH   PUBLIC    CODE     ---       ?C?FPROUND

      ---         MODULE    ---      ---       ?C?FPCONVERT
      0100723BH   PUBLIC    CODE     ---       ?C?FPCONVERT

      ---         MODULE    ---      ---       ?C?FPADD
      01007347H   PUBLIC    CODE     ---       ?C?FPADD
      01007343H   PUBLIC    CODE     ---       ?C?FPSUB

      ---         MODULE    ---      ---       ?C?FTNPWR
      01007468H   PUBLIC    CODE     ---       ?C?FTNPWR

      ---         MODULE    ---      ---       ?C_INIT
      0100A26FH   PUBLIC    CODE     ---       ?C_START

      ---         MODULE    ---      ---       ?C?CLDPTR
      010074A8H   PUBLIC    CODE     ---       ?C?CLDPTR

      ---         MODULE    ---      ---       ?C?CLDOPTR
      010074C1H   PUBLIC    CODE     ---       ?C?CLDOPTR

      ---         MODULE    ---      ---       ?C?CSTPTR
      010074EEH   PUBLIC    CODE     ---       ?C?CSTPTR

      ---         MODULE    ---      ---       ?C?IMUL
      01007500H   PUBLIC    CODE     ---       ?C?IMUL

      ---         MODULE    ---      ---       ?C?ISTPTR
      01007512H   PUBLIC    CODE     ---       ?C?ISTPTR

      ---         MODULE    ---      ---       ?C?LMUL
      01007531H   PUBLIC    CODE     ---       ?C?LMUL

      ---         MODULE    ---      ---       ?C?ULDIV
      010075BCH   PUBLIC    CODE     ---       ?C?ULDIV

      ---         MODULE    ---      ---       ?C?SLDIV
      0100B754H   PUBLIC    CODE     ---       ?C?SLDIV

      ---         MODULE    ---      ---       ?C?LNOT
      0100764EH   PUBLIC    CODE     ---       ?C?LNOT

      ---         MODULE    ---      ---       ?C?LNEG
      0100765BH   PUBLIC    CODE     ---       ?C?LNEG

      ---         MODULE    ---      ---       ?C?SLCMP
      01007669H   PUBLIC    CODE     ---       ?C?SLCMP

      ---         MODULE    ---      ---       ?C?ULCMP
      0100767FH   PUBLIC    CODE     ---       ?C?ULCMP

      ---         MODULE    ---      ---       ?C?ULSHR
      01007690H   PUBLIC    CODE     ---       ?C?ULSHR

      ---         MODULE    ---      ---       ?C?SLSHR
      010076A3H   PUBLIC    CODE     ---       ?C?SLSHR

      ---         MODULE    ---      ---       ?C?LSHL
      010076B7H   PUBLIC    CODE     ---       ?C?LSHL

      ---         MODULE    ---      ---       ?C?LLDPTR
      010076CAH   PUBLIC    CODE     ---       ?C?LLDPTR

      ---         MODULE    ---      ---       ?C?LSTPTR
      010076EAH   PUBLIC    CODE     ---       ?C?LSTPTR
LX51 LINKER/LOCATER V4.64.0.0                                                         06/11/2018  11:54:47  PAGE 138



      ---         MODULE    ---      ---       ?C?LSTXDATA
      01007704H   PUBLIC    CODE     ---       ?C?LSTXDATA

      ---         MODULE    ---      ---       ?C?PLDIXDATA
      01007710H   PUBLIC    CODE     ---       ?C?PLDIXDATA

      ---         MODULE    ---      ---       ?C?PSTXDATA
      01007727H   PUBLIC    CODE     ---       ?C?PSTXDATA

      ---         MODULE    ---      ---       ?C?CCASE
      01007730H   PUBLIC    CODE     ---       ?C?CCASE

      ---         MODULE    ---      ---       ?C_XBP
      0000000EH   PUBLIC    DATA     ---       ?C_XBP

      ---         MODULE    ---      ---       ?C?ADDXBP
      01007756H   PUBLIC    CODE     ---       ?C?ADDXBP

      ---         MODULE    ---      ---       ?C?LIMUL
      0100777AH   PUBLIC    CODE     ---       ?C?LIMUL

      ---         MODULE    ---      ---       PUTCHAR
      0100BC74H   PUBLIC    CODE     ---       _PUTCHAR

      ---         MODULE    ---      ---       ABS
      0100C12EH   PUBLIC    CODE     ---       _ABS

      ---         MODULE    ---      ---       STRCAT
      02000B00H   PUBLIC    XDATA    ---       ?_STRCAT?BYTE
      0100B262H   PUBLIC    CODE     ---       _STRCAT

      ---         MODULE    ---      ---       STRLEN
      0100BF20H   PUBLIC    CODE     ---       _STRLEN

      ---         MODULE    ---      ---       ?C?COPYAMD
      01007863H   PUBLIC    CODE     ---       ?C?COPYAMD

      ---         MODULE    ---      ---       ?C?STRCPYAMD
      01007941H   PUBLIC    CODE     ---       ?C?STRCPYAMD

      ---         MODULE    ---      ---       ?C?IILDX
      0100795EH   PUBLIC    CODE     ---       ?C?IILDX

      ---         MODULE    ---      ---       ?C?ILDIX
      01007974H   PUBLIC    CODE     ---       ?C?ILDIX

      ---         MODULE    ---      ---       ?C?LLDIDATA
      0100798AH   PUBLIC    CODE     ---       ?C?LLDIDATA

      ---         MODULE    ---      ---       ?C?LLDXDATA
      01007996H   PUBLIC    CODE     ---       ?C?LLDXDATA

      ---         MODULE    ---      ---       ?C?LLDPDATA
      010079A2H   PUBLIC    CODE     ---       ?C?LLDPDATA

      ---         MODULE    ---      ---       ?C?LLDCODE
      010079AEH   PUBLIC    CODE     ---       ?C?LLDCODE

      ---         MODULE    ---      ---       ?C?LSTIDATA
      010079BEH   PUBLIC    CODE     ---       ?C?LSTIDATA

      ---         MODULE    ---      ---       ?C?LSTPDATA
      010079CAH   PUBLIC    CODE     ---       ?C?LSTPDATA

LX51 LINKER/LOCATER V4.64.0.0                                                         06/11/2018  11:54:47  PAGE 139




INTER-MODULE CROSS-REFERENCE LISTING


NAME . . . . . . . . . . . . . . . . . . CLASS    MODULE NAMES
==============================================================

?_Bootloadable_SetFlashByte?BYTE . . . . XDATA    BOOTLOADABLE  
?_commWrite?BYTE . . . . . . . . . . . . XDATA    COMMAND_PROCESSING  
?_commWrite_old_id?BYTE. . . . . . . . . XDATA    COMMAND_PROCESSING  
?_cyconfigcpy?BYTE . . . . . . . . . . . XDATA    CYMEM  CYFITTER_CFG  
?_CyDmaChSetConfiguration?BYTE . . . . . XDATA    CYDMAC  DMA_DMA  
?_CyDmaChStatus?BYTE . . . . . . . . . . XDATA    CYDMAC  
?_CyDmaTdGetAddress?BYTE . . . . . . . . XDATA    CYDMAC  
?_CyDmaTdGetConfiguration?BYTE . . . . . XDATA    CYDMAC  
?_CyDmaTdSetConfiguration?BYTE . . . . . XDATA    CYDMAC  MAIN  
?_CySpcLoadMultiByte?BYTE. . . . . . . . XDATA    CYSPC  EEPROM  
?_CySpcLoadRow?BYTE. . . . . . . . . . . XDATA    CYSPC  EEPROM  
?_CySpcLoadRowFull?BYTE. . . . . . . . . XDATA    CYSPC  CYFLASH  
?_CySpcWriteRow?BYTE . . . . . . . . . . XDATA    CYSPC  CYFLASH  EEPROM  
?_CyWriteRowFull?BYTE. . . . . . . . . . XDATA    CYFLASH  
?_DMA_DmaInitialize?BYTE . . . . . . . . XDATA    DMA_DMA  MAIN  
?_PRINTF?BYTE. . . . . . . . . . . . . . XDATA    PRINTF  
?_SPRINTF?BYTE . . . . . . . . . . . . . XDATA    PRINTF  COMMAND_PROCESSING  
?_strcat?BYTE. . . . . . . . . . . . . . XDATA    STRCAT  COMMAND_PROCESSING  
?C?ADDXBP. . . . . . . . . . . . . . . . CODE     ?C?ADDXBP  CYLIB  
?C?CASTF . . . . . . . . . . . . . . . . CODE     ?C?CASTF  ADC  COMMAND_PROCESSING  INTERRUPTIONS  
?C?CCASE . . . . . . . . . . . . . . . . CODE     ?C?CCASE  COMMAND_PROCESSING  PRINTF  
?C?CLDOPTR . . . . . . . . . . . . . . . CODE     ?C?CLDOPTR  PRINTF  
?C?CLDPTR. . . . . . . . . . . . . . . . CODE     ?C?CLDPTR  COMMAND_PROCESSING  CYSPC  PRINTF  STRCAT  STRLEN  UART_RS4
                                                  85  UTILS  
?C?CODESEG . . . . . . . . . . . . . . . NUMBER   ** LX51 GENERATED **  
?C?COPYAMD . . . . . . . . . . . . . . . CODE     ?C?COPYAMD  COMMAND_PROCESSING  INTERRUPTIONS  MAIN  
?C?CSTPTR. . . . . . . . . . . . . . . . CODE     ?C?CSTPTR  CYDMAC  CYSPC  PRINTF  STRCAT  
?C?FCASTC. . . . . . . . . . . . . . . . CODE     ?C?FCAST  
?C?FCASTI. . . . . . . . . . . . . . . . CODE     ?C?FCAST  ADC  COMMAND_PROCESSING  
?C?FCASTL. . . . . . . . . . . . . . . . CODE     ?C?FCAST  ADC  COMMAND_PROCESSING  INTERRUPTIONS  
?C?FPADD . . . . . . . . . . . . . . . . CODE     ?C?FPADD  ?C?FPCONVERT  
?C?FPCMP . . . . . . . . . . . . . . . . CODE     ?C?FPCMP  
?C?FPCMP3. . . . . . . . . . . . . . . . CODE     ?C?FPCMP  ADC  COMMAND_PROCESSING  INTERRUPTIONS  
?C?FPCONVERT . . . . . . . . . . . . . . CODE     ?C?FPCONVERT  PRINTF  
?C?FPDIV . . . . . . . . . . . . . . . . CODE     ?C?FPDIV  ?C?FPCONVERT  ADC  COMMAND_PROCESSING  
?C?FPGETOPN2 . . . . . . . . . . . . . . CODE     ?C?FPGETOPN  ?C?FPADD  ?C?FPDIV  ?C?FPMUL  
?C?FPMUL . . . . . . . . . . . . . . . . CODE     ?C?FPMUL  ?C?FPCONVERT  ?C?FTNPWR  ADC  COMMAND_PROCESSING  INTERRUPTI
                                                  ONS  
?C?FPNANRESULT . . . . . . . . . . . . . CODE     ?C?FPGETOPN  ?C?FPADD  ?C?FPDIV  ?C?FPMUL  
?C?FPOVERFLOW. . . . . . . . . . . . . . CODE     ?C?FPGETOPN  ?C?FPADD  ?C?FPDIV  ?C?FPMUL  
?C?FPRESULT. . . . . . . . . . . . . . . CODE     ?C?FPGETOPN  ?C?FPADD  ?C?FPDIV  ?C?FPMUL  
?C?FPRESULT2 . . . . . . . . . . . . . . CODE     ?C?FPGETOPN  ?C?FPDIV  ?C?FPMUL  
?C?FPROUND . . . . . . . . . . . . . . . CODE     ?C?FPROUND  PRINTF  
?C?FPSUB . . . . . . . . . . . . . . . . CODE     ?C?FPADD  
?C?FPUNDERFLOW . . . . . . . . . . . . . CODE     ?C?FPGETOPN  ?C?FPADD  ?C?FPDIV  ?C?FPMUL  
?C?FTNPWR. . . . . . . . . . . . . . . . CODE     ?C?FTNPWR  ?C?FPCONVERT  
?C?IILDX . . . . . . . . . . . . . . . . CODE     ?C?IILDX  STRCAT  
?C?ILDIX . . . . . . . . . . . . . . . . CODE     ?C?ILDIX  STRCAT  
?C?IMUL. . . . . . . . . . . . . . . . . CODE     ?C?IMUL  INTERRUPTIONS  
?C?ISTPTR. . . . . . . . . . . . . . . . CODE     ?C?ISTPTR  CYDMAC  
?C?LIMUL . . . . . . . . . . . . . . . . CODE     ?C?LIMUL  COMMAND_PROCESSING  CYSPC  
?C?LLDCODE . . . . . . . . . . . . . . . CODE     ?C?LLDCODE  ?C?LLDPTR  
?C?LLDIDATA. . . . . . . . . . . . . . . CODE     ?C?LLDIDATA  ?C?LLDPTR  
?C?LLDPDATA. . . . . . . . . . . . . . . CODE     ?C?LLDPDATA  ?C?LLDPTR  
?C?LLDPTR. . . . . . . . . . . . . . . . CODE     ?C?LLDPTR  CYLIB  
?C?LLDXDATA. . . . . . . . . . . . . . . CODE     ?C?LLDXDATA  ?C?LLDPTR  
?C?LMUL. . . . . . . . . . . . . . . . . CODE     ?C?LMUL  ADC  COMMAND_PROCESSING  CYLIB  CYPM  INTERRUPTIONS  UTILS  
LX51 LINKER/LOCATER V4.64.0.0                                                         06/11/2018  11:54:47  PAGE 140


?C?LNEG. . . . . . . . . . . . . . . . . CODE     ?C?LNEG  ?C?CASTF  ?C?FCAST  MAIN  
?C?LNOT. . . . . . . . . . . . . . . . . CODE     ?C?LNOT  CYDMAC  
?C?LSHL. . . . . . . . . . . . . . . . . CODE     ?C?LSHL  ADC  COMMAND_PROCESSING  CYDMAC  CYLIB  INTERRUPTIONS  UTILS 
                                                   
?C?LSTIDATA. . . . . . . . . . . . . . . CODE     ?C?LSTIDATA  ?C?LSTPTR  
?C?LSTPDATA. . . . . . . . . . . . . . . CODE     ?C?LSTPDATA  ?C?LSTPTR  
?C?LSTPTR. . . . . . . . . . . . . . . . CODE     ?C?LSTPTR  CYLIB  
?C?LSTXDATA. . . . . . . . . . . . . . . CODE     ?C?LSTXDATA  ?C?LSTPTR  ADC  BOOTLOADABLE  COMMAND_PROCESSING  CYDMAC 
                                                   CYFITTER_CFG  CYLIB  CYSPC  INTERRUPTIONS  MAIN  SHIFTREG_ENC_1  SHIF
                                                  TREG_ENC_2  SHIFTREG_ENC_3  SHIFTREG_ENC_4  UTILS  
?C?PLDIXDATA . . . . . . . . . . . . . . CODE     ?C?PLDIXDATA  PRINTF  
?C?PSTXDATA. . . . . . . . . . . . . . . CODE     ?C?PSTXDATA  PRINTF  
?C?SLCMP . . . . . . . . . . . . . . . . CODE     ?C?SLCMP  COMMAND_PROCESSING  INTERRUPTIONS  
?C?SLDIV . . . . . . . . . . . . . . . . CODE     ?C?SLDIV  ADC  COMMAND_PROCESSING  INTERRUPTIONS  UTILS  
?C?SLSHR . . . . . . . . . . . . . . . . CODE     ?C?SLSHR  COMMAND_PROCESSING  INTERRUPTIONS  UTILS  
?C?STRCPYAMD . . . . . . . . . . . . . . CODE     ?C?STRCPYAMD  COMMAND_PROCESSING  
?C?ULCMP . . . . . . . . . . . . . . . . CODE     ?C?ULCMP  COMMAND_PROCESSING  CYDMAC  CYFLASH  
?C?ULDIV . . . . . . . . . . . . . . . . CODE     ?C?ULDIV  ?C?SLDIV  ADC  BOOTLOADABLE  CYLIB  CYPM  
?C?ULSHR . . . . . . . . . . . . . . . . CODE     ?C?ULSHR  COMMAND_PROCESSING  CYLIB  INTERRUPTIONS  
?C?XDATASEG. . . . . . . . . . . . . . . NUMBER   ** LX51 GENERATED **  
?C?XPAGE1RST . . . . . . . . . . . . . . NUMBER   ?C_STARTUP  ADC_INT  INTERRUPTIONS  ISR_RS485_RX  ISR_WATCHDOG  UART_R
                                                  S485_INT  
?C?XPAGE1SFR . . . . . . . . . . . . . . DATA     ?C_STARTUP  ADC_INT  INTERRUPTIONS  ISR_RS485_RX  ISR_WATCHDOG  UART_R
                                                  S485_INT  
?C_START . . . . . . . . . . . . . . . . CODE     ?C_INIT  ?C_STARTUP  
?C_STARTUP . . . . . . . . . . . . . . . CODE     ?C_STARTUP  MAIN  
?C_XBP . . . . . . . . . . . . . . . . . DATA     ?C_XBP  ?C?ADDXBP  ?C_STARTUP  CYLIB  
_?CyDelay. . . . . . . . . . . . . . . . CODE     CYLIB  COMMAND_PROCESSING  CYBOOTASMKEIL  MAIN  
_?CyDelayFreq. . . . . . . . . . . . . . CODE     CYLIB  
_?CyHalt . . . . . . . . . . . . . . . . CODE     CYLIB  
_ABS . . . . . . . . . . . . . . . . . . CODE     ABS  INTERRUPTIONS  
_ADC_AMux_FastSelect . . . . . . . . . . CODE     ADC_AMUX  
_ADC_AMux_Select . . . . . . . . . . . . CODE     ADC_AMUX  ADC  
_ADC_AMux_Set. . . . . . . . . . . . . . CODE     CYFITTER_CFG  ADC_AMUX  
_ADC_AMux_Unset. . . . . . . . . . . . . CODE     CYFITTER_CFG  ADC_AMUX  
_ADC_CountsTo_mVolts . . . . . . . . . . CODE     ADC  
_ADC_CountsTo_uVolts . . . . . . . . . . CODE     ADC  
_ADC_CountsTo_Volts. . . . . . . . . . . CODE     ADC  
_ADC_Ext_CP_Clk_ClearModeRegister. . . . CODE     ADC_EXT_CP_CLK  
_ADC_Ext_CP_Clk_SetDividerRegister . . . CODE     ADC_EXT_CP_CLK  ADC  
_ADC_Ext_CP_Clk_SetModeRegister. . . . . CODE     ADC_EXT_CP_CLK  ADC  
_ADC_Ext_CP_Clk_SetSourceRegister. . . . CODE     ADC_EXT_CP_CLK  
_ADC_Ext_CP_Clk_StandbyPower . . . . . . CODE     ADC_EXT_CP_CLK  
_ADC_IsEndConversion . . . . . . . . . . CODE     ADC  
_ADC_SelectConfiguration . . . . . . . . CODE     ADC  
_ADC_SetBufferGain . . . . . . . . . . . CODE     ADC  
_ADC_SetCoherency. . . . . . . . . . . . CODE     ADC  
_ADC_SetGain . . . . . . . . . . . . . . CODE     ADC  
_ADC_SetGCOR . . . . . . . . . . . . . . CODE     ADC  
_ADC_SetOffset . . . . . . . . . . . . . CODE     ADC  
_ADC_SOC_Write . . . . . . . . . . . . . CODE     ADC_SOC  INTERRUPTIONS  MAIN  
_ADC_STATUS_WriteMask. . . . . . . . . . CODE     ADC_STATUS  
_ADC_theACLK_ClearModeRegister . . . . . CODE     ADC_THEACLK  
_ADC_theACLK_SetDividerRegister. . . . . CODE     ADC_THEACLK  ADC  
_ADC_theACLK_SetModeRegister . . . . . . CODE     ADC_THEACLK  ADC  
_ADC_theACLK_SetPhaseRegister. . . . . . CODE     ADC_THEACLK  
_ADC_theACLK_SetSourceRegister . . . . . CODE     ADC_THEACLK  
_ADC_theACLK_StandbyPower. . . . . . . . CODE     ADC_THEACLK  
_Bootloadable_SetFlashByte . . . . . . . CODE     BOOTLOADABLE  
_cfg_write_bytes . . . . . . . . . . . . CODE     CYMEM  
_cfg_write_bytes_code. . . . . . . . . . CODE     CYMEM  
_check_enc_data. . . . . . . . . . . . . CODE     UTILS  INTERRUPTIONS  
_CLOCK_UART_ClearModeRegister. . . . . . CODE     CLOCK_UART  
_CLOCK_UART_SetDividerRegister . . . . . CODE     CLOCK_UART  COMMAND_PROCESSING  
_CLOCK_UART_SetModeRegister. . . . . . . CODE     CLOCK_UART  
LX51 LINKER/LOCATER V4.64.0.0                                                         06/11/2018  11:54:47  PAGE 141


_CLOCK_UART_SetSourceRegister. . . . . . CODE     CLOCK_UART  
_CLOCK_UART_StandbyPower . . . . . . . . CODE     CLOCK_UART  
_commWrite . . . . . . . . . . . . . . . CODE     COMMAND_PROCESSING  
_commWrite_old_id. . . . . . . . . . . . CODE     COMMAND_PROCESSING  
_COUNTER_ENC_SetInterruptMode. . . . . . CODE     COUNTER_ENC  
_COUNTER_ENC_WriteCompare. . . . . . . . CODE     COUNTER_ENC  
_COUNTER_ENC_WriteControlRegister. . . . CODE     COUNTER_ENC  
_COUNTER_ENC_WriteCounter. . . . . . . . CODE     COUNTER_ENC  
_COUNTER_ENC_WritePeriod . . . . . . . . CODE     COUNTER_ENC  
_CyBusClk_SetDivider . . . . . . . . . . CODE     CYLIB  CYPM  
_cyconfigcpy . . . . . . . . . . . . . . CODE     CYMEM  CYFITTER_CFG  
_cyconfigcpycode . . . . . . . . . . . . CODE     CYMEM  CYFITTER_CFG  
_CyCpuClk_SetDivider . . . . . . . . . . CODE     CYLIB  
_CyDelay . . . . . . . . . . . . . . . . CODE     CYBOOTASMKEIL  
_CyDelayCycles . . . . . . . . . . . . . CODE     CYBOOTASMKEIL  CYFITTER_CFG  CYLIB  CYPM  
_CyDelayUs . . . . . . . . . . . . . . . CODE     CYBOOTASMKEIL  ADC  CYFLASH  CYLIB  CYPM  CYSPC  
_CyDmacClearError. . . . . . . . . . . . CODE     CYDMAC  
_CyDmaChDisable. . . . . . . . . . . . . CODE     CYDMAC  DMA_DMA  
_CyDmaChEnable . . . . . . . . . . . . . CODE     CYDMAC  MAIN  
_CyDmaChFree . . . . . . . . . . . . . . CODE     CYDMAC  
_CyDmaChGetRequest . . . . . . . . . . . CODE     CYDMAC  
_CyDmaChPriority . . . . . . . . . . . . CODE     CYDMAC  DMA_DMA  
_CyDmaChRoundRobin . . . . . . . . . . . CODE     CYDMAC  
_CyDmaChSetConfiguration . . . . . . . . CODE     CYDMAC  DMA_DMA  
_CyDmaChSetExtendedAddress . . . . . . . CODE     CYDMAC  DMA_DMA  
_CyDmaChSetInitialTd . . . . . . . . . . CODE     CYDMAC  MAIN  
_CyDmaChSetRequest . . . . . . . . . . . CODE     CYDMAC  
_CyDmaChStatus . . . . . . . . . . . . . CODE     CYDMAC  
_CyDmaClearPendingDrq. . . . . . . . . . CODE     CYDMAC  
_CyDmaTdFree . . . . . . . . . . . . . . CODE     CYDMAC  
_CyDmaTdGetAddress . . . . . . . . . . . CODE     CYDMAC  
_CyDmaTdGetConfiguration . . . . . . . . CODE     CYDMAC  
_CyDmaTdSetAddress . . . . . . . . . . . CODE     CYDMAC  MAIN  
_CyDmaTdSetConfiguration . . . . . . . . CODE     CYDMAC  MAIN  
_CyEnableInts. . . . . . . . . . . . . . CODE     CYLIB  
_CyExitCriticalSection . . . . . . . . . CODE     CYBOOTASMKEIL  ADC  ADC_STATUS  COUNTER_ENC  CYDMAC  CYFLASH  CYLIB  C
                                                  YPM  CYSPC  EEPROM  FF_STATUS  MY_TIMER  SHIFTREG_ENC_1  SHIFTREG_ENC_
                                                  2  SHIFTREG_ENC_3  SHIFTREG_ENC_4  UART_RS485  
_CyFlash_SetWaitCycles . . . . . . . . . CODE     CYFLASH  CYPM  
_CyGetUniqueId . . . . . . . . . . . . . CODE     CYLIB  
_CyILO_SetPowerMode. . . . . . . . . . . CODE     CYLIB  CYPM  
_CyILO_SetSource . . . . . . . . . . . . CODE     CYLIB  
_CyIMO_SetFreq . . . . . . . . . . . . . CODE     CYLIB  CYPM  
_CyIMO_SetSource . . . . . . . . . . . . CODE     CYLIB  CYPM  
_CyIMO_Start . . . . . . . . . . . . . . CODE     CYLIB  CYPM  
_CyIntGetPriority. . . . . . . . . . . . CODE     CYLIB  
_CyIntGetState . . . . . . . . . . . . . CODE     CYLIB  
_CyIntGetVector. . . . . . . . . . . . . CODE     CYLIB  
_CyIntSetPriority. . . . . . . . . . . . CODE     CYLIB  ADC  UART_RS485  
_CyIntSetVector. . . . . . . . . . . . . CODE     CYLIB  ADC  UART_RS485  
_CyMasterClk_SetDivider. . . . . . . . . CODE     CYLIB  CYPM  
_CyMasterClk_SetSource . . . . . . . . . CODE     CYLIB  CYPM  
_cymemzero . . . . . . . . . . . . . . . CODE     CYMEM  
_CyPLL_OUT_SetPQ . . . . . . . . . . . . CODE     CYLIB  
_CyPLL_OUT_SetSource . . . . . . . . . . CODE     CYLIB  
_CyPLL_OUT_Start . . . . . . . . . . . . CODE     CYLIB  CYPM  
_CyPmAltAct. . . . . . . . . . . . . . . CODE     CYPM  
_CyPmCtwSetInterval. . . . . . . . . . . CODE     CYPM  
_CyPmFtwSetInterval. . . . . . . . . . . CODE     CYPM  CYLIB  
_CyPmHibernateEx . . . . . . . . . . . . CODE     CYPM  
_CyPmReadStatus. . . . . . . . . . . . . CODE     CYPM  CYLIB  
_CyPmSleep . . . . . . . . . . . . . . . CODE     CYPM  
_cyread16. . . . . . . . . . . . . . . . CODE     CYMEM  
_cyread16_nodpx. . . . . . . . . . . . . CODE     CYMEM  ADC  ADC_EXT_CP_CLK  ADC_THEACLK  CLOCK_UART  CYDMAC  CYLIB  IS
                                                  R_RS485_RX  ISR_WATCHDOG  PACER_TIMER  WATCHDOG_COUNTER  
LX51 LINKER/LOCATER V4.64.0.0                                                         06/11/2018  11:54:47  PAGE 142


_cyread24. . . . . . . . . . . . . . . . CODE     CYMEM  
_cyread24_nodpx. . . . . . . . . . . . . CODE     CYMEM  MY_TIMER  SHIFTREG_ENC_1  SHIFTREG_ENC_2  SHIFTREG_ENC_3  SHIFT
                                                  REG_ENC_4  
_cyread32. . . . . . . . . . . . . . . . CODE     CYMEM  
_cyread32_nodpx. . . . . . . . . . . . . CODE     CYMEM  CYDMAC  
_cyread8 . . . . . . . . . . . . . . . . CODE     CYMEM  ADC  CYFITTER_CFG  CYLIB  CYSPC  
_cyread8_nodpx . . . . . . . . . . . . . CODE     CYMEM  
_CySetFlashEEBuffer. . . . . . . . . . . CODE     CYFLASH  
_CySpcEraseSector. . . . . . . . . . . . CODE     CYSPC  EEPROM  
_CySpcGetTemp. . . . . . . . . . . . . . CODE     CYSPC  CYFLASH  
_CySpcLoadMultiByte. . . . . . . . . . . CODE     CYSPC  EEPROM  
_CySpcLoadRow. . . . . . . . . . . . . . CODE     CYSPC  EEPROM  
_CySpcLoadRowFull. . . . . . . . . . . . CODE     CYSPC  CYFLASH  
_CySpcReadData . . . . . . . . . . . . . CODE     CYSPC  CYFLASH  
_CySpcWriteRow . . . . . . . . . . . . . CODE     CYSPC  CYFLASH  EEPROM  
_CyUsbClk_SetSource. . . . . . . . . . . CODE     CYLIB  
_CyVdLvAnalogEnable. . . . . . . . . . . CODE     CYLIB  CYPM  
_CyVdLvDigitEnable . . . . . . . . . . . CODE     CYLIB  CYPM  
_CyVdStickyStatus. . . . . . . . . . . . CODE     CYLIB  
_CyWdtStart. . . . . . . . . . . . . . . CODE     CYLIB  
_cywrite16 . . . . . . . . . . . . . . . CODE     CYMEM  CYFITTER_CFG  
_cywrite16_nodpx . . . . . . . . . . . . CODE     CYMEM  ADC  ADC_EXT_CP_CLK  ADC_THEACLK  CLOCK_UART  CYDMAC  CYFITTER_
                                                  CFG  CYLIB  ISR_RS485_RX  ISR_WATCHDOG  PACER_TIMER  WATCHDOG_COUNTER 
                                                   
_cywrite24 . . . . . . . . . . . . . . . CODE     CYMEM  
_cywrite24_nodpx . . . . . . . . . . . . CODE     CYMEM  MY_TIMER  SHIFTREG_ENC_1  SHIFTREG_ENC_2  SHIFTREG_ENC_3  SHIFT
                                                  REG_ENC_4  
_cywrite32 . . . . . . . . . . . . . . . CODE     CYMEM  
_cywrite32_nodpx . . . . . . . . . . . . CODE     CYMEM  
_cywrite8. . . . . . . . . . . . . . . . CODE     CYMEM  CYFITTER_CFG  
_cywrite8_nodpx. . . . . . . . . . . . . CODE     CYMEM  
_CyWriteRowData. . . . . . . . . . . . . CODE     CYFLASH  BOOTLOADABLE  
_CyWriteRowFull. . . . . . . . . . . . . CODE     CYFLASH  
_CyXTAL_32KHZ_SetPowerMode . . . . . . . CODE     CYLIB  
_CyXTAL_SetFbVoltage . . . . . . . . . . CODE     CYLIB  
_CyXTAL_SetStartup . . . . . . . . . . . CODE     CYLIB  
_CyXTAL_SetWdVoltage . . . . . . . . . . CODE     CYLIB  
_CyXTAL_Start. . . . . . . . . . . . . . CODE     CYLIB  CYPM  
_DMA_DmaInitialize . . . . . . . . . . . CODE     DMA_DMA  MAIN  
_dma_wait. . . . . . . . . . . . . . . . CODE     ?C_STARTUP  
_EEPROM_ByteWritePos . . . . . . . . . . CODE     EEPROM  
_EEPROM_EraseSector. . . . . . . . . . . CODE     EEPROM  
_EEPROM_ReadByte . . . . . . . . . . . . CODE     EEPROM  
_EEPROM_StartErase . . . . . . . . . . . CODE     EEPROM  
_EEPROM_StartWrite . . . . . . . . . . . CODE     EEPROM  
_EEPROM_Write. . . . . . . . . . . . . . CODE     EEPROM  COMMAND_PROCESSING  
_EEPROM_WriteByte. . . . . . . . . . . . CODE     EEPROM  
_encoder_reading . . . . . . . . . . . . CODE     INTERRUPTIONS  MAIN  
_FF_STATUS_WriteMask . . . . . . . . . . CODE     FF_STATUS  
_filter_i1 . . . . . . . . . . . . . . . CODE     UTILS  INTERRUPTIONS  
_filter_i2 . . . . . . . . . . . . . . . CODE     UTILS  INTERRUPTIONS  
_filter_vel_1. . . . . . . . . . . . . . CODE     UTILS  
_filter_vel_2. . . . . . . . . . . . . . CODE     UTILS  
_filter_vel_3. . . . . . . . . . . . . . CODE     UTILS  
_FTDI_ENABLE_REG_Write . . . . . . . . . CODE     FTDI_ENABLE_REG  COMMAND_PROCESSING  MAIN  
_get_param_list. . . . . . . . . . . . . CODE     COMMAND_PROCESSING  
_infoGet . . . . . . . . . . . . . . . . CODE     COMMAND_PROCESSING  INTERRUPTIONS  
_infoPrepare . . . . . . . . . . . . . . CODE     COMMAND_PROCESSING  
_ISR_RS485_RX_SetPriority. . . . . . . . CODE     ISR_RS485_RX  
_ISR_RS485_RX_SetVector. . . . . . . . . CODE     ISR_RS485_RX  
_ISR_RS485_RX_StartEx. . . . . . . . . . CODE     ISR_RS485_RX  MAIN  
_ISR_WATCHDOG_SetPriority. . . . . . . . CODE     ISR_WATCHDOG  
_ISR_WATCHDOG_SetVector. . . . . . . . . CODE     ISR_WATCHDOG  
_ISR_WATCHDOG_StartEx. . . . . . . . . . CODE     ISR_WATCHDOG  MAIN  
_LCRChecksum . . . . . . . . . . . . . . CODE     UTILS  COMMAND_PROCESSING  
LX51 LINKER/LOCATER V4.64.0.0                                                         06/11/2018  11:54:47  PAGE 143


_memStore. . . . . . . . . . . . . . . . CODE     COMMAND_PROCESSING  MAIN  
_motor_control . . . . . . . . . . . . . CODE     INTERRUPTIONS  
_MOTOR_DIR_Write . . . . . . . . . . . . CODE     MOTOR_DIR  INTERRUPTIONS  MAIN  
_MOTOR_ON_OFF_Write. . . . . . . . . . . CODE     MOTOR_ON_OFF  COMMAND_PROCESSING  MAIN  
_MY_TIMER_SetInterruptMode . . . . . . . CODE     MY_TIMER  
_MY_TIMER_WriteControlRegister . . . . . CODE     MY_TIMER  
_MY_TIMER_WriteCounter . . . . . . . . . CODE     MY_TIMER  INTERRUPTIONS  
_MY_TIMER_WritePeriod. . . . . . . . . . CODE     MY_TIMER  
_PACER_TIMER_SetInterruptMode. . . . . . CODE     PACER_TIMER  
_PACER_TIMER_WriteControlRegister. . . . CODE     PACER_TIMER  
_PACER_TIMER_WriteCounter. . . . . . . . CODE     PACER_TIMER  
_PACER_TIMER_WritePeriod . . . . . . . . CODE     PACER_TIMER  
_PRINTF. . . . . . . . . . . . . . . . . CODE     PRINTF  
_PUTCHAR . . . . . . . . . . . . . . . . CODE     PUTCHAR  PRINTF  
_PWM_MOTORS_WriteCompare1. . . . . . . . CODE     PWM_MOTORS  COMMAND_PROCESSING  INTERRUPTIONS  MAIN  
_PWM_MOTORS_WriteCompare2. . . . . . . . CODE     PWM_MOTORS  COMMAND_PROCESSING  INTERRUPTIONS  MAIN  
_PWM_MOTORS_WriteControlRegister . . . . CODE     PWM_MOTORS  
_PWM_MOTORS_WriteCounter . . . . . . . . CODE     PWM_MOTORS  
_PWM_MOTORS_WritePeriod. . . . . . . . . CODE     PWM_MOTORS  
_RESET_FF_Write. . . . . . . . . . . . . CODE     RESET_FF  MAIN  
_RS485_CTS_Write . . . . . . . . . . . . CODE     RS485_CTS  COMMAND_PROCESSING  INTERRUPTIONS  MAIN  
_sendAcknowledgment. . . . . . . . . . . CODE     COMMAND_PROCESSING  MAIN  
_SetAnalogRoutingPumps . . . . . . . . . CODE     CYFITTER_CFG  
_SHIFTREG_ENC_1_GetFIFOStatus. . . . . . CODE     SHIFTREG_ENC_1  
_SHIFTREG_ENC_1_SetIntMode . . . . . . . CODE     SHIFTREG_ENC_1  
_SHIFTREG_ENC_1_WriteRegValue. . . . . . CODE     SHIFTREG_ENC_1  
_SHIFTREG_ENC_2_GetFIFOStatus. . . . . . CODE     SHIFTREG_ENC_2  
_SHIFTREG_ENC_2_SetIntMode . . . . . . . CODE     SHIFTREG_ENC_2  
_SHIFTREG_ENC_2_WriteRegValue. . . . . . CODE     SHIFTREG_ENC_2  
_SHIFTREG_ENC_3_GetFIFOStatus. . . . . . CODE     SHIFTREG_ENC_3  
_SHIFTREG_ENC_3_SetIntMode . . . . . . . CODE     SHIFTREG_ENC_3  
_SHIFTREG_ENC_3_WriteRegValue. . . . . . CODE     SHIFTREG_ENC_3  
_SHIFTREG_ENC_4_GetFIFOStatus. . . . . . CODE     SHIFTREG_ENC_4  
_SHIFTREG_ENC_4_SetIntMode . . . . . . . CODE     SHIFTREG_ENC_4  
_SHIFTREG_ENC_4_WriteRegValue. . . . . . CODE     SHIFTREG_ENC_4  
_SPRINTF . . . . . . . . . . . . . . . . CODE     PRINTF  COMMAND_PROCESSING  
_strcat. . . . . . . . . . . . . . . . . CODE     STRCAT  COMMAND_PROCESSING  
_STRLEN. . . . . . . . . . . . . . . . . CODE     STRLEN  COMMAND_PROCESSING  
_UART_RS485_PutArray . . . . . . . . . . CODE     UART_RS485  
_UART_RS485_PutChar. . . . . . . . . . . CODE     UART_RS485  COMMAND_PROCESSING  
_UART_RS485_PutCRLF. . . . . . . . . . . CODE     UART_RS485  
_UART_RS485_PutString. . . . . . . . . . CODE     UART_RS485  COMMAND_PROCESSING  
_UART_RS485_SendBreak. . . . . . . . . . CODE     UART_RS485  
_UART_RS485_SetRxAddress1. . . . . . . . CODE     UART_RS485  
_UART_RS485_SetRxAddress2. . . . . . . . CODE     UART_RS485  
_UART_RS485_SetRxAddressMode . . . . . . CODE     UART_RS485  
_UART_RS485_SetRxInterruptMode . . . . . CODE     UART_RS485  
_UART_RS485_SetTxAddressMode . . . . . . CODE     UART_RS485  
_UART_RS485_SetTxInterruptMode . . . . . CODE     UART_RS485  
_UART_RS485_WriteControlRegister . . . . CODE     UART_RS485  
_UART_RS485_WriteTxData. . . . . . . . . CODE     UART_RS485  
_WATCHDOG_COUNTER_SetInterruptMode . . . CODE     WATCHDOG_COUNTER  
_WATCHDOG_COUNTER_WriteControlRegister . CODE     WATCHDOG_COUNTER  
_WATCHDOG_COUNTER_WriteCounter . . . . . CODE     WATCHDOG_COUNTER  
_WATCHDOG_COUNTER_WritePeriod. . . . . . CODE     WATCHDOG_COUNTER  COMMAND_PROCESSING  
_WATCHDOG_ENABLER_Write. . . . . . . . . CODE     WATCHDOG_ENABLER  COMMAND_PROCESSING  MAIN  
_WATCHDOG_REFRESH_Write. . . . . . . . . CODE     WATCHDOG_REFRESH  MAIN  
AC . . . . . . . . . . . . . . . . . . . DATA     COMMAND_PROCESSING  
ACC. . . . . . . . . . . . . . . . . . . DATA     COMMAND_PROCESSING  
ADC_AMux__addrTable. . . . . . . . . . . CONST    CYFITTER_CFG  
ADC_AMux__maskTable. . . . . . . . . . . CONST    CYFITTER_CFG  
ADC_AMux_Start . . . . . . . . . . . . . CODE     ADC_AMUX  
ADC_buf. . . . . . . . . . . . . . . . . XDATA    GLOBALS  INTERRUPTIONS  MAIN  
ADC_Config . . . . . . . . . . . . . . . XDATA    ADC  
ADC_convDone . . . . . . . . . . . . . . XDATA    ADC  
LX51 LINKER/LOCATER V4.64.0.0                                                         06/11/2018  11:54:47  PAGE 144


ADC_CountsPerVolt. . . . . . . . . . . . XDATA    ADC  
ADC_Enable . . . . . . . . . . . . . . . CODE     ADC  
ADC_Ext_CP_Clk_GetDividerRegister. . . . CODE     ADC_EXT_CP_CLK  
ADC_Ext_CP_Clk_GetModeRegister . . . . . CODE     ADC_EXT_CP_CLK  
ADC_Ext_CP_Clk_GetSourceRegister . . . . CODE     ADC_EXT_CP_CLK  
ADC_Ext_CP_Clk_Start . . . . . . . . . . CODE     ADC_EXT_CP_CLK  
ADC_Ext_CP_Clk_Stop. . . . . . . . . . . CODE     ADC_EXT_CP_CLK  
ADC_Ext_CP_Clk_StopBlock . . . . . . . . CODE     ADC_EXT_CP_CLK  
ADC_GetResult16. . . . . . . . . . . . . CODE     ADC  
ADC_GetResult32. . . . . . . . . . . . . CODE     ADC  
ADC_GetResult8 . . . . . . . . . . . . . CODE     ADC  
ADC_Init . . . . . . . . . . . . . . . . CODE     ADC  
ADC_initVar. . . . . . . . . . . . . . . XDATA    ADC  
ADC_ISR1 . . . . . . . . . . . . . . . . CODE     ADC_INT  ADC  
ADC_ISR2 . . . . . . . . . . . . . . . . CODE     ADC_INT  
ADC_ISR3 . . . . . . . . . . . . . . . . CODE     ADC_INT  
ADC_ISR4 . . . . . . . . . . . . . . . . CODE     ADC_INT  
ADC_Offset . . . . . . . . . . . . . . . XDATA    ADC  
ADC_Read16 . . . . . . . . . . . . . . . CODE     ADC  
ADC_Read32 . . . . . . . . . . . . . . . CODE     ADC  
ADC_Read8. . . . . . . . . . . . . . . . CODE     ADC  
ADC_ReadGCOR . . . . . . . . . . . . . . CODE     ADC  
ADC_SOC_Read . . . . . . . . . . . . . . CODE     ADC_SOC  
ADC_Start. . . . . . . . . . . . . . . . CODE     ADC  MAIN  
ADC_StartConvert . . . . . . . . . . . . CODE     ADC  
ADC_started. . . . . . . . . . . . . . . XDATA    ADC  
ADC_STATUS_InterruptDisable. . . . . . . CODE     ADC_STATUS  
ADC_STATUS_InterruptEnable . . . . . . . CODE     ADC_STATUS  
ADC_STATUS_Read. . . . . . . . . . . . . CODE     ADC_STATUS  INTERRUPTIONS  
ADC_STATUS_ReadMask. . . . . . . . . . . CODE     ADC_STATUS  
ADC_Stop . . . . . . . . . . . . . . . . CODE     ADC  
ADC_stopConversion . . . . . . . . . . . XDATA    ADC  
ADC_StopConvert. . . . . . . . . . . . . CODE     ADC  
ADC_theACLK_GetDividerRegister . . . . . CODE     ADC_THEACLK  
ADC_theACLK_GetModeRegister. . . . . . . CODE     ADC_THEACLK  
ADC_theACLK_GetPhaseRegister . . . . . . CODE     ADC_THEACLK  
ADC_theACLK_GetSourceRegister. . . . . . CODE     ADC_THEACLK  
ADC_theACLK_Start. . . . . . . . . . . . CODE     ADC_THEACLK  
ADC_theACLK_Stop . . . . . . . . . . . . CODE     ADC_THEACLK  
ADC_theACLK_StopBlock. . . . . . . . . . CODE     ADC_THEACLK  
analog_read_end. . . . . . . . . . . . . CODE     INTERRUPTIONS  
B. . . . . . . . . . . . . . . . . . . . DATA     COMMAND_PROCESSING  
Bootloadable_Load. . . . . . . . . . . . CODE     BOOTLOADABLE  COMMAND_PROCESSING  
c_mem. . . . . . . . . . . . . . . . . . XDATA    GLOBALS  COMMAND_PROCESSING  INTERRUPTIONS  MAIN  
calibration_flag . . . . . . . . . . . . XDATA    GLOBALS  MAIN  
CLOCK_UART_GetDividerRegister. . . . . . CODE     CLOCK_UART  
CLOCK_UART_GetModeRegister . . . . . . . CODE     CLOCK_UART  
CLOCK_UART_GetSourceRegister . . . . . . CODE     CLOCK_UART  
CLOCK_UART_Start . . . . . . . . . . . . CODE     CLOCK_UART  
CLOCK_UART_Stop. . . . . . . . . . . . . CODE     CLOCK_UART  
CLOCK_UART_StopBlock . . . . . . . . . . CODE     CLOCK_UART  
cmd_activate . . . . . . . . . . . . . . CODE     COMMAND_PROCESSING  
cmd_get_activate . . . . . . . . . . . . CODE     COMMAND_PROCESSING  
cmd_get_curr_and_meas. . . . . . . . . . CODE     COMMAND_PROCESSING  
cmd_get_currents . . . . . . . . . . . . CODE     COMMAND_PROCESSING  
cmd_get_inputs . . . . . . . . . . . . . CODE     COMMAND_PROCESSING  
cmd_get_measurements . . . . . . . . . . CODE     COMMAND_PROCESSING  
cmd_get_velocities . . . . . . . . . . . CODE     COMMAND_PROCESSING  
cmd_ping . . . . . . . . . . . . . . . . CODE     COMMAND_PROCESSING  
cmd_set_baudrate . . . . . . . . . . . . CODE     COMMAND_PROCESSING  
cmd_set_inputs . . . . . . . . . . . . . CODE     COMMAND_PROCESSING  
cmd_set_pos_stiff. . . . . . . . . . . . CODE     COMMAND_PROCESSING  
cmd_set_watchdog . . . . . . . . . . . . CODE     COMMAND_PROCESSING  
cmd_store_params . . . . . . . . . . . . CODE     COMMAND_PROCESSING  
commProcess. . . . . . . . . . . . . . . CODE     COMMAND_PROCESSING  INTERRUPTIONS  
LX51 LINKER/LOCATER V4.64.0.0                                                         06/11/2018  11:54:47  PAGE 145


COUNTER_ENC_ClearFIFO. . . . . . . . . . CODE     COUNTER_ENC  
COUNTER_ENC_Enable . . . . . . . . . . . CODE     COUNTER_ENC  
COUNTER_ENC_Init . . . . . . . . . . . . CODE     COUNTER_ENC  
COUNTER_ENC_initVar. . . . . . . . . . . XDATA    COUNTER_ENC  
COUNTER_ENC_ReadCapture. . . . . . . . . CODE     COUNTER_ENC  
COUNTER_ENC_ReadCompare. . . . . . . . . CODE     COUNTER_ENC  
COUNTER_ENC_ReadControlRegister. . . . . CODE     COUNTER_ENC  
COUNTER_ENC_ReadCounter. . . . . . . . . CODE     COUNTER_ENC  
COUNTER_ENC_ReadPeriod . . . . . . . . . CODE     COUNTER_ENC  
COUNTER_ENC_ReadStatusRegister . . . . . CODE     COUNTER_ENC  
COUNTER_ENC_Start. . . . . . . . . . . . CODE     COUNTER_ENC  MAIN  
COUNTER_ENC_Stop . . . . . . . . . . . . CODE     COUNTER_ENC  
cuff_flag_force. . . . . . . . . . . . . BIT      GLOBALS  COMMAND_PROCESSING  INTERRUPTIONS  MAIN  
cuff_flag_force_proprio. . . . . . . . . BIT      GLOBALS  COMMAND_PROCESSING  INTERRUPTIONS  MAIN  
cuff_flag_proprio. . . . . . . . . . . . BIT      GLOBALS  COMMAND_PROCESSING  INTERRUPTIONS  MAIN  
CY . . . . . . . . . . . . . . . . . . . DATA     COMMAND_PROCESSING  
cydelay_32k_ms . . . . . . . . . . . . . XDATA    CYLIB  
cydelay_freq_hz. . . . . . . . . . . . . XDATA    CYLIB  
cydelay_freq_khz . . . . . . . . . . . . XDATA    CYLIB  
cydelay_freq_mhz . . . . . . . . . . . . XDATA    CYLIB  CYBOOTASMKEIL  
CyDisableInts. . . . . . . . . . . . . . CODE     CYLIB  
CyDmacConfigure. . . . . . . . . . . . . CODE     CYDMAC  ?C_STARTUP  
CyDmacError. . . . . . . . . . . . . . . CODE     CYDMAC  
CyDmacErrorAddress . . . . . . . . . . . CODE     CYDMAC  
CyDmaChAlloc . . . . . . . . . . . . . . CODE     CYDMAC  
CyDmaTdAllocate. . . . . . . . . . . . . CODE     CYDMAC  MAIN  
CyDmaTdFreeCount . . . . . . . . . . . . CODE     CYDMAC  
CyEEPROM_ReadRelease . . . . . . . . . . CODE     CYFLASH  EEPROM  
CyEEPROM_ReadReserve . . . . . . . . . . CODE     CYFLASH  EEPROM  
CyEEPROM_Start . . . . . . . . . . . . . CODE     CYFLASH  EEPROM  
CyEEPROM_Stop. . . . . . . . . . . . . . CODE     CYFLASH  EEPROM  
CyEnterCriticalSection . . . . . . . . . CODE     CYBOOTASMKEIL  ADC  ADC_STATUS  COUNTER_ENC  CYDMAC  CYFLASH  CYLIB  C
                                                  YPM  CYSPC  EEPROM  FF_STATUS  MY_TIMER  SHIFTREG_ENC_1  SHIFTREG_ENC_
                                                  2  SHIFTREG_ENC_3  SHIFTREG_ENC_4  UART_RS485  
cyfitter_cfg . . . . . . . . . . . . . . CODE     CYFITTER_CFG  ?C_STARTUP  
CyFlash_Start. . . . . . . . . . . . . . CODE     CYFLASH  
CyFlash_Stop . . . . . . . . . . . . . . CODE     CYFLASH  
CyILO_Disable33K . . . . . . . . . . . . CODE     CYLIB  
CyILO_Enable33K. . . . . . . . . . . . . CODE     CYLIB  
CyILO_Start100K. . . . . . . . . . . . . CODE     CYLIB  CYPM  
CyILO_Start1K. . . . . . . . . . . . . . CODE     CYLIB  CYPM  
CyILO_Stop100K . . . . . . . . . . . . . CODE     CYLIB  
CyILO_Stop1K . . . . . . . . . . . . . . CODE     CYLIB  
CyIMO_DisableDoubler . . . . . . . . . . CODE     CYLIB  CYPM  
CyIMO_EnableDoubler. . . . . . . . . . . CODE     CYLIB  CYPM  
CyIMO_Stop . . . . . . . . . . . . . . . CODE     CYLIB  CYPM  
CyPLL_OUT_Stop . . . . . . . . . . . . . CODE     CYLIB  CYPM  
CyPmHibernate. . . . . . . . . . . . . . CODE     CYPM  
CyPmOppsSet. . . . . . . . . . . . . . . CODE     CYPM  
CyPmRestoreClocks. . . . . . . . . . . . CODE     CYPM  
CyPmSaveClocks . . . . . . . . . . . . . CODE     CYPM  
CyResetStatus. . . . . . . . . . . . . . XDATA    CYLIB  ?C_STARTUP  
CySetTemp. . . . . . . . . . . . . . . . CODE     CYFLASH  EEPROM  
CySoftwareReset. . . . . . . . . . . . . CODE     CYLIB  BOOTLOADABLE  
CySpcGetAlgorithm. . . . . . . . . . . . CODE     CYSPC  CYFLASH  
CySpcLock. . . . . . . . . . . . . . . . CODE     CYSPC  CYFLASH  EEPROM  
CySpcStart . . . . . . . . . . . . . . . CODE     CYSPC  CYFLASH  EEPROM  
CySpcStop. . . . . . . . . . . . . . . . CODE     CYSPC  
CySpcUnlock. . . . . . . . . . . . . . . CODE     CYSPC  CYFLASH  EEPROM  
CyVdHvAnalogDisable. . . . . . . . . . . CODE     CYLIB  CYPM  
CyVdHvAnalogEnable . . . . . . . . . . . CODE     CYLIB  CYPM  
CyVdLvAnalogDisable. . . . . . . . . . . CODE     CYLIB  CYPM  
CyVdLvDigitDisable . . . . . . . . . . . CODE     CYLIB  CYPM  
CyVdRealTimeStatus . . . . . . . . . . . CODE     CYLIB  
CyWdtClear . . . . . . . . . . . . . . . CODE     CYLIB  
LX51 LINKER/LOCATER V4.64.0.0                                                         06/11/2018  11:54:47  PAGE 146


CyXTAL_32KHZ_ReadStatus. . . . . . . . . CODE     CYLIB  
CyXTAL_32KHZ_Start . . . . . . . . . . . CODE     CYLIB  CYPM  
CyXTAL_32KHZ_Stop. . . . . . . . . . . . CODE     CYLIB  
CyXTAL_DisableErrStatus. . . . . . . . . CODE     CYLIB  
CyXTAL_DisableFaultRecovery. . . . . . . CODE     CYLIB  
CyXTAL_EnableErrStatus . . . . . . . . . CODE     CYLIB  
CyXTAL_EnableFaultRecovery . . . . . . . CODE     CYLIB  
CyXTAL_ReadStatus. . . . . . . . . . . . CODE     CYLIB  
CyXTAL_Stop. . . . . . . . . . . . . . . CODE     CYLIB  CYPM  
dev_pwm_limit. . . . . . . . . . . . . . XDATA    GLOBALS  COMMAND_PROCESSING  INTERRUPTIONS  MAIN  
dev_tension. . . . . . . . . . . . . . . XDATA    GLOBALS  COMMAND_PROCESSING  INTERRUPTIONS  
dieTemperature . . . . . . . . . . . . . XDATA    CYFLASH  EEPROM  
DMA_DmaHandle. . . . . . . . . . . . . . XDATA    DMA_DMA  
DMA_DmaRelease . . . . . . . . . . . . . CODE     DMA_DMA  
DPH. . . . . . . . . . . . . . . . . . . DATA     COMMAND_PROCESSING  
DPH1 . . . . . . . . . . . . . . . . . . DATA     COMMAND_PROCESSING  
DPL. . . . . . . . . . . . . . . . . . . DATA     COMMAND_PROCESSING  
DPL1 . . . . . . . . . . . . . . . . . . DATA     COMMAND_PROCESSING  
DPS. . . . . . . . . . . . . . . . . . . DATA     COMMAND_PROCESSING  
DPX. . . . . . . . . . . . . . . . . . . DATA     COMMAND_PROCESSING  
DPX1 . . . . . . . . . . . . . . . . . . DATA     COMMAND_PROCESSING  
drive_cuff . . . . . . . . . . . . . . . CODE     COMMAND_PROCESSING  INTERRUPTIONS  
EA . . . . . . . . . . . . . . . . . . . DATA     COMMAND_PROCESSING  
EEPROM_ADDR. . . . . . . . . . . . . . . XDATA    COMMAND_PROCESSING  
EEPROM_Enable. . . . . . . . . . . . . . CODE     EEPROM  
EEPROM_Query . . . . . . . . . . . . . . CODE     EEPROM  
EEPROM_Start . . . . . . . . . . . . . . CODE     EEPROM  MAIN  
EEPROM_Stop. . . . . . . . . . . . . . . CODE     EEPROM  
EEPROM_UpdateTemperature . . . . . . . . CODE     EEPROM  COMMAND_PROCESSING  
F0 . . . . . . . . . . . . . . . . . . . DATA     COMMAND_PROCESSING  
F1 . . . . . . . . . . . . . . . . . . . DATA     COMMAND_PROCESSING  
FF_STATUS_InterruptDisable . . . . . . . CODE     FF_STATUS  
FF_STATUS_InterruptEnable. . . . . . . . CODE     FF_STATUS  
FF_STATUS_Read . . . . . . . . . . . . . CODE     FF_STATUS  MAIN  
FF_STATUS_ReadMask . . . . . . . . . . . CODE     FF_STATUS  
force_and_slide_cuff . . . . . . . . . . CODE     COMMAND_PROCESSING  INTERRUPTIONS  
FTDI_ENABLE_REG_Read . . . . . . . . . . CODE     FTDI_ENABLE_REG  
function_scheduler . . . . . . . . . . . CODE     INTERRUPTIONS  MAIN  
g_meas . . . . . . . . . . . . . . . . . XDATA    GLOBALS  COMMAND_PROCESSING  INTERRUPTIONS  MAIN  
g_measOld. . . . . . . . . . . . . . . . XDATA    GLOBALS  COMMAND_PROCESSING  INTERRUPTIONS  
g_mem. . . . . . . . . . . . . . . . . . XDATA    GLOBALS  COMMAND_PROCESSING  INTERRUPTIONS  MAIN  
g_ref. . . . . . . . . . . . . . . . . . XDATA    GLOBALS  COMMAND_PROCESSING  INTERRUPTIONS  MAIN  
g_refNew . . . . . . . . . . . . . . . . XDATA    GLOBALS  COMMAND_PROCESSING  INTERRUPTIONS  MAIN  
g_refOld . . . . . . . . . . . . . . . . XDATA    GLOBALS  COMMAND_PROCESSING  INTERRUPTIONS  
g_rx . . . . . . . . . . . . . . . . . . XDATA    GLOBALS  COMMAND_PROCESSING  INTERRUPTIONS  MAIN  
hitech_pwm_preload_values. . . . . . . . CONST    INTERRUPTIONS  
hitech_pwm_preload_values_6v . . . . . . CONST    INTERRUPTIONS  
IE . . . . . . . . . . . . . . . . . . . DATA     COMMAND_PROCESSING  
interrupt_flag . . . . . . . . . . . . . BIT      GLOBALS  COMMAND_PROCESSING  INTERRUPTIONS  MAIN  
interrupt_manager. . . . . . . . . . . . CODE     INTERRUPTIONS  COMMAND_PROCESSING  MAIN  
ISR_RS485_RX_ClearPending. . . . . . . . CODE     ISR_RS485_RX  
ISR_RS485_RX_Disable . . . . . . . . . . CODE     ISR_RS485_RX  
ISR_RS485_RX_Enable. . . . . . . . . . . CODE     ISR_RS485_RX  
ISR_RS485_RX_ExInterrupt . . . . . . . . CODE     INTERRUPTIONS  MAIN  
ISR_RS485_RX_GetPriority . . . . . . . . CODE     ISR_RS485_RX  
ISR_RS485_RX_GetState. . . . . . . . . . CODE     ISR_RS485_RX  
ISR_RS485_RX_GetVector . . . . . . . . . CODE     ISR_RS485_RX  
ISR_RS485_RX_Interrupt . . . . . . . . . CODE     ISR_RS485_RX  
ISR_RS485_RX_SetPending. . . . . . . . . CODE     ISR_RS485_RX  
ISR_RS485_RX_Start . . . . . . . . . . . CODE     ISR_RS485_RX  
ISR_RS485_RX_Stop. . . . . . . . . . . . CODE     ISR_RS485_RX  
ISR_WATCHDOG_ClearPending. . . . . . . . CODE     ISR_WATCHDOG  
ISR_WATCHDOG_Disable . . . . . . . . . . CODE     ISR_WATCHDOG  
ISR_WATCHDOG_Enable. . . . . . . . . . . CODE     ISR_WATCHDOG  
ISR_WATCHDOG_GetPriority . . . . . . . . CODE     ISR_WATCHDOG  
LX51 LINKER/LOCATER V4.64.0.0                                                         06/11/2018  11:54:47  PAGE 147


ISR_WATCHDOG_GetState. . . . . . . . . . CODE     ISR_WATCHDOG  
ISR_WATCHDOG_GetVector . . . . . . . . . CODE     ISR_WATCHDOG  
ISR_WATCHDOG_Handler . . . . . . . . . . CODE     INTERRUPTIONS  MAIN  
ISR_WATCHDOG_Interrupt . . . . . . . . . CODE     ISR_WATCHDOG  
ISR_WATCHDOG_SetPending. . . . . . . . . CODE     ISR_WATCHDOG  
ISR_WATCHDOG_Start . . . . . . . . . . . CODE     ISR_WATCHDOG  
ISR_WATCHDOG_Stop. . . . . . . . . . . . CODE     ISR_WATCHDOG  
main . . . . . . . . . . . . . . . . . . CODE     MAIN  ?C_INIT  
memInit. . . . . . . . . . . . . . . . . CODE     COMMAND_PROCESSING  
memRecall. . . . . . . . . . . . . . . . CODE     COMMAND_PROCESSING  MAIN  
memRestore . . . . . . . . . . . . . . . CODE     COMMAND_PROCESSING  
MOTOR_DIR_Read . . . . . . . . . . . . . CODE     MOTOR_DIR  
MOTOR_ON_OFF_Read. . . . . . . . . . . . CODE     MOTOR_ON_OFF  
MXAX . . . . . . . . . . . . . . . . . . DATA     COMMAND_PROCESSING  
MY_TIMER_ClearFIFO . . . . . . . . . . . CODE     MY_TIMER  
MY_TIMER_Enable. . . . . . . . . . . . . CODE     MY_TIMER  
MY_TIMER_Init. . . . . . . . . . . . . . CODE     MY_TIMER  
MY_TIMER_initVar . . . . . . . . . . . . XDATA    MY_TIMER  
MY_TIMER_ReadCapture . . . . . . . . . . CODE     MY_TIMER  
MY_TIMER_ReadControlRegister . . . . . . CODE     MY_TIMER  
MY_TIMER_ReadCounter . . . . . . . . . . CODE     MY_TIMER  COMMAND_PROCESSING  INTERRUPTIONS  
MY_TIMER_ReadPeriod. . . . . . . . . . . CODE     MY_TIMER  
MY_TIMER_ReadStatusRegister. . . . . . . CODE     MY_TIMER  
MY_TIMER_SoftwareCapture . . . . . . . . CODE     MY_TIMER  
MY_TIMER_Start . . . . . . . . . . . . . CODE     MY_TIMER  MAIN  
MY_TIMER_Stop. . . . . . . . . . . . . . CODE     MY_TIMER  
OV . . . . . . . . . . . . . . . . . . . DATA     COMMAND_PROCESSING  
P. . . . . . . . . . . . . . . . . . . . DATA     COMMAND_PROCESSING  
P2AX . . . . . . . . . . . . . . . . . . DATA     COMMAND_PROCESSING  
PACER_TIMER_Enable . . . . . . . . . . . CODE     PACER_TIMER  
PACER_TIMER_Init . . . . . . . . . . . . CODE     PACER_TIMER  
PACER_TIMER_initVar. . . . . . . . . . . XDATA    PACER_TIMER  
PACER_TIMER_ReadCapture. . . . . . . . . CODE     PACER_TIMER  
PACER_TIMER_ReadControlRegister. . . . . CODE     PACER_TIMER  
PACER_TIMER_ReadCounter. . . . . . . . . CODE     PACER_TIMER  
PACER_TIMER_ReadPeriod . . . . . . . . . CODE     PACER_TIMER  
PACER_TIMER_ReadStatusRegister . . . . . CODE     PACER_TIMER  
PACER_TIMER_SoftwareCapture. . . . . . . CODE     PACER_TIMER  
PACER_TIMER_Start. . . . . . . . . . . . CODE     PACER_TIMER  MAIN  
PACER_TIMER_Stop . . . . . . . . . . . . CODE     PACER_TIMER  
pret_done. . . . . . . . . . . . . . . . BIT      GLOBALS  COMMAND_PROCESSING  INTERRUPTIONS  MAIN  
pret_offset_pos. . . . . . . . . . . . . XDATA    GLOBALS  COMMAND_PROCESSING  INTERRUPTIONS  
pretensioning_flag . . . . . . . . . . . BIT      GLOBALS  COMMAND_PROCESSING  INTERRUPTIONS  MAIN  
pretensioning_process. . . . . . . . . . CODE     INTERRUPTIONS  
PSW. . . . . . . . . . . . . . . . . . . DATA     COMMAND_PROCESSING  
pwm_limit_search . . . . . . . . . . . . CODE     INTERRUPTIONS  
PWM_MOTORS_Enable. . . . . . . . . . . . CODE     PWM_MOTORS  
PWM_MOTORS_Init. . . . . . . . . . . . . CODE     PWM_MOTORS  
PWM_MOTORS_initVar . . . . . . . . . . . XDATA    PWM_MOTORS  
PWM_MOTORS_ReadCapture . . . . . . . . . CODE     PWM_MOTORS  
PWM_MOTORS_ReadCompare1. . . . . . . . . CODE     PWM_MOTORS  
PWM_MOTORS_ReadCompare2. . . . . . . . . CODE     PWM_MOTORS  
PWM_MOTORS_ReadControlRegister . . . . . CODE     PWM_MOTORS  
PWM_MOTORS_ReadCounter . . . . . . . . . CODE     PWM_MOTORS  
PWM_MOTORS_ReadPeriod. . . . . . . . . . CODE     PWM_MOTORS  
PWM_MOTORS_Start . . . . . . . . . . . . CODE     PWM_MOTORS  MAIN  
PWM_MOTORS_Stop. . . . . . . . . . . . . CODE     PWM_MOTORS  
pwm_preload_values . . . . . . . . . . . CONST    INTERRUPTIONS  
pwm_sign . . . . . . . . . . . . . . . . XDATA    GLOBALS  INTERRUPTIONS  
RESET_FF_Read. . . . . . . . . . . . . . CODE     RESET_FF  
reset_last_value_flag. . . . . . . . . . BIT      GLOBALS  COMMAND_PROCESSING  INTERRUPTIONS  MAIN  
RS0. . . . . . . . . . . . . . . . . . . DATA     COMMAND_PROCESSING  
RS1. . . . . . . . . . . . . . . . . . . DATA     COMMAND_PROCESSING  
RS485_CTS_Read . . . . . . . . . . . . . CODE     RS485_CTS  
setZeros . . . . . . . . . . . . . . . . CODE     COMMAND_PROCESSING  
LX51 LINKER/LOCATER V4.64.0.0                                                         06/11/2018  11:54:47  PAGE 148


SFRPRT0DR. . . . . . . . . . . . . . . . DATA     COMMAND_PROCESSING  
SFRPRT0PS. . . . . . . . . . . . . . . . DATA     COMMAND_PROCESSING  
SFRPRT0SEL . . . . . . . . . . . . . . . DATA     COMMAND_PROCESSING  
SFRPRT12DR . . . . . . . . . . . . . . . DATA     COMMAND_PROCESSING  
SFRPRT12PS . . . . . . . . . . . . . . . DATA     COMMAND_PROCESSING  
SFRPRT12SEL. . . . . . . . . . . . . . . DATA     COMMAND_PROCESSING  
SFRPRT15DR . . . . . . . . . . . . . . . DATA     COMMAND_PROCESSING  
SFRPRT15PS . . . . . . . . . . . . . . . DATA     COMMAND_PROCESSING  
SFRPRT15SEL. . . . . . . . . . . . . . . DATA     COMMAND_PROCESSING  
SFRPRT1DR. . . . . . . . . . . . . . . . DATA     COMMAND_PROCESSING  
SFRPRT1PS. . . . . . . . . . . . . . . . DATA     COMMAND_PROCESSING  
SFRPRT1SEL . . . . . . . . . . . . . . . DATA     COMMAND_PROCESSING  
SFRPRT2DR. . . . . . . . . . . . . . . . DATA     COMMAND_PROCESSING  
SFRPRT2PS. . . . . . . . . . . . . . . . DATA     COMMAND_PROCESSING  
SFRPRT2SEL . . . . . . . . . . . . . . . DATA     COMMAND_PROCESSING  
SFRPRT3DR. . . . . . . . . . . . . . . . DATA     COMMAND_PROCESSING  
SFRPRT3PS. . . . . . . . . . . . . . . . DATA     COMMAND_PROCESSING  
SFRPRT3SEL . . . . . . . . . . . . . . . DATA     COMMAND_PROCESSING  
SFRPRT4DR. . . . . . . . . . . . . . . . DATA     COMMAND_PROCESSING  
SFRPRT4PS. . . . . . . . . . . . . . . . DATA     COMMAND_PROCESSING  
SFRPRT4SEL . . . . . . . . . . . . . . . DATA     COMMAND_PROCESSING  
SFRPRT5DR. . . . . . . . . . . . . . . . DATA     COMMAND_PROCESSING  
SFRPRT5PS. . . . . . . . . . . . . . . . DATA     COMMAND_PROCESSING  
SFRPRT5SEL . . . . . . . . . . . . . . . DATA     COMMAND_PROCESSING  
SFRPRT6DR. . . . . . . . . . . . . . . . DATA     COMMAND_PROCESSING  
SFRPRT6PS. . . . . . . . . . . . . . . . DATA     COMMAND_PROCESSING  
SFRPRT6SEL . . . . . . . . . . . . . . . DATA     COMMAND_PROCESSING  
SHIFTREG_ENC_1_DisableInt. . . . . . . . CODE     SHIFTREG_ENC_1  
SHIFTREG_ENC_1_Enable. . . . . . . . . . CODE     SHIFTREG_ENC_1  
SHIFTREG_ENC_1_EnableInt . . . . . . . . CODE     SHIFTREG_ENC_1  
SHIFTREG_ENC_1_GetIntStatus. . . . . . . CODE     SHIFTREG_ENC_1  
SHIFTREG_ENC_1_Init. . . . . . . . . . . CODE     SHIFTREG_ENC_1  
SHIFTREG_ENC_1_initVar . . . . . . . . . XDATA    SHIFTREG_ENC_1  
SHIFTREG_ENC_1_ReadData. . . . . . . . . CODE     SHIFTREG_ENC_1  INTERRUPTIONS  
SHIFTREG_ENC_1_ReadRegValue. . . . . . . CODE     SHIFTREG_ENC_1  
SHIFTREG_ENC_1_Start . . . . . . . . . . CODE     SHIFTREG_ENC_1  MAIN  
SHIFTREG_ENC_1_Stop. . . . . . . . . . . CODE     SHIFTREG_ENC_1  
SHIFTREG_ENC_2_DisableInt. . . . . . . . CODE     SHIFTREG_ENC_2  
SHIFTREG_ENC_2_Enable. . . . . . . . . . CODE     SHIFTREG_ENC_2  
SHIFTREG_ENC_2_EnableInt . . . . . . . . CODE     SHIFTREG_ENC_2  
SHIFTREG_ENC_2_GetIntStatus. . . . . . . CODE     SHIFTREG_ENC_2  
SHIFTREG_ENC_2_Init. . . . . . . . . . . CODE     SHIFTREG_ENC_2  
SHIFTREG_ENC_2_initVar . . . . . . . . . XDATA    SHIFTREG_ENC_2  
SHIFTREG_ENC_2_ReadData. . . . . . . . . CODE     SHIFTREG_ENC_2  INTERRUPTIONS  
SHIFTREG_ENC_2_ReadRegValue. . . . . . . CODE     SHIFTREG_ENC_2  
SHIFTREG_ENC_2_Start . . . . . . . . . . CODE     SHIFTREG_ENC_2  MAIN  
SHIFTREG_ENC_2_Stop. . . . . . . . . . . CODE     SHIFTREG_ENC_2  
SHIFTREG_ENC_3_DisableInt. . . . . . . . CODE     SHIFTREG_ENC_3  
SHIFTREG_ENC_3_Enable. . . . . . . . . . CODE     SHIFTREG_ENC_3  
SHIFTREG_ENC_3_EnableInt . . . . . . . . CODE     SHIFTREG_ENC_3  
SHIFTREG_ENC_3_GetIntStatus. . . . . . . CODE     SHIFTREG_ENC_3  
SHIFTREG_ENC_3_Init. . . . . . . . . . . CODE     SHIFTREG_ENC_3  
SHIFTREG_ENC_3_initVar . . . . . . . . . XDATA    SHIFTREG_ENC_3  
SHIFTREG_ENC_3_ReadData. . . . . . . . . CODE     SHIFTREG_ENC_3  INTERRUPTIONS  
SHIFTREG_ENC_3_ReadRegValue. . . . . . . CODE     SHIFTREG_ENC_3  
SHIFTREG_ENC_3_Start . . . . . . . . . . CODE     SHIFTREG_ENC_3  
SHIFTREG_ENC_3_Stop. . . . . . . . . . . CODE     SHIFTREG_ENC_3  
SHIFTREG_ENC_4_DisableInt. . . . . . . . CODE     SHIFTREG_ENC_4  
SHIFTREG_ENC_4_Enable. . . . . . . . . . CODE     SHIFTREG_ENC_4  
SHIFTREG_ENC_4_EnableInt . . . . . . . . CODE     SHIFTREG_ENC_4  
SHIFTREG_ENC_4_GetIntStatus. . . . . . . CODE     SHIFTREG_ENC_4  
SHIFTREG_ENC_4_Init. . . . . . . . . . . CODE     SHIFTREG_ENC_4  
SHIFTREG_ENC_4_initVar . . . . . . . . . XDATA    SHIFTREG_ENC_4  
SHIFTREG_ENC_4_ReadData. . . . . . . . . CODE     SHIFTREG_ENC_4  INTERRUPTIONS  
SHIFTREG_ENC_4_ReadRegValue. . . . . . . CODE     SHIFTREG_ENC_4  
LX51 LINKER/LOCATER V4.64.0.0                                                         06/11/2018  11:54:47  PAGE 149


SHIFTREG_ENC_4_Start . . . . . . . . . . CODE     SHIFTREG_ENC_4  
SHIFTREG_ENC_4_Stop. . . . . . . . . . . CODE     SHIFTREG_ENC_4  
slide_cuff . . . . . . . . . . . . . . . CODE     COMMAND_PROCESSING  INTERRUPTIONS  
SP . . . . . . . . . . . . . . . . . . . DATA     COMMAND_PROCESSING  
SpcLockState . . . . . . . . . . . . . . XDATA    CYSPC  
STARTUP1 . . . . . . . . . . . . . . . . CODE     ?C_STARTUP  
tension_valid. . . . . . . . . . . . . . BIT      GLOBALS  MAIN  
timer_value. . . . . . . . . . . . . . . XDATA    GLOBALS  COMMAND_PROCESSING  INTERRUPTIONS  
timer_value0 . . . . . . . . . . . . . . XDATA    GLOBALS  COMMAND_PROCESSING  INTERRUPTIONS  
UART_RS485_ClearRxBuffer . . . . . . . . CODE     UART_RS485  MAIN  
UART_RS485_ClearTxBuffer . . . . . . . . CODE     UART_RS485  COMMAND_PROCESSING  MAIN  
UART_RS485_Enable. . . . . . . . . . . . CODE     UART_RS485  
UART_RS485_errorStatus . . . . . . . . . XDATA    UART_RS485  UART_RS485_INT  
UART_RS485_GetByte . . . . . . . . . . . CODE     UART_RS485  
UART_RS485_GetChar . . . . . . . . . . . CODE     UART_RS485  INTERRUPTIONS  
UART_RS485_GetRxBufferSize . . . . . . . CODE     UART_RS485  INTERRUPTIONS  
UART_RS485_GetTxBufferSize . . . . . . . CODE     UART_RS485  
UART_RS485_Init. . . . . . . . . . . . . CODE     UART_RS485  MAIN  
UART_RS485_initVar . . . . . . . . . . . XDATA    UART_RS485  
UART_RS485_ReadControlRegister . . . . . CODE     UART_RS485  
UART_RS485_ReadRxData. . . . . . . . . . CODE     UART_RS485  
UART_RS485_ReadRxStatus. . . . . . . . . CODE     UART_RS485  MAIN  
UART_RS485_ReadTxStatus. . . . . . . . . CODE     UART_RS485  COMMAND_PROCESSING  
UART_RS485_rxBuffer. . . . . . . . . . . XDATA    UART_RS485  UART_RS485_INT  
UART_RS485_rxBufferLoopDetect. . . . . . XDATA    UART_RS485  UART_RS485_INT  
UART_RS485_rxBufferOverflow. . . . . . . XDATA    UART_RS485  UART_RS485_INT  
UART_RS485_rxBufferRead. . . . . . . . . XDATA    UART_RS485  UART_RS485_INT  
UART_RS485_rxBufferWrite . . . . . . . . XDATA    UART_RS485  UART_RS485_INT  
UART_RS485_RXISR . . . . . . . . . . . . CODE     UART_RS485_INT  UART_RS485  
UART_RS485_Start . . . . . . . . . . . . CODE     UART_RS485  MAIN  
UART_RS485_Stop. . . . . . . . . . . . . CODE     UART_RS485  MAIN  
WATCHDOG_COUNTER_Enable. . . . . . . . . CODE     WATCHDOG_COUNTER  
WATCHDOG_COUNTER_Init. . . . . . . . . . CODE     WATCHDOG_COUNTER  
WATCHDOG_COUNTER_initVar . . . . . . . . XDATA    WATCHDOG_COUNTER  
WATCHDOG_COUNTER_ReadCapture . . . . . . CODE     WATCHDOG_COUNTER  
WATCHDOG_COUNTER_ReadControlRegister . . CODE     WATCHDOG_COUNTER  
WATCHDOG_COUNTER_ReadCounter . . . . . . CODE     WATCHDOG_COUNTER  
WATCHDOG_COUNTER_ReadPeriod. . . . . . . CODE     WATCHDOG_COUNTER  
WATCHDOG_COUNTER_ReadStatusRegister. . . CODE     WATCHDOG_COUNTER  
WATCHDOG_COUNTER_Start . . . . . . . . . CODE     WATCHDOG_COUNTER  MAIN  
WATCHDOG_COUNTER_Stop. . . . . . . . . . CODE     WATCHDOG_COUNTER  
WATCHDOG_ENABLER_Read. . . . . . . . . . CODE     WATCHDOG_ENABLER  
watchdog_flag. . . . . . . . . . . . . . BIT      GLOBALS  INTERRUPTIONS  MAIN  
WATCHDOG_REFRESH_Read. . . . . . . . . . CODE     WATCHDOG_REFRESH  

Program Size: data=113.6 xdata=3732 const=3000 code=40165
LX51 RUN COMPLETE.  0 WARNING(S),  0 ERROR(S)
