LX51 LINKER/LOCATER V4.64.0.0                                                           01/12/2018  13:27:04  PAGE 1


LX51 LINKER/LOCATER V4.64.0.0, INVOKED BY:
C:\PROGRAM FILES (X86)\CYPRESS\PSOC CREATOR\4.1\PSOC CREATOR\IMPORT\KEIL\PK51\9.51\C51\BIN\LX51.EXE .\DP8051_Keil_951\Re
>> lease\command_processing.obj, .\DP8051_Keil_951\Release\globals.obj, .\DP8051_Keil_951\Release\main.obj, .\DP8051_Kei
>> l_951\Release\utils.obj, .\DP8051_Keil_951\Release\interruptions.obj, .\DP8051_Keil_951\Release\cyfitter_cfg.obj, .\D
>> P8051_Keil_951\Release\cuff_mod_firmware.lib, C:\Program Files (x86)\Cypress\PSoC Creator\4.1\PSoC Creator\psoc\conte
>> nt\cycomponentlibrary\CyComponentLibrary.cylib\DP8051\DP8051_Keil_951\Release\CyComponentLibrary.lib TO .\DP8051_Keil
>> _951\Release\cuff_mod_firmware.omf CODE RU RC (10) DW (16) WL (2) PR (.\DP8051_Keil_951\Release/cuff_mod_firmware.map
>> ) IX CL (XDATA (X:0X0000-X:0X1FFF)) CL (CODE (C:0X2600-C:0XFFBF)) CL (CONST (C:0X2600-C:0XFFBF))


CPU MODE:     8051 MODE
MEMORY MODEL: LARGE WITH FLOATING POINT ARITHMETIC


INPUT MODULES INCLUDED:
  .\DP8051_Keil_951\Release\command_processing.obj (COMMAND_PROCESSING)
         COMMENT TYPE 0: C51 V9.51
  .\DP8051_Keil_951\Release\globals.obj (GLOBALS)
         COMMENT TYPE 0: C51 V9.51
  .\DP8051_Keil_951\Release\main.obj (MAIN)
         COMMENT TYPE 0: C51 V9.51
  .\DP8051_Keil_951\Release\utils.obj (UTILS)
         COMMENT TYPE 0: C51 V9.51
  .\DP8051_Keil_951\Release\interruptions.obj (INTERRUPTIONS)
         COMMENT TYPE 0: C51 V9.51
  .\DP8051_Keil_951\Release\cyfitter_cfg.obj (CYFITTER_CFG)
         COMMENT TYPE 0: C51 V9.51
  .\DP8051_Keil_951\Release\cuff_mod_firmware.lib (UART_RS485)
         COMMENT TYPE 0: C51 V9.51
  .\DP8051_Keil_951\Release\cuff_mod_firmware.lib (PWM_MOTORS)
         COMMENT TYPE 0: C51 V9.51
  .\DP8051_Keil_951\Release\cuff_mod_firmware.lib (ISR_RS485_RX)
         COMMENT TYPE 0: C51 V9.51
  .\DP8051_Keil_951\Release\cuff_mod_firmware.lib (CLOCK_UART)
         COMMENT TYPE 0: C51 V9.51
  .\DP8051_Keil_951\Release\cuff_mod_firmware.lib (COUNTER_ENC)
         COMMENT TYPE 0: C51 V9.51
  .\DP8051_Keil_951\Release\cuff_mod_firmware.lib (SHIFTREG_ENC_1)
         COMMENT TYPE 0: C51 V9.51
  .\DP8051_Keil_951\Release\cuff_mod_firmware.lib (SHIFTREG_ENC_2)
         COMMENT TYPE 0: C51 V9.51
  .\DP8051_Keil_951\Release\cuff_mod_firmware.lib (SHIFTREG_ENC_3)
         COMMENT TYPE 0: C51 V9.51
  .\DP8051_Keil_951\Release\cuff_mod_firmware.lib (EEPROM)
         COMMENT TYPE 0: C51 V9.51
  .\DP8051_Keil_951\Release\cuff_mod_firmware.lib (SHIFTREG_ENC_4)
         COMMENT TYPE 0: C51 V9.51
  .\DP8051_Keil_951\Release\cuff_mod_firmware.lib (RS485_CTS)
         COMMENT TYPE 0: C51 V9.51
  .\DP8051_Keil_951\Release\cuff_mod_firmware.lib (MOTOR_ON_OFF)
         COMMENT TYPE 0: C51 V9.51
  .\DP8051_Keil_951\Release\cuff_mod_firmware.lib (BOOTLOADABLE)
         COMMENT TYPE 0: C51 V9.51
  .\DP8051_Keil_951\Release\cuff_mod_firmware.lib (MY_TIMER)
         COMMENT TYPE 0: C51 V9.51
  .\DP8051_Keil_951\Release\cuff_mod_firmware.lib (FTDI_ENABLE_REG)
         COMMENT TYPE 0: C51 V9.51
  .\DP8051_Keil_951\Release\cuff_mod_firmware.lib (PACER_TIMER)
         COMMENT TYPE 0: C51 V9.51
  .\DP8051_Keil_951\Release\cuff_mod_firmware.lib (FF_STATUS)
         COMMENT TYPE 0: C51 V9.51
  .\DP8051_Keil_951\Release\cuff_mod_firmware.lib (RESET_FF)
         COMMENT TYPE 0: C51 V9.51
  .\DP8051_Keil_951\Release\cuff_mod_firmware.lib (MOTOR_DIR)
         COMMENT TYPE 0: C51 V9.51
  .\DP8051_Keil_951\Release\cuff_mod_firmware.lib (ADC_STATUS)
LX51 LINKER/LOCATER V4.64.0.0                                                         01/12/2018  13:27:04  PAGE 2


         COMMENT TYPE 0: C51 V9.51
  .\DP8051_Keil_951\Release\cuff_mod_firmware.lib (ADC)
         COMMENT TYPE 0: C51 V9.51
  .\DP8051_Keil_951\Release\cuff_mod_firmware.lib (DMA_DMA)
         COMMENT TYPE 0: C51 V9.51
  .\DP8051_Keil_951\Release\cuff_mod_firmware.lib (ADC_SOC)
         COMMENT TYPE 0: C51 V9.51
  .\DP8051_Keil_951\Release\cuff_mod_firmware.lib (ISR_WATCHDOG)
         COMMENT TYPE 0: C51 V9.51
  .\DP8051_Keil_951\Release\cuff_mod_firmware.lib (WATCHDOG_COUNTER)
         COMMENT TYPE 0: C51 V9.51
  .\DP8051_Keil_951\Release\cuff_mod_firmware.lib (WATCHDOG_ENABLER)
         COMMENT TYPE 0: C51 V9.51
  .\DP8051_Keil_951\Release\cuff_mod_firmware.lib (WATCHDOG_REFRESH)
         COMMENT TYPE 0: C51 V9.51
  .\DP8051_Keil_951\Release\cuff_mod_firmware.lib (CYDMAC)
         COMMENT TYPE 0: C51 V9.51
  .\DP8051_Keil_951\Release\cuff_mod_firmware.lib (CYLIB)
         COMMENT TYPE 0: C51 V9.51
  .\DP8051_Keil_951\Release\cuff_mod_firmware.lib (CYBOOTASMKEIL)
         COMMENT TYPE 0: AX51 V3.07d
  .\DP8051_Keil_951\Release\cuff_mod_firmware.lib (CYMEM)
         COMMENT TYPE 0: AX51 V3.07d
  .\DP8051_Keil_951\Release\cuff_mod_firmware.lib (?C_STARTUP)
         COMMENT TYPE 0: AX51 V3.07d
  .\DP8051_Keil_951\Release\cuff_mod_firmware.lib (UART_RS485_INT)
         COMMENT TYPE 0: C51 V9.51
  .\DP8051_Keil_951\Release\cuff_mod_firmware.lib (ADC_INT)
         COMMENT TYPE 0: C51 V9.51
  .\DP8051_Keil_951\Release\cuff_mod_firmware.lib (ADC_AMUX)
         COMMENT TYPE 0: C51 V9.51
  .\DP8051_Keil_951\Release\cuff_mod_firmware.lib (ADC_EXT_CP_CLK)
         COMMENT TYPE 0: C51 V9.51
  .\DP8051_Keil_951\Release\cuff_mod_firmware.lib (ADC_THEACLK)
         COMMENT TYPE 0: C51 V9.51
  .\DP8051_Keil_951\Release\cuff_mod_firmware.lib (CYFLASH)
         COMMENT TYPE 0: C51 V9.51
  .\DP8051_Keil_951\Release\cuff_mod_firmware.lib (CYPM)
         COMMENT TYPE 0: C51 V9.51
  .\DP8051_Keil_951\Release\cuff_mod_firmware.lib (CYSPC)
         COMMENT TYPE 0: C51 V9.51
  C:\PROGRAM FILES (X86)\CYPRESS\PSOC CREATOR\4.1\PSOC CREATOR\IMPORT\KEIL\PK51\9.51\C51\LIB\C51FPL.LIB (?C?FPMUL)
         COMMENT TYPE 1: A51 / ASM51 Assembler
  C:\PROGRAM FILES (X86)\CYPRESS\PSOC CREATOR\4.1\PSOC CREATOR\IMPORT\KEIL\PK51\9.51\C51\LIB\C51FPL.LIB (?C?FPDIV)
         COMMENT TYPE 1: A51 / ASM51 Assembler
  C:\PROGRAM FILES (X86)\CYPRESS\PSOC CREATOR\4.1\PSOC CREATOR\IMPORT\KEIL\PK51\9.51\C51\LIB\C51FPL.LIB (?C?FPCMP)
         COMMENT TYPE 1: A51 / ASM51 Assembler
  C:\PROGRAM FILES (X86)\CYPRESS\PSOC CREATOR\4.1\PSOC CREATOR\IMPORT\KEIL\PK51\9.51\C51\LIB\C51FPL.LIB (?C?FCAST)
         COMMENT TYPE 1: A51 / ASM51 Assembler
  C:\PROGRAM FILES (X86)\CYPRESS\PSOC CREATOR\4.1\PSOC CREATOR\IMPORT\KEIL\PK51\9.51\C51\LIB\C51FPL.LIB (?C?CASTF)
         COMMENT TYPE 1: A51 / ASM51 Assembler
  C:\PROGRAM FILES (X86)\CYPRESS\PSOC CREATOR\4.1\PSOC CREATOR\IMPORT\KEIL\PK51\9.51\C51\LIB\C51FPL.LIB (PRINTF)
         COMMENT TYPE 1: A51 / ASM51 Assembler
  C:\PROGRAM FILES (X86)\CYPRESS\PSOC CREATOR\4.1\PSOC CREATOR\IMPORT\KEIL\PK51\9.51\C51\LIB\C51FPL.LIB (?C?FPGETOPN)
         COMMENT TYPE 1: A51 / ASM51 Assembler
  C:\PROGRAM FILES (X86)\CYPRESS\PSOC CREATOR\4.1\PSOC CREATOR\IMPORT\KEIL\PK51\9.51\C51\LIB\C51FPL.LIB (?C?FPROUND)
         COMMENT TYPE 1: A51 / ASM51 Assembler
  C:\PROGRAM FILES (X86)\CYPRESS\PSOC CREATOR\4.1\PSOC CREATOR\IMPORT\KEIL\PK51\9.51\C51\LIB\C51FPL.LIB (?C?FPCONVERT)
         COMMENT TYPE 1: A51 / ASM51 Assembler
  C:\PROGRAM FILES (X86)\CYPRESS\PSOC CREATOR\4.1\PSOC CREATOR\IMPORT\KEIL\PK51\9.51\C51\LIB\C51FPL.LIB (?C?FPADD)
         COMMENT TYPE 1: A51 / ASM51 Assembler
  C:\PROGRAM FILES (X86)\CYPRESS\PSOC CREATOR\4.1\PSOC CREATOR\IMPORT\KEIL\PK51\9.51\C51\LIB\C51FPL.LIB (?C?FTNPWR)
         COMMENT TYPE 1: A51 / ASM51 Assembler
  C:\PROGRAM FILES (X86)\CYPRESS\PSOC CREATOR\4.1\PSOC CREATOR\IMPORT\KEIL\PK51\9.51\C51\LIB\C51L.LIB (?C_INIT)
         COMMENT TYPE 1: A51 / ASM51 Assembler
LX51 LINKER/LOCATER V4.64.0.0                                                         01/12/2018  13:27:04  PAGE 3


  C:\PROGRAM FILES (X86)\CYPRESS\PSOC CREATOR\4.1\PSOC CREATOR\IMPORT\KEIL\PK51\9.51\C51\LIB\C51L.LIB (?C?CLDPTR)
         COMMENT TYPE 1: A51 / ASM51 Assembler
  C:\PROGRAM FILES (X86)\CYPRESS\PSOC CREATOR\4.1\PSOC CREATOR\IMPORT\KEIL\PK51\9.51\C51\LIB\C51L.LIB (?C?CLDOPTR)
         COMMENT TYPE 1: A51 / ASM51 Assembler
  C:\PROGRAM FILES (X86)\CYPRESS\PSOC CREATOR\4.1\PSOC CREATOR\IMPORT\KEIL\PK51\9.51\C51\LIB\C51L.LIB (?C?CSTPTR)
         COMMENT TYPE 1: A51 / ASM51 Assembler
  C:\PROGRAM FILES (X86)\CYPRESS\PSOC CREATOR\4.1\PSOC CREATOR\IMPORT\KEIL\PK51\9.51\C51\LIB\C51L.LIB (?C?IMUL)
         COMMENT TYPE 1: A51 / ASM51 Assembler
  C:\PROGRAM FILES (X86)\CYPRESS\PSOC CREATOR\4.1\PSOC CREATOR\IMPORT\KEIL\PK51\9.51\C51\LIB\C51L.LIB (?C?ISTPTR)
         COMMENT TYPE 1: A51 / ASM51 Assembler
  C:\PROGRAM FILES (X86)\CYPRESS\PSOC CREATOR\4.1\PSOC CREATOR\IMPORT\KEIL\PK51\9.51\C51\LIB\C51L.LIB (?C?LMUL)
         COMMENT TYPE 1: A51 / ASM51 Assembler
  C:\PROGRAM FILES (X86)\CYPRESS\PSOC CREATOR\4.1\PSOC CREATOR\IMPORT\KEIL\PK51\9.51\C51\LIB\C51L.LIB (?C?ULDIV)
         COMMENT TYPE 1: A51 / ASM51 Assembler
  C:\PROGRAM FILES (X86)\CYPRESS\PSOC CREATOR\4.1\PSOC CREATOR\IMPORT\KEIL\PK51\9.51\C51\LIB\C51L.LIB (?C?SLDIV)
         COMMENT TYPE 1: A51 / ASM51 Assembler
  C:\PROGRAM FILES (X86)\CYPRESS\PSOC CREATOR\4.1\PSOC CREATOR\IMPORT\KEIL\PK51\9.51\C51\LIB\C51L.LIB (?C?LNOT)
         COMMENT TYPE 1: A51 / ASM51 Assembler
  C:\PROGRAM FILES (X86)\CYPRESS\PSOC CREATOR\4.1\PSOC CREATOR\IMPORT\KEIL\PK51\9.51\C51\LIB\C51L.LIB (?C?LNEG)
         COMMENT TYPE 1: A51 / ASM51 Assembler
  C:\PROGRAM FILES (X86)\CYPRESS\PSOC CREATOR\4.1\PSOC CREATOR\IMPORT\KEIL\PK51\9.51\C51\LIB\C51L.LIB (?C?SLCMP)
         COMMENT TYPE 1: A51 / ASM51 Assembler
  C:\PROGRAM FILES (X86)\CYPRESS\PSOC CREATOR\4.1\PSOC CREATOR\IMPORT\KEIL\PK51\9.51\C51\LIB\C51L.LIB (?C?ULCMP)
         COMMENT TYPE 1: A51 / ASM51 Assembler
  C:\PROGRAM FILES (X86)\CYPRESS\PSOC CREATOR\4.1\PSOC CREATOR\IMPORT\KEIL\PK51\9.51\C51\LIB\C51L.LIB (?C?ULSHR)
         COMMENT TYPE 1: A51 / ASM51 Assembler
  C:\PROGRAM FILES (X86)\CYPRESS\PSOC CREATOR\4.1\PSOC CREATOR\IMPORT\KEIL\PK51\9.51\C51\LIB\C51L.LIB (?C?SLSHR)
         COMMENT TYPE 1: A51 / ASM51 Assembler
  C:\PROGRAM FILES (X86)\CYPRESS\PSOC CREATOR\4.1\PSOC CREATOR\IMPORT\KEIL\PK51\9.51\C51\LIB\C51L.LIB (?C?LSHL)
         COMMENT TYPE 1: A51 / ASM51 Assembler
  C:\PROGRAM FILES (X86)\CYPRESS\PSOC CREATOR\4.1\PSOC CREATOR\IMPORT\KEIL\PK51\9.51\C51\LIB\C51L.LIB (?C?LLDPTR)
         COMMENT TYPE 1: A51 / ASM51 Assembler
  C:\PROGRAM FILES (X86)\CYPRESS\PSOC CREATOR\4.1\PSOC CREATOR\IMPORT\KEIL\PK51\9.51\C51\LIB\C51L.LIB (?C?LSTPTR)
         COMMENT TYPE 1: A51 / ASM51 Assembler
  C:\PROGRAM FILES (X86)\CYPRESS\PSOC CREATOR\4.1\PSOC CREATOR\IMPORT\KEIL\PK51\9.51\C51\LIB\C51L.LIB (?C?LSTXDATA)
         COMMENT TYPE 1: A51 / ASM51 Assembler
  C:\PROGRAM FILES (X86)\CYPRESS\PSOC CREATOR\4.1\PSOC CREATOR\IMPORT\KEIL\PK51\9.51\C51\LIB\C51L.LIB (?C?PLDIXDATA)
         COMMENT TYPE 1: A51 / ASM51 Assembler
  C:\PROGRAM FILES (X86)\CYPRESS\PSOC CREATOR\4.1\PSOC CREATOR\IMPORT\KEIL\PK51\9.51\C51\LIB\C51L.LIB (?C?PSTXDATA)
         COMMENT TYPE 1: A51 / ASM51 Assembler
  C:\PROGRAM FILES (X86)\CYPRESS\PSOC CREATOR\4.1\PSOC CREATOR\IMPORT\KEIL\PK51\9.51\C51\LIB\C51L.LIB (?C?CCASE)
         COMMENT TYPE 1: A51 / ASM51 Assembler
  C:\PROGRAM FILES (X86)\CYPRESS\PSOC CREATOR\4.1\PSOC CREATOR\IMPORT\KEIL\PK51\9.51\C51\LIB\C51L.LIB (?C_XBP)
         COMMENT TYPE 1: A51 / ASM51 Assembler
  C:\PROGRAM FILES (X86)\CYPRESS\PSOC CREATOR\4.1\PSOC CREATOR\IMPORT\KEIL\PK51\9.51\C51\LIB\C51L.LIB (?C?ADDXBP)
         COMMENT TYPE 1: A51 / ASM51 Assembler
  C:\PROGRAM FILES (X86)\CYPRESS\PSOC CREATOR\4.1\PSOC CREATOR\IMPORT\KEIL\PK51\9.51\C51\LIB\C51L.LIB (?C?LIMUL)
         COMMENT TYPE 1: A51 / ASM51 Assembler
  C:\PROGRAM FILES (X86)\CYPRESS\PSOC CREATOR\4.1\PSOC CREATOR\IMPORT\KEIL\PK51\9.51\C51\LIB\C51L.LIB (PUTCHAR)
         COMMENT TYPE 1: A51 / ASM51 Assembler
  C:\PROGRAM FILES (X86)\CYPRESS\PSOC CREATOR\4.1\PSOC CREATOR\IMPORT\KEIL\PK51\9.51\C51\LIB\C51L.LIB (ABS)
         COMMENT TYPE 1: A51 / ASM51 Assembler
  C:\PROGRAM FILES (X86)\CYPRESS\PSOC CREATOR\4.1\PSOC CREATOR\IMPORT\KEIL\PK51\9.51\C51\LIB\C51L.LIB (STRCAT)
         COMMENT TYPE 1: C51 Compiler
  C:\PROGRAM FILES (X86)\CYPRESS\PSOC CREATOR\4.1\PSOC CREATOR\IMPORT\KEIL\PK51\9.51\C51\LIB\C51L.LIB (STRLEN)
         COMMENT TYPE 1: A51 / ASM51 Assembler
  C:\PROGRAM FILES (X86)\CYPRESS\PSOC CREATOR\4.1\PSOC CREATOR\IMPORT\KEIL\PK51\9.51\C51\LIB\C51L.LIB (?C?COPYAMD)
         COMMENT TYPE 1: A51 / ASM51 Assembler
  C:\PROGRAM FILES (X86)\CYPRESS\PSOC CREATOR\4.1\PSOC CREATOR\IMPORT\KEIL\PK51\9.51\C51\LIB\C51L.LIB (?C?STRCPYAMD)
         COMMENT TYPE 1: A51 / ASM51 Assembler
  C:\PROGRAM FILES (X86)\CYPRESS\PSOC CREATOR\4.1\PSOC CREATOR\IMPORT\KEIL\PK51\9.51\C51\LIB\C51L.LIB (?C?IILDX)
         COMMENT TYPE 1: A51 / ASM51 Assembler
  C:\PROGRAM FILES (X86)\CYPRESS\PSOC CREATOR\4.1\PSOC CREATOR\IMPORT\KEIL\PK51\9.51\C51\LIB\C51L.LIB (?C?ILDIX)
         COMMENT TYPE 1: A51 / ASM51 Assembler
  C:\PROGRAM FILES (X86)\CYPRESS\PSOC CREATOR\4.1\PSOC CREATOR\IMPORT\KEIL\PK51\9.51\C51\LIB\C51L.LIB (?C?LLDIDATA)
LX51 LINKER/LOCATER V4.64.0.0                                                         01/12/2018  13:27:04  PAGE 4


         COMMENT TYPE 1: A51 / ASM51 Assembler
  C:\PROGRAM FILES (X86)\CYPRESS\PSOC CREATOR\4.1\PSOC CREATOR\IMPORT\KEIL\PK51\9.51\C51\LIB\C51L.LIB (?C?LLDXDATA)
         COMMENT TYPE 1: A51 / ASM51 Assembler
  C:\PROGRAM FILES (X86)\CYPRESS\PSOC CREATOR\4.1\PSOC CREATOR\IMPORT\KEIL\PK51\9.51\C51\LIB\C51L.LIB (?C?LLDPDATA)
         COMMENT TYPE 1: A51 / ASM51 Assembler
  C:\PROGRAM FILES (X86)\CYPRESS\PSOC CREATOR\4.1\PSOC CREATOR\IMPORT\KEIL\PK51\9.51\C51\LIB\C51L.LIB (?C?LLDCODE)
         COMMENT TYPE 1: A51 / ASM51 Assembler
  C:\PROGRAM FILES (X86)\CYPRESS\PSOC CREATOR\4.1\PSOC CREATOR\IMPORT\KEIL\PK51\9.51\C51\LIB\C51L.LIB (?C?LSTIDATA)
         COMMENT TYPE 1: A51 / ASM51 Assembler
  C:\PROGRAM FILES (X86)\CYPRESS\PSOC CREATOR\4.1\PSOC CREATOR\IMPORT\KEIL\PK51\9.51\C51\LIB\C51L.LIB (?C?LSTPDATA)
         COMMENT TYPE 1: A51 / ASM51 Assembler


ACTIVE MEMORY CLASSES OF MODULE:  .\DP8051_Keil_951\Release\cuff_mod_firmware.omf (COMMAND_PROCESSING)

BASE        START       END         USED      MEMORY CLASS
==========================================================
X:000000H   X:000000H   X:001FFFH   000E02H   XDATA
C:000000H   C:002600H   C:00FFBFH   0092CFH   CODE
C:000000H   C:002600H   C:00FFBFH   000BB8H   CONST
I:000000H   I:000000H   I:00007FH   00006DH   DATA
I:000020H.0 I:000020H.0 I:00002FH.7 000002H.3 BIT
I:000000H   I:000000H   I:0000FFH   000004H   IDATA


MEMORY MAP OF MODULE:  .\DP8051_Keil_951\Release\cuff_mod_firmware.omf (COMMAND_PROCESSING)


START     STOP      LENGTH    ALIGN  RELOC    MEMORY CLASS   SEGMENT NAME
=========================================================================

* * * * * * * * * * *   D A T A   M E M O R Y   * * * * * * * * * * * * *
000000H   000007H   000008H   ---    AT..     DATA           "REG BANK 0"
000008H   00000DH   000006H   BYTE   UNIT     DATA           ?DT?INTERRUPTIONS
00000EH   00000FH   000002H   BYTE   UNIT     DATA           ?C?LIB_DATA
000010H   000012H   000003H   BYTE   UNIT     IDATA          _IDATA_GROUP_
000013H.0 00001FH.7 00000DH.0 ---    ---      **GAP**
000020H.0 000021H.1 000001H.2 BIT    UNIT     BIT            _BIT_GROUP_
000021H.2 000021H.7 000000H.6 BIT    UNIT     BIT            ?BI?GLOBALS
000022H.0 000022H.2 000000H.3 BIT    UNIT     BIT            ?BI?INTERRUPTIONS
000022H.3 000022H   000000H.5 ---    ---      **GAP**
000023H   00007FH   00005DH   BYTE   UNIT     DATA           _DATA_GROUP_
000080H   000080H   000001H   BYTE   UNIT     IDATA          ?STACK

* * * * * * * * * * *   C O D E   M E M O R Y   * * * * * * * * * * * * *
002600H   002619H   00001AH   ---    OFFS..   CODE           ?CO?KEILSTART?3
00261AH   003C80H   001667H   BYTE   UNIT     CODE           ?PR?_GET_PARAM_LIST?COMMAND_PROCESSING
003C81H   004EBAH   00123AH   BYTE   UNIT     CODE           ?PR?_INFOPREPARE?COMMAND_PROCESSING
004EBBH   005DB4H   000EFAH   BYTE   UNIT     CODE           ?CO?COMMAND_PROCESSING
005DB5H   006AF0H   000D3CH   BYTE   UNIT     CODE           ?PR?_MOTOR_CONTROL?INTERRUPTIONS
006AF1H   0075A6H   000AB6H   BYTE   UNIT     CODE           ?C?LIB_CODE
0075A7H   007A29H   000483H   BYTE   UNIT     CODE           ?PR?PRINTF?PRINTF
007A2AH   007D59H   000330H   BYTE   UNIT     CODE           ?PR?CMD_STORE_PARAMS?COMMAND_PROCESSING
007D5AH   00804EH   0002F5H   BYTE   UNIT     CODE           ?PR?_ENCODER_READING?INTERRUPTIONS
00804FH   0082BCH   00026EH   BYTE   UNIT     CODE           ?PR?MAIN?MAIN
0082BDH   0084D2H   000216H   BYTE   UNIT     CODE           ?PR?DRIVE_CUFF?COMMAND_PROCESSING
0084D3H   0086B1H   0001DFH   BYTE   UNIT     CODE           ?PR?SLIDE_CUFF?COMMAND_PROCESSING
0086B2H   00887CH   0001CBH   BYTE   UNIT     CODE           ?PR?CALIBRATION?INTERRUPTIONS
00887DH   008A3FH   0001C3H   BYTE   UNIT     CODE           ?PR?MEMINIT?COMMAND_PROCESSING
008A40H   008BE0H   0001A1H   BYTE   UNIT     CODE           ?PR?_ADC_GAINCOMPENSATION?ADC
008BE1H   008D5FH   00017FH   BYTE   UNIT     CODE           ?PR?CLOCKSETUP?CYFITTER_CFG
008D60H   008ECAH   00016BH   BYTE   UNIT     CODE           ?PR?CMD_SET_POS_STIFF?COMMAND_PROCESSING
008ECBH   00900CH   000142H   BYTE   UNIT     CODE           ?PR?CMD_SET_INPUTS?COMMAND_PROCESSING
00900DH   009146H   00013AH   BYTE   UNIT     CODE           ?PR?COMMPROCESS?COMMAND_PROCESSING
009147H   009277H   000131H   BYTE   UNIT     CODE           ?PR?_ADC_EXT_CP_CLK_SETDIVIDERREGISTER?ADC_EXT_CP_CLK
LX51 LINKER/LOCATER V4.64.0.0                                                         01/12/2018  13:27:04  PAGE 5


009278H   0093A7H   000130H   BYTE   UNIT     CODE           ?PR?_CLOCK_UART_SETDIVIDERREGISTER?CLOCK_UART
0093A8H   0094D6H   00012FH   BYTE   UNIT     CODE           ?PR?INTERRUPT_MANAGER?INTERRUPTIONS
0094D7H   009605H   00012FH   BYTE   UNIT     CODE           ?PR?_ADC_THEACLK_SETDIVIDERREGISTER?ADC_THEACLK
009606H   00972CH   000127H   BYTE   UNIT     CODE           ?PR?PWM_LIMIT_SEARCH?INTERRUPTIONS
00972DH   009849H   00011DH   BYTE   UNIT     CODE           ?C_C51STARTUP
00984AH   009960H   000117H   BYTE   UNIT     CODE           ?PR?CYFITTER_CFG?CYFITTER_CFG
009961H   009A62H   000102H   BYTE   UNIT     CODE           ?PR?ANALOG_READ_END?INTERRUPTIONS
009A63H   009B63H   000101H   BYTE   UNIT     CODE           ?PR?FUNCTION_SCHEDULER?INTERRUPTIONS
009B64H   009C4CH   0000E9H   BYTE   UNIT     CODE           ?PR?CFG_DMA_INIT?CYFITTER_CFG
009C4DH   009D2BH   0000DFH   BYTE   UNIT     CODE           ?PR?_EEPROM_WRITE?EEPROM
009D2CH   009DDDH   0000B2H   BYTE   UNIT     CODE           ?PR?_MEMSTORE?COMMAND_PROCESSING
009DDEH   009E8EH   0000B1H   BYTE   UNIT     CODE           ?PR?ADC_INIT?ADC
009E8FH   009F3FH   0000B1H   BYTE   UNIT     CODE           ?PR?UART_RS485_RXISR?UART_RS485_INT
009F40H   009FEDH   0000AEH   BYTE   UNIT     CODE           ?PR?_ADC_INITCONFIG?ADC
009FEEH   00A090H   0000A3H   BYTE   UNIT     CODE           ?PR?_COMMWRITE?COMMAND_PROCESSING
00A091H   00A12EH   00009EH   BYTE   UNIT     CODE           ?C_INITSEG
00A12FH   00A1BFH   000091H   BYTE   UNIT     CODE           ?PR?CMD_GET_CURR_AND_MEAS?COMMAND_PROCESSING
00A1C0H   00A24CH   00008DH   BYTE   UNIT     CODE           ?PR?_COMMWRITE_OLD_ID?COMMAND_PROCESSING
00A24DH   00A2D4H   000088H   BYTE   UNIT     CODE           ?PR?ADC_ENABLE?ADC
00A2D5H   00A35CH   000088H   BYTE   UNIT     CODE           ?PR?_?CYDELAY?CYLIB
00A35DH   00A3E3H   000087H   BYTE   UNIT     CODE           ?PR?_CYDMATDSETCONFIGURATION?CYDMAC
00A3E4H   00A466H   000083H   BYTE   UNIT     CODE           ?PR?SETZEROS?COMMAND_PROCESSING
00A467H   00A4DFH   000079H   BYTE   UNIT     CODE           ?PR?_CYDMACHSETCONFIGURATION?CYDMAC
00A4E0H   00A557H   000078H   BYTE   UNIT     CODE           ?PR?_CYDMACHSETEXTENDEDADDRESS?CYDMAC
00A558H   00A5CFH   000078H   BYTE   UNIT     CODE           ?PR?_CYDMATDSETADDRESS?CYDMAC
00A5D0H   00A644H   000075H   BYTE   UNIT     CODE           ?PR?_FILTER_I1?UTILS
00A645H   00A6B9H   000075H   BYTE   UNIT     CODE           ?PR?_FILTER_I2?UTILS
00A6BAH   00A72CH   000073H   BYTE   UNIT     CODE           ?PR?_CYSPCLOADROW?CYSPC
00A72DH   00A79DH   000071H   BYTE   UNIT     CODE           ?PR?CMD_GET_MEASUREMENTS?COMMAND_PROCESSING
00A79EH   00A808H   00006BH   BYTE   UNIT     CODE           ?PR?_CHECK_ENC_DATA?UTILS
00A809H   00A873H   00006BH   BYTE   UNIT     CODE           ?PR?_STRCAT?STRCAT
00A874H   00A8D9H   000066H   BYTE   UNIT     CODE           ?PR?CMD_GET_INPUTS?COMMAND_PROCESSING
00A8DAH   00A939H   000060H   BYTE   UNIT     CODE           ?PR?_CYSPCREADDATA?CYSPC
00A93AH   00A994H   00005BH   BYTE   UNIT     CODE           ?PR?UART_RS485_GETCHAR?UART_RS485
00A995H   00A9EEH   00005AH   BYTE   UNIT     CODE           ?PR?CMD_GET_VELOCITIES?COMMAND_PROCESSING
00A9EFH   00AA44H   000056H   BYTE   UNIT     CODE           ?PR?CYSETTEMPINT?CYFLASH
00AA45H   00AA98H   000054H   BYTE   UNIT     CODE           ?PR?_CYINTSETVECTOR?CYLIB
00AA99H   00AAECH   000054H   BYTE   UNIT     CODE           ?PR?_CYSPCWRITEROW?CYSPC
00AAEDH   00AB3CH   000050H   BYTE   UNIT     CODE           ?PR?CYFLASHGETSPCALGORITHM?CYFLASH
00AB3DH   00AB8BH   00004FH   BYTE   UNIT     CODE           ?PR?UART_RS485_GETRXBUFFERSIZE?UART_RS485
00AB8CH   00ABD8H   00004DH   BYTE   UNIT     CODE           ?PR?MEMRECALL?COMMAND_PROCESSING
00ABD9H   00AC23H   00004BH   BYTE   UNIT     CODE           ?PR?_CYDMACHENABLE?CYDMAC
00AC24H   00AC6DH   00004AH   BYTE   UNIT     CODE           ?PR?_DMA_DMAINITIALIZE?DMA_DMA
00AC6EH   00ACB4H   000047H   BYTE   UNIT     CODE           ?PR?MEMRESTORE?COMMAND_PROCESSING
00ACB5H   00ACFAH   000046H   BYTE   UNIT     CODE           ?PR?CMD_GET_CURRENTS?COMMAND_PROCESSING
00ACFBH   00AD3EH   000044H   BYTE   UNIT     CODE           ?C?LDIV
00AD3FH   00AD81H   000043H   BYTE   UNIT     CODE           ?PR?CMD_ACTIVATE?COMMAND_PROCESSING
00AD82H   00ADC2H   000041H   BYTE   UNIT     CODE           ?PR?CMD_SET_WATCHDOG?COMMAND_PROCESSING
00ADC3H   00AE02H   000040H   BYTE   UNIT     CODE           ?PR?_CYDMACHPRIORITY?CYDMAC
00AE03H   00AE40H   00003EH   BYTE   UNIT     CODE           ?PR?CYDMATDALLOCATE?CYDMAC
00AE41H   00AE7DH   00003DH   BYTE   UNIT     CODE           ?PR?_ADC_SETDSMREF0REG?ADC
00AE7EH   00AEB9H   00003CH   BYTE   UNIT     CODE           ?PR?PACER_TIMER_INIT?PACER_TIMER
00AEBAH   00AEF1H   000038H   BYTE   UNIT     CODE           ?PR?WATCHDOG_COUNTER_INIT?WATCHDOG_COUNTER
00AEF2H   00AEFFH   00000EH   BYTE   UNIT     CODE           ?PR?_ISR_RS485_RX_SETVECTOR?ISR_RS485_RX
00AF00H   00AF3AH   00003BH   PAGE   UNIT     CODE           ?PR?CYDELAYCYCLES?CYBOOTASMKEIL
00AF3BH   00AF70H   000036H   BYTE   UNIT     CODE           ?PR?CYDMACCONFIGURE?CYDMAC
00AF71H   00AFA5H   000035H   BYTE   UNIT     CODE           ?PR?COUNTER_ENC_INIT?COUNTER_ENC
00AFA6H   00AFD9H   000034H   BYTE   UNIT     CODE           ?PR?_UART_RS485_PUTSTRING?UART_RS485
00AFDAH   00B00DH   000034H   BYTE   UNIT     CODE           ?PR?_CYCONFIGCPY?CYMEM
00B00EH   00B040H   000033H   BYTE   UNIT     CODE           ?PR?UART_RS485_INIT?UART_RS485
00B041H   00B072H   000032H   BYTE   UNIT     CODE           ?PR?_LCRCHECKSUM?UTILS
00B073H   00B0A3H   000031H   BYTE   UNIT     CODE           ?PR?_ADC_AMUX_UNSET?CYFITTER_CFG
00B0A4H   00B0D4H   000031H   BYTE   UNIT     CODE           ?PR?CYEEPROM_START?CYFLASH
00B0D5H   00B104H   000030H   BYTE   UNIT     CODE           ?PR?CMD_GET_ACTIVATE?COMMAND_PROCESSING
00B105H   00B134H   000030H   BYTE   UNIT     CODE           ?PR?_ADC_AMUX_SET?CYFITTER_CFG
LX51 LINKER/LOCATER V4.64.0.0                                                         01/12/2018  13:27:04  PAGE 6


00B135H   00B163H   00002FH   BYTE   UNIT     CODE           ?PR?UART_RS485_CLEARRXBUFFER?UART_RS485
00B164H   00B191H   00002EH   BYTE   UNIT     CODE           ?PR?_CYSPCGETTEMP?CYSPC
00B192H   00B192H   000001H   BYTE   UNIT     CODE           ?PR?ISR_RS485_RX_INTERRUPT?ISR_RS485_RX
00B193H   00B193H   000001H   BYTE   UNIT     CODE           ?PR?ISR_WATCHDOG_INTERRUPT?ISR_WATCHDOG
00B194H   00B1C0H   00002DH   DWORD  UNIT     CODE           ?PR?CYDELAYUS?CYBOOTASMKEIL
00B1C1H   00B1ECH   00002CH   BYTE   UNIT     CODE           ?PR?MY_TIMER_INIT?MY_TIMER
00B1EDH   00B213H   000027H   BYTE   UNIT     CODE           ?PR?ANALOGSETDEFAULT?CYFITTER_CFG
00B214H   00B23AH   000027H   BYTE   UNIT     CODE           ?PR?PUTCHAR?PUTCHAR
00B23BH   00B260H   000026H   BYTE   UNIT     CODE           ?PR?PWM_MOTORS_INIT?PWM_MOTORS
00B261H   00B286H   000026H   BYTE   UNIT     CODE           ?PR?CYCONFIGCPYCODE?CYMEM
00B287H   00B2A8H   000022H   BYTE   UNIT     CODE           ?PR?UART_RS485_ENABLE?UART_RS485
00B2A9H   00B2CAH   000022H   BYTE   UNIT     CODE           ?PR?UART_RS485_STOP?UART_RS485
00B2CBH   00B2EBH   000021H   BYTE   UNIT     CODE           ?PR?ADC_AMUX_START?ADC_AMUX
00B2ECH   00B30BH   000020H   BYTE   UNIT     CODE           ?PR?CMD_SET_BAUDRATE?COMMAND_PROCESSING
00B30CH   00B32AH   00001FH   BYTE   UNIT     CODE           ?PR?_ISR_RS485_RX_STARTEX?ISR_RS485_RX
00B32BH   00B349H   00001FH   BYTE   UNIT     CODE           ?PR?_ISR_WATCHDOG_STARTEX?ISR_WATCHDOG
00B34AH   00B368H   00001FH   BYTE   UNIT     CODE           ?PR?CYSPCLOCK?CYSPC
00B369H   00B386H   00001EH   BYTE   UNIT     CODE           ?PR?_CYDMACHSETINITIALTD?CYDMAC
00B387H   00B3A2H   00001CH   BYTE   UNIT     CODE           ?PR?_WATCHDOG_COUNTER_WRITECOUNTER?WATCHDOG_COUNTER
00B3A3H   00B3BDH   00001BH   BYTE   UNIT     CODE           ?PR?CYSPCGETALGORITHM?CYSPC
00B3BEH   00B3D6H   000019H   BYTE   UNIT     CODE           ?PR?_INFOGET?COMMAND_PROCESSING
00B3D7H   00B3EFH   000019H   BYTE   UNIT     CODE           ?PR?ADC_START?ADC
00B3F0H   00B408H   000019H   BYTE   UNIT     CODE           ?PR?_CYINTSETPRIORITY?CYLIB
00B409H   00B421H   000019H   BYTE   UNIT     CODE           ?PR?_ADC_AMUX_SELECT?ADC_AMUX
00B422H   00B439H   000018H   BYTE   UNIT     CODE           ?PR?CMD_PING?COMMAND_PROCESSING
00B43AH   00B451H   000018H   BYTE   UNIT     CODE           ?PR?CYEXITCRITICALSECTION?CYBOOTASMKEIL
00B452H   00B469H   000018H   BYTE   UNIT     CODE           ?PR?CYSETTEMP?CYFLASH
00B46AH   00B47FH   000016H   BYTE   UNIT     CODE           ?PR?_SENDACKNOWLEDGMENT?COMMAND_PROCESSING
00B480H   00B495H   000016H   BYTE   UNIT     CODE           ?PR?PACER_TIMER_ENABLE?PACER_TIMER
00B496H   00B4ABH   000016H   BYTE   UNIT     CODE           ?PR?WATCHDOG_COUNTER_ENABLE?WATCHDOG_COUNTER
00B4ACH   00B4C0H   000015H   BYTE   UNIT     CODE           ?PR?CYENTERCRITICALSECTION?CYBOOTASMKEIL
00B4C1H   00B4D5H   000015H   BYTE   UNIT     CODE           ?PR?CYSPCSTART?CYSPC
00B4D6H   00B4EAH   000015H   BYTE   UNIT     CODE           ?PR?_STRLEN?STRLEN
00B4EBH   00B4FEH   000014H   BYTE   UNIT     CODE           ?PR?UART_RS485_READRXSTATUS?UART_RS485
00B4FFH   00B511H   000013H   BYTE   UNIT     CODE           ?PR?UART_RS485_START?UART_RS485
00B512H   00B524H   000013H   BYTE   UNIT     CODE           ?PR?PWM_MOTORS_START?PWM_MOTORS
00B525H   00B537H   000013H   BYTE   UNIT     CODE           ?PR?COUNTER_ENC_START?COUNTER_ENC
00B538H   00B54AH   000013H   BYTE   UNIT     CODE           ?PR?SHIFTREG_ENC_1_START?SHIFTREG_ENC_1
00B54BH   00B55DH   000013H   BYTE   UNIT     CODE           ?PR?SHIFTREG_ENC_2_START?SHIFTREG_ENC_2
00B55EH   00B570H   000013H   BYTE   UNIT     CODE           ?PR?SHIFTREG_ENC_3_START?SHIFTREG_ENC_3
00B571H   00B583H   000013H   BYTE   UNIT     CODE           ?PR?MY_TIMER_START?MY_TIMER
00B584H   00B596H   000013H   BYTE   UNIT     CODE           ?PR?PACER_TIMER_START?PACER_TIMER
00B597H   00B5A9H   000013H   BYTE   UNIT     CODE           ?PR?WATCHDOG_COUNTER_START?WATCHDOG_COUNTER
00B5AAH   00B5BCH   000013H   BYTE   UNIT     CODE           ?PR?CYREAD24?CYMEM
00B5BDH   00B5CEH   000012H   BYTE   UNIT     CODE           ?PR?UART_RS485_CLEARTXBUFFER?UART_RS485
00B5CFH   00B5E0H   000012H   BYTE   UNIT     CODE           ?PR?CYWRITE24?CYMEM
00B5E1H   00B5F1H   000011H   BYTE   UNIT     CODE           ?PR?_SHIFTREG_ENC_1_SETINTMODE?SHIFTREG_ENC_1
00B5F2H   00B602H   000011H   BYTE   UNIT     CODE           ?PR?_SHIFTREG_ENC_2_SETINTMODE?SHIFTREG_ENC_2
00B603H   00B613H   000011H   BYTE   UNIT     CODE           ?PR?_SHIFTREG_ENC_3_SETINTMODE?SHIFTREG_ENC_3
00B614H   00B622H   00000FH   BYTE   UNIT     CODE           ?PR?MY_TIMER_READCOUNTER?MY_TIMER
00B623H   00B631H   00000FH   BYTE   UNIT     CODE           ?PR?CYREAD16?CYMEM
00B632H   00B640H   00000FH   BYTE   UNIT     CODE           ?PR?CYWRITE16?CYMEM
00B641H   00B64EH   00000EH   BYTE   UNIT     CODE           ?PR?SHIFTREG_ENC_1_ENABLEINT?SHIFTREG_ENC_1
00B64FH   00B65CH   00000EH   BYTE   UNIT     CODE           ?PR?SHIFTREG_ENC_2_ENABLEINT?SHIFTREG_ENC_2
00B65DH   00B66AH   00000EH   BYTE   UNIT     CODE           ?PR?SHIFTREG_ENC_3_ENABLEINT?SHIFTREG_ENC_3
00B66BH   00B678H   00000EH   BYTE   UNIT     CODE           ?PR?_PACER_TIMER_WRITEPERIOD?PACER_TIMER
00B679H   00B686H   00000EH   BYTE   UNIT     CODE           ?PR?_PACER_TIMER_WRITECOUNTER?PACER_TIMER
00B687H   00B694H   00000EH   BYTE   UNIT     CODE           ?PR?_ISR_WATCHDOG_SETVECTOR?ISR_WATCHDOG
00B695H   00B6A2H   00000EH   BYTE   UNIT     CODE           ?PR?_WATCHDOG_COUNTER_WRITEPERIOD?WATCHDOG_COUNTER
00B6A3H   00B6AFH   00000DH   BYTE   UNIT     CODE           ?PR?_UART_RS485_PUTCHAR?UART_RS485
00B6B0H   00B6BCH   00000DH   BYTE   UNIT     CODE           ?PR?COUNTER_ENC_CLEARFIFO?COUNTER_ENC
00B6BDH   00B6C9H   00000DH   BYTE   UNIT     CODE           ?PR?MY_TIMER_CLEARFIFO?MY_TIMER
00B6CAH   00B6D6H   00000DH   BYTE   UNIT     CODE           ?PR?_ADC_EXT_CP_CLK_SETMODEREGISTER?ADC_EXT_CP_CLK
00B6D7H   00B6E3H   00000DH   BYTE   UNIT     CODE           ?PR?_ADC_THEACLK_SETMODEREGISTER?ADC_THEACLK
00B6E4H   00B6EFH   00000CH   BYTE   UNIT     CODE           ?PR?CYREAD8?CYMEM
LX51 LINKER/LOCATER V4.64.0.0                                                         01/12/2018  13:27:04  PAGE 7


00B6F0H   00B6FBH   00000CH   BYTE   UNIT     CODE           ?PR?CYWRITE8?CYMEM
00B6FCH   00B707H   00000CH   BYTE   UNIT     CODE           ?PR?CYSPCUNLOCK?CYSPC
00B708H   00B713H   00000CH   BYTE   UNIT     CODE           ?PR?_ABS?ABS
00B714H   00B71EH   00000BH   BYTE   UNIT     CODE           ?PR?SHIFTREG_ENC_1_ENABLE?SHIFTREG_ENC_1
00B71FH   00B729H   00000BH   BYTE   UNIT     CODE           ?PR?SHIFTREG_ENC_2_ENABLE?SHIFTREG_ENC_2
00B72AH   00B734H   00000BH   BYTE   UNIT     CODE           ?PR?SHIFTREG_ENC_3_ENABLE?SHIFTREG_ENC_3
00B735H   00B73EH   00000AH   BYTE   UNIT     CODE           ?PR?_ISR_RS485_RX_SETPRIORITY?ISR_RS485_RX
00B73FH   00B748H   00000AH   BYTE   UNIT     CODE           ?PR?CLOCK_UART_GETDIVIDERREGISTER?CLOCK_UART
00B749H   00B752H   00000AH   BYTE   UNIT     CODE           ?PR?SHIFTREG_ENC_1_READDATA?SHIFTREG_ENC_1
00B753H   00B75CH   00000AH   BYTE   UNIT     CODE           ?PR?SHIFTREG_ENC_2_READDATA?SHIFTREG_ENC_2
00B75DH   00B766H   00000AH   BYTE   UNIT     CODE           ?PR?SHIFTREG_ENC_3_READDATA?SHIFTREG_ENC_3
00B767H   00B770H   00000AH   BYTE   UNIT     CODE           ?PR?SHIFTREG_ENC_4_READDATA?SHIFTREG_ENC_4
00B771H   00B77AH   00000AH   BYTE   UNIT     CODE           ?PR?BOOTLOADABLE_LOAD?BOOTLOADABLE
00B77BH   00B784H   00000AH   BYTE   UNIT     CODE           ?PR?_MY_TIMER_WRITEPERIOD?MY_TIMER
00B785H   00B78EH   00000AH   BYTE   UNIT     CODE           ?PR?MY_TIMER_READCAPTURE?MY_TIMER
00B78FH   00B798H   00000AH   BYTE   UNIT     CODE           ?PR?_MY_TIMER_WRITECOUNTER?MY_TIMER
00B799H   00B7A2H   00000AH   BYTE   UNIT     CODE           ?PR?_ISR_WATCHDOG_SETPRIORITY?ISR_WATCHDOG
00B7A3H   00B7ACH   00000AH   BYTE   UNIT     CODE           ?PR?ADC_EXT_CP_CLK_GETDIVIDERREGISTER?ADC_EXT_CP_CLK
00B7ADH   00B7B6H   00000AH   BYTE   UNIT     CODE           ?PR?ADC_THEACLK_GETDIVIDERREGISTER?ADC_THEACLK
00B7B7H   00B7BEH   000008H   BYTE   UNIT     CODE           ?PR?PWM_MOTORS_ENABLE?PWM_MOTORS
00B7BFH   00B7C6H   000008H   BYTE   UNIT     CODE           ?PR?CLOCK_UART_GETSOURCEREGISTER?CLOCK_UART
00B7C7H   00B7CEH   000008H   BYTE   UNIT     CODE           ?PR?COUNTER_ENC_ENABLE?COUNTER_ENC
00B7CFH   00B7D6H   000008H   BYTE   UNIT     CODE           ?PR?MY_TIMER_ENABLE?MY_TIMER
00B7D7H   00B7DEH   000008H   BYTE   UNIT     CODE           ?PR?CYSOFTWARERESET?CYLIB
00B7DFH   00B7E6H   000008H   BYTE   UNIT     CODE           ?PR?ADC_EXT_CP_CLK_GETSOURCEREGISTER?ADC_EXT_CP_CLK
00B7E7H   00B7EEH   000008H   BYTE   UNIT     CODE           ?PR?ADC_THEACLK_GETSOURCEREGISTER?ADC_THEACLK
00B7EFH   00B7F5H   000007H   BYTE   UNIT     CODE           ?PR?ISR_RS485_RX_ENABLE?ISR_RS485_RX
00B7F6H   00B7FCH   000007H   BYTE   UNIT     CODE           ?PR?ISR_RS485_RX_DISABLE?ISR_RS485_RX
00B7FDH   00B803H   000007H   BYTE   UNIT     CODE           ?PR?EEPROM_ENABLE?EEPROM
00B804H   00B80AH   000007H   BYTE   UNIT     CODE           ?PR?ISR_WATCHDOG_ENABLE?ISR_WATCHDOG
00B80BH   00B811H   000007H   BYTE   UNIT     CODE           ?PR?ISR_WATCHDOG_DISABLE?ISR_WATCHDOG
00B812H   00B817H   000006H   BYTE   UNIT     CODE           ?PR?UART_RS485_READTXSTATUS?UART_RS485
00B818H   00B81DH   000006H   BYTE   UNIT     CODE           ?PR?_PWM_MOTORS_WRITECOUNTER?PWM_MOTORS
00B81EH   00B823H   000006H   BYTE   UNIT     CODE           ?PR?_PWM_MOTORS_WRITEPERIOD?PWM_MOTORS
00B824H   00B829H   000006H   BYTE   UNIT     CODE           ?PR?_PWM_MOTORS_WRITECOMPARE1?PWM_MOTORS
00B82AH   00B82FH   000006H   BYTE   UNIT     CODE           ?PR?_PWM_MOTORS_WRITECOMPARE2?PWM_MOTORS
00B830H   00B835H   000006H   BYTE   UNIT     CODE           ?PR?_COUNTER_ENC_SETINTERRUPTMODE?COUNTER_ENC
00B836H   00B83BH   000006H   BYTE   UNIT     CODE           ?PR?COUNTER_ENC_READSTATUSREGISTER?COUNTER_ENC
00B83CH   00B841H   000006H   BYTE   UNIT     CODE           ?PR?_COUNTER_ENC_WRITECOUNTER?COUNTER_ENC
00B842H   00B847H   000006H   BYTE   UNIT     CODE           ?PR?COUNTER_ENC_READCAPTURE?COUNTER_ENC
00B848H   00B84DH   000006H   BYTE   UNIT     CODE           ?PR?_COUNTER_ENC_WRITEPERIOD?COUNTER_ENC
00B84EH   00B853H   000006H   BYTE   UNIT     CODE           ?PR?_COUNTER_ENC_WRITECOMPARE?COUNTER_ENC
00B854H   00B859H   000006H   BYTE   UNIT     CODE           ?PR?SHIFTREG_ENC_1_INIT?SHIFTREG_ENC_1
00B85AH   00B85FH   000006H   BYTE   UNIT     CODE           ?PR?SHIFTREG_ENC_2_INIT?SHIFTREG_ENC_2
00B860H   00B865H   000006H   BYTE   UNIT     CODE           ?PR?SHIFTREG_ENC_3_INIT?SHIFTREG_ENC_3
00B866H   00B86BH   000006H   BYTE   UNIT     CODE           ?PR?_RS485_CTS_WRITE?RS485_CTS
00B86CH   00B871H   000006H   BYTE   UNIT     CODE           ?PR?_MOTOR_ON_OFF_WRITE?MOTOR_ON_OFF
00B872H   00B877H   000006H   BYTE   UNIT     CODE           ?PR?_MY_TIMER_SETINTERRUPTMODE?MY_TIMER
00B878H   00B87DH   000006H   BYTE   UNIT     CODE           ?PR?MY_TIMER_READSTATUSREGISTER?MY_TIMER
00B87EH   00B883H   000006H   BYTE   UNIT     CODE           ?PR?_FTDI_ENABLE_REG_WRITE?FTDI_ENABLE_REG
00B884H   00B889H   000006H   BYTE   UNIT     CODE           ?PR?_PACER_TIMER_SETINTERRUPTMODE?PACER_TIMER
00B88AH   00B88FH   000006H   BYTE   UNIT     CODE           ?PR?FF_STATUS_READ?FF_STATUS
00B890H   00B895H   000006H   BYTE   UNIT     CODE           ?PR?_RESET_FF_WRITE?RESET_FF
00B896H   00B89BH   000006H   BYTE   UNIT     CODE           ?PR?_MOTOR_DIR_WRITE?MOTOR_DIR
00B89CH   00B8A1H   000006H   BYTE   UNIT     CODE           ?PR?ADC_STATUS_READ?ADC_STATUS
00B8A2H   00B8A7H   000006H   BYTE   UNIT     CODE           ?PR?_ADC_SOC_WRITE?ADC_SOC
00B8A8H   00B8ADH   000006H   BYTE   UNIT     CODE           ?PR?_WATCHDOG_COUNTER_SETINTERRUPTMODE?WATCHDOG_COUNTER
00B8AEH   00B8B3H   000006H   BYTE   UNIT     CODE           ?PR?_WATCHDOG_ENABLER_WRITE?WATCHDOG_ENABLER
00B8B4H   00B8B9H   000006H   BYTE   UNIT     CODE           ?PR?_WATCHDOG_REFRESH_WRITE?WATCHDOG_REFRESH
00B8BAH   00B8BDH   000004H   BYTE   UNIT     CODE           ?PR?EEPROM_START?EEPROM
00B8BEH   00B8C1H   000004H   BYTE   UNIT     CODE           ?PR?EEPROM_UPDATETEMPERATURE?EEPROM
00B8C2H   00B8C4H   000003H   BYTE   UNIT     CODE           ?PR?ISR_WATCHDOG_HANDLER?INTERRUPTIONS
00B8C5H   00B8C7H   000003H   BYTE   UNIT     CODE           ?PR?ISR_RS485_RX_EXINTERRUPT?INTERRUPTIONS
00B8C8H   00B8CAH   000003H   BYTE   UNIT     CODE           ?PR?_CYCLOCKSTARTUPERROR?CYFITTER_CFG
00B8CBH   00B8CBH   000001H   BYTE   UNIT     CODE           ?PR?ADC_ISR1?ADC_INT
LX51 LINKER/LOCATER V4.64.0.0                                                         01/12/2018  13:27:04  PAGE 8


00B8CCH   00B8CCH   000001H   BYTE   UNIT     CODE           ?PR?ADC_ISR2?ADC_INT
00B8CDH   00B8CDH   000001H   BYTE   UNIT     CODE           ?PR?ADC_ISR3?ADC_INT
00B8CEH   00B8CEH   000001H   BYTE   UNIT     CODE           ?PR?ADC_ISR4?ADC_INT
00B8CFH   00C425H   000B57H   BYTE   UNIT     CONST          ?CO?CYFITTER_CFG
00C426H   00C486H   000061H   BYTE   UNIT     CONST          ?CO?INTERRUPTIONS

* * * * * * * * * * *  X D A T A   M E M O R Y  * * * * * * * * * * * * *
000000H   000A81H   000A82H   BYTE   UNIT     XDATA          _XDATA_GROUP_
000A82H   000C7DH   0001FCH   BYTE   UNIT     XDATA          ?XD?GLOBALS
000C7EH   000D33H   0000B6H   BYTE   UNIT     XDATA          ?XD?INTERRUPTIONS
000D34H   000D76H   000043H   BYTE   UNIT     XDATA          ?XD?CYPM
000D77H   000D9EH   000028H   BYTE   UNIT     XDATA          ?XD?UTILS
000D9FH   000DC5H   000027H   BYTE   UNIT     XDATA          ?XD?UART_RS485
000DC6H   000DD5H   000010H   BYTE   UNIT     XDATA          ?XD?ADC
000DD6H   000DE4H   00000FH   BYTE   UNIT     XDATA          ?XD?CYLIB
000DE5H   000DEAH   000006H   BYTE   UNIT     XDATA          ?XD?CYDMAC
000DEBH   000DEFH   000005H   BYTE   UNIT     XDATA          ?XD?CYFLASH
000DF0H   000DF3H   000004H   BYTE   UNIT     XDATA          ?XD?CYFITTER_CFG
000DF4H   000DF5H   000002H   BYTE   UNIT     XDATA          ?XD?COMMAND_PROCESSING
000DF6H   000DF6H   000001H   BYTE   UNIT     XDATA          ?XD?PWM_MOTORS
000DF7H   000DF7H   000001H   BYTE   UNIT     XDATA          ?XD?COUNTER_ENC
000DF8H   000DF8H   000001H   BYTE   UNIT     XDATA          ?XD?SHIFTREG_ENC_1
000DF9H   000DF9H   000001H   BYTE   UNIT     XDATA          ?XD?SHIFTREG_ENC_2
000DFAH   000DFAH   000001H   BYTE   UNIT     XDATA          ?XD?SHIFTREG_ENC_3
000DFBH   000DFBH   000001H   BYTE   UNIT     XDATA          ?XD?SHIFTREG_ENC_4
000DFCH   000DFCH   000001H   BYTE   UNIT     XDATA          ?XD?MY_TIMER
000DFDH   000DFDH   000001H   BYTE   UNIT     XDATA          ?XD?PACER_TIMER
000DFEH   000DFEH   000001H   BYTE   UNIT     XDATA          ?XD?DMA_DMA
000DFFH   000DFFH   000001H   BYTE   UNIT     XDATA          ?XD?WATCHDOG_COUNTER
000E00H   000E00H   000001H   BYTE   UNIT     XDATA          ?XD?ADC_AMUX
000E01H   000E01H   000001H   BYTE   UNIT     XDATA          ?XD?CYSPC

* * * * * * * * *   R E M O V E D     S E G M E N T S   * * * * * * * *
   *DEL*:           00007AH   BYTE   UNIT     CODE           ?PR?_FILTER_VEL_1?UTILS
   *DEL*:           00007AH   BYTE   UNIT     CODE           ?PR?_FILTER_VEL_2?UTILS
   *DEL*:           00007AH   BYTE   UNIT     CODE           ?PR?_FILTER_VEL_3?UTILS
   *DEL*:           00001AH   BYTE   UNIT     CODE           ?PR?_SETANALOGROUTINGPUMPS?CYFITTER_CFG
   *DEL*:           000003H   BYTE   UNIT     CODE           ?PR?UART_RS485_READCONTROLREGISTER?UART_RS485
   *DEL*:           000006H   BYTE   UNIT     CODE           ?PR?_UART_RS485_WRITECONTROLREGISTER?UART_RS485
   *DEL*:           000001H   BYTE   UNIT     XDATA          ?XD?_UART_RS485_WRITECONTROLREGISTER?UART_RS485
   *DEL*:           000006H   BYTE   UNIT     CODE           ?PR?_UART_RS485_SETRXINTERRUPTMODE?UART_RS485
   *DEL*:           00004AH   BYTE   UNIT     CODE           ?PR?UART_RS485_READRXDATA?UART_RS485
   *DEL*:           00001FH   BYTE   UNIT     CODE           ?PR?UART_RS485_GETBYTE?UART_RS485
   *DEL*:           000006H   BYTE   UNIT     CODE           ?PR?_UART_RS485_SETRXADDRESSMODE?UART_RS485
   *DEL*:           000001H   BYTE   UNIT     XDATA          ?XD?_UART_RS485_SETRXADDRESSMODE?UART_RS485
   *DEL*:           000006H   BYTE   UNIT     CODE           ?PR?_UART_RS485_SETRXADDRESS1?UART_RS485
   *DEL*:           000006H   BYTE   UNIT     CODE           ?PR?_UART_RS485_SETRXADDRESS2?UART_RS485
   *DEL*:           000006H   BYTE   UNIT     CODE           ?PR?_UART_RS485_SETTXINTERRUPTMODE?UART_RS485
   *DEL*:           00000CH   BYTE   UNIT     CODE           ?PR?_UART_RS485_WRITETXDATA?UART_RS485
   *DEL*:           000032H   BYTE   UNIT     CODE           ?PR?_UART_RS485_PUTARRAY?UART_RS485
   *DEL*:           000003H   BYTE   UNIT     XDATA          ?XD?_UART_RS485_PUTARRAY?UART_RS485
   *DEL*:           000014H   BYTE   UNIT     CODE           ?PR?_UART_RS485_PUTCRLF?UART_RS485
   *DEL*:           000017H   BYTE   UNIT     CODE           ?PR?UART_RS485_GETTXBUFFERSIZE?UART_RS485
   *DEL*:           000059H   BYTE   UNIT     CODE           ?PR?_UART_RS485_SENDBREAK?UART_RS485
   *DEL*:           000001H   BYTE   UNIT     XDATA          ?XD?_UART_RS485_SENDBREAK?UART_RS485
   *DEL*:           000006H   BYTE   UNIT     CODE           ?PR?_UART_RS485_SETTXADDRESSMODE?UART_RS485
   *DEL*:           000001H   BYTE   UNIT     XDATA          ?XD?_UART_RS485_SETTXADDRESSMODE?UART_RS485
   *DEL*:           000008H   BYTE   UNIT     CODE           ?PR?PWM_MOTORS_STOP?PWM_MOTORS
   *DEL*:           00000BH   BYTE   UNIT     CODE           ?PR?PWM_MOTORS_READCOUNTER?PWM_MOTORS
   *DEL*:           000006H   BYTE   UNIT     CODE           ?PR?PWM_MOTORS_READCONTROLREGISTER?PWM_MOTORS
   *DEL*:           000006H   BYTE   UNIT     CODE           ?PR?_PWM_MOTORS_WRITECONTROLREGISTER?PWM_MOTORS
   *DEL*:           000006H   BYTE   UNIT     CODE           ?PR?PWM_MOTORS_READCAPTURE?PWM_MOTORS
   *DEL*:           000006H   BYTE   UNIT     CODE           ?PR?PWM_MOTORS_READCOMPARE1?PWM_MOTORS
   *DEL*:           000006H   BYTE   UNIT     CODE           ?PR?PWM_MOTORS_READCOMPARE2?PWM_MOTORS
   *DEL*:           000006H   BYTE   UNIT     CODE           ?PR?PWM_MOTORS_READPERIOD?PWM_MOTORS
LX51 LINKER/LOCATER V4.64.0.0                                                         01/12/2018  13:27:04  PAGE 9


   *DEL*:           000013H   BYTE   UNIT     CODE           ?PR?ISR_RS485_RX_START?ISR_RS485_RX
   *DEL*:           000004H   BYTE   UNIT     CODE           ?PR?ISR_RS485_RX_STOP?ISR_RS485_RX
   *DEL*:           00000AH   BYTE   UNIT     CODE           ?PR?ISR_RS485_RX_GETVECTOR?ISR_RS485_RX
   *DEL*:           00000BH   BYTE   UNIT     CODE           ?PR?ISR_RS485_RX_GETPRIORITY?ISR_RS485_RX
   *DEL*:           00000EH   BYTE   UNIT     CODE           ?PR?ISR_RS485_RX_GETSTATE?ISR_RS485_RX
   *DEL*:           000007H   BYTE   UNIT     CODE           ?PR?ISR_RS485_RX_SETPENDING?ISR_RS485_RX
   *DEL*:           000007H   BYTE   UNIT     CODE           ?PR?ISR_RS485_RX_CLEARPENDING?ISR_RS485_RX
   *DEL*:           00000FH   BYTE   UNIT     CODE           ?PR?CLOCK_UART_START?CLOCK_UART
   *DEL*:           00000FH   BYTE   UNIT     CODE           ?PR?CLOCK_UART_STOP?CLOCK_UART
   *DEL*:           00006DH   BYTE   UNIT     CODE           ?PR?CLOCK_UART_STOPBLOCK?CLOCK_UART
   *DEL*:           000002H   BYTE   UNIT     XDATA          ?XD?CLOCK_UART_STOPBLOCK?CLOCK_UART
   *DEL*:           000013H   BYTE   UNIT     CODE           ?PR?_CLOCK_UART_STANDBYPOWER?CLOCK_UART
   *DEL*:           00000DH   BYTE   UNIT     CODE           ?PR?_CLOCK_UART_SETMODEREGISTER?CLOCK_UART
   *DEL*:           00000EH   BYTE   UNIT     CODE           ?PR?_CLOCK_UART_CLEARMODEREGISTER?CLOCK_UART
   *DEL*:           000008H   BYTE   UNIT     CODE           ?PR?CLOCK_UART_GETMODEREGISTER?CLOCK_UART
   *DEL*:           000062H   BYTE   UNIT     CODE           ?PR?_CLOCK_UART_SETSOURCEREGISTER?CLOCK_UART
   *DEL*:           000003H   BYTE   UNIT     XDATA          ?XD?_CLOCK_UART_SETSOURCEREGISTER?CLOCK_UART
   *DEL*:           000008H   BYTE   UNIT     CODE           ?PR?COUNTER_ENC_STOP?COUNTER_ENC
   *DEL*:           000006H   BYTE   UNIT     CODE           ?PR?COUNTER_ENC_READCONTROLREGISTER?COUNTER_ENC
   *DEL*:           000006H   BYTE   UNIT     CODE           ?PR?_COUNTER_ENC_WRITECONTROLREGISTER?COUNTER_ENC
   *DEL*:           00000BH   BYTE   UNIT     CODE           ?PR?COUNTER_ENC_READCOUNTER?COUNTER_ENC
   *DEL*:           000006H   BYTE   UNIT     CODE           ?PR?COUNTER_ENC_READPERIOD?COUNTER_ENC
   *DEL*:           000006H   BYTE   UNIT     CODE           ?PR?COUNTER_ENC_READCOMPARE?COUNTER_ENC
   *DEL*:           00000BH   BYTE   UNIT     CODE           ?PR?SHIFTREG_ENC_1_STOP?SHIFTREG_ENC_1
   *DEL*:           00000EH   BYTE   UNIT     CODE           ?PR?SHIFTREG_ENC_1_DISABLEINT?SHIFTREG_ENC_1
   *DEL*:           000036H   BYTE   UNIT     CODE           ?PR?_SHIFTREG_ENC_1_GETFIFOSTATUS?SHIFTREG_ENC_1
   *DEL*:           000008H   BYTE   UNIT     CODE           ?PR?SHIFTREG_ENC_1_GETINTSTATUS?SHIFTREG_ENC_1
   *DEL*:           00000AH   BYTE   UNIT     CODE           ?PR?_SHIFTREG_ENC_1_WRITEREGVALUE?SHIFTREG_ENC_1
   *DEL*:           000053H   BYTE   UNIT     CODE           ?PR?SHIFTREG_ENC_1_READREGVALUE?SHIFTREG_ENC_1
   *DEL*:           000004H   BYTE   UNIT     XDATA          ?XD?SHIFTREG_ENC_1_READREGVALUE?SHIFTREG_ENC_1
   *DEL*:           00000BH   BYTE   UNIT     CODE           ?PR?SHIFTREG_ENC_2_STOP?SHIFTREG_ENC_2
   *DEL*:           00000EH   BYTE   UNIT     CODE           ?PR?SHIFTREG_ENC_2_DISABLEINT?SHIFTREG_ENC_2
   *DEL*:           000036H   BYTE   UNIT     CODE           ?PR?_SHIFTREG_ENC_2_GETFIFOSTATUS?SHIFTREG_ENC_2
   *DEL*:           000008H   BYTE   UNIT     CODE           ?PR?SHIFTREG_ENC_2_GETINTSTATUS?SHIFTREG_ENC_2
   *DEL*:           00000AH   BYTE   UNIT     CODE           ?PR?_SHIFTREG_ENC_2_WRITEREGVALUE?SHIFTREG_ENC_2
   *DEL*:           000053H   BYTE   UNIT     CODE           ?PR?SHIFTREG_ENC_2_READREGVALUE?SHIFTREG_ENC_2
   *DEL*:           000004H   BYTE   UNIT     XDATA          ?XD?SHIFTREG_ENC_2_READREGVALUE?SHIFTREG_ENC_2
   *DEL*:           00000BH   BYTE   UNIT     CODE           ?PR?SHIFTREG_ENC_3_STOP?SHIFTREG_ENC_3
   *DEL*:           00000EH   BYTE   UNIT     CODE           ?PR?SHIFTREG_ENC_3_DISABLEINT?SHIFTREG_ENC_3
   *DEL*:           000036H   BYTE   UNIT     CODE           ?PR?_SHIFTREG_ENC_3_GETFIFOSTATUS?SHIFTREG_ENC_3
   *DEL*:           000008H   BYTE   UNIT     CODE           ?PR?SHIFTREG_ENC_3_GETINTSTATUS?SHIFTREG_ENC_3
   *DEL*:           00000AH   BYTE   UNIT     CODE           ?PR?_SHIFTREG_ENC_3_WRITEREGVALUE?SHIFTREG_ENC_3
   *DEL*:           000053H   BYTE   UNIT     CODE           ?PR?SHIFTREG_ENC_3_READREGVALUE?SHIFTREG_ENC_3
   *DEL*:           000004H   BYTE   UNIT     XDATA          ?XD?SHIFTREG_ENC_3_READREGVALUE?SHIFTREG_ENC_3
   *DEL*:           000004H   BYTE   UNIT     CODE           ?PR?EEPROM_STOP?EEPROM
   *DEL*:           000124H   BYTE   UNIT     CODE           ?PR?_EEPROM_WRITEBYTE?EEPROM
   *DEL*:           000008H   BYTE   UNIT     XDATA          ?XD?_EEPROM_WRITEBYTE?EEPROM
   *DEL*:           00003AH   BYTE   UNIT     CODE           ?PR?_EEPROM_READBYTE?EEPROM
   *DEL*:           000004H   BYTE   UNIT     XDATA          ?XD?_EEPROM_READBYTE?EEPROM
   *DEL*:           00006FH   BYTE   UNIT     CODE           ?PR?_EEPROM_ERASESECTOR?EEPROM
   *DEL*:           000002H   BYTE   UNIT     XDATA          ?XD?_EEPROM_ERASESECTOR?EEPROM
   *DEL*:           0000B9H   BYTE   UNIT     CODE           ?PR?_EEPROM_STARTWRITE?EEPROM
   *DEL*:           000005H   BYTE   UNIT     XDATA          ?XD?_EEPROM_STARTWRITE?EEPROM
   *DEL*:           000046H   BYTE   UNIT     CODE           ?PR?_EEPROM_STARTERASE?EEPROM
   *DEL*:           000002H   BYTE   UNIT     XDATA          ?XD?_EEPROM_STARTERASE?EEPROM
   *DEL*:           00003BH   BYTE   UNIT     CODE           ?PR?EEPROM_QUERY?EEPROM
   *DEL*:           000001H   BYTE   UNIT     XDATA          ?XD?EEPROM_QUERY?EEPROM
   *DEL*:           0000E5H   BYTE   UNIT     CODE           ?PR?_EEPROM_BYTEWRITEPOS?EEPROM
   *DEL*:           000004H   BYTE   UNIT     XDATA          ?XD?_EEPROM_BYTEWRITEPOS?EEPROM
   *DEL*:           000013H   BYTE   UNIT     CODE           ?PR?SHIFTREG_ENC_4_START?SHIFTREG_ENC_4
   *DEL*:           00000BH   BYTE   UNIT     CODE           ?PR?SHIFTREG_ENC_4_ENABLE?SHIFTREG_ENC_4
   *DEL*:           000006H   BYTE   UNIT     CODE           ?PR?SHIFTREG_ENC_4_INIT?SHIFTREG_ENC_4
   *DEL*:           00000BH   BYTE   UNIT     CODE           ?PR?SHIFTREG_ENC_4_STOP?SHIFTREG_ENC_4
   *DEL*:           00000EH   BYTE   UNIT     CODE           ?PR?SHIFTREG_ENC_4_ENABLEINT?SHIFTREG_ENC_4
   *DEL*:           00000EH   BYTE   UNIT     CODE           ?PR?SHIFTREG_ENC_4_DISABLEINT?SHIFTREG_ENC_4
LX51 LINKER/LOCATER V4.64.0.0                                                         01/12/2018  13:27:04  PAGE 10


   *DEL*:           000036H   BYTE   UNIT     CODE           ?PR?_SHIFTREG_ENC_4_GETFIFOSTATUS?SHIFTREG_ENC_4
   *DEL*:           000011H   BYTE   UNIT     CODE           ?PR?_SHIFTREG_ENC_4_SETINTMODE?SHIFTREG_ENC_4
   *DEL*:           000008H   BYTE   UNIT     CODE           ?PR?SHIFTREG_ENC_4_GETINTSTATUS?SHIFTREG_ENC_4
   *DEL*:           00000AH   BYTE   UNIT     CODE           ?PR?_SHIFTREG_ENC_4_WRITEREGVALUE?SHIFTREG_ENC_4
   *DEL*:           000053H   BYTE   UNIT     CODE           ?PR?SHIFTREG_ENC_4_READREGVALUE?SHIFTREG_ENC_4
   *DEL*:           000004H   BYTE   UNIT     XDATA          ?XD?SHIFTREG_ENC_4_READREGVALUE?SHIFTREG_ENC_4
   *DEL*:           000006H   BYTE   UNIT     CODE           ?PR?RS485_CTS_READ?RS485_CTS
   *DEL*:           000006H   BYTE   UNIT     CODE           ?PR?MOTOR_ON_OFF_READ?MOTOR_ON_OFF
   *DEL*:           0000FBH   BYTE   UNIT     CODE           ?PR?_BOOTLOADABLE_SETFLASHBYTE?BOOTLOADABLE
   *DEL*:           000110H   BYTE   UNIT     XDATA          ?XD?_BOOTLOADABLE_SETFLASHBYTE?BOOTLOADABLE
   *DEL*:           000008H   BYTE   UNIT     CODE           ?PR?MY_TIMER_STOP?MY_TIMER
   *DEL*:           000006H   BYTE   UNIT     CODE           ?PR?MY_TIMER_SOFTWARECAPTURE?MY_TIMER
   *DEL*:           000006H   BYTE   UNIT     CODE           ?PR?MY_TIMER_READCONTROLREGISTER?MY_TIMER
   *DEL*:           000006H   BYTE   UNIT     CODE           ?PR?_MY_TIMER_WRITECONTROLREGISTER?MY_TIMER
   *DEL*:           00000AH   BYTE   UNIT     CODE           ?PR?MY_TIMER_READPERIOD?MY_TIMER
   *DEL*:           000006H   BYTE   UNIT     CODE           ?PR?FTDI_ENABLE_REG_READ?FTDI_ENABLE_REG
   *DEL*:           000016H   BYTE   UNIT     CODE           ?PR?PACER_TIMER_STOP?PACER_TIMER
   *DEL*:           00000AH   BYTE   UNIT     CODE           ?PR?PACER_TIMER_SOFTWARECAPTURE?PACER_TIMER
   *DEL*:           000006H   BYTE   UNIT     CODE           ?PR?PACER_TIMER_READSTATUSREGISTER?PACER_TIMER
   *DEL*:           000006H   BYTE   UNIT     CODE           ?PR?PACER_TIMER_READCONTROLREGISTER?PACER_TIMER
   *DEL*:           000006H   BYTE   UNIT     CODE           ?PR?_PACER_TIMER_WRITECONTROLREGISTER?PACER_TIMER
   *DEL*:           00000AH   BYTE   UNIT     CODE           ?PR?PACER_TIMER_READPERIOD?PACER_TIMER
   *DEL*:           00000AH   BYTE   UNIT     CODE           ?PR?PACER_TIMER_READCAPTURE?PACER_TIMER
   *DEL*:           000013H   BYTE   UNIT     CODE           ?PR?PACER_TIMER_READCOUNTER?PACER_TIMER
   *DEL*:           00000EH   BYTE   UNIT     CODE           ?PR?FF_STATUS_INTERRUPTENABLE?FF_STATUS
   *DEL*:           00000EH   BYTE   UNIT     CODE           ?PR?FF_STATUS_INTERRUPTDISABLE?FF_STATUS
   *DEL*:           000009H   BYTE   UNIT     CODE           ?PR?_FF_STATUS_WRITEMASK?FF_STATUS
   *DEL*:           000006H   BYTE   UNIT     CODE           ?PR?FF_STATUS_READMASK?FF_STATUS
   *DEL*:           000006H   BYTE   UNIT     CODE           ?PR?RESET_FF_READ?RESET_FF
   *DEL*:           000006H   BYTE   UNIT     CODE           ?PR?MOTOR_DIR_READ?MOTOR_DIR
   *DEL*:           00000EH   BYTE   UNIT     CODE           ?PR?ADC_STATUS_INTERRUPTENABLE?ADC_STATUS
   *DEL*:           00000EH   BYTE   UNIT     CODE           ?PR?ADC_STATUS_INTERRUPTDISABLE?ADC_STATUS
   *DEL*:           000009H   BYTE   UNIT     CODE           ?PR?_ADC_STATUS_WRITEMASK?ADC_STATUS
   *DEL*:           000006H   BYTE   UNIT     CODE           ?PR?ADC_STATUS_READMASK?ADC_STATUS
   *DEL*:           000088H   BYTE   UNIT     CODE           ?PR?ADC_STOP?ADC
   *DEL*:           000001H   BYTE   UNIT     XDATA          ?XD?ADC_STOP?ADC
   *DEL*:           000012H   BYTE   UNIT     CODE           ?PR?_ADC_SETBUFFERGAIN?ADC
   *DEL*:           00000EH   BYTE   UNIT     CODE           ?PR?_ADC_SETCOHERENCY?ADC
   *DEL*:           0000F2H   BYTE   UNIT     CODE           ?PR?_ADC_SETGCOR?ADC
   *DEL*:           00000BH   BYTE   UNIT     XDATA          ?XD?_ADC_SETGCOR?ADC
   *DEL*:           000039H   BYTE   UNIT     CODE           ?PR?ADC_READGCOR?ADC
   *DEL*:           000001H   BYTE   UNIT     XDATA          ?XD?ADC_READGCOR?ADC
   *DEL*:           000008H   BYTE   UNIT     CODE           ?PR?ADC_STARTCONVERT?ADC
   *DEL*:           000008H   BYTE   UNIT     CODE           ?PR?ADC_STOPCONVERT?ADC
   *DEL*:           00001FH   BYTE   UNIT     CODE           ?PR?_ADC_ISENDCONVERSION?ADC
   *DEL*:           00002CH   BYTE   UNIT     CODE           ?PR?ADC_GETRESULT8?ADC
   *DEL*:           000060H   BYTE   UNIT     CODE           ?PR?ADC_GETRESULT16?ADC
   *DEL*:           000003H   BYTE   UNIT     XDATA          ?XD?ADC_GETRESULT16?ADC
   *DEL*:           0001B4H   BYTE   UNIT     CODE           ?PR?ADC_GETRESULT32?ADC
   *DEL*:           000007H   BYTE   UNIT     XDATA          ?XD?ADC_GETRESULT32?ADC
   *DEL*:           000007H   BYTE   UNIT     CODE           ?PR?_ADC_SETOFFSET?ADC
   *DEL*:           000007H   BYTE   UNIT     CODE           ?PR?_ADC_SETGAIN?ADC
   *DEL*:           00005FH   BYTE   UNIT     CODE           ?PR?_ADC_COUNTSTO_MVOLTS?ADC
   *DEL*:           000004H   BYTE   UNIT     XDATA          ?XD?_ADC_COUNTSTO_MVOLTS?ADC
   *DEL*:           00006DH   BYTE   UNIT     CODE           ?PR?_ADC_COUNTSTO_VOLTS?ADC
   *DEL*:           000004H   BYTE   UNIT     XDATA          ?XD?_ADC_COUNTSTO_VOLTS?ADC
   *DEL*:           000137H   BYTE   UNIT     CODE           ?PR?_ADC_COUNTSTO_UVOLTS?ADC
   *DEL*:           00000DH   BYTE   UNIT     XDATA          ?XD?_ADC_COUNTSTO_UVOLTS?ADC
   *DEL*:           000072H   BYTE   UNIT     CODE           ?PR?_ADC_SELECTCONFIGURATION?ADC
   *DEL*:           000002H   BYTE   UNIT     XDATA          ?XD?_ADC_SELECTCONFIGURATION?ADC
   *DEL*:           000016H   BYTE   UNIT     CODE           ?PR?ADC_READ8?ADC
   *DEL*:           000016H   BYTE   UNIT     CODE           ?PR?ADC_READ16?ADC
   *DEL*:           000016H   BYTE   UNIT     CODE           ?PR?ADC_READ32?ADC
   *DEL*:           000009H   BYTE   UNIT     CODE           ?PR?DMA_DMARELEASE?DMA_DMA
   *DEL*:           000006H   BYTE   UNIT     CODE           ?PR?ADC_SOC_READ?ADC_SOC
LX51 LINKER/LOCATER V4.64.0.0                                                         01/12/2018  13:27:04  PAGE 11


   *DEL*:           000013H   BYTE   UNIT     CODE           ?PR?ISR_WATCHDOG_START?ISR_WATCHDOG
   *DEL*:           000004H   BYTE   UNIT     CODE           ?PR?ISR_WATCHDOG_STOP?ISR_WATCHDOG
   *DEL*:           00000AH   BYTE   UNIT     CODE           ?PR?ISR_WATCHDOG_GETVECTOR?ISR_WATCHDOG
   *DEL*:           00000BH   BYTE   UNIT     CODE           ?PR?ISR_WATCHDOG_GETPRIORITY?ISR_WATCHDOG
   *DEL*:           00000EH   BYTE   UNIT     CODE           ?PR?ISR_WATCHDOG_GETSTATE?ISR_WATCHDOG
   *DEL*:           000007H   BYTE   UNIT     CODE           ?PR?ISR_WATCHDOG_SETPENDING?ISR_WATCHDOG
   *DEL*:           000007H   BYTE   UNIT     CODE           ?PR?ISR_WATCHDOG_CLEARPENDING?ISR_WATCHDOG
   *DEL*:           000016H   BYTE   UNIT     CODE           ?PR?WATCHDOG_COUNTER_STOP?WATCHDOG_COUNTER
   *DEL*:           000006H   BYTE   UNIT     CODE           ?PR?WATCHDOG_COUNTER_READSTATUSREGISTER?WATCHDOG_COUNTER
   *DEL*:           000006H   BYTE   UNIT     CODE           ?PR?WATCHDOG_COUNTER_READCONTROLREGISTER?WATCHDOG_COUNTER
   *DEL*:           000006H   BYTE   UNIT     CODE           ?PR?_WATCHDOG_COUNTER_WRITECONTROLREGISTER?WATCHDOG_COUNTE
                                                             -R
   *DEL*:           000013H   BYTE   UNIT     CODE           ?PR?WATCHDOG_COUNTER_READCOUNTER?WATCHDOG_COUNTER
   *DEL*:           00000AH   BYTE   UNIT     CODE           ?PR?WATCHDOG_COUNTER_READCAPTURE?WATCHDOG_COUNTER
   *DEL*:           00000AH   BYTE   UNIT     CODE           ?PR?WATCHDOG_COUNTER_READPERIOD?WATCHDOG_COUNTER
   *DEL*:           000006H   BYTE   UNIT     CODE           ?PR?WATCHDOG_ENABLER_READ?WATCHDOG_ENABLER
   *DEL*:           000006H   BYTE   UNIT     CODE           ?PR?WATCHDOG_REFRESH_READ?WATCHDOG_REFRESH
   *DEL*:           000012H   BYTE   UNIT     CODE           ?PR?CYDMACERROR?CYDMAC
   *DEL*:           000010H   BYTE   UNIT     CODE           ?PR?_CYDMACCLEARERROR?CYDMAC
   *DEL*:           00000AH   BYTE   UNIT     CODE           ?PR?CYDMACERRORADDRESS?CYDMAC
   *DEL*:           0000BEH   BYTE   UNIT     CODE           ?PR?CYDMACHALLOC?CYDMAC
   *DEL*:           000006H   BYTE   UNIT     XDATA          ?XD?CYDMACHALLOC?CYDMAC
   *DEL*:           000064H   BYTE   UNIT     CODE           ?PR?_CYDMACHFREE?CYDMAC
   *DEL*:           000003H   BYTE   UNIT     XDATA          ?XD?_CYDMACHFREE?CYDMAC
   *DEL*:           000033H   BYTE   UNIT     CODE           ?PR?_CYDMACHDISABLE?CYDMAC
   *DEL*:           000033H   BYTE   UNIT     CODE           ?PR?_CYDMACLEARPENDINGDRQ?CYDMAC
   *DEL*:           000025H   BYTE   UNIT     CODE           ?PR?_CYDMACHSETREQUEST?CYDMAC
   *DEL*:           000024H   BYTE   UNIT     CODE           ?PR?_CYDMACHGETREQUEST?CYDMAC
   *DEL*:           000072H   BYTE   UNIT     CODE           ?PR?_CYDMACHSTATUS?CYDMAC
   *DEL*:           000007H   BYTE   UNIT     XDATA          ?XD?_CYDMACHSTATUS?CYDMAC
   *DEL*:           00003EH   BYTE   UNIT     CODE           ?PR?_CYDMATDFREE?CYDMAC
   *DEL*:           000002H   BYTE   UNIT     XDATA          ?XD?_CYDMATDFREE?CYDMAC
   *DEL*:           000009H   BYTE   UNIT     CODE           ?PR?CYDMATDFREECOUNT?CYDMAC
   *DEL*:           0000C9H   BYTE   UNIT     CODE           ?PR?_CYDMATDGETCONFIGURATION?CYDMAC
   *DEL*:           00000DH   BYTE   UNIT     XDATA          ?XD?_CYDMATDGETCONFIGURATION?CYDMAC
   *DEL*:           0000A6H   BYTE   UNIT     CODE           ?PR?_CYDMATDGETADDRESS?CYDMAC
   *DEL*:           00000AH   BYTE   UNIT     XDATA          ?XD?_CYDMATDGETADDRESS?CYDMAC
   *DEL*:           000038H   BYTE   UNIT     CODE           ?PR?_CYDMACHROUNDROBIN?CYDMAC
   *DEL*:           00006EH   BYTE   UNIT     CODE           ?PR?_CYPLL_OUT_START?CYLIB
   *DEL*:           000004H   BYTE   UNIT     XDATA          ?XD?_CYPLL_OUT_START?CYLIB
   *DEL*:           000008H   BYTE   UNIT     CODE           ?PR?CYPLL_OUT_STOP?CYLIB
   *DEL*:           000036H   BYTE   UNIT     CODE           ?PR?_CYPLL_OUT_SETPQ?CYLIB
   *DEL*:           000010H   BYTE   UNIT     CODE           ?PR?_CYPLL_OUT_SETSOURCE?CYLIB
   *DEL*:           000053H   BYTE   UNIT     CODE           ?PR?_CYIMO_START?CYLIB
   *DEL*:           000003H   BYTE   UNIT     XDATA          ?XD?_CYIMO_START?CYLIB
   *DEL*:           00000FH   BYTE   UNIT     CODE           ?PR?CYIMO_STOP?CYLIB
   *DEL*:           000027H   BYTE   UNIT     CODE           ?PR?CYUSB_POWERONCHECK?CYLIB
   *DEL*:           0000B6H   BYTE   UNIT     CODE           ?PR?_CYIMO_SETTRIMVALUE?CYLIB
   *DEL*:           000001H   BYTE   UNIT     XDATA          ?XD?_CYIMO_SETTRIMVALUE?CYLIB
   *DEL*:           000118H   BYTE   UNIT     CODE           ?PR?_CYIMO_SETFREQ?CYLIB
   *DEL*:           000003H   BYTE   UNIT     XDATA          ?XD?_CYIMO_SETFREQ?CYLIB
   *DEL*:           00002FH   BYTE   UNIT     CODE           ?PR?_CYIMO_SETSOURCE?CYLIB
   *DEL*:           000008H   BYTE   UNIT     CODE           ?PR?CYIMO_ENABLEDOUBLER?CYLIB
   *DEL*:           000008H   BYTE   UNIT     CODE           ?PR?CYIMO_DISABLEDOUBLER?CYLIB
   *DEL*:           00000DH   BYTE   UNIT     CODE           ?PR?_CYMASTERCLK_SETSOURCE?CYLIB
   *DEL*:           000006H   BYTE   UNIT     CODE           ?PR?_CYMASTERCLK_SETDIVIDER?CYLIB
   *DEL*:           000023H   BYTE   UNIT     CODE           ?PR?_CYBUSCLK_INTERNAL_SETDIVIDER?CYLIB
   *DEL*:           00007AH   BYTE   UNIT     CODE           ?PR?_CYBUSCLK_SETDIVIDER?CYLIB
   *DEL*:           000002H   BYTE   UNIT     XDATA          ?XD?_CYBUSCLK_SETDIVIDER?CYLIB
   *DEL*:           00000EH   BYTE   UNIT     CODE           ?PR?_CYCPUCLK_SETDIVIDER?CYLIB
   *DEL*:           00000DH   BYTE   UNIT     CODE           ?PR?_CYUSBCLK_SETSOURCE?CYLIB
   *DEL*:           000008H   BYTE   UNIT     CODE           ?PR?CYILO_START1K?CYLIB
   *DEL*:           000008H   BYTE   UNIT     CODE           ?PR?CYILO_STOP1K?CYLIB
   *DEL*:           000008H   BYTE   UNIT     CODE           ?PR?CYILO_START100K?CYLIB
   *DEL*:           000008H   BYTE   UNIT     CODE           ?PR?CYILO_STOP100K?CYLIB
LX51 LINKER/LOCATER V4.64.0.0                                                         01/12/2018  13:27:04  PAGE 12


   *DEL*:           000008H   BYTE   UNIT     CODE           ?PR?CYILO_ENABLE33K?CYLIB
   *DEL*:           000008H   BYTE   UNIT     CODE           ?PR?CYILO_DISABLE33K?CYLIB
   *DEL*:           000011H   BYTE   UNIT     CODE           ?PR?_CYILO_SETSOURCE?CYLIB
   *DEL*:           000029H   BYTE   UNIT     CODE           ?PR?_CYILO_SETPOWERMODE?CYLIB
   *DEL*:           00005EH   BYTE   UNIT     CODE           ?PR?CYXTAL_32KHZ_START?CYLIB
   *DEL*:           000002H   BYTE   UNIT     XDATA          ?XD?CYXTAL_32KHZ_START?CYLIB
   *DEL*:           000020H   BYTE   UNIT     CODE           ?PR?CYXTAL_32KHZ_STOP?CYLIB
   *DEL*:           000008H   BYTE   UNIT     CODE           ?PR?CYXTAL_32KHZ_READSTATUS?CYLIB
   *DEL*:           000066H   BYTE   UNIT     CODE           ?PR?_CYXTAL_32KHZ_SETPOWERMODE?CYLIB
   *DEL*:           000001H   BYTE   UNIT     XDATA          ?XD?_CYXTAL_32KHZ_SETPOWERMODE?CYLIB
   *DEL*:           0000A0H   BYTE   UNIT     CODE           ?PR?_CYXTAL_START?CYLIB
   *DEL*:           000006H   BYTE   UNIT     XDATA          ?XD?_CYXTAL_START?CYLIB
   *DEL*:           000008H   BYTE   UNIT     CODE           ?PR?CYXTAL_STOP?CYLIB
   *DEL*:           000008H   BYTE   UNIT     CODE           ?PR?CYXTAL_ENABLEERRSTATUS?CYLIB
   *DEL*:           000008H   BYTE   UNIT     CODE           ?PR?CYXTAL_DISABLEERRSTATUS?CYLIB
   *DEL*:           00000FH   BYTE   UNIT     CODE           ?PR?CYXTAL_READSTATUS?CYLIB
   *DEL*:           000008H   BYTE   UNIT     CODE           ?PR?CYXTAL_ENABLEFAULTRECOVERY?CYLIB
   *DEL*:           000008H   BYTE   UNIT     CODE           ?PR?CYXTAL_DISABLEFAULTRECOVERY?CYLIB
   *DEL*:           00000DH   BYTE   UNIT     CODE           ?PR?_CYXTAL_SETSTARTUP?CYLIB
   *DEL*:           00000DH   BYTE   UNIT     CODE           ?PR?_CYXTAL_SETFBVOLTAGE?CYLIB
   *DEL*:           00000EH   BYTE   UNIT     CODE           ?PR?_CYXTAL_SETWDVOLTAGE?CYLIB
   *DEL*:           000015H   BYTE   UNIT     CODE           ?PR?_?CYHALT?CYLIB
   *DEL*:           0000B8H   BYTE   UNIT     CODE           ?PR?_?CYDELAYFREQ?CYLIB
   *DEL*:           000026H   BYTE   UNIT     CODE           ?PR?_CYWDTSTART?CYLIB
   *DEL*:           000007H   BYTE   UNIT     CODE           ?PR?CYWDTCLEAR?CYLIB
   *DEL*:           000084H   BYTE   UNIT     CODE           ?PR?_CYVDLVDIGITENABLE?CYLIB
   *DEL*:           000007H   BYTE   UNIT     XDATA          ?XD?_CYVDLVDIGITENABLE?CYLIB
   *DEL*:           000083H   BYTE   UNIT     CODE           ?PR?_CYVDLVANALOGENABLE?CYLIB
   *DEL*:           000007H   BYTE   UNIT     XDATA          ?XD?_CYVDLVANALOGENABLE?CYLIB
   *DEL*:           00001DH   BYTE   UNIT     CODE           ?PR?CYVDLVDIGITDISABLE?CYLIB
   *DEL*:           000018H   BYTE   UNIT     CODE           ?PR?CYVDLVANALOGDISABLE?CYLIB
   *DEL*:           000056H   BYTE   UNIT     CODE           ?PR?CYVDHVANALOGENABLE?CYLIB
   *DEL*:           000005H   BYTE   UNIT     XDATA          ?XD?CYVDHVANALOGENABLE?CYLIB
   *DEL*:           000011H   BYTE   UNIT     CODE           ?PR?CYVDHVANALOGDISABLE?CYLIB
   *DEL*:           000039H   BYTE   UNIT     CODE           ?PR?_CYVDSTICKYSTATUS?CYLIB
   *DEL*:           000002H   BYTE   UNIT     XDATA          ?XD?_CYVDSTICKYSTATUS?CYLIB
   *DEL*:           000018H   BYTE   UNIT     CODE           ?PR?CYVDREALTIMESTATUS?CYLIB
   *DEL*:           000001H   BYTE   UNIT     XDATA          ?XD?CYVDREALTIMESTATUS?CYLIB
   *DEL*:           0000D0H   BYTE   UNIT     CODE           ?PR?CYDISABLEINTS?CYLIB
   *DEL*:           000005H   BYTE   UNIT     XDATA          ?XD?CYDISABLEINTS?CYLIB
   *DEL*:           000067H   BYTE   UNIT     CODE           ?PR?_CYENABLEINTS?CYLIB
   *DEL*:           000004H   BYTE   UNIT     XDATA          ?XD?_CYENABLEINTS?CYLIB
   *DEL*:           000018H   BYTE   UNIT     CODE           ?PR?_CYINTGETVECTOR?CYLIB
   *DEL*:           000014H   BYTE   UNIT     CODE           ?PR?_CYINTGETPRIORITY?CYLIB
   *DEL*:           000036H   BYTE   UNIT     CODE           ?PR?_CYINTGETSTATE?CYLIB
   *DEL*:           000248H   BYTE   UNIT     CODE           ?PR?_CYGETUNIQUEID?CYLIB
   *DEL*:           000003H   BYTE   UNIT     XDATA          ?XD?_CYGETUNIQUEID?CYLIB
   *DEL*:           000004H   BYTE   UNIT     CODE           ?PR?_CyDelay?CYBOOTASMKEIL
   *DEL*:           000019H   BYTE   UNIT     CODE           ?PR?CYMEMZERO?CYMEM
   *DEL*:           00002DH   BYTE   UNIT     CODE           ?PR?CFG_WRITE_BYTES?CYMEM
   *DEL*:           00002EH   BYTE   UNIT     CODE           ?PR?CY_WRITE_BYTES_CODE?CYMEM
   *DEL*:           000015H   BYTE   UNIT     CODE           ?PR?CYREAD32?CYMEM
   *DEL*:           000015H   BYTE   UNIT     CODE           ?PR?CYWRITE32?CYMEM
   *DEL*:           000021H   BYTE   UNIT     CODE           ?PR?_ADC_AMUX_FASTSELECT?ADC_AMUX
   *DEL*:           000001H   BYTE   UNIT     XDATA          ?XD?_ADC_AMUX_FASTSELECT?ADC_AMUX
   *DEL*:           00000FH   BYTE   UNIT     CODE           ?PR?ADC_EXT_CP_CLK_START?ADC_EXT_CP_CLK
   *DEL*:           00000FH   BYTE   UNIT     CODE           ?PR?ADC_EXT_CP_CLK_STOP?ADC_EXT_CP_CLK
   *DEL*:           00006EH   BYTE   UNIT     CODE           ?PR?ADC_EXT_CP_CLK_STOPBLOCK?ADC_EXT_CP_CLK
   *DEL*:           000002H   BYTE   UNIT     XDATA          ?XD?ADC_EXT_CP_CLK_STOPBLOCK?ADC_EXT_CP_CLK
   *DEL*:           000013H   BYTE   UNIT     CODE           ?PR?_ADC_EXT_CP_CLK_STANDBYPOWER?ADC_EXT_CP_CLK
   *DEL*:           00000EH   BYTE   UNIT     CODE           ?PR?_ADC_EXT_CP_CLK_CLEARMODEREGISTER?ADC_EXT_CP_CLK
   *DEL*:           000008H   BYTE   UNIT     CODE           ?PR?ADC_EXT_CP_CLK_GETMODEREGISTER?ADC_EXT_CP_CLK
   *DEL*:           000062H   BYTE   UNIT     CODE           ?PR?_ADC_EXT_CP_CLK_SETSOURCEREGISTER?ADC_EXT_CP_CLK
   *DEL*:           000003H   BYTE   UNIT     XDATA          ?XD?_ADC_EXT_CP_CLK_SETSOURCEREGISTER?ADC_EXT_CP_CLK
   *DEL*:           00000FH   BYTE   UNIT     CODE           ?PR?ADC_THEACLK_START?ADC_THEACLK
LX51 LINKER/LOCATER V4.64.0.0                                                         01/12/2018  13:27:04  PAGE 13


   *DEL*:           00000FH   BYTE   UNIT     CODE           ?PR?ADC_THEACLK_STOP?ADC_THEACLK
   *DEL*:           00006CH   BYTE   UNIT     CODE           ?PR?ADC_THEACLK_STOPBLOCK?ADC_THEACLK
   *DEL*:           000002H   BYTE   UNIT     XDATA          ?XD?ADC_THEACLK_STOPBLOCK?ADC_THEACLK
   *DEL*:           000013H   BYTE   UNIT     CODE           ?PR?_ADC_THEACLK_STANDBYPOWER?ADC_THEACLK
   *DEL*:           00000EH   BYTE   UNIT     CODE           ?PR?_ADC_THEACLK_CLEARMODEREGISTER?ADC_THEACLK
   *DEL*:           000008H   BYTE   UNIT     CODE           ?PR?ADC_THEACLK_GETMODEREGISTER?ADC_THEACLK
   *DEL*:           000062H   BYTE   UNIT     CODE           ?PR?_ADC_THEACLK_SETSOURCEREGISTER?ADC_THEACLK
   *DEL*:           000003H   BYTE   UNIT     XDATA          ?XD?_ADC_THEACLK_SETSOURCEREGISTER?ADC_THEACLK
   *DEL*:           000008H   BYTE   UNIT     CODE           ?PR?_ADC_THEACLK_SETPHASEREGISTER?ADC_THEACLK
   *DEL*:           000008H   BYTE   UNIT     CODE           ?PR?ADC_THEACLK_GETPHASEREGISTER?ADC_THEACLK
   *DEL*:           000031H   BYTE   UNIT     CODE           ?PR?CYFLASH_START?CYFLASH
   *DEL*:           000015H   BYTE   UNIT     CODE           ?PR?CYFLASH_STOP?CYFLASH
   *DEL*:           00007DH   BYTE   UNIT     CODE           ?PR?_CYSETFLASHEEBUFFER?CYFLASH
   *DEL*:           000004H   BYTE   UNIT     XDATA          ?XD?_CYSETFLASHEEBUFFER?CYFLASH
   *DEL*:           000034H   BYTE   UNIT     CODE           ?PR?_CYWRITEROWDATA?CYFLASH
   *DEL*:           000003H   BYTE   UNIT     XDATA          ?XD?_CYWRITEROWDATA?CYFLASH
   *DEL*:           000190H   BYTE   UNIT     CODE           ?PR?_CYWRITEROWFULL?CYFLASH
   *DEL*:           000009H   BYTE   UNIT     XDATA          ?XD?_CYWRITEROWFULL?CYFLASH
   *DEL*:           000044H   BYTE   UNIT     CODE           ?PR?_CYFLASH_SETWAITCYCLES?CYFLASH
   *DEL*:           000001H   BYTE   UNIT     XDATA          ?XD?_CYFLASH_SETWAITCYCLES?CYFLASH
   *DEL*:           000015H   BYTE   UNIT     CODE           ?PR?CYEEPROM_STOP?CYFLASH
   *DEL*:           000010H   BYTE   UNIT     CODE           ?PR?CYEEPROM_READRESERVE?CYFLASH
   *DEL*:           000008H   BYTE   UNIT     CODE           ?PR?CYEEPROM_READRELEASE?CYFLASH
   *DEL*:           0001A9H   BYTE   UNIT     CODE           ?PR?CYPMSAVECLOCKS?CYPM
   *DEL*:           00024CH   BYTE   UNIT     CODE           ?PR?CYPMRESTORECLOCKS?CYPM
   *DEL*:           000003H   BYTE   UNIT     XDATA          ?XD?CYPMRESTORECLOCKS?CYPM
   *DEL*:           0000E0H   BYTE   UNIT     CODE           ?PR?_CYPMALTACT?CYPM
   *DEL*:           000004H   BYTE   UNIT     XDATA          ?XD?_CYPMALTACT?CYPM
   *DEL*:           000160H   BYTE   UNIT     CODE           ?PR?_CYPMSLEEP?CYPM
   *DEL*:           000004H   BYTE   UNIT     XDATA          ?XD?_CYPMSLEEP?CYPM
   *DEL*:           000008H   BYTE   UNIT     CODE           ?PR?CYPMHIBERNATE?CYPM
   *DEL*:           0000D6H   BYTE   UNIT     CODE           ?PR?_CYPMHIBERNATEEX?CYPM
   *DEL*:           000003H   BYTE   UNIT     XDATA          ?XD?_CYPMHIBERNATEEX?CYPM
   *DEL*:           000039H   BYTE   UNIT     CODE           ?PR?_CYPMREADSTATUS?CYPM
   *DEL*:           000002H   BYTE   UNIT     XDATA          ?XD?_CYPMREADSTATUS?CYPM
   *DEL*:           000076H   BYTE   UNIT     CODE           ?PR?CYPMHIBSAVESET?CYPM
   *DEL*:           000040H   BYTE   UNIT     CODE           ?PR?CYPMHIBRESTORE?CYPM
   *DEL*:           000049H   BYTE   UNIT     CODE           ?PR?_CYPMCTWSETINTERVAL?CYPM
   *DEL*:           000001H   BYTE   UNIT     XDATA          ?XD?_CYPMCTWSETINTERVAL?CYPM
   *DEL*:           000017H   BYTE   UNIT     CODE           ?PR?CYPMOPPSSET?CYPM
   *DEL*:           00004DH   BYTE   UNIT     CODE           ?PR?_CYPMFTWSETINTERVAL?CYPM
   *DEL*:           000001H   BYTE   UNIT     XDATA          ?XD?_CYPMFTWSETINTERVAL?CYPM
   *DEL*:           00018CH   BYTE   UNIT     CODE           ?PR?CYPMHIBSLPSAVESET?CYPM
   *DEL*:           00010DH   BYTE   UNIT     CODE           ?PR?CYPMHIBSLPRESTORE?CYPM
   *DEL*:           000082H   BYTE   UNIT     CODE           ?PR?CYPMHVILVISAVEDISABLE?CYPM
   *DEL*:           000033H   BYTE   UNIT     CODE           ?PR?CYPMHVILVIRESTORE?CYPM
   *DEL*:           00000EH   BYTE   UNIT     CONST          ?CO?CYPM
   *DEL*:           000015H   BYTE   UNIT     CODE           ?PR?CYSPCSTOP?CYSPC
   *DEL*:           0000A7H   BYTE   UNIT     CODE           ?PR?_CYSPCLOADMULTIBYTE?CYSPC
   *DEL*:           000007H   BYTE   UNIT     XDATA          ?XD?_CYSPCLOADMULTIBYTE?CYSPC
   *DEL*:           000143H   BYTE   UNIT     CODE           ?PR?_CYSPCLOADROWFULL?CYSPC
   *DEL*:           00000FH   BYTE   UNIT     XDATA          ?XD?_CYSPCLOADROWFULL?CYSPC
   *DEL*:           000030H   BYTE   UNIT     CODE           ?PR?_CYSPCERASESECTOR?CYSPC



OVERLAY MAP OF MODULE:   .\DP8051_Keil_951\Release\cuff_mod_firmware.omf (COMMAND_PROCESSING)


FUNCTION/MODULE                                BIT_GROUP   DATA_GROUP   IDATA_GROUP  XDATA_GROUP
--> CALLED FUNCTION/MODULE                    START  STOP  START  STOP  START  STOP  START  STOP
================================================================================================
ISR_WATCHDOG_HANDLER/INTERRUPTIONS            ----- -----  ----- -----  ----- -----  ----- -----

*** NEW ROOT ********************************
LX51 LINKER/LOCATER V4.64.0.0                                                         01/12/2018  13:27:04  PAGE 14



ISR_RS485_RX_EXINTERRUPT/INTERRUPTIONS        ----- -----  ----- -----  ----- -----  ----- -----

*** NEW ROOT ********************************

ISR_RS485_RX_INTERRUPT/ISR_RS485_RX           ----- -----  ----- -----  ----- -----  ----- -----

*** NEW ROOT ********************************

ISR_WATCHDOG_INTERRUPT/ISR_WATCHDOG           ----- -----  ----- -----  ----- -----  ----- -----

*** NEW ROOT ********************************

?C_C51STARTUP                                 ----- -----  ----- -----  ----- -----  ----- -----
  +--> ?CO?KEILSTART?3
  +--> CYFITTER_CFG/CYFITTER_CFG
  +--> CYDMACCONFIGURE/CYDMAC
  +--> MAIN/MAIN
  +--> ?C_INITSEG

?CO?KEILSTART?3                               ----- -----  ----- -----  ----- -----  ----- -----

CYFITTER_CFG/CYFITTER_CFG                     ----- -----  ----- -----  ----- -----  ----- -----
  +--> CYREAD8/CYMEM
  +--> CYWRITE8/CYMEM
  +--> CFG_DMA_INIT/CYFITTER_CFG
  +--> ?CO?CYFITTER_CFG
  +--> CYCONFIGCPYCODE/CYMEM
  +--> _CYCONFIGCPY/CYMEM
  +--> CLOCKSETUP/CYFITTER_CFG
  +--> ANALOGSETDEFAULT/CYFITTER_CFG

CYREAD8/CYMEM                                 ----- -----  ----- -----  ----- -----  ----- -----

CYWRITE8/CYMEM                                ----- -----  ----- -----  ----- -----  ----- -----

CFG_DMA_INIT/CYFITTER_CFG                     ----- -----  ----- -----  ----- -----  ----- -----
  +--> CYWRITE16/CYMEM
  +--> ?CO?CYFITTER_CFG
  +--> _CYCONFIGCPY/CYMEM

CYWRITE16/CYMEM                               ----- -----  ----- -----  ----- -----  ----- -----

?CO?CYFITTER_CFG                              ----- -----  ----- -----  ----- -----  ----- -----

_CYCONFIGCPY/CYMEM                            ----- -----  ----- -----  ----- -----  0000H 0007H

CYCONFIGCPYCODE/CYMEM                         ----- -----  ----- -----  ----- -----  ----- -----

CLOCKSETUP/CYFITTER_CFG                       ----- -----  ----- -----  ----- -----  0000H 0004H
  +--> CYWRITE16/CYMEM
  +--> ?CO?CYFITTER_CFG
  +--> CYCONFIGCPYCODE/CYMEM
  +--> CYREAD8/CYMEM
  +--> CYDELAYCYCLES/CYBOOTASMKEIL
  +--> _CYCLOCKSTARTUPERROR/CYFITTER_CFG

CYDELAYCYCLES/CYBOOTASMKEIL                   ----- -----  ----- -----  ----- -----  ----- -----

_CYCLOCKSTARTUPERROR/CYFITTER_CFG             ----- -----  ----- -----  ----- -----  ----- -----

ANALOGSETDEFAULT/CYFITTER_CFG                 ----- -----  ----- -----  ----- -----  ----- -----
  +--> CYREAD8/CYMEM

CYDMACCONFIGURE/CYDMAC                        ----- -----  ----- -----  ----- -----  ----- -----
LX51 LINKER/LOCATER V4.64.0.0                                                         01/12/2018  13:27:04  PAGE 15



MAIN/MAIN                                     ----- -----  ----- -----  ----- -----  0000H 0002H
  +--> EEPROM_START/EEPROM
  +--> MEMRECALL/COMMAND_PROCESSING
  +--> _?CYDELAY/CYLIB
  +--> _FTDI_ENABLE_REG_WRITE/FTDI_ENABLE_REG
  +--> UART_RS485_STOP/UART_RS485
  +--> UART_RS485_START/UART_RS485
  +--> UART_RS485_INIT/UART_RS485
  +--> UART_RS485_CLEARRXBUFFER/UART_RS485
  +--> UART_RS485_CLEARTXBUFFER/UART_RS485
  +--> _ISR_RS485_RX_STARTEX/ISR_RS485_RX
  +--> WATCHDOG_COUNTER_START/WATCHDOG_COUNTER
  +--> _ISR_WATCHDOG_STARTEX/ISR_WATCHDOG
  +--> PWM_MOTORS_START/PWM_MOTORS
  +--> _PWM_MOTORS_WRITECOMPARE1/PWM_MOTORS
  +--> _PWM_MOTORS_WRITECOMPARE2/PWM_MOTORS
  +--> _MOTOR_DIR_WRITE/MOTOR_DIR
  +--> _MOTOR_ON_OFF_WRITE/MOTOR_ON_OFF
  +--> COUNTER_ENC_START/COUNTER_ENC
  +--> SHIFTREG_ENC_1_START/SHIFTREG_ENC_1
  +--> SHIFTREG_ENC_2_START/SHIFTREG_ENC_2
  +--> SHIFTREG_ENC_3_START/SHIFTREG_ENC_3
  +--> ADC_START/ADC
  +--> _ADC_SOC_WRITE/ADC_SOC
  +--> _DMA_DMAINITIALIZE/DMA_DMA
  +--> CYDMATDALLOCATE/CYDMAC
  +--> _CYDMATDSETCONFIGURATION/CYDMAC
  +--> _CYDMATDSETADDRESS/CYDMAC
  +--> _CYDMACHSETINITIALTD/CYDMAC
  +--> _CYDMACHENABLE/CYDMAC
  +--> _RS485_CTS_WRITE/RS485_CTS
  +--> MY_TIMER_START/MY_TIMER
  +--> PACER_TIMER_START/PACER_TIMER
  +--> _MEMSTORE/COMMAND_PROCESSING
  +--> _SENDACKNOWLEDGMENT/COMMAND_PROCESSING
  +--> _ENCODER_READING/INTERRUPTIONS
  +--> _WATCHDOG_ENABLER_WRITE/WATCHDOG_ENABLER
  +--> _RESET_FF_WRITE/RESET_FF
  +--> FUNCTION_SCHEDULER/INTERRUPTIONS
  +--> FF_STATUS_READ/FF_STATUS
  +--> _WATCHDOG_REFRESH_WRITE/WATCHDOG_REFRESH
  +--> INTERRUPT_MANAGER/INTERRUPTIONS
  +--> UART_RS485_READRXSTATUS/UART_RS485

EEPROM_START/EEPROM                           ----- -----  ----- -----  ----- -----  ----- -----
  +--> EEPROM_ENABLE/EEPROM

EEPROM_ENABLE/EEPROM                          ----- -----  ----- -----  ----- -----  ----- -----
  +--> CYSETTEMP/CYFLASH
  +--> CYEEPROM_START/CYFLASH

CYSETTEMP/CYFLASH                             ----- -----  ----- -----  ----- -----  0028H 0028H
  +--> CYFLASHGETSPCALGORITHM/CYFLASH
  +--> CYSETTEMPINT/CYFLASH

CYFLASHGETSPCALGORITHM/CYFLASH                ----- -----  ----- -----  ----- -----  0029H 0029H
  +--> CYSPCSTART/CYSPC
  +--> CYSPCLOCK/CYSPC
  +--> CYSPCGETALGORITHM/CYSPC
  +--> CYDELAYUS/CYBOOTASMKEIL
  +--> CYSPCUNLOCK/CYSPC

CYSPCSTART/CYSPC                              ----- -----  ----- -----  ----- -----  ----- -----
  +--> CYENTERCRITICALSECTION/CYBOOTASMKEIL
LX51 LINKER/LOCATER V4.64.0.0                                                         01/12/2018  13:27:04  PAGE 16


  +--> CYEXITCRITICALSECTION/CYBOOTASMKEIL

CYENTERCRITICALSECTION/CYBOOTASMKEIL          ----- -----  ----- -----  ----- -----  ----- -----

CYEXITCRITICALSECTION/CYBOOTASMKEIL           ----- -----  ----- -----  ----- -----  ----- -----

CYSPCLOCK/CYSPC                               ----- -----  ----- -----  ----- -----  002DH 002DH
  +--> CYENTERCRITICALSECTION/CYBOOTASMKEIL
  +--> CYEXITCRITICALSECTION/CYBOOTASMKEIL

CYSPCGETALGORITHM/CYSPC                       ----- -----  ----- -----  ----- -----  ----- -----

CYDELAYUS/CYBOOTASMKEIL                       ----- -----  ----- -----  ----- -----  ----- -----
  +--> CYDELAYCYCLES/CYBOOTASMKEIL

CYSPCUNLOCK/CYSPC                             ----- -----  ----- -----  ----- -----  ----- -----
  +--> CYENTERCRITICALSECTION/CYBOOTASMKEIL
  +--> CYEXITCRITICALSECTION/CYBOOTASMKEIL

CYSETTEMPINT/CYFLASH                          ----- -----  ----- -----  ----- -----  0029H 0029H
  +--> CYSPCSTART/CYSPC
  +--> CYSPCLOCK/CYSPC
  +--> _CYSPCGETTEMP/CYSPC
  +--> _CYSPCREADDATA/CYSPC
  +--> CYDELAYUS/CYBOOTASMKEIL
  +--> CYSPCUNLOCK/CYSPC

_CYSPCGETTEMP/CYSPC                           ----- -----  ----- -----  ----- -----  ----- -----

_CYSPCREADDATA/CYSPC                          ----- -----  ----- -----  ----- -----  002AH 002EH
  +--> CYDELAYUS/CYBOOTASMKEIL

CYEEPROM_START/CYFLASH                        ----- -----  ----- -----  ----- -----  ----- -----
  +--> CYENTERCRITICALSECTION/CYBOOTASMKEIL
  +--> CYEXITCRITICALSECTION/CYBOOTASMKEIL

MEMRECALL/COMMAND_PROCESSING                  ----- -----  ----- -----  ----- -----  ----- -----
  +--> MEMRESTORE/COMMAND_PROCESSING

MEMRESTORE/COMMAND_PROCESSING                 ----- -----  ----- -----  ----- -----  ----- -----
  +--> MEMINIT/COMMAND_PROCESSING
  +--> _MEMSTORE/COMMAND_PROCESSING

MEMINIT/COMMAND_PROCESSING                    ----- -----  0067H 0067H  ----- -----  ----- -----
  +--> _MEMSTORE/COMMAND_PROCESSING

_MEMSTORE/COMMAND_PROCESSING                  ----- -----  ----- -----  ----- -----  0021H 0027H
  +--> _PWM_MOTORS_WRITECOMPARE1/PWM_MOTORS
  +--> _PWM_MOTORS_WRITECOMPARE2/PWM_MOTORS
  +--> EEPROM_UPDATETEMPERATURE/EEPROM
  +--> _EEPROM_WRITE/EEPROM

_PWM_MOTORS_WRITECOMPARE1/PWM_MOTORS          ----- -----  ----- -----  ----- -----  ----- -----

_PWM_MOTORS_WRITECOMPARE2/PWM_MOTORS          ----- -----  ----- -----  ----- -----  ----- -----

EEPROM_UPDATETEMPERATURE/EEPROM               ----- -----  ----- -----  ----- -----  ----- -----
  +--> CYSETTEMP/CYFLASH

_EEPROM_WRITE/EEPROM                          ----- -----  ----- -----  ----- -----  0028H 002CH
  +--> CYSPCSTART/CYSPC
  +--> CYSPCLOCK/CYSPC
  +--> _CYSPCLOADROW/CYSPC
  +--> _CYSPCWRITEROW/CYSPC
  +--> CYSPCUNLOCK/CYSPC
LX51 LINKER/LOCATER V4.64.0.0                                                         01/12/2018  13:27:04  PAGE 17



_CYSPCLOADROW/CYSPC                           ----- -----  ----- -----  ----- -----  002DH 0033H

_CYSPCWRITEROW/CYSPC                          ----- -----  ----- -----  ----- -----  002DH 0031H

_?CYDELAY/CYLIB                               ----- -----  ----- -----  ----- -----  ----- -----
  +--> CYDELAYCYCLES/CYBOOTASMKEIL

_FTDI_ENABLE_REG_WRITE/FTDI_ENABLE_REG        ----- -----  ----- -----  ----- -----  ----- -----

UART_RS485_STOP/UART_RS485                    ----- -----  ----- -----  ----- -----  ----- -----
  +--> CYENTERCRITICALSECTION/CYBOOTASMKEIL
  +--> CYEXITCRITICALSECTION/CYBOOTASMKEIL

UART_RS485_START/UART_RS485                   ----- -----  ----- -----  ----- -----  ----- -----
  +--> UART_RS485_INIT/UART_RS485
  +--> UART_RS485_ENABLE/UART_RS485

UART_RS485_INIT/UART_RS485                    ----- -----  ----- -----  ----- -----  ----- -----
  +--> _CYINTSETVECTOR/CYLIB
  +--> _CYINTSETPRIORITY/CYLIB

_CYINTSETVECTOR/CYLIB                         ----- -----  ----- -----  ----- -----  0003H 0007H
  +--> CYREAD16/CYMEM
  +--> CYWRITE16/CYMEM

CYREAD16/CYMEM                                ----- -----  ----- -----  ----- -----  ----- -----

_CYINTSETPRIORITY/CYLIB                       ----- -----  ----- -----  ----- -----  ----- -----

UART_RS485_ENABLE/UART_RS485                  ----- -----  ----- -----  ----- -----  ----- -----
  +--> CYENTERCRITICALSECTION/CYBOOTASMKEIL
  +--> CYEXITCRITICALSECTION/CYBOOTASMKEIL

UART_RS485_CLEARRXBUFFER/UART_RS485           ----- -----  ----- -----  ----- -----  ----- -----
  +--> CYENTERCRITICALSECTION/CYBOOTASMKEIL
  +--> CYEXITCRITICALSECTION/CYBOOTASMKEIL

UART_RS485_CLEARTXBUFFER/UART_RS485           ----- -----  ----- -----  ----- -----  ----- -----
  +--> CYENTERCRITICALSECTION/CYBOOTASMKEIL
  +--> CYEXITCRITICALSECTION/CYBOOTASMKEIL

_ISR_RS485_RX_STARTEX/ISR_RS485_RX            ----- -----  ----- -----  ----- -----  0003H 0004H
  +--> ISR_RS485_RX_DISABLE/ISR_RS485_RX
  +--> _ISR_RS485_RX_SETVECTOR/ISR_RS485_RX
  +--> _ISR_RS485_RX_SETPRIORITY/ISR_RS485_RX
  +--> ISR_RS485_RX_ENABLE/ISR_RS485_RX

ISR_RS485_RX_DISABLE/ISR_RS485_RX             ----- -----  ----- -----  ----- -----  ----- -----

_ISR_RS485_RX_SETVECTOR/ISR_RS485_RX          ----- -----  ----- -----  ----- -----  ----- -----
  +--> CYWRITE16/CYMEM

_ISR_RS485_RX_SETPRIORITY/ISR_RS485_RX        ----- -----  ----- -----  ----- -----  ----- -----

ISR_RS485_RX_ENABLE/ISR_RS485_RX              ----- -----  ----- -----  ----- -----  ----- -----

WATCHDOG_COUNTER_START/WATCHDOG_COUNTER       ----- -----  ----- -----  ----- -----  ----- -----
  +--> WATCHDOG_COUNTER_INIT/WATCHDOG_COUNTER
  +--> WATCHDOG_COUNTER_ENABLE/WATCHDOG_COUNTER

WATCHDOG_COUNTER_INIT/WATCHDOG_COUNTER        ----- -----  ----- -----  ----- -----  ----- -----
  +--> _WATCHDOG_COUNTER_WRITEPERIOD/WATCHDOG_COUNTER
  +--> _WATCHDOG_COUNTER_WRITECOUNTER/WATCHDOG_COUNTER
  +--> _WATCHDOG_COUNTER_SETINTERRUPTMODE/WATCHDOG_COUNTER
LX51 LINKER/LOCATER V4.64.0.0                                                         01/12/2018  13:27:04  PAGE 18



_WATCHDOG_COUNTER_WRITEPERIOD/WATCHDOG_C+     ----- -----  ----- -----  ----- -----  ----- -----
... OUNTER
  +--> CYWRITE16/CYMEM

_WATCHDOG_COUNTER_WRITECOUNTER/WATCHDOG_+     ----- -----  ----- -----  ----- -----  ----- -----
... COUNTER
  +--> CYWRITE16/CYMEM

_WATCHDOG_COUNTER_SETINTERRUPTMODE/WATCH+     ----- -----  ----- -----  ----- -----  ----- -----
... DOG_COUNTER

WATCHDOG_COUNTER_ENABLE/WATCHDOG_COUNTER      ----- -----  ----- -----  ----- -----  ----- -----

_ISR_WATCHDOG_STARTEX/ISR_WATCHDOG            ----- -----  ----- -----  ----- -----  0003H 0004H
  +--> ISR_WATCHDOG_DISABLE/ISR_WATCHDOG
  +--> _ISR_WATCHDOG_SETVECTOR/ISR_WATCHDOG
  +--> _ISR_WATCHDOG_SETPRIORITY/ISR_WATCHDOG
  +--> ISR_WATCHDOG_ENABLE/ISR_WATCHDOG

ISR_WATCHDOG_DISABLE/ISR_WATCHDOG             ----- -----  ----- -----  ----- -----  ----- -----

_ISR_WATCHDOG_SETVECTOR/ISR_WATCHDOG          ----- -----  ----- -----  ----- -----  ----- -----
  +--> CYWRITE16/CYMEM

_ISR_WATCHDOG_SETPRIORITY/ISR_WATCHDOG        ----- -----  ----- -----  ----- -----  ----- -----

ISR_WATCHDOG_ENABLE/ISR_WATCHDOG              ----- -----  ----- -----  ----- -----  ----- -----

PWM_MOTORS_START/PWM_MOTORS                   ----- -----  ----- -----  ----- -----  ----- -----
  +--> PWM_MOTORS_INIT/PWM_MOTORS
  +--> PWM_MOTORS_ENABLE/PWM_MOTORS

PWM_MOTORS_INIT/PWM_MOTORS                    ----- -----  ----- -----  ----- -----  ----- -----
  +--> _PWM_MOTORS_WRITECOUNTER/PWM_MOTORS
  +--> _PWM_MOTORS_WRITEPERIOD/PWM_MOTORS
  +--> _PWM_MOTORS_WRITECOMPARE1/PWM_MOTORS
  +--> _PWM_MOTORS_WRITECOMPARE2/PWM_MOTORS

_PWM_MOTORS_WRITECOUNTER/PWM_MOTORS           ----- -----  ----- -----  ----- -----  ----- -----

_PWM_MOTORS_WRITEPERIOD/PWM_MOTORS            ----- -----  ----- -----  ----- -----  ----- -----

PWM_MOTORS_ENABLE/PWM_MOTORS                  ----- -----  ----- -----  ----- -----  ----- -----

_MOTOR_DIR_WRITE/MOTOR_DIR                    ----- -----  ----- -----  ----- -----  ----- -----

_MOTOR_ON_OFF_WRITE/MOTOR_ON_OFF              ----- -----  ----- -----  ----- -----  ----- -----

COUNTER_ENC_START/COUNTER_ENC                 ----- -----  ----- -----  ----- -----  ----- -----
  +--> COUNTER_ENC_INIT/COUNTER_ENC
  +--> COUNTER_ENC_ENABLE/COUNTER_ENC

COUNTER_ENC_INIT/COUNTER_ENC                  ----- -----  ----- -----  ----- -----  ----- -----
  +--> COUNTER_ENC_CLEARFIFO/COUNTER_ENC
  +--> _COUNTER_ENC_WRITEPERIOD/COUNTER_ENC
  +--> _COUNTER_ENC_WRITECOUNTER/COUNTER_ENC
  +--> _COUNTER_ENC_SETINTERRUPTMODE/COUNTER_ENC
  +--> COUNTER_ENC_READSTATUSREGISTER/COUNTER_ENC
  +--> _COUNTER_ENC_WRITECOMPARE/COUNTER_ENC
  +--> CYENTERCRITICALSECTION/CYBOOTASMKEIL
  +--> CYEXITCRITICALSECTION/CYBOOTASMKEIL

COUNTER_ENC_CLEARFIFO/COUNTER_ENC             ----- -----  ----- -----  ----- -----  ----- -----
  +--> COUNTER_ENC_READSTATUSREGISTER/COUNTER_ENC
LX51 LINKER/LOCATER V4.64.0.0                                                         01/12/2018  13:27:04  PAGE 19


  +--> COUNTER_ENC_READCAPTURE/COUNTER_ENC

COUNTER_ENC_READSTATUSREGISTER/COUNTER_E+     ----- -----  ----- -----  ----- -----  ----- -----
... NC

COUNTER_ENC_READCAPTURE/COUNTER_ENC           ----- -----  ----- -----  ----- -----  ----- -----

_COUNTER_ENC_WRITEPERIOD/COUNTER_ENC          ----- -----  ----- -----  ----- -----  ----- -----

_COUNTER_ENC_WRITECOUNTER/COUNTER_ENC         ----- -----  ----- -----  ----- -----  ----- -----

_COUNTER_ENC_SETINTERRUPTMODE/COUNTER_EN+     ----- -----  ----- -----  ----- -----  ----- -----
... C

_COUNTER_ENC_WRITECOMPARE/COUNTER_ENC         ----- -----  ----- -----  ----- -----  ----- -----

COUNTER_ENC_ENABLE/COUNTER_ENC                ----- -----  ----- -----  ----- -----  ----- -----

SHIFTREG_ENC_1_START/SHIFTREG_ENC_1           ----- -----  ----- -----  ----- -----  ----- -----
  +--> SHIFTREG_ENC_1_INIT/SHIFTREG_ENC_1
  +--> SHIFTREG_ENC_1_ENABLE/SHIFTREG_ENC_1

SHIFTREG_ENC_1_INIT/SHIFTREG_ENC_1            ----- -----  ----- -----  ----- -----  ----- -----
  +--> _SHIFTREG_ENC_1_SETINTMODE/SHIFTREG_ENC_1

_SHIFTREG_ENC_1_SETINTMODE/SHIFTREG_ENC_+     ----- -----  ----- -----  ----- -----  ----- -----
... 1

SHIFTREG_ENC_1_ENABLE/SHIFTREG_ENC_1          ----- -----  ----- -----  ----- -----  ----- -----
  +--> SHIFTREG_ENC_1_ENABLEINT/SHIFTREG_ENC_1

SHIFTREG_ENC_1_ENABLEINT/SHIFTREG_ENC_1       ----- -----  ----- -----  ----- -----  ----- -----
  +--> CYENTERCRITICALSECTION/CYBOOTASMKEIL
  +--> CYEXITCRITICALSECTION/CYBOOTASMKEIL

SHIFTREG_ENC_2_START/SHIFTREG_ENC_2           ----- -----  ----- -----  ----- -----  ----- -----
  +--> SHIFTREG_ENC_2_INIT/SHIFTREG_ENC_2
  +--> SHIFTREG_ENC_2_ENABLE/SHIFTREG_ENC_2

SHIFTREG_ENC_2_INIT/SHIFTREG_ENC_2            ----- -----  ----- -----  ----- -----  ----- -----
  +--> _SHIFTREG_ENC_2_SETINTMODE/SHIFTREG_ENC_2

_SHIFTREG_ENC_2_SETINTMODE/SHIFTREG_ENC_+     ----- -----  ----- -----  ----- -----  ----- -----
... 2

SHIFTREG_ENC_2_ENABLE/SHIFTREG_ENC_2          ----- -----  ----- -----  ----- -----  ----- -----
  +--> SHIFTREG_ENC_2_ENABLEINT/SHIFTREG_ENC_2

SHIFTREG_ENC_2_ENABLEINT/SHIFTREG_ENC_2       ----- -----  ----- -----  ----- -----  ----- -----
  +--> CYENTERCRITICALSECTION/CYBOOTASMKEIL
  +--> CYEXITCRITICALSECTION/CYBOOTASMKEIL

SHIFTREG_ENC_3_START/SHIFTREG_ENC_3           ----- -----  ----- -----  ----- -----  ----- -----
  +--> SHIFTREG_ENC_3_INIT/SHIFTREG_ENC_3
  +--> SHIFTREG_ENC_3_ENABLE/SHIFTREG_ENC_3

SHIFTREG_ENC_3_INIT/SHIFTREG_ENC_3            ----- -----  ----- -----  ----- -----  ----- -----
  +--> _SHIFTREG_ENC_3_SETINTMODE/SHIFTREG_ENC_3

_SHIFTREG_ENC_3_SETINTMODE/SHIFTREG_ENC_+     ----- -----  ----- -----  ----- -----  ----- -----
... 3

SHIFTREG_ENC_3_ENABLE/SHIFTREG_ENC_3          ----- -----  ----- -----  ----- -----  ----- -----
  +--> SHIFTREG_ENC_3_ENABLEINT/SHIFTREG_ENC_3

LX51 LINKER/LOCATER V4.64.0.0                                                         01/12/2018  13:27:04  PAGE 20


SHIFTREG_ENC_3_ENABLEINT/SHIFTREG_ENC_3       ----- -----  ----- -----  ----- -----  ----- -----
  +--> CYENTERCRITICALSECTION/CYBOOTASMKEIL
  +--> CYEXITCRITICALSECTION/CYBOOTASMKEIL

ADC_START/ADC                                 ----- -----  ----- -----  ----- -----  ----- -----
  +--> ADC_INIT/ADC
  +--> ADC_ENABLE/ADC

ADC_INIT/ADC                                  ----- -----  ----- -----  ----- -----  ----- -----
  +--> _ADC_EXT_CP_CLK_SETMODEREGISTER/ADC_EXT_CP_CLK
  +--> _ADC_THEACLK_SETMODEREGISTER/ADC_THEACLK
  +--> _CYINTSETPRIORITY/CYLIB
  +--> _ADC_GAINCOMPENSATION/ADC
  +--> CYWRITE16/CYMEM
  +--> _ADC_INITCONFIG/ADC

_ADC_EXT_CP_CLK_SETMODEREGISTER/ADC_EXT_+     ----- -----  ----- -----  ----- -----  ----- -----
... CP_CLK

_ADC_THEACLK_SETMODEREGISTER/ADC_THEACLK      ----- -----  ----- -----  ----- -----  ----- -----

_ADC_GAINCOMPENSATION/ADC                     ----- -----  ----- -----  ----- -----  0003H 000AH
  +--> CYREAD8/CYMEM

_ADC_INITCONFIG/ADC                           ----- -----  ----- -----  ----- -----  ----- -----
  +--> _ADC_SETDSMREF0REG/ADC
  +--> _ADC_AMUX_SELECT/ADC_AMUX
  +--> _ADC_EXT_CP_CLK_SETDIVIDERREGISTER/ADC_EXT_CP_CLK
  +--> _ADC_THEACLK_SETDIVIDERREGISTER/ADC_THEACLK
  +--> _CYINTSETVECTOR/CYLIB

_ADC_SETDSMREF0REG/ADC                        ----- -----  ----- -----  ----- -----  0003H 0004H
  +--> CYENTERCRITICALSECTION/CYBOOTASMKEIL
  +--> CYDELAYUS/CYBOOTASMKEIL
  +--> CYEXITCRITICALSECTION/CYBOOTASMKEIL

_ADC_AMUX_SELECT/ADC_AMUX                     ----- -----  ----- -----  ----- -----  0003H 0003H
  +--> ADC_AMUX_START/ADC_AMUX
  +--> _ADC_AMUX_SET/CYFITTER_CFG

ADC_AMUX_START/ADC_AMUX                       ----- -----  ----- -----  ----- -----  0004H 0004H
  +--> _ADC_AMUX_UNSET/CYFITTER_CFG

_ADC_AMUX_UNSET/CYFITTER_CFG                  ----- -----  ----- -----  ----- -----  ----- -----
  +--> ?CO?CYFITTER_CFG

_ADC_AMUX_SET/CYFITTER_CFG                    ----- -----  ----- -----  ----- -----  ----- -----
  +--> ?CO?CYFITTER_CFG

_ADC_EXT_CP_CLK_SETDIVIDERREGISTER/ADC_E+     ----- -----  ----- -----  ----- -----  0003H 0009H
... XT_CP_CLK
  +--> ADC_EXT_CP_CLK_GETSOURCEREGISTER/ADC_EXT_CP_CLK
  +--> ADC_EXT_CP_CLK_GETDIVIDERREGISTER/ADC_EXT_CP_CLK
  +--> CYWRITE16/CYMEM

ADC_EXT_CP_CLK_GETSOURCEREGISTER/ADC_EXT+     ----- -----  ----- -----  ----- -----  ----- -----
... _CP_CLK

ADC_EXT_CP_CLK_GETDIVIDERREGISTER/ADC_EX+     ----- -----  ----- -----  ----- -----  ----- -----
... T_CP_CLK
  +--> CYREAD16/CYMEM

_ADC_THEACLK_SETDIVIDERREGISTER/ADC_THEA+     ----- -----  ----- -----  ----- -----  0003H 0009H
... CLK
  +--> ADC_THEACLK_GETSOURCEREGISTER/ADC_THEACLK
LX51 LINKER/LOCATER V4.64.0.0                                                         01/12/2018  13:27:04  PAGE 21


  +--> ADC_THEACLK_GETDIVIDERREGISTER/ADC_THEACLK
  +--> CYWRITE16/CYMEM

ADC_THEACLK_GETSOURCEREGISTER/ADC_THEACL+     ----- -----  ----- -----  ----- -----  ----- -----
... K

ADC_THEACLK_GETDIVIDERREGISTER/ADC_THEAC+     ----- -----  ----- -----  ----- -----  ----- -----
... LK
  +--> CYREAD16/CYMEM

ADC_ENABLE/ADC                                ----- -----  ----- -----  ----- -----  0003H 0004H
  +--> CYENTERCRITICALSECTION/CYBOOTASMKEIL
  +--> CYDELAYUS/CYBOOTASMKEIL
  +--> CYEXITCRITICALSECTION/CYBOOTASMKEIL

_ADC_SOC_WRITE/ADC_SOC                        ----- -----  ----- -----  ----- -----  ----- -----

_DMA_DMAINITIALIZE/DMA_DMA                    ----- -----  ----- -----  ----- -----  0003H 0008H
  +--> _CYDMACHSETCONFIGURATION/CYDMAC
  +--> _CYDMACHSETEXTENDEDADDRESS/CYDMAC
  +--> _CYDMACHPRIORITY/CYDMAC

_CYDMACHSETCONFIGURATION/CYDMAC               ----- -----  ----- -----  ----- -----  0009H 000EH

_CYDMACHSETEXTENDEDADDRESS/CYDMAC             ----- -----  ----- -----  ----- -----  0009H 0010H
  +--> CYWRITE16/CYMEM

_CYDMACHPRIORITY/CYDMAC                       ----- -----  ----- -----  ----- -----  ----- -----

CYDMATDALLOCATE/CYDMAC                        ----- -----  ----- -----  ----- -----  0003H 0003H
  +--> CYENTERCRITICALSECTION/CYBOOTASMKEIL
  +--> CYEXITCRITICALSECTION/CYBOOTASMKEIL

_CYDMATDSETCONFIGURATION/CYDMAC               ----- -----  ----- -----  ----- -----  0003H 000AH
  +--> CYWRITE16/CYMEM

_CYDMATDSETADDRESS/CYDMAC                     ----- -----  ----- -----  ----- -----  0003H 000AH
  +--> CYWRITE16/CYMEM

_CYDMACHSETINITIALTD/CYDMAC                   ----- -----  ----- -----  ----- -----  ----- -----

_CYDMACHENABLE/CYDMAC                         ----- -----  ----- -----  ----- -----  ----- -----

_RS485_CTS_WRITE/RS485_CTS                    ----- -----  ----- -----  ----- -----  ----- -----

MY_TIMER_START/MY_TIMER                       ----- -----  ----- -----  ----- -----  ----- -----
  +--> MY_TIMER_INIT/MY_TIMER
  +--> MY_TIMER_ENABLE/MY_TIMER

MY_TIMER_INIT/MY_TIMER                        ----- -----  ----- -----  ----- -----  ----- -----
  +--> _MY_TIMER_WRITEPERIOD/MY_TIMER
  +--> _MY_TIMER_WRITECOUNTER/MY_TIMER
  +--> CYENTERCRITICALSECTION/CYBOOTASMKEIL
  +--> CYEXITCRITICALSECTION/CYBOOTASMKEIL
  +--> MY_TIMER_CLEARFIFO/MY_TIMER
  +--> _MY_TIMER_SETINTERRUPTMODE/MY_TIMER

_MY_TIMER_WRITEPERIOD/MY_TIMER                ----- -----  ----- -----  ----- -----  ----- -----
  +--> CYWRITE24/CYMEM

CYWRITE24/CYMEM                               ----- -----  ----- -----  ----- -----  ----- -----

_MY_TIMER_WRITECOUNTER/MY_TIMER               ----- -----  ----- -----  ----- -----  ----- -----
  +--> CYWRITE24/CYMEM

LX51 LINKER/LOCATER V4.64.0.0                                                         01/12/2018  13:27:04  PAGE 22


MY_TIMER_CLEARFIFO/MY_TIMER                   ----- -----  ----- -----  ----- -----  ----- -----
  +--> MY_TIMER_READSTATUSREGISTER/MY_TIMER
  +--> MY_TIMER_READCAPTURE/MY_TIMER

MY_TIMER_READSTATUSREGISTER/MY_TIMER          ----- -----  ----- -----  ----- -----  ----- -----

MY_TIMER_READCAPTURE/MY_TIMER                 ----- -----  ----- -----  ----- -----  ----- -----
  +--> CYREAD24/CYMEM

CYREAD24/CYMEM                                ----- -----  ----- -----  ----- -----  ----- -----

_MY_TIMER_SETINTERRUPTMODE/MY_TIMER           ----- -----  ----- -----  ----- -----  ----- -----

MY_TIMER_ENABLE/MY_TIMER                      ----- -----  ----- -----  ----- -----  ----- -----

PACER_TIMER_START/PACER_TIMER                 ----- -----  ----- -----  ----- -----  ----- -----
  +--> PACER_TIMER_INIT/PACER_TIMER
  +--> PACER_TIMER_ENABLE/PACER_TIMER

PACER_TIMER_INIT/PACER_TIMER                  ----- -----  ----- -----  ----- -----  ----- -----
  +--> _PACER_TIMER_WRITEPERIOD/PACER_TIMER
  +--> _PACER_TIMER_WRITECOUNTER/PACER_TIMER
  +--> _PACER_TIMER_SETINTERRUPTMODE/PACER_TIMER

_PACER_TIMER_WRITEPERIOD/PACER_TIMER          ----- -----  ----- -----  ----- -----  ----- -----
  +--> CYWRITE16/CYMEM

_PACER_TIMER_WRITECOUNTER/PACER_TIMER         ----- -----  ----- -----  ----- -----  ----- -----
  +--> CYWRITE16/CYMEM

_PACER_TIMER_SETINTERRUPTMODE/PACER_TIME+     ----- -----  ----- -----  ----- -----  ----- -----
... R

PACER_TIMER_ENABLE/PACER_TIMER                ----- -----  ----- -----  ----- -----  ----- -----

_SENDACKNOWLEDGMENT/COMMAND_PROCESSING        ----- -----  006BH 006CH  ----- -----  ----- -----
  +--> _COMMWRITE/COMMAND_PROCESSING

_COMMWRITE/COMMAND_PROCESSING                 ----- -----  007BH 007CH  ----- -----  0A52H 0A57H
  +--> _UART_RS485_PUTCHAR/UART_RS485
  +--> UART_RS485_READTXSTATUS/UART_RS485
  +--> _RS485_CTS_WRITE/RS485_CTS

_UART_RS485_PUTCHAR/UART_RS485                ----- -----  ----- -----  ----- -----  ----- -----

UART_RS485_READTXSTATUS/UART_RS485            ----- -----  ----- -----  ----- -----  ----- -----

_ENCODER_READING/INTERRUPTIONS                ----- -----  0023H 0023H  ----- -----  0003H 000FH
  +--> SHIFTREG_ENC_1_READDATA/SHIFTREG_ENC_1
  +--> SHIFTREG_ENC_2_READDATA/SHIFTREG_ENC_2
  +--> SHIFTREG_ENC_3_READDATA/SHIFTREG_ENC_3
  +--> SHIFTREG_ENC_4_READDATA/SHIFTREG_ENC_4
  +--> _CHECK_ENC_DATA/UTILS
  +--> _ABS/ABS

SHIFTREG_ENC_1_READDATA/SHIFTREG_ENC_1        ----- -----  ----- -----  ----- -----  ----- -----
  +--> CYREAD24/CYMEM

SHIFTREG_ENC_2_READDATA/SHIFTREG_ENC_2        ----- -----  ----- -----  ----- -----  ----- -----
  +--> CYREAD24/CYMEM

SHIFTREG_ENC_3_READDATA/SHIFTREG_ENC_3        ----- -----  ----- -----  ----- -----  ----- -----
  +--> CYREAD24/CYMEM

SHIFTREG_ENC_4_READDATA/SHIFTREG_ENC_4        ----- -----  ----- -----  ----- -----  ----- -----
LX51 LINKER/LOCATER V4.64.0.0                                                         01/12/2018  13:27:04  PAGE 23


  +--> CYREAD24/CYMEM

_CHECK_ENC_DATA/UTILS                         ----- -----  0024H 0024H  0010H 0012H  ----- -----

_ABS/ABS                                      ----- -----  ----- -----  ----- -----  ----- -----

_WATCHDOG_ENABLER_WRITE/WATCHDOG_ENABLER      ----- -----  ----- -----  ----- -----  ----- -----

_RESET_FF_WRITE/RESET_FF                      ----- -----  ----- -----  ----- -----  ----- -----

FUNCTION_SCHEDULER/INTERRUPTIONS              ----- -----  ----- -----  ----- -----  ----- -----
  +--> MY_TIMER_READCOUNTER/MY_TIMER
  +--> _ADC_SOC_WRITE/ADC_SOC
  +--> INTERRUPT_MANAGER/INTERRUPTIONS
  +--> _ENCODER_READING/INTERRUPTIONS
  +--> _MOTOR_CONTROL/INTERRUPTIONS
  +--> ANALOG_READ_END/INTERRUPTIONS
  +--> CALIBRATION/INTERRUPTIONS
  +--> DRIVE_CUFF/COMMAND_PROCESSING
  +--> SLIDE_CUFF/COMMAND_PROCESSING
  +--> _MY_TIMER_WRITECOUNTER/MY_TIMER

MY_TIMER_READCOUNTER/MY_TIMER                 ----- -----  ----- -----  ----- -----  ----- -----
  +--> CYREAD24/CYMEM

INTERRUPT_MANAGER/INTERRUPTIONS               20H.0 20H.0  0064H 0065H  ----- -----  ----- -----
  +--> UART_RS485_GETRXBUFFERSIZE/UART_RS485
  +--> UART_RS485_GETCHAR/UART_RS485
  +--> _INFOGET/COMMAND_PROCESSING
  +--> COMMPROCESS/COMMAND_PROCESSING
  +--> _RS485_CTS_WRITE/RS485_CTS

UART_RS485_GETRXBUFFERSIZE/UART_RS485         ----- -----  ----- -----  ----- -----  ----- -----

UART_RS485_GETCHAR/UART_RS485                 ----- -----  ----- -----  ----- -----  ----- -----

_INFOGET/COMMAND_PROCESSING                   ----- -----  ----- -----  ----- -----  0021H 05FCH
  +--> _INFOPREPARE/COMMAND_PROCESSING
  +--> _UART_RS485_PUTSTRING/UART_RS485

_INFOPREPARE/COMMAND_PROCESSING               ----- -----  0067H 0068H  ----- -----  05FDH 0631H
  +--> ?CO?COMMAND_PROCESSING
  +--> _STRCAT/STRCAT
  +--> PRINTF/PRINTF

?CO?COMMAND_PROCESSING                        ----- -----  ----- -----  ----- -----  ----- -----

_STRCAT/STRCAT                                ----- -----  ----- -----  ----- -----  0A52H 0A5AH

PRINTF/PRINTF                                 20H.1 21H.1  007BH 007FH  ----- -----  0A52H 0A81H
  +--> PUTCHAR/PUTCHAR

PUTCHAR/PUTCHAR                               ----- -----  ----- -----  ----- -----  ----- -----

_UART_RS485_PUTSTRING/UART_RS485              ----- -----  ----- -----  ----- -----  05FDH 05FFH
  +--> _UART_RS485_PUTCHAR/UART_RS485

COMMPROCESS/COMMAND_PROCESSING                ----- -----  0066H 0066H  ----- -----  ----- -----
  +--> _LCRCHECKSUM/UTILS
  +--> CMD_GET_MEASUREMENTS/COMMAND_PROCESSING
  +--> CMD_GET_INPUTS/COMMAND_PROCESSING
  +--> CMD_GET_CURRENTS/COMMAND_PROCESSING
  +--> CMD_GET_CURR_AND_MEAS/COMMAND_PROCESSING
  +--> CMD_SET_INPUTS/COMMAND_PROCESSING
  +--> CMD_SET_POS_STIFF/COMMAND_PROCESSING
LX51 LINKER/LOCATER V4.64.0.0                                                         01/12/2018  13:27:04  PAGE 24


  +--> CMD_GET_VELOCITIES/COMMAND_PROCESSING
  +--> CMD_ACTIVATE/COMMAND_PROCESSING
  +--> CMD_SET_WATCHDOG/COMMAND_PROCESSING
  +--> CMD_GET_ACTIVATE/COMMAND_PROCESSING
  +--> CMD_SET_BAUDRATE/COMMAND_PROCESSING
  +--> _INFOGET/COMMAND_PROCESSING
  +--> SETZEROS/COMMAND_PROCESSING
  +--> _GET_PARAM_LIST/COMMAND_PROCESSING
  +--> CMD_PING/COMMAND_PROCESSING
  +--> CMD_STORE_PARAMS/COMMAND_PROCESSING
  +--> _MEMSTORE/COMMAND_PROCESSING
  +--> _SENDACKNOWLEDGMENT/COMMAND_PROCESSING
  +--> MEMRESTORE/COMMAND_PROCESSING
  +--> MEMINIT/COMMAND_PROCESSING
  +--> _?CYDELAY/CYLIB
  +--> _FTDI_ENABLE_REG_WRITE/FTDI_ENABLE_REG
  +--> BOOTLOADABLE_LOAD/BOOTLOADABLE

_LCRCHECKSUM/UTILS                            ----- -----  007BH 007CH  ----- -----  0A52H 0A54H

CMD_GET_MEASUREMENTS/COMMAND_PROCESSING       ----- -----  0067H 0067H  ----- -----  0021H 0028H
  +--> _LCRCHECKSUM/UTILS
  +--> _COMMWRITE/COMMAND_PROCESSING

CMD_GET_INPUTS/COMMAND_PROCESSING             ----- -----  ----- -----  ----- -----  0021H 0026H
  +--> _LCRCHECKSUM/UTILS
  +--> _COMMWRITE/COMMAND_PROCESSING

CMD_GET_CURRENTS/COMMAND_PROCESSING           ----- -----  ----- -----  ----- -----  0021H 0026H
  +--> _LCRCHECKSUM/UTILS
  +--> _COMMWRITE/COMMAND_PROCESSING

CMD_GET_CURR_AND_MEAS/COMMAND_PROCESSING      ----- -----  0067H 0067H  ----- -----  0021H 002CH
  +--> _LCRCHECKSUM/UTILS
  +--> _COMMWRITE/COMMAND_PROCESSING

CMD_SET_INPUTS/COMMAND_PROCESSING             ----- -----  ----- -----  ----- -----  ----- -----

CMD_SET_POS_STIFF/COMMAND_PROCESSING          ----- -----  0067H 006EH  ----- -----  ----- -----

CMD_GET_VELOCITIES/COMMAND_PROCESSING         ----- -----  0067H 0067H  ----- -----  0021H 0028H
  +--> _LCRCHECKSUM/UTILS
  +--> _COMMWRITE/COMMAND_PROCESSING

CMD_ACTIVATE/COMMAND_PROCESSING               ----- -----  ----- -----  ----- -----  ----- -----
  +--> _MOTOR_ON_OFF_WRITE/MOTOR_ON_OFF

CMD_SET_WATCHDOG/COMMAND_PROCESSING           ----- -----  ----- -----  ----- -----  ----- -----
  +--> _WATCHDOG_ENABLER_WRITE/WATCHDOG_ENABLER
  +--> _WATCHDOG_COUNTER_WRITEPERIOD/WATCHDOG_COUNTER

CMD_GET_ACTIVATE/COMMAND_PROCESSING           ----- -----  ----- -----  ----- -----  0021H 0023H
  +--> _LCRCHECKSUM/UTILS
  +--> _COMMWRITE/COMMAND_PROCESSING

CMD_SET_BAUDRATE/COMMAND_PROCESSING           ----- -----  ----- -----  ----- -----  ----- -----
  +--> _CLOCK_UART_SETDIVIDERREGISTER/CLOCK_UART

_CLOCK_UART_SETDIVIDERREGISTER/CLOCK_UAR+     ----- -----  ----- -----  ----- -----  0021H 0027H
... T
  +--> CLOCK_UART_GETSOURCEREGISTER/CLOCK_UART
  +--> CLOCK_UART_GETDIVIDERREGISTER/CLOCK_UART
  +--> CYWRITE16/CYMEM

CLOCK_UART_GETSOURCEREGISTER/CLOCK_UART       ----- -----  ----- -----  ----- -----  ----- -----
LX51 LINKER/LOCATER V4.64.0.0                                                         01/12/2018  13:27:04  PAGE 25



CLOCK_UART_GETDIVIDERREGISTER/CLOCK_UART      ----- -----  ----- -----  ----- -----  ----- -----
  +--> CYREAD16/CYMEM

SETZEROS/COMMAND_PROCESSING                   ----- -----  0067H 0067H  ----- -----  ----- -----
  +--> _SENDACKNOWLEDGMENT/COMMAND_PROCESSING

_GET_PARAM_LIST/COMMAND_PROCESSING            ----- -----  0067H 007AH  ----- -----  0021H 0A51H
  +--> ?CO?COMMAND_PROCESSING
  +--> _STRLEN/STRLEN
  +--> _STRCAT/STRCAT
  +--> PRINTF/PRINTF
  +--> _LCRCHECKSUM/UTILS
  +--> _COMMWRITE/COMMAND_PROCESSING
  +--> UART_RS485_CLEARTXBUFFER/UART_RS485

_STRLEN/STRLEN                                ----- -----  ----- -----  ----- -----  ----- -----

CMD_PING/COMMAND_PROCESSING                   ----- -----  ----- -----  ----- -----  0021H 0022H
  +--> _COMMWRITE/COMMAND_PROCESSING

CMD_STORE_PARAMS/COMMAND_PROCESSING           ----- -----  0067H 006AH  ----- -----  ----- -----
  +--> _MEMSTORE/COMMAND_PROCESSING
  +--> _COMMWRITE_OLD_ID/COMMAND_PROCESSING
  +--> _SENDACKNOWLEDGMENT/COMMAND_PROCESSING

_COMMWRITE_OLD_ID/COMMAND_PROCESSING          ----- -----  006BH 006CH  ----- -----  0021H 0026H
  +--> _UART_RS485_PUTCHAR/UART_RS485
  +--> UART_RS485_READTXSTATUS/UART_RS485
  +--> _RS485_CTS_WRITE/RS485_CTS

BOOTLOADABLE_LOAD/BOOTLOADABLE                ----- -----  ----- -----  ----- -----  ----- -----
  +--> CYSOFTWARERESET/CYLIB

CYSOFTWARERESET/CYLIB                         ----- -----  ----- -----  ----- -----  ----- -----

_MOTOR_CONTROL/INTERRUPTIONS                  ----- -----  0023H 0063H  ----- -----  ----- -----
  +--> INTERRUPT_MANAGER/INTERRUPTIONS
  +--> _ABS/ABS
  +--> _MOTOR_DIR_WRITE/MOTOR_DIR
  +--> _PWM_MOTORS_WRITECOMPARE1/PWM_MOTORS
  +--> _PWM_MOTORS_WRITECOMPARE2/PWM_MOTORS

ANALOG_READ_END/INTERRUPTIONS                 ----- -----  ----- -----  ----- -----  ----- -----
  +--> ADC_STATUS_READ/ADC_STATUS
  +--> INTERRUPT_MANAGER/INTERRUPTIONS
  +--> PWM_LIMIT_SEARCH/INTERRUPTIONS
  +--> _FILTER_I1/UTILS
  +--> _FILTER_I2/UTILS

ADC_STATUS_READ/ADC_STATUS                    ----- -----  ----- -----  ----- -----  ----- -----

PWM_LIMIT_SEARCH/INTERRUPTIONS                ----- -----  0023H 0027H  ----- -----  ----- -----
  +--> ?CO?INTERRUPTIONS

?CO?INTERRUPTIONS                             ----- -----  ----- -----  ----- -----  ----- -----

_FILTER_I1/UTILS                              ----- -----  ----- -----  ----- -----  ----- -----

_FILTER_I2/UTILS                              ----- -----  ----- -----  ----- -----  ----- -----

CALIBRATION/INTERRUPTIONS                     ----- -----  ----- -----  ----- -----  ----- -----
  +--> ISR_RS485_RX_DISABLE/ISR_RS485_RX
  +--> _MOTOR_ON_OFF_WRITE/MOTOR_ON_OFF
  +--> _MEMSTORE/COMMAND_PROCESSING
LX51 LINKER/LOCATER V4.64.0.0                                                         01/12/2018  13:27:04  PAGE 26


  +--> ISR_RS485_RX_ENABLE/ISR_RS485_RX

DRIVE_CUFF/COMMAND_PROCESSING                 ----- -----  ----- -----  ----- -----  0003H 001EH
  +--> _COMMWRITE/COMMAND_PROCESSING
  +--> MY_TIMER_READCOUNTER/MY_TIMER
  +--> INTERRUPT_MANAGER/INTERRUPTIONS

SLIDE_CUFF/COMMAND_PROCESSING                 ----- -----  ----- -----  ----- -----  0003H 0020H
  +--> _COMMWRITE/COMMAND_PROCESSING
  +--> MY_TIMER_READCOUNTER/MY_TIMER
  +--> INTERRUPT_MANAGER/INTERRUPTIONS

FF_STATUS_READ/FF_STATUS                      ----- -----  ----- -----  ----- -----  ----- -----

_WATCHDOG_REFRESH_WRITE/WATCHDOG_REFRESH      ----- -----  ----- -----  ----- -----  ----- -----

UART_RS485_READRXSTATUS/UART_RS485            ----- -----  ----- -----  ----- -----  ----- -----

?C_INITSEG                                    ----- -----  ----- -----  ----- -----  ----- -----

*** NEW ROOT ********************************

UART_RS485_RXISR/UART_RS485_INT               ----- -----  ----- -----  ----- -----  ----- -----

*** NEW ROOT ********************************

ADC_ISR1/ADC_INT                              ----- -----  ----- -----  ----- -----  ----- -----

*** NEW ROOT ********************************

ADC_ISR2/ADC_INT                              ----- -----  ----- -----  ----- -----  ----- -----

*** NEW ROOT ********************************

ADC_ISR3/ADC_INT                              ----- -----  ----- -----  ----- -----  ----- -----

*** NEW ROOT ********************************

ADC_ISR4/ADC_INT                              ----- -----  ----- -----  ----- -----  ----- -----



PUBLIC SYMBOLS OF MODULE:  .\DP8051_Keil_951\Release\cuff_mod_firmware.omf (COMMAND_PROCESSING)


      VALUE       CLASS    TYPE      PUBLIC SYMBOL NAME
      =================================================
*DEL*:00000000H   XDATA    BYTE      ?_Bootloadable_SetFlashByte?BYTE
      02000A52H   XDATA    BYTE      ?_commWrite?BYTE
      02000021H   XDATA    BYTE      ?_commWrite_old_id?BYTE
      02000000H   XDATA    BYTE      ?_cyconfigcpy?BYTE
      02000009H   XDATA    BYTE      ?_CyDmaChSetConfiguration?BYTE
*DEL*:00000000H   XDATA    BYTE      ?_CyDmaChStatus?BYTE
*DEL*:00000000H   XDATA    BYTE      ?_CyDmaTdGetAddress?BYTE
*DEL*:00000000H   XDATA    BYTE      ?_CyDmaTdGetConfiguration?BYTE
      02000003H   XDATA    BYTE      ?_CyDmaTdSetConfiguration?BYTE
*DEL*:00000000H   XDATA    BYTE      ?_CySpcLoadMultiByte?BYTE
      0200002DH   XDATA    BYTE      ?_CySpcLoadRow?BYTE
*DEL*:00000000H   XDATA    BYTE      ?_CySpcLoadRowFull?BYTE
      0200002DH   XDATA    BYTE      ?_CySpcWriteRow?BYTE
*DEL*:00000000H   XDATA    BYTE      ?_CyWriteRowFull?BYTE
      02000003H   XDATA    BYTE      ?_DMA_DmaInitialize?BYTE
      02000A52H   XDATA    ---       ?_PRINTF?BYTE
      02000A52H   XDATA    ---       ?_SPRINTF?BYTE
      02000A52H   XDATA    ---       ?_strcat?BYTE
LX51 LINKER/LOCATER V4.64.0.0                                                         01/12/2018  13:27:04  PAGE 27


      01007327H   CODE     ---       ?C?ADDXBP
      01006D4EH   CODE     ---       ?C?CASTF
      01007301H   CODE     ---       ?C?CCASE
      01007092H   CODE     ---       ?C?CLDOPTR
      01007079H   CODE     ---       ?C?CLDPTR
      00000000H   NUMBER   ---       ?C?CODESEG
      01007434H   CODE     ---       ?C?COPYAMD
      010070BFH   CODE     ---       ?C?CSTPTR
      01006D1AH   CODE     ---       ?C?FCASTC
      01006D15H   CODE     ---       ?C?FCASTI
      01006D10H   CODE     ---       ?C?FCASTL
      01006F18H   CODE     ---       ?C?FPADD
      01006C99H   CODE     ---       ?C?FPCMP
      01006C97H   CODE     ---       ?C?FPCMP3
      01006E0CH   CODE     ---       ?C?FPCONVERT
      01006BFAH   CODE     ---       ?C?FPDIV
      01006D85H   CODE     ---       ?C?FPGETOPN2
      01006AF1H   CODE     ---       ?C?FPMUL
      01006DBAH   CODE     ---       ?C?FPNANRESULT
      01006DC4H   CODE     ---       ?C?FPOVERFLOW
      01006D9CH   CODE     ---       ?C?FPRESULT
      01006DB0H   CODE     ---       ?C?FPRESULT2
      01006DCFH   CODE     ---       ?C?FPROUND
      01006F14H   CODE     ---       ?C?FPSUB
      01006DC1H   CODE     ---       ?C?FPUNDERFLOW
      01007039H   CODE     ---       ?C?FTNPWR
      0100752FH   CODE     ---       ?C?IILDX
      01007545H   CODE     ---       ?C?ILDIX
      010070D1H   CODE     ---       ?C?IMUL
      010070E3H   CODE     ---       ?C?ISTPTR
      0100734BH   CODE     ---       ?C?LIMUL
      0100757FH   CODE     ---       ?C?LLDCODE
      0100755BH   CODE     ---       ?C?LLDIDATA
      01007573H   CODE     ---       ?C?LLDPDATA
      0100729BH   CODE     ---       ?C?LLDPTR
      01007567H   CODE     ---       ?C?LLDXDATA
      01007102H   CODE     ---       ?C?LMUL
      0100722CH   CODE     ---       ?C?LNEG
      0100721FH   CODE     ---       ?C?LNOT
      01007288H   CODE     ---       ?C?LSHL
      0100758FH   CODE     ---       ?C?LSTIDATA
      0100759BH   CODE     ---       ?C?LSTPDATA
      010072BBH   CODE     ---       ?C?LSTPTR
      010072D5H   CODE     ---       ?C?LSTXDATA
      010072E1H   CODE     ---       ?C?PLDIXDATA
      010072F8H   CODE     ---       ?C?PSTXDATA
      0100723AH   CODE     ---       ?C?SLCMP
      0100ACFBH   CODE     ---       ?C?SLDIV
      01007274H   CODE     ---       ?C?SLSHR
      01007512H   CODE     ---       ?C?STRCPYAMD
      01007250H   CODE     ---       ?C?ULCMP
      0100718DH   CODE     ---       ?C?ULDIV
      01007261H   CODE     ---       ?C?ULSHR
      00000000H   NUMBER   ---       ?C?XDATASEG
      00000000H   NUMBER   ---       ?C?XPAGE1RST
      00000093H   DATA     BYTE      ?C?XPAGE1SFR
      01009805H   CODE     ---       ?C_START
      01002600H   CODE     NEAR LAB  ?C_STARTUP
      0000000EH   DATA     ---       ?C_XBP
      0100A2D5H   CODE     ---       _?CyDelay
*DEL*:00000000H   CODE     ---       _?CyDelayFreq
*DEL*:00000000H   CODE     ---       _?CyHalt
      0100B708H   CODE     ---       _ABS
*DEL*:00000000H   CODE     ---       _ADC_AMux_FastSelect
      0100B409H   CODE     ---       _ADC_AMux_Select
LX51 LINKER/LOCATER V4.64.0.0                                                         01/12/2018  13:27:04  PAGE 28


      0100B105H   CODE     ---       _ADC_AMux_Set
      0100B073H   CODE     ---       _ADC_AMux_Unset
*DEL*:00000000H   CODE     ---       _ADC_CountsTo_mVolts
*DEL*:00000000H   CODE     ---       _ADC_CountsTo_uVolts
*DEL*:00000000H   CODE     ---       _ADC_CountsTo_Volts
*DEL*:00000000H   CODE     ---       _ADC_Ext_CP_Clk_ClearModeRegister
      01009147H   CODE     ---       _ADC_Ext_CP_Clk_SetDividerRegister
      0100B6CAH   CODE     ---       _ADC_Ext_CP_Clk_SetModeRegister
*DEL*:00000000H   CODE     ---       _ADC_Ext_CP_Clk_SetSourceRegister
*DEL*:00000000H   CODE     ---       _ADC_Ext_CP_Clk_StandbyPower
*DEL*:00000000H   CODE     ---       _ADC_IsEndConversion
*DEL*:00000000H   CODE     ---       _ADC_SelectConfiguration
*DEL*:00000000H   CODE     ---       _ADC_SetBufferGain
*DEL*:00000000H   CODE     ---       _ADC_SetCoherency
*DEL*:00000000H   CODE     ---       _ADC_SetGain
*DEL*:00000000H   CODE     ---       _ADC_SetGCOR
*DEL*:00000000H   CODE     ---       _ADC_SetOffset
      0100B8A2H   CODE     ---       _ADC_SOC_Write
*DEL*:00000000H   CODE     ---       _ADC_STATUS_WriteMask
*DEL*:00000000H   CODE     ---       _ADC_theACLK_ClearModeRegister
      010094D7H   CODE     ---       _ADC_theACLK_SetDividerRegister
      0100B6D7H   CODE     ---       _ADC_theACLK_SetModeRegister
*DEL*:00000000H   CODE     ---       _ADC_theACLK_SetPhaseRegister
*DEL*:00000000H   CODE     ---       _ADC_theACLK_SetSourceRegister
*DEL*:00000000H   CODE     ---       _ADC_theACLK_StandbyPower
*DEL*:00000000H   CODE     ---       _Bootloadable_SetFlashByte
*DEL*:00000000H   CODE     NEAR LAB  _cfg_write_bytes
*DEL*:00000000H   CODE     NEAR LAB  _cfg_write_bytes_code
      0100A79EH   CODE     ---       _check_enc_data
*DEL*:00000000H   CODE     ---       _CLOCK_UART_ClearModeRegister
      01009278H   CODE     ---       _CLOCK_UART_SetDividerRegister
*DEL*:00000000H   CODE     ---       _CLOCK_UART_SetModeRegister
*DEL*:00000000H   CODE     ---       _CLOCK_UART_SetSourceRegister
*DEL*:00000000H   CODE     ---       _CLOCK_UART_StandbyPower
      01009FEEH   CODE     ---       _commWrite
      0100A1C0H   CODE     ---       _commWrite_old_id
      0100B830H   CODE     ---       _COUNTER_ENC_SetInterruptMode
      0100B84EH   CODE     ---       _COUNTER_ENC_WriteCompare
*DEL*:00000000H   CODE     ---       _COUNTER_ENC_WriteControlRegister
      0100B83CH   CODE     ---       _COUNTER_ENC_WriteCounter
      0100B848H   CODE     ---       _COUNTER_ENC_WritePeriod
*DEL*:00000000H   CODE     ---       _CyBusClk_SetDivider
      0100AFDAH   CODE     NEAR LAB  _cyconfigcpy
      0100B261H   CODE     NEAR LAB  _cyconfigcpycode
*DEL*:00000000H   CODE     ---       _CyCpuClk_SetDivider
*DEL*:00000000H   CODE     NEAR LAB  _CyDelay
      0100AF00H   CODE     NEAR LAB  _CyDelayCycles
      0100B194H   CODE     NEAR LAB  _CyDelayUs
*DEL*:00000000H   CODE     ---       _CyDmacClearError
*DEL*:00000000H   CODE     ---       _CyDmaChDisable
      0100ABD9H   CODE     ---       _CyDmaChEnable
*DEL*:00000000H   CODE     ---       _CyDmaChFree
*DEL*:00000000H   CODE     ---       _CyDmaChGetRequest
      0100ADC3H   CODE     ---       _CyDmaChPriority
*DEL*:00000000H   CODE     ---       _CyDmaChRoundRobin
      0100A467H   CODE     ---       _CyDmaChSetConfiguration
      0100A4E0H   CODE     ---       _CyDmaChSetExtendedAddress
      0100B369H   CODE     ---       _CyDmaChSetInitialTd
*DEL*:00000000H   CODE     ---       _CyDmaChSetRequest
*DEL*:00000000H   CODE     ---       _CyDmaChStatus
*DEL*:00000000H   CODE     ---       _CyDmaClearPendingDrq
*DEL*:00000000H   CODE     ---       _CyDmaTdFree
*DEL*:00000000H   CODE     ---       _CyDmaTdGetAddress
*DEL*:00000000H   CODE     ---       _CyDmaTdGetConfiguration
      0100A558H   CODE     ---       _CyDmaTdSetAddress
LX51 LINKER/LOCATER V4.64.0.0                                                         01/12/2018  13:27:04  PAGE 29


      0100A35DH   CODE     ---       _CyDmaTdSetConfiguration
*DEL*:00000000H   CODE     ---       _CyEnableInts
      0100B43AH   CODE     NEAR LAB  _CyExitCriticalSection
*DEL*:00000000H   CODE     ---       _CyFlash_SetWaitCycles
*DEL*:00000000H   CODE     ---       _CyGetUniqueId
*DEL*:00000000H   CODE     ---       _CyILO_SetPowerMode
*DEL*:00000000H   CODE     ---       _CyILO_SetSource
*DEL*:00000000H   CODE     ---       _CyIMO_SetFreq
*DEL*:00000000H   CODE     ---       _CyIMO_SetSource
*DEL*:00000000H   CODE     ---       _CyIMO_Start
*DEL*:00000000H   CODE     ---       _CyIntGetPriority
*DEL*:00000000H   CODE     ---       _CyIntGetState
*DEL*:00000000H   CODE     ---       _CyIntGetVector
      0100B3F0H   CODE     ---       _CyIntSetPriority
      0100AA45H   CODE     ---       _CyIntSetVector
*DEL*:00000000H   CODE     ---       _CyMasterClk_SetDivider
*DEL*:00000000H   CODE     ---       _CyMasterClk_SetSource
*DEL*:00000000H   CODE     NEAR LAB  _cymemzero
*DEL*:00000000H   CODE     ---       _CyPLL_OUT_SetPQ
*DEL*:00000000H   CODE     ---       _CyPLL_OUT_SetSource
*DEL*:00000000H   CODE     ---       _CyPLL_OUT_Start
*DEL*:00000000H   CODE     ---       _CyPmAltAct
*DEL*:00000000H   CODE     ---       _CyPmCtwSetInterval
*DEL*:00000000H   CODE     ---       _CyPmFtwSetInterval
*DEL*:00000000H   CODE     ---       _CyPmHibernateEx
*DEL*:00000000H   CODE     ---       _CyPmReadStatus
*DEL*:00000000H   CODE     ---       _CyPmSleep
      0100B623H   CODE     NEAR LAB  _cyread16
      0100B625H   CODE     NEAR LAB  _cyread16_nodpx
      0100B5AAH   CODE     NEAR LAB  _cyread24
      0100B5ACH   CODE     NEAR LAB  _cyread24_nodpx
*DEL*:00000000H   CODE     NEAR LAB  _cyread32
*DEL*:00000002H   CODE     NEAR LAB  _cyread32_nodpx
      0100B6E4H   CODE     NEAR LAB  _cyread8
      0100B6E6H   CODE     NEAR LAB  _cyread8_nodpx
*DEL*:00000000H   CODE     ---       _CySetFlashEEBuffer
*DEL*:00000000H   CODE     ---       _CySpcEraseSector
      0100B164H   CODE     ---       _CySpcGetTemp
*DEL*:00000000H   CODE     ---       _CySpcLoadMultiByte
      0100A6BAH   CODE     ---       _CySpcLoadRow
*DEL*:00000000H   CODE     ---       _CySpcLoadRowFull
      0100A8DAH   CODE     ---       _CySpcReadData
      0100AA99H   CODE     ---       _CySpcWriteRow
*DEL*:00000000H   CODE     ---       _CyUsbClk_SetSource
*DEL*:00000000H   CODE     ---       _CyVdLvAnalogEnable
*DEL*:00000000H   CODE     ---       _CyVdLvDigitEnable
*DEL*:00000000H   CODE     ---       _CyVdStickyStatus
*DEL*:00000000H   CODE     ---       _CyWdtStart
      0100B632H   CODE     NEAR LAB  _cywrite16
      0100B634H   CODE     NEAR LAB  _cywrite16_nodpx
      0100B5CFH   CODE     NEAR LAB  _cywrite24
      0100B5D1H   CODE     NEAR LAB  _cywrite24_nodpx
*DEL*:00000000H   CODE     NEAR LAB  _cywrite32
*DEL*:00000002H   CODE     NEAR LAB  _cywrite32_nodpx
      0100B6F0H   CODE     NEAR LAB  _cywrite8
      0100B6F2H   CODE     NEAR LAB  _cywrite8_nodpx
*DEL*:00000000H   CODE     ---       _CyWriteRowData
*DEL*:00000000H   CODE     ---       _CyWriteRowFull
*DEL*:00000000H   CODE     ---       _CyXTAL_32KHZ_SetPowerMode
*DEL*:00000000H   CODE     ---       _CyXTAL_SetFbVoltage
*DEL*:00000000H   CODE     ---       _CyXTAL_SetStartup
*DEL*:00000000H   CODE     ---       _CyXTAL_SetWdVoltage
*DEL*:00000000H   CODE     ---       _CyXTAL_Start
      0100AC24H   CODE     ---       _DMA_DmaInitialize
      01002604H   CODE     NEAR LAB  _dma_wait
LX51 LINKER/LOCATER V4.64.0.0                                                         01/12/2018  13:27:04  PAGE 30


*DEL*:00000000H   CODE     ---       _EEPROM_ByteWritePos
*DEL*:00000000H   CODE     ---       _EEPROM_EraseSector
*DEL*:00000000H   CODE     ---       _EEPROM_ReadByte
*DEL*:00000000H   CODE     ---       _EEPROM_StartErase
*DEL*:00000000H   CODE     ---       _EEPROM_StartWrite
      01009C4DH   CODE     ---       _EEPROM_Write
*DEL*:00000000H   CODE     ---       _EEPROM_WriteByte
      01007D5AH   CODE     ---       _encoder_reading
*DEL*:00000000H   CODE     ---       _FF_STATUS_WriteMask
      0100A5D0H   CODE     ---       _filter_i1
      0100A645H   CODE     ---       _filter_i2
*DEL*:00000000H   CODE     ---       _filter_vel_1
*DEL*:00000000H   CODE     ---       _filter_vel_2
*DEL*:00000000H   CODE     ---       _filter_vel_3
      0100B87EH   CODE     ---       _FTDI_ENABLE_REG_Write
      0100261AH   CODE     ---       _get_param_list
      0100B3BEH   CODE     ---       _infoGet
      01003C81H   CODE     ---       _infoPrepare
      0100B735H   CODE     ---       _ISR_RS485_RX_SetPriority
      0100AEF2H   CODE     ---       _ISR_RS485_RX_SetVector
      0100B30CH   CODE     ---       _ISR_RS485_RX_StartEx
      0100B799H   CODE     ---       _ISR_WATCHDOG_SetPriority
      0100B687H   CODE     ---       _ISR_WATCHDOG_SetVector
      0100B32BH   CODE     ---       _ISR_WATCHDOG_StartEx
      0100B041H   CODE     ---       _LCRChecksum
      01009D2CH   CODE     ---       _memStore
      01005DB5H   CODE     ---       _motor_control
      0100B896H   CODE     ---       _MOTOR_DIR_Write
      0100B86CH   CODE     ---       _MOTOR_ON_OFF_Write
      0100B872H   CODE     ---       _MY_TIMER_SetInterruptMode
*DEL*:00000000H   CODE     ---       _MY_TIMER_WriteControlRegister
      0100B78FH   CODE     ---       _MY_TIMER_WriteCounter
      0100B77BH   CODE     ---       _MY_TIMER_WritePeriod
      0100B884H   CODE     ---       _PACER_TIMER_SetInterruptMode
*DEL*:00000000H   CODE     ---       _PACER_TIMER_WriteControlRegister
      0100B679H   CODE     ---       _PACER_TIMER_WriteCounter
      0100B66BH   CODE     ---       _PACER_TIMER_WritePeriod
      01007612H   CODE     ---       _PRINTF
      0100B214H   CODE     ---       _PUTCHAR
      0100B824H   CODE     ---       _PWM_MOTORS_WriteCompare1
      0100B82AH   CODE     ---       _PWM_MOTORS_WriteCompare2
*DEL*:00000000H   CODE     ---       _PWM_MOTORS_WriteControlRegister
      0100B818H   CODE     ---       _PWM_MOTORS_WriteCounter
      0100B81EH   CODE     ---       _PWM_MOTORS_WritePeriod
      0100B890H   CODE     ---       _RESET_FF_Write
      0100B866H   CODE     ---       _RS485_CTS_Write
      0100B46AH   CODE     ---       _sendAcknowledgment
*DEL*:00000000H   CODE     ---       _SetAnalogRoutingPumps
*DEL*:00000000H   CODE     ---       _SHIFTREG_ENC_1_GetFIFOStatus
      0100B5E1H   CODE     ---       _SHIFTREG_ENC_1_SetIntMode
*DEL*:00000000H   CODE     ---       _SHIFTREG_ENC_1_WriteRegValue
*DEL*:00000000H   CODE     ---       _SHIFTREG_ENC_2_GetFIFOStatus
      0100B5F2H   CODE     ---       _SHIFTREG_ENC_2_SetIntMode
*DEL*:00000000H   CODE     ---       _SHIFTREG_ENC_2_WriteRegValue
*DEL*:00000000H   CODE     ---       _SHIFTREG_ENC_3_GetFIFOStatus
      0100B603H   CODE     ---       _SHIFTREG_ENC_3_SetIntMode
*DEL*:00000000H   CODE     ---       _SHIFTREG_ENC_3_WriteRegValue
*DEL*:00000000H   CODE     ---       _SHIFTREG_ENC_4_GetFIFOStatus
*DEL*:00000000H   CODE     ---       _SHIFTREG_ENC_4_SetIntMode
*DEL*:00000000H   CODE     ---       _SHIFTREG_ENC_4_WriteRegValue
      0100760CH   CODE     ---       _SPRINTF
      0100A809H   CODE     ---       _strcat
      0100B4D6H   CODE     ---       _STRLEN
*DEL*:00000000H   CODE     ---       _UART_RS485_PutArray
      0100B6A3H   CODE     ---       _UART_RS485_PutChar
LX51 LINKER/LOCATER V4.64.0.0                                                         01/12/2018  13:27:04  PAGE 31


*DEL*:00000000H   CODE     ---       _UART_RS485_PutCRLF
      0100AFA6H   CODE     ---       _UART_RS485_PutString
*DEL*:00000000H   CODE     ---       _UART_RS485_SendBreak
*DEL*:00000000H   CODE     ---       _UART_RS485_SetRxAddress1
*DEL*:00000000H   CODE     ---       _UART_RS485_SetRxAddress2
*DEL*:00000000H   CODE     ---       _UART_RS485_SetRxAddressMode
*DEL*:00000000H   CODE     ---       _UART_RS485_SetRxInterruptMode
*DEL*:00000000H   CODE     ---       _UART_RS485_SetTxAddressMode
*DEL*:00000000H   CODE     ---       _UART_RS485_SetTxInterruptMode
*DEL*:00000000H   CODE     ---       _UART_RS485_WriteControlRegister
*DEL*:00000000H   CODE     ---       _UART_RS485_WriteTxData
      0100B8A8H   CODE     ---       _WATCHDOG_COUNTER_SetInterruptMode
*DEL*:00000000H   CODE     ---       _WATCHDOG_COUNTER_WriteControlRegister
      0100B387H   CODE     ---       _WATCHDOG_COUNTER_WriteCounter
      0100B695H   CODE     ---       _WATCHDOG_COUNTER_WritePeriod
      0100B8AEH   CODE     ---       _WATCHDOG_ENABLER_Write
      0100B8B4H   CODE     ---       _WATCHDOG_REFRESH_Write
*SFR* 000000D0H.6 DATA     BIT       AC
*SFR* 000000E0H   DATA     BYTE      ACC
      0100C3F8H   CONST    ---       ADC_AMux__addrTable
      0100C3FCH   CONST    ---       ADC_AMux__maskTable
      0100B2CBH   CODE     ---       ADC_AMux_Start
      02000C56H   XDATA    ---       ADC_buf
      02000DC6H   XDATA    BYTE      ADC_Config
      02000DD1H   XDATA    BYTE      ADC_convDone
      02000DD2H   XDATA    LONG      ADC_CountsPerVolt
      0100A24DH   CODE     ---       ADC_Enable
      0100B7A3H   CODE     ---       ADC_Ext_CP_Clk_GetDividerRegister
*DEL*:00000000H   CODE     ---       ADC_Ext_CP_Clk_GetModeRegister
      0100B7DFH   CODE     ---       ADC_Ext_CP_Clk_GetSourceRegister
*DEL*:00000000H   CODE     ---       ADC_Ext_CP_Clk_Start
*DEL*:00000000H   CODE     ---       ADC_Ext_CP_Clk_Stop
*DEL*:00000000H   CODE     ---       ADC_Ext_CP_Clk_StopBlock
*DEL*:00000000H   CODE     ---       ADC_GetResult16
*DEL*:00000000H   CODE     ---       ADC_GetResult32
*DEL*:00000000H   CODE     ---       ADC_GetResult8
      01009DDEH   CODE     ---       ADC_Init
      02000DC7H   XDATA    BYTE      ADC_initVar
      0100B8CBH   CODE     ---       ADC_ISR1
      0100B8CCH   CODE     ---       ADC_ISR2
      0100B8CDH   CODE     ---       ADC_ISR3
      0100B8CEH   CODE     ---       ADC_ISR4
      02000DC8H   XDATA    LONG      ADC_Offset
*DEL*:00000000H   CODE     ---       ADC_Read16
*DEL*:00000000H   CODE     ---       ADC_Read32
*DEL*:00000000H   CODE     ---       ADC_Read8
*DEL*:00000000H   CODE     ---       ADC_ReadGCOR
*DEL*:00000000H   CODE     ---       ADC_SOC_Read
      0100B3D7H   CODE     ---       ADC_Start
*DEL*:00000000H   CODE     ---       ADC_StartConvert
      02000DCDH   XDATA    BYTE      ADC_started
*DEL*:00000000H   CODE     ---       ADC_STATUS_InterruptDisable
*DEL*:00000000H   CODE     ---       ADC_STATUS_InterruptEnable
      0100B89CH   CODE     ---       ADC_STATUS_Read
*DEL*:00000000H   CODE     ---       ADC_STATUS_ReadMask
*DEL*:00000000H   CODE     ---       ADC_Stop
      02000DCCH   XDATA    BYTE      ADC_stopConversion
*DEL*:00000000H   CODE     ---       ADC_StopConvert
      0100B7ADH   CODE     ---       ADC_theACLK_GetDividerRegister
*DEL*:00000000H   CODE     ---       ADC_theACLK_GetModeRegister
*DEL*:00000000H   CODE     ---       ADC_theACLK_GetPhaseRegister
      0100B7E7H   CODE     ---       ADC_theACLK_GetSourceRegister
*DEL*:00000000H   CODE     ---       ADC_theACLK_Start
*DEL*:00000000H   CODE     ---       ADC_theACLK_Stop
*DEL*:00000000H   CODE     ---       ADC_theACLK_StopBlock
LX51 LINKER/LOCATER V4.64.0.0                                                         01/12/2018  13:27:04  PAGE 32


      01009961H   CODE     ---       analog_read_end
*SFR* 000000F0H   DATA     BYTE      B
      0100B771H   CODE     ---       Bootloadable_Load
      02000A82H   XDATA    ---       c_mem
      010086B2H   CODE     ---       calibration
      02000B93H   XDATA    BYTE      calibration_flag
      0100B73FH   CODE     ---       CLOCK_UART_GetDividerRegister
*DEL*:00000000H   CODE     ---       CLOCK_UART_GetModeRegister
      0100B7BFH   CODE     ---       CLOCK_UART_GetSourceRegister
*DEL*:00000000H   CODE     ---       CLOCK_UART_Start
*DEL*:00000000H   CODE     ---       CLOCK_UART_Stop
*DEL*:00000000H   CODE     ---       CLOCK_UART_StopBlock
      0100AD3FH   CODE     ---       cmd_activate
      0100B0D5H   CODE     ---       cmd_get_activate
      0100A12FH   CODE     ---       cmd_get_curr_and_meas
      0100ACB5H   CODE     ---       cmd_get_currents
      0100A874H   CODE     ---       cmd_get_inputs
      0100A72DH   CODE     ---       cmd_get_measurements
      0100A995H   CODE     ---       cmd_get_velocities
      0100B422H   CODE     ---       cmd_ping
      0100B2ECH   CODE     ---       cmd_set_baudrate
      01008ECBH   CODE     ---       cmd_set_inputs
      01008D60H   CODE     ---       cmd_set_pos_stiff
      0100AD82H   CODE     ---       cmd_set_watchdog
      01007A2AH   CODE     ---       cmd_store_params
      0100900DH   CODE     ---       commProcess
      0100B6B0H   CODE     ---       COUNTER_ENC_ClearFIFO
      0100B7C7H   CODE     ---       COUNTER_ENC_Enable
      0100AF71H   CODE     ---       COUNTER_ENC_Init
      02000DF7H   XDATA    BYTE      COUNTER_ENC_initVar
      0100B842H   CODE     ---       COUNTER_ENC_ReadCapture
*DEL*:00000000H   CODE     ---       COUNTER_ENC_ReadCompare
*DEL*:00000000H   CODE     ---       COUNTER_ENC_ReadControlRegister
*DEL*:00000000H   CODE     ---       COUNTER_ENC_ReadCounter
*DEL*:00000000H   CODE     ---       COUNTER_ENC_ReadPeriod
      0100B836H   CODE     ---       COUNTER_ENC_ReadStatusRegister
      0100B525H   CODE     ---       COUNTER_ENC_Start
*DEL*:00000000H   CODE     ---       COUNTER_ENC_Stop
      00000021H.3 BIT      BIT       cuff_flag_force
      00000021H.2 BIT      BIT       cuff_flag_proprio
*SFR* 000000D0H.7 DATA     BIT       CY
      02000DE1H   XDATA    DWORD     cydelay_32k_ms
      02000DDCH   XDATA    DWORD     cydelay_freq_hz
      02000DD7H   XDATA    DWORD     cydelay_freq_khz
      02000DDBH   XDATA    BYTE      cydelay_freq_mhz
*DEL*:00000000H   CODE     ---       CyDisableInts
      0100AF3BH   CODE     ---       CyDmacConfigure
*DEL*:00000000H   CODE     ---       CyDmacError
*DEL*:00000000H   CODE     ---       CyDmacErrorAddress
*DEL*:00000000H   CODE     ---       CyDmaChAlloc
      0100AE03H   CODE     ---       CyDmaTdAllocate
*DEL*:00000000H   CODE     ---       CyDmaTdFreeCount
*DEL*:00000000H   CODE     ---       CyEEPROM_ReadRelease
*DEL*:00000000H   CODE     ---       CyEEPROM_ReadReserve
      0100B0A4H   CODE     ---       CyEEPROM_Start
*DEL*:00000000H   CODE     ---       CyEEPROM_Stop
      0100B4ACH   CODE     NEAR LAB  CyEnterCriticalSection
      0100984AH   CODE     ---       cyfitter_cfg
*DEL*:00000000H   CODE     ---       CyFlash_Start
*DEL*:00000000H   CODE     ---       CyFlash_Stop
*DEL*:00000000H   CODE     ---       CyILO_Disable33K
*DEL*:00000000H   CODE     ---       CyILO_Enable33K
*DEL*:00000000H   CODE     ---       CyILO_Start100K
*DEL*:00000000H   CODE     ---       CyILO_Start1K
*DEL*:00000000H   CODE     ---       CyILO_Stop100K
LX51 LINKER/LOCATER V4.64.0.0                                                         01/12/2018  13:27:04  PAGE 33


*DEL*:00000000H   CODE     ---       CyILO_Stop1K
*DEL*:00000000H   CODE     ---       CyIMO_DisableDoubler
*DEL*:00000000H   CODE     ---       CyIMO_EnableDoubler
*DEL*:00000000H   CODE     ---       CyIMO_Stop
*DEL*:00000000H   CODE     ---       CyPLL_OUT_Stop
*DEL*:00000000H   CODE     ---       CyPmHibernate
*DEL*:00000000H   CODE     ---       CyPmOppsSet
*DEL*:00000000H   CODE     ---       CyPmRestoreClocks
*DEL*:00000000H   CODE     ---       CyPmSaveClocks
      02000DE0H   XDATA    BYTE      CyResetStatus
      0100B452H   CODE     ---       CySetTemp
      0100B7D7H   CODE     ---       CySoftwareReset
      0100B3A3H   CODE     ---       CySpcGetAlgorithm
      0100B34AH   CODE     ---       CySpcLock
      0100B4C1H   CODE     ---       CySpcStart
*DEL*:00000000H   CODE     ---       CySpcStop
      0100B6FCH   CODE     ---       CySpcUnlock
*DEL*:00000000H   CODE     ---       CyVdHvAnalogDisable
*DEL*:00000000H   CODE     ---       CyVdHvAnalogEnable
*DEL*:00000000H   CODE     ---       CyVdLvAnalogDisable
*DEL*:00000000H   CODE     ---       CyVdLvDigitDisable
*DEL*:00000000H   CODE     ---       CyVdRealTimeStatus
*DEL*:00000000H   CODE     ---       CyWdtClear
*DEL*:00000000H   CODE     ---       CyXTAL_32KHZ_ReadStatus
*DEL*:00000000H   CODE     ---       CyXTAL_32KHZ_Start
*DEL*:00000000H   CODE     ---       CyXTAL_32KHZ_Stop
*DEL*:00000000H   CODE     ---       CyXTAL_DisableErrStatus
*DEL*:00000000H   CODE     ---       CyXTAL_DisableFaultRecovery
*DEL*:00000000H   CODE     ---       CyXTAL_EnableErrStatus
*DEL*:00000000H   CODE     ---       CyXTAL_EnableFaultRecovery
*DEL*:00000000H   CODE     ---       CyXTAL_ReadStatus
*DEL*:00000000H   CODE     ---       CyXTAL_Stop
      02000C7DH   XDATA    BYTE      dev_pwm_limit
      02000BB7H   XDATA    LONG      dev_tension
      02000DEEH   XDATA    ---       dieTemperature
      02000DFEH   XDATA    BYTE      DMA_DmaHandle
*DEL*:00000000H   CODE     ---       DMA_DmaRelease
*SFR* 00000083H   DATA     BYTE      DPH
*SFR* 00000085H   DATA     BYTE      DPH1
*SFR* 00000082H   DATA     BYTE      DPL
*SFR* 00000084H   DATA     BYTE      DPL1
*SFR* 00000086H   DATA     BYTE      DPS
*SFR* 00000093H   DATA     BYTE      DPX
*SFR* 00000095H   DATA     BYTE      DPX1
      010082BDH   CODE     ---       drive_cuff
*SFR* 000000A8H.7 DATA     BIT       EA
      02000DF4H   XDATA    ---       EEPROM_ADDR
      0100B7FDH   CODE     ---       EEPROM_Enable
*DEL*:00000000H   CODE     ---       EEPROM_Query
      0100B8BAH   CODE     ---       EEPROM_Start
*DEL*:00000000H   CODE     ---       EEPROM_Stop
      0100B8BEH   CODE     ---       EEPROM_UpdateTemperature
*SFR* 000000D0H.5 DATA     BIT       F0
*SFR* 000000D0H.1 DATA     BIT       F1
*DEL*:00000000H   CODE     ---       FF_STATUS_InterruptDisable
*DEL*:00000000H   CODE     ---       FF_STATUS_InterruptEnable
      0100B88AH   CODE     ---       FF_STATUS_Read
*DEL*:00000000H   CODE     ---       FF_STATUS_ReadMask
*DEL*:00000000H   CODE     ---       FTDI_ENABLE_REG_Read
      01009A63H   CODE     ---       function_scheduler
      02000C5EH   XDATA    ---       g_meas
      02000B94H   XDATA    ---       g_measOld
      02000B0FH   XDATA    ---       g_mem
      02000B06H   XDATA    ---       g_ref
      02000C49H   XDATA    ---       g_refNew
LX51 LINKER/LOCATER V4.64.0.0                                                         01/12/2018  13:27:04  PAGE 34


      02000BBBH   XDATA    ---       g_refOld
      02000BC4H   XDATA    ---       g_rx
      0100C443H   CONST    ---       hitech_pwm_preload_values
      0100C467H   CONST    ---       hitech_pwm_preload_values_6v
*SFR* 000000A8H   DATA     BYTE      IE
      00000021H.6 BIT      BIT       interrupt_flag
      010093A8H   CODE     ---       interrupt_manager
*DEL*:00000000H   CODE     ---       ISR_RS485_RX_ClearPending
      0100B7F6H   CODE     ---       ISR_RS485_RX_Disable
      0100B7EFH   CODE     ---       ISR_RS485_RX_Enable
      0100B8C5H   CODE     ---       ISR_RS485_RX_ExInterrupt
*DEL*:00000000H   CODE     ---       ISR_RS485_RX_GetPriority
*DEL*:00000000H   CODE     ---       ISR_RS485_RX_GetState
*DEL*:00000000H   CODE     ---       ISR_RS485_RX_GetVector
      0100B192H   CODE     ---       ISR_RS485_RX_Interrupt
*DEL*:00000000H   CODE     ---       ISR_RS485_RX_SetPending
*DEL*:00000000H   CODE     ---       ISR_RS485_RX_Start
*DEL*:00000000H   CODE     ---       ISR_RS485_RX_Stop
*DEL*:00000000H   CODE     ---       ISR_WATCHDOG_ClearPending
      0100B80BH   CODE     ---       ISR_WATCHDOG_Disable
      0100B804H   CODE     ---       ISR_WATCHDOG_Enable
*DEL*:00000000H   CODE     ---       ISR_WATCHDOG_GetPriority
*DEL*:00000000H   CODE     ---       ISR_WATCHDOG_GetState
*DEL*:00000000H   CODE     ---       ISR_WATCHDOG_GetVector
      0100B8C2H   CODE     ---       ISR_WATCHDOG_Handler
      0100B193H   CODE     ---       ISR_WATCHDOG_Interrupt
*DEL*:00000000H   CODE     ---       ISR_WATCHDOG_SetPending
*DEL*:00000000H   CODE     ---       ISR_WATCHDOG_Start
*DEL*:00000000H   CODE     ---       ISR_WATCHDOG_Stop
      0100804FH   CODE     ---       main
      0100887DH   CODE     ---       memInit
      0100AB8CH   CODE     ---       memRecall
      0100AC6EH   CODE     ---       memRestore
*DEL*:00000000H   CODE     ---       MOTOR_DIR_Read
*DEL*:00000000H   CODE     ---       MOTOR_ON_OFF_Read
*SFR* 000000EAH   DATA     BYTE      MXAX
      0100B6BDH   CODE     ---       MY_TIMER_ClearFIFO
      0100B7CFH   CODE     ---       MY_TIMER_Enable
      0100B1C1H   CODE     ---       MY_TIMER_Init
      02000DFCH   XDATA    BYTE      MY_TIMER_initVar
      0100B785H   CODE     ---       MY_TIMER_ReadCapture
*DEL*:00000000H   CODE     ---       MY_TIMER_ReadControlRegister
      0100B614H   CODE     ---       MY_TIMER_ReadCounter
*DEL*:00000000H   CODE     ---       MY_TIMER_ReadPeriod
      0100B878H   CODE     ---       MY_TIMER_ReadStatusRegister
*DEL*:00000000H   CODE     ---       MY_TIMER_SoftwareCapture
      0100B571H   CODE     ---       MY_TIMER_Start
*DEL*:00000000H   CODE     ---       MY_TIMER_Stop
*SFR* 000000D0H.2 DATA     BIT       OV
*SFR* 000000D0H   DATA     BIT       P
*SFR* 000000A0H   DATA     BYTE      P2AX
      0100B480H   CODE     ---       PACER_TIMER_Enable
      0100AE7EH   CODE     ---       PACER_TIMER_Init
      02000DFDH   XDATA    BYTE      PACER_TIMER_initVar
*DEL*:00000000H   CODE     ---       PACER_TIMER_ReadCapture
*DEL*:00000000H   CODE     ---       PACER_TIMER_ReadControlRegister
*DEL*:00000000H   CODE     ---       PACER_TIMER_ReadCounter
*DEL*:00000000H   CODE     ---       PACER_TIMER_ReadPeriod
*DEL*:00000000H   CODE     ---       PACER_TIMER_ReadStatusRegister
*DEL*:00000000H   CODE     ---       PACER_TIMER_SoftwareCapture
      0100B584H   CODE     ---       PACER_TIMER_Start
*DEL*:00000000H   CODE     ---       PACER_TIMER_Stop
*SFR* 000000D0H   DATA     BYTE      PSW
      01009606H   CODE     ---       pwm_limit_search
      0100B7B7H   CODE     ---       PWM_MOTORS_Enable
LX51 LINKER/LOCATER V4.64.0.0                                                         01/12/2018  13:27:04  PAGE 35


      0100B23BH   CODE     ---       PWM_MOTORS_Init
      02000DF6H   XDATA    BYTE      PWM_MOTORS_initVar
*DEL*:00000000H   CODE     ---       PWM_MOTORS_ReadCapture
*DEL*:00000000H   CODE     ---       PWM_MOTORS_ReadCompare1
*DEL*:00000000H   CODE     ---       PWM_MOTORS_ReadCompare2
*DEL*:00000000H   CODE     ---       PWM_MOTORS_ReadControlRegister
*DEL*:00000000H   CODE     ---       PWM_MOTORS_ReadCounter
*DEL*:00000000H   CODE     ---       PWM_MOTORS_ReadPeriod
      0100B512H   CODE     ---       PWM_MOTORS_Start
*DEL*:00000000H   CODE     ---       PWM_MOTORS_Stop
      0100C426H   CONST    ---       pwm_preload_values
      02000C5CH   XDATA    ---       pwm_sign
*DEL*:00000000H   CODE     ---       RESET_FF_Read
      00000021H.4 BIT      BIT       reset_last_value_flag
*SFR* 000000D0H.3 DATA     BIT       RS0
*SFR* 000000D0H.4 DATA     BIT       RS1
*DEL*:00000000H   CODE     ---       RS485_CTS_Read
      0100A3E4H   CODE     ---       setZeros
*SFR* 00000080H   DATA     BYTE      SFRPRT0DR
*SFR* 00000089H   DATA     BYTE      SFRPRT0PS
*SFR* 0000008AH   DATA     BYTE      SFRPRT0SEL
*SFR* 000000E8H   DATA     BYTE      SFRPRT12DR
*SFR* 000000E9H   DATA     BYTE      SFRPRT12PS
*SFR* 000000F2H   DATA     BYTE      SFRPRT12SEL
*SFR* 000000F8H   DATA     BYTE      SFRPRT15DR
*SFR* 000000F9H   DATA     BYTE      SFRPRT15PS
*SFR* 000000FAH   DATA     BYTE      SFRPRT15SEL
*SFR* 00000090H   DATA     BYTE      SFRPRT1DR
*SFR* 00000091H   DATA     BYTE      SFRPRT1PS
*SFR* 000000A2H   DATA     BYTE      SFRPRT1SEL
*SFR* 00000098H   DATA     BYTE      SFRPRT2DR
*SFR* 00000099H   DATA     BYTE      SFRPRT2PS
*SFR* 0000009AH   DATA     BYTE      SFRPRT2SEL
*SFR* 000000B0H   DATA     BYTE      SFRPRT3DR
*SFR* 000000B1H   DATA     BYTE      SFRPRT3PS
*SFR* 000000B2H   DATA     BYTE      SFRPRT3SEL
*SFR* 000000C0H   DATA     BYTE      SFRPRT4DR
*SFR* 000000C1H   DATA     BYTE      SFRPRT4PS
*SFR* 000000C2H   DATA     BYTE      SFRPRT4SEL
*SFR* 000000C8H   DATA     BYTE      SFRPRT5DR
*SFR* 000000C9H   DATA     BYTE      SFRPRT5PS
*SFR* 000000CAH   DATA     BYTE      SFRPRT5SEL
*SFR* 000000D8H   DATA     BYTE      SFRPRT6DR
*SFR* 000000D9H   DATA     BYTE      SFRPRT6PS
*SFR* 000000DAH   DATA     BYTE      SFRPRT6SEL
*DEL*:00000000H   CODE     ---       SHIFTREG_ENC_1_DisableInt
      0100B714H   CODE     ---       SHIFTREG_ENC_1_Enable
      0100B641H   CODE     ---       SHIFTREG_ENC_1_EnableInt
*DEL*:00000000H   CODE     ---       SHIFTREG_ENC_1_GetIntStatus
      0100B854H   CODE     ---       SHIFTREG_ENC_1_Init
      02000DF8H   XDATA    BYTE      SHIFTREG_ENC_1_initVar
      0100B749H   CODE     ---       SHIFTREG_ENC_1_ReadData
*DEL*:00000000H   CODE     ---       SHIFTREG_ENC_1_ReadRegValue
      0100B538H   CODE     ---       SHIFTREG_ENC_1_Start
*DEL*:00000000H   CODE     ---       SHIFTREG_ENC_1_Stop
*DEL*:00000000H   CODE     ---       SHIFTREG_ENC_2_DisableInt
      0100B71FH   CODE     ---       SHIFTREG_ENC_2_Enable
      0100B64FH   CODE     ---       SHIFTREG_ENC_2_EnableInt
*DEL*:00000000H   CODE     ---       SHIFTREG_ENC_2_GetIntStatus
      0100B85AH   CODE     ---       SHIFTREG_ENC_2_Init
      02000DF9H   XDATA    BYTE      SHIFTREG_ENC_2_initVar
      0100B753H   CODE     ---       SHIFTREG_ENC_2_ReadData
*DEL*:00000000H   CODE     ---       SHIFTREG_ENC_2_ReadRegValue
      0100B54BH   CODE     ---       SHIFTREG_ENC_2_Start
*DEL*:00000000H   CODE     ---       SHIFTREG_ENC_2_Stop
LX51 LINKER/LOCATER V4.64.0.0                                                         01/12/2018  13:27:04  PAGE 36


*DEL*:00000000H   CODE     ---       SHIFTREG_ENC_3_DisableInt
      0100B72AH   CODE     ---       SHIFTREG_ENC_3_Enable
      0100B65DH   CODE     ---       SHIFTREG_ENC_3_EnableInt
*DEL*:00000000H   CODE     ---       SHIFTREG_ENC_3_GetIntStatus
      0100B860H   CODE     ---       SHIFTREG_ENC_3_Init
      02000DFAH   XDATA    BYTE      SHIFTREG_ENC_3_initVar
      0100B75DH   CODE     ---       SHIFTREG_ENC_3_ReadData
*DEL*:00000000H   CODE     ---       SHIFTREG_ENC_3_ReadRegValue
      0100B55EH   CODE     ---       SHIFTREG_ENC_3_Start
*DEL*:00000000H   CODE     ---       SHIFTREG_ENC_3_Stop
*DEL*:00000000H   CODE     ---       SHIFTREG_ENC_4_DisableInt
*DEL*:00000000H   CODE     ---       SHIFTREG_ENC_4_Enable
*DEL*:00000000H   CODE     ---       SHIFTREG_ENC_4_EnableInt
*DEL*:00000000H   CODE     ---       SHIFTREG_ENC_4_GetIntStatus
*DEL*:00000000H   CODE     ---       SHIFTREG_ENC_4_Init
      02000DFBH   XDATA    BYTE      SHIFTREG_ENC_4_initVar
      0100B767H   CODE     ---       SHIFTREG_ENC_4_ReadData
*DEL*:00000000H   CODE     ---       SHIFTREG_ENC_4_ReadRegValue
*DEL*:00000000H   CODE     ---       SHIFTREG_ENC_4_Start
*DEL*:00000000H   CODE     ---       SHIFTREG_ENC_4_Stop
      010084D3H   CODE     ---       slide_cuff
*SFR* 00000081H   DATA     BYTE      SP
      02000E01H   XDATA    BYTE      SpcLockState
      0100972DH   CODE     NEAR LAB  STARTUP1
      00000021H.7 BIT      BIT       tension_valid
      02000BB3H   XDATA    DWORD     timer_value
      02000C52H   XDATA    DWORD     timer_value0
      0100B135H   CODE     ---       UART_RS485_ClearRxBuffer
      0100B5BDH   CODE     ---       UART_RS485_ClearTxBuffer
      0100B287H   CODE     ---       UART_RS485_Enable
      02000DC5H   XDATA    BYTE      UART_RS485_errorStatus
*DEL*:00000000H   CODE     ---       UART_RS485_GetByte
      0100A93AH   CODE     ---       UART_RS485_GetChar
      0100AB3DH   CODE     ---       UART_RS485_GetRxBufferSize
*DEL*:00000000H   CODE     ---       UART_RS485_GetTxBufferSize
      0100B00EH   CODE     ---       UART_RS485_Init
      02000DC3H   XDATA    BYTE      UART_RS485_initVar
*DEL*:00000000H   CODE     ---       UART_RS485_ReadControlRegister
*DEL*:00000000H   CODE     ---       UART_RS485_ReadRxData
      0100B4EBH   CODE     ---       UART_RS485_ReadRxStatus
      0100B812H   CODE     ---       UART_RS485_ReadTxStatus
      02000DA2H   XDATA    ---       UART_RS485_rxBuffer
      02000DA0H   XDATA    BYTE      UART_RS485_rxBufferLoopDetect
      02000DC4H   XDATA    BYTE      UART_RS485_rxBufferOverflow
      02000DA1H   XDATA    BYTE      UART_RS485_rxBufferRead
      02000DC2H   XDATA    BYTE      UART_RS485_rxBufferWrite
      01009E8FH   CODE     ---       UART_RS485_RXISR
      0100B4FFH   CODE     ---       UART_RS485_Start
      0100B2A9H   CODE     ---       UART_RS485_Stop
      0100B496H   CODE     ---       WATCHDOG_COUNTER_Enable
      0100AEBAH   CODE     ---       WATCHDOG_COUNTER_Init
      02000DFFH   XDATA    BYTE      WATCHDOG_COUNTER_initVar
*DEL*:00000000H   CODE     ---       WATCHDOG_COUNTER_ReadCapture
*DEL*:00000000H   CODE     ---       WATCHDOG_COUNTER_ReadControlRegister
*DEL*:00000000H   CODE     ---       WATCHDOG_COUNTER_ReadCounter
*DEL*:00000000H   CODE     ---       WATCHDOG_COUNTER_ReadPeriod
*DEL*:00000000H   CODE     ---       WATCHDOG_COUNTER_ReadStatusRegister
      0100B597H   CODE     ---       WATCHDOG_COUNTER_Start
*DEL*:00000000H   CODE     ---       WATCHDOG_COUNTER_Stop
*DEL*:00000000H   CODE     ---       WATCHDOG_ENABLER_Read
      00000021H.5 BIT      BIT       watchdog_flag
*DEL*:00000000H   CODE     ---       WATCHDOG_REFRESH_Read



LX51 LINKER/LOCATER V4.64.0.0                                                         01/12/2018  13:27:04  PAGE 37


SYMBOL TABLE OF MODULE:  .\DP8051_Keil_951\Release\cuff_mod_firmware.omf (COMMAND_PROCESSING)

      VALUE       REP       CLASS    TYPE      SYMBOL NAME
      ====================================================
      ---         MODULE    ---      ---       COMMAND_PROCESSING
      02000DF4H   PUBLIC    XDATA    ---       EEPROM_ADDR
      0100B2ECH   PUBLIC    CODE     ---       cmd_set_baudrate
      01007A2AH   PUBLIC    CODE     ---       cmd_store_params
      0100B422H   PUBLIC    CODE     ---       cmd_ping
      0100B0D5H   PUBLIC    CODE     ---       cmd_get_activate
      0100AD82H   PUBLIC    CODE     ---       cmd_set_watchdog
      0100AD3FH   PUBLIC    CODE     ---       cmd_activate
      0100A995H   PUBLIC    CODE     ---       cmd_get_velocities
      01008D60H   PUBLIC    CODE     ---       cmd_set_pos_stiff
      01008ECBH   PUBLIC    CODE     ---       cmd_set_inputs
      0100A12FH   PUBLIC    CODE     ---       cmd_get_curr_and_meas
      0100ACB5H   PUBLIC    CODE     ---       cmd_get_currents
      0100A874H   PUBLIC    CODE     ---       cmd_get_inputs
      0100A72DH   PUBLIC    CODE     ---       cmd_get_measurements
      0100887DH   PUBLIC    CODE     ---       memInit
      0100AC6EH   PUBLIC    CODE     ---       memRestore
      0100AB8CH   PUBLIC    CODE     ---       memRecall
      01009D2CH   PUBLIC    CODE     ---       _memStore
      0100B46AH   PUBLIC    CODE     ---       _sendAcknowledgment
      02000A52H   PUBLIC    XDATA    BYTE      ?_commWrite?BYTE
      01009FEEH   PUBLIC    CODE     ---       _commWrite
      02000021H   PUBLIC    XDATA    BYTE      ?_commWrite_old_id?BYTE
      0100A1C0H   PUBLIC    CODE     ---       _commWrite_old_id
      01003C81H   PUBLIC    CODE     ---       _infoPrepare
      0100261AH   PUBLIC    CODE     ---       _get_param_list
      0100A3E4H   PUBLIC    CODE     ---       setZeros
      0100B3BEH   PUBLIC    CODE     ---       _infoGet
      010084D3H   PUBLIC    CODE     ---       slide_cuff
      010082BDH   PUBLIC    CODE     ---       drive_cuff
      0100900DH   PUBLIC    CODE     ---       commProcess
      000000CAH   SFRSYM    DATA     BYTE      SFRPRT5SEL
      000000DAH   SFRSYM    DATA     BYTE      SFRPRT6SEL
      000000D0H.6 SFRSYM    DATA     BIT       AC
      000000A8H.7 SFRSYM    DATA     BIT       EA
      000000A8H   SFRSYM    DATA     BYTE      IE
      00000085H   SFRSYM    DATA     BYTE      DPH1
      00000084H   SFRSYM    DATA     BYTE      DPL1
      000000D0H.7 SFRSYM    DATA     BIT       CY
      000000A0H   SFRSYM    DATA     BYTE      P2AX
      00000095H   SFRSYM    DATA     BYTE      DPX1
      00000081H   SFRSYM    DATA     BYTE      SP
      000000D0H.2 SFRSYM    DATA     BIT       OV
      00000080H   SFRSYM    DATA     BYTE      SFRPRT0DR
      00000090H   SFRSYM    DATA     BYTE      SFRPRT1DR
      000000F2H   SFRSYM    DATA     BYTE      SFRPRT12SEL
      00000098H   SFRSYM    DATA     BYTE      SFRPRT2DR
      000000B0H   SFRSYM    DATA     BYTE      SFRPRT3DR
      000000C0H   SFRSYM    DATA     BYTE      SFRPRT4DR
      000000FAH   SFRSYM    DATA     BYTE      SFRPRT15SEL
      000000C8H   SFRSYM    DATA     BYTE      SFRPRT5DR
      000000D8H   SFRSYM    DATA     BYTE      SFRPRT6DR
      00000089H   SFRSYM    DATA     BYTE      SFRPRT0PS
      00000091H   SFRSYM    DATA     BYTE      SFRPRT1PS
      00000099H   SFRSYM    DATA     BYTE      SFRPRT2PS
      000000B1H   SFRSYM    DATA     BYTE      SFRPRT3PS
      000000C1H   SFRSYM    DATA     BYTE      SFRPRT4PS
      000000C9H   SFRSYM    DATA     BYTE      SFRPRT5PS
      000000D9H   SFRSYM    DATA     BYTE      SFRPRT6PS
      000000EAH   SFRSYM    DATA     BYTE      MXAX
      000000F0H   SFRSYM    DATA     BYTE      B
LX51 LINKER/LOCATER V4.64.0.0                                                         01/12/2018  13:27:04  PAGE 38


      000000E0H   SFRSYM    DATA     BYTE      ACC
      000000D0H   SFRSYM    DATA     BIT       P
      000000D0H.3 SFRSYM    DATA     BIT       RS0
      000000D0H.4 SFRSYM    DATA     BIT       RS1
      00000083H   SFRSYM    DATA     BYTE      DPH
      000000E8H   SFRSYM    DATA     BYTE      SFRPRT12DR
      00000082H   SFRSYM    DATA     BYTE      DPL
      000000F8H   SFRSYM    DATA     BYTE      SFRPRT15DR
      00000086H   SFRSYM    DATA     BYTE      DPS
      000000E9H   SFRSYM    DATA     BYTE      SFRPRT12PS
      00000093H   SFRSYM    DATA     BYTE      DPX
      000000F9H   SFRSYM    DATA     BYTE      SFRPRT15PS
      000000D0H.5 SFRSYM    DATA     BIT       F0
      000000D0H.1 SFRSYM    DATA     BIT       F1
      0000008AH   SFRSYM    DATA     BYTE      SFRPRT0SEL
      000000D0H   SFRSYM    DATA     BYTE      PSW
      000000A2H   SFRSYM    DATA     BYTE      SFRPRT1SEL
      0000009AH   SFRSYM    DATA     BYTE      SFRPRT2SEL
      000000B2H   SFRSYM    DATA     BYTE      SFRPRT3SEL
      000000C2H   SFRSYM    DATA     BYTE      SFRPRT4SEL
      01005390H   SYMBOL    CODE     ---       _?ix1000
      01005B1AH   SYMBOL    CODE     ---       _?ix1010
      01005A35H   SYMBOL    CODE     ---       _?ix1001
      01005C40H   SYMBOL    CODE     ---       _?ix1020
      01005B36H   SYMBOL    CODE     ---       _?ix1011
      01005A44H   SYMBOL    CODE     ---       _?ix1002
      01005C63H   SYMBOL    CODE     ---       _?ix1021
      01005B53H   SYMBOL    CODE     ---       _?ix1012
      01005A60H   SYMBOL    CODE     ---       _?ix1003
      01005C82H   SYMBOL    CODE     ---       _?ix1022
      01005B6EH   SYMBOL    CODE     ---       _?ix1013
      01005A7BH   SYMBOL    CODE     ---       _?ix1004
      01005C90H   SYMBOL    CODE     ---       _?ix1023
      01005B82H   SYMBOL    CODE     ---       _?ix1014
      01005A97H   SYMBOL    CODE     ---       _?ix1005
      01005CC4H   SYMBOL    CODE     ---       _?ix1024
      01005BA2H   SYMBOL    CODE     ---       _?ix1015
      01005AB2H   SYMBOL    CODE     ---       _?ix1006
      01005D50H   SYMBOL    CODE     ---       _?ix1025
      01005BC6H   SYMBOL    CODE     ---       _?ix1016
      01005AD9H   SYMBOL    CODE     ---       _?ix1007
      01005D8BH   SYMBOL    CODE     ---       _?ix1026
      01005BDEH   SYMBOL    CODE     ---       _?ix1017
      01005AF0H   SYMBOL    CODE     ---       _?ix1008
      01005C03H   SYMBOL    CODE     ---       _?ix1018
      01005B09H   SYMBOL    CODE     ---       _?ix1009
      01005C19H   SYMBOL    CODE     ---       _?ix1019

      0100900DH   BLOCK     CODE     ---       LVL=0
      0100900DH   BLOCK     CODE     NEAR LAB  LVL=1
      00000066H   SYMBOL    DATA     BYTE      rx_cmd
      ---         BLOCKEND  ---      ---       LVL=1
      0100900DH   LINE      CODE     ---       #67
      0100900DH   LINE      CODE     ---       #71
      01009013H   LINE      CODE     ---       #75
      0100903EH   LINE      CODE     ---       #77
      01009044H   LINE      CODE     ---       #79
      01009044H   LINE      CODE     ---       #81
      0100908CH   LINE      CODE     ---       #84
      0100908CH   LINE      CODE     ---       #85
      0100908FH   LINE      CODE     ---       #86
      01009090H   LINE      CODE     ---       #90
      01009090H   LINE      CODE     ---       #91
      01009093H   LINE      CODE     ---       #92
      01009094H   LINE      CODE     ---       #96
LX51 LINKER/LOCATER V4.64.0.0                                                         01/12/2018  13:27:04  PAGE 39


      01009094H   LINE      CODE     ---       #97
      01009097H   LINE      CODE     ---       #98
      01009098H   LINE      CODE     ---       #102
      01009098H   LINE      CODE     ---       #103
      0100909BH   LINE      CODE     ---       #104
      0100909CH   LINE      CODE     ---       #108
      0100909CH   LINE      CODE     ---       #109
      0100909FH   LINE      CODE     ---       #110
      010090A0H   LINE      CODE     ---       #114
      010090A0H   LINE      CODE     ---       #115
      010090A3H   LINE      CODE     ---       #116
      010090A4H   LINE      CODE     ---       #120
      010090A4H   LINE      CODE     ---       #121
      010090A7H   LINE      CODE     ---       #122
      010090A8H   LINE      CODE     ---       #125
      010090A8H   LINE      CODE     ---       #126
      010090ABH   LINE      CODE     ---       #127
      010090ACH   LINE      CODE     ---       #131
      010090ACH   LINE      CODE     ---       #132
      010090AFH   LINE      CODE     ---       #133
      010090B0H   LINE      CODE     ---       #137
      010090B0H   LINE      CODE     ---       #138
      010090B3H   LINE      CODE     ---       #139
      010090B4H   LINE      CODE     ---       #143
      010090B4H   LINE      CODE     ---       #144
      010090B7H   LINE      CODE     ---       #145
      010090B8H   LINE      CODE     ---       #149
      010090B8H   LINE      CODE     ---       #150
      010090BAH   LINE      CODE     ---       #151
      010090BCH   LINE      CODE     ---       #152
      010090C7H   LINE      CODE     ---       #153
      010090C8H   LINE      CODE     ---       #157
      010090C8H   LINE      CODE     ---       #158
      010090CBH   LINE      CODE     ---       #159
      010090CCH   LINE      CODE     ---       #163
      010090CCH   LINE      CODE     ---       #164
      010090D7H   LINE      CODE     ---       #165
      010090D8H   LINE      CODE     ---       #169
      010090D8H   LINE      CODE     ---       #170
      010090DBH   LINE      CODE     ---       #171
      010090DCH   LINE      CODE     ---       #175
      010090DCH   LINE      CODE     ---       #176
      010090DFH   LINE      CODE     ---       #177
      010090E0H   LINE      CODE     ---       #181
      010090E0H   LINE      CODE     ---       #182
      010090EAH   LINE      CODE     ---       #183
      010090EFH   LINE      CODE     ---       #184
      010090F0H   LINE      CODE     ---       #185
      010090F5H   LINE      CODE     ---       #186
      010090F5H   LINE      CODE     ---       #187
      010090F6H   LINE      CODE     ---       #191
      010090F6H   LINE      CODE     ---       #192
      010090FCH   LINE      CODE     ---       #193
      01009101H   LINE      CODE     ---       #194
      01009102H   LINE      CODE     ---       #195
      01009107H   LINE      CODE     ---       #196
      01009107H   LINE      CODE     ---       #197
      01009108H   LINE      CODE     ---       #201
      01009108H   LINE      CODE     ---       #202
      0100910EH   LINE      CODE     ---       #203
      01009113H   LINE      CODE     ---       #204
      01009114H   LINE      CODE     ---       #205
      01009119H   LINE      CODE     ---       #206
      01009119H   LINE      CODE     ---       #207
      0100911AH   LINE      CODE     ---       #210
LX51 LINKER/LOCATER V4.64.0.0                                                         01/12/2018  13:27:04  PAGE 40


      0100911AH   LINE      CODE     ---       #211
      0100911FH   LINE      CODE     ---       #212
      01009129H   LINE      CODE     ---       #213
      0100912EH   LINE      CODE     ---       #214
      01009138H   LINE      CODE     ---       #215
      0100913BH   LINE      CODE     ---       #216
      0100913CH   LINE      CODE     ---       #219
      0100913CH   LINE      CODE     ---       #220
      01009142H   LINE      CODE     ---       #221
      01009146H   LINE      CODE     ---       #222
      01009146H   LINE      CODE     ---       #225
      01009146H   LINE      CODE     ---       #226
      01009146H   LINE      CODE     ---       #228
      01009146H   LINE      CODE     ---       #229
      ---         BLOCKEND  ---      ---       LVL=0

      010082BDH   BLOCK     CODE     ---       LVL=0
      010082BDH   BLOCK     CODE     NEAR LAB  LVL=1
      02000003H   SYMBOL    XDATA    ---       packet_data
      00000007H   SYMBOL    DATA     BYTE      packet_lenght
      00000006H   SYMBOL    DATA     INT       curr_diff
      02000013H   SYMBOL    XDATA    LONG      aux_val
      02000017H   SYMBOL    XDATA    DWORD     t_start
      0200001BH   SYMBOL    XDATA    DWORD     t_end
      ---         BLOCKEND  ---      ---       LVL=1
      010082BDH   LINE      CODE     ---       #238
      010082BDH   LINE      CODE     ---       #245
      010082BFH   LINE      CODE     ---       #246
      010082C5H   LINE      CODE     ---       #247
      010082C7H   LINE      CODE     ---       #248
      010082D9H   LINE      CODE     ---       #250
      010082E2H   LINE      CODE     ---       #251
      010082EAH   LINE      CODE     ---       #252
      010082EDH   LINE      CODE     ---       #253
      010082EFH   LINE      CODE     ---       #254
      010082F2H   LINE      CODE     ---       #255
      010082F2H   LINE      CODE     ---       #256
      010082FBH   LINE      CODE     ---       #257
      01008330H   LINE      CODE     ---       #258
      01008332H   LINE      CODE     ---       #259
      01008332H   LINE      CODE     ---       #260
      01008332H   LINE      CODE     ---       #261
      01008332H   LINE      CODE     ---       #263
      01008338H   LINE      CODE     ---       #264
      01008340H   LINE      CODE     ---       #266
      01008353H   LINE      CODE     ---       #267
      01008358H   LINE      CODE     ---       #269
      0100836BH   LINE      CODE     ---       #270
      01008370H   LINE      CODE     ---       #272
      0100837FH   LINE      CODE     ---       #274
      010083B6H   LINE      CODE     ---       #275
      010083D6H   LINE      CODE     ---       #276
      010083F3H   LINE      CODE     ---       #278
      010083FCH   LINE      CODE     ---       #279
      01008430H   LINE      CODE     ---       #280
      01008466H   LINE      CODE     ---       #282
      0100849CH   LINE      CODE     ---       #283
      010084D2H   LINE      CODE     ---       #284
      010084D2H   LINE      CODE     ---       #285
      010084D2H   LINE      CODE     ---       #286
      ---         BLOCKEND  ---      ---       LVL=0

      010084D3H   BLOCK     CODE     ---       LVL=0
      010084D3H   BLOCK     CODE     NEAR LAB  LVL=1
      02000003H   SYMBOL    XDATA    ---       packet_data
LX51 LINKER/LOCATER V4.64.0.0                                                         01/12/2018  13:27:04  PAGE 41


      00000007H   SYMBOL    DATA     BYTE      packet_lenght
      00000006H   SYMBOL    DATA     INT       SH_pos
      02000013H   SYMBOL    XDATA    LONG      aux_val
      02000017H   SYMBOL    XDATA    DWORD     t_start
      0200001BH   SYMBOL    XDATA    DWORD     t_end
      0200001FH   SYMBOL    XDATA    BYTE      b_h
      02000020H   SYMBOL    XDATA    BYTE      b_l
      ---         BLOCKEND  ---      ---       LVL=1
      010084D3H   LINE      CODE     ---       #288
      010084D3H   LINE      CODE     ---       #296
      010084D5H   LINE      CODE     ---       #297
      010084DBH   LINE      CODE     ---       #298
      010084DDH   LINE      CODE     ---       #299
      010084EFH   LINE      CODE     ---       #301
      010084F8H   LINE      CODE     ---       #302
      01008500H   LINE      CODE     ---       #303
      01008503H   LINE      CODE     ---       #304
      01008505H   LINE      CODE     ---       #305
      01008508H   LINE      CODE     ---       #306
      01008508H   LINE      CODE     ---       #307
      01008511H   LINE      CODE     ---       #308
      01008546H   LINE      CODE     ---       #309
      01008548H   LINE      CODE     ---       #310
      01008548H   LINE      CODE     ---       #311
      01008548H   LINE      CODE     ---       #312
      01008548H   LINE      CODE     ---       #314
      0100854EH   LINE      CODE     ---       #315
      01008556H   LINE      CODE     ---       #317
      01008562H   LINE      CODE     ---       #318
      01008598H   LINE      CODE     ---       #320
      010085B5H   LINE      CODE     ---       #321
      010085D2H   LINE      CODE     ---       #323
      010085DBH   LINE      CODE     ---       #324
      0100860FH   LINE      CODE     ---       #325
      01008645H   LINE      CODE     ---       #327
      0100867BH   LINE      CODE     ---       #328
      010086B1H   LINE      CODE     ---       #329
      010086B1H   LINE      CODE     ---       #330
      010086B1H   LINE      CODE     ---       #331
      ---         BLOCKEND  ---      ---       LVL=0

      0100B3BEH   BLOCK     CODE     ---       LVL=0
      00000006H   SYMBOL    DATA     WORD      info_type
      0100B3BEH   BLOCK     CODE     NEAR LAB  LVL=1
      02000021H   SYMBOL    XDATA    ---       packet_string
      ---         BLOCKEND  ---      ---       LVL=1
      0100B3BEH   LINE      CODE     ---       #337
      0100B3BEH   LINE      CODE     ---       #342
      0100B3C4H   LINE      CODE     ---       #343
      0100B3C4H   LINE      CODE     ---       #344
      0100B3CDH   LINE      CODE     ---       #345
      0100B3D6H   LINE      CODE     ---       #346
      0100B3D6H   LINE      CODE     ---       #347
      0100B3D6H   LINE      CODE     ---       #348
      0100B3D6H   LINE      CODE     ---       #349
      0100B3D6H   LINE      CODE     ---       #350
      ---         BLOCKEND  ---      ---       LVL=0

      0100A3E4H   BLOCK     CODE     ---       LVL=0
      0100A3E4H   BLOCK     CODE     NEAR LAB  LVL=1
      00000067H   SYMBOL    DATA     BYTE      i
      ---         BLOCKEND  ---      ---       LVL=1
      0100A3E4H   LINE      CODE     ---       #356
      0100A3E4H   LINE      CODE     ---       #357
      0100A3E4H   LINE      CODE     ---       #360
LX51 LINKER/LOCATER V4.64.0.0                                                         01/12/2018  13:27:04  PAGE 42


      0100A3EEH   LINE      CODE     ---       #361
      0100A418H   LINE      CODE     ---       #362
      0100A44EH   LINE      CODE     ---       #364
      0100A45BH   LINE      CODE     ---       #365
      0100A45FH   LINE      CODE     ---       #366
      0100A461H   LINE      CODE     ---       #368
      0100A466H   LINE      CODE     ---       #369
      ---         BLOCKEND  ---      ---       LVL=0

      0100261AH   BLOCK     CODE     ---       LVL=0
      02000021H   SYMBOL    XDATA    WORD      index
      01002622H   BLOCK     CODE     NEAR LAB  LVL=1
      02000023H   SYMBOL    XDATA    ---       packet_data
      020006C8H   SYMBOL    XDATA    WORD      packet_lenght
      00000067H   SYMBOL    DATA     WORD      i
      020006CAH   SYMBOL    XDATA    BYTE      string_lenght
      020006CBH   SYMBOL    XDATA    LONG      aux_int
      020006CFH   SYMBOL    XDATA    ---       tmp_string
      020006D2H   SYMBOL    XDATA    ---       id_str
      020006E1H   SYMBOL    XDATA    ---       pos_pid_str
      020006FDH   SYMBOL    XDATA    ---       curr_pid_str
      02000718H   SYMBOL    XDATA    ---       startup_str
      02000734H   SYMBOL    XDATA    ---       input_str
      0200074FH   SYMBOL    XDATA    ---       contr_str
      02000776H   SYMBOL    XDATA    ---       res_str
      0200078DH   SYMBOL    XDATA    ---       m_off_str
      020007A6H   SYMBOL    XDATA    ---       mult_str
      020007B7H   SYMBOL    XDATA    ---       pos_lim_flag_str
      020007D3H   SYMBOL    XDATA    ---       pos_lim_str
      020007F0H   SYMBOL    XDATA    ---       max_step_str
      0200080BH   SYMBOL    XDATA    ---       curr_limit_str
      0200081FH   SYMBOL    XDATA    ---       curr_prop_gain_str
      0200083FH   SYMBOL    XDATA    ---       curr_sat_str
      02000863H   SYMBOL    XDATA    ---       curr_dead_zone_str
      0200087BH   SYMBOL    XDATA    ---       cuff_activ_force_str
      020008A0H   SYMBOL    XDATA    ---       pow_tension_str
      020008B6H   SYMBOL    XDATA    ---       cuff_activ_proprio_str
      020008DDH   SYMBOL    XDATA    ---       max_slide_str
      02000900H   SYMBOL    XDATA    ---       max_SH_pos_str
      0200091FH   SYMBOL    XDATA    ---       hand_ID_str
      0200092DH   SYMBOL    XDATA    ---       input_mode_menu
      02000961H   SYMBOL    XDATA    ---       resolution_menu
      020009EDH   SYMBOL    XDATA    ---       control_mode_menu
      02000A28H   SYMBOL    XDATA    ---       yes_no_menu
      00000069H   SYMBOL    DATA     BYTE      id_str_len
      0000006AH   SYMBOL    DATA     BYTE      pos_pid_str_len
      0000006BH   SYMBOL    DATA     BYTE      curr_pid_str_len
      0000006CH   SYMBOL    DATA     BYTE      m_off_str_len
      0000006DH   SYMBOL    DATA     BYTE      mult_str_len
      0000006EH   SYMBOL    DATA     BYTE      pos_lim_str_len
      0000006FH   SYMBOL    DATA     BYTE      curr_limit_str_len
      00000070H   SYMBOL    DATA     BYTE      curr_prop_gain_str_len
      00000071H   SYMBOL    DATA     BYTE      curr_sat_str_len
      00000072H   SYMBOL    DATA     BYTE      curr_dead_zone_str_len
      00000073H   SYMBOL    DATA     BYTE      pow_tension_str_len
      00000074H   SYMBOL    DATA     BYTE      input_mode_menu_len
      00000075H   SYMBOL    DATA     BYTE      control_mode_menu_len
      00000076H   SYMBOL    DATA     BYTE      yes_no_menu_len
      00000077H   SYMBOL    DATA     BYTE      resolution_menu_len
      00000078H   SYMBOL    DATA     BYTE      max_slide_str_len
      00000079H   SYMBOL    DATA     BYTE      max_SH_pos_str_len
      0000007AH   SYMBOL    DATA     BYTE      hand_ID_str_len
      ---         BLOCKEND  ---      ---       LVL=1
      0100261AH   LINE      CODE     ---       #375
      01002622H   LINE      CODE     ---       #376
LX51 LINKER/LOCATER V4.64.0.0                                                         01/12/2018  13:27:04  PAGE 43


      01002622H   LINE      CODE     ---       #378
      01002635H   LINE      CODE     ---       #379
      0100263FH   LINE      CODE     ---       #388
      01002652H   LINE      CODE     ---       #389
      01002665H   LINE      CODE     ---       #390
      01002678H   LINE      CODE     ---       #391
      0100268BH   LINE      CODE     ---       #392
      0100269EH   LINE      CODE     ---       #393
      010026B1H   LINE      CODE     ---       #394
      010026C4H   LINE      CODE     ---       #395
      010026D7H   LINE      CODE     ---       #396
      010026EAH   LINE      CODE     ---       #397
      010026FDH   LINE      CODE     ---       #398
      01002710H   LINE      CODE     ---       #399
      01002723H   LINE      CODE     ---       #400
      01002736H   LINE      CODE     ---       #401
      01002749H   LINE      CODE     ---       #402
      0100275CH   LINE      CODE     ---       #403
      0100276FH   LINE      CODE     ---       #404
      01002782H   LINE      CODE     ---       #405
      01002795H   LINE      CODE     ---       #406
      010027A8H   LINE      CODE     ---       #407
      010027BBH   LINE      CODE     ---       #408
      010027CEH   LINE      CODE     ---       #409
      010027E1H   LINE      CODE     ---       #412
      010027F4H   LINE      CODE     ---       #413
      01002807H   LINE      CODE     ---       #414
      0100281AH   LINE      CODE     ---       #415
      0100282DH   LINE      CODE     ---       #418
      01002838H   LINE      CODE     ---       #419
      01002843H   LINE      CODE     ---       #420
      0100284EH   LINE      CODE     ---       #422
      01002859H   LINE      CODE     ---       #423
      01002864H   LINE      CODE     ---       #425
      0100286FH   LINE      CODE     ---       #426
      0100287AH   LINE      CODE     ---       #428
      01002885H   LINE      CODE     ---       #429
      01002890H   LINE      CODE     ---       #430
      0100289BH   LINE      CODE     ---       #431
      010028A6H   LINE      CODE     ---       #433
      010028B1H   LINE      CODE     ---       #434
      010028BCH   LINE      CODE     ---       #435
      010028C7H   LINE      CODE     ---       #436
      010028D2H   LINE      CODE     ---       #438
      010028DDH   LINE      CODE     ---       #439
      010028E8H   LINE      CODE     ---       #440
      010028F3H   LINE      CODE     ---       #442
      010028F9H   LINE      CODE     ---       #443
      010028FDH   LINE      CODE     ---       #445
      01002960H   LINE      CODE     ---       #446
      01002960H   LINE      CODE     ---       #449
      01002966H   LINE      CODE     ---       #450
      01002969H   LINE      CODE     ---       #451
      01002971H   LINE      CODE     ---       #452
      0100297DH   LINE      CODE     ---       #453
      010029A9H   LINE      CODE     ---       #457
      010029AFH   LINE      CODE     ---       #458
      010029B3H   LINE      CODE     ---       #459
      010029BBH   LINE      CODE     ---       #460
      010029DDH   LINE      CODE     ---       #461
      010029FFH   LINE      CODE     ---       #462
      01002A21H   LINE      CODE     ---       #463
      01002A23H   LINE      CODE     ---       #464
      01002A23H   LINE      CODE     ---       #465
      01002A45H   LINE      CODE     ---       #466
LX51 LINKER/LOCATER V4.64.0.0                                                         01/12/2018  13:27:04  PAGE 44


      01002A67H   LINE      CODE     ---       #467
      01002A89H   LINE      CODE     ---       #468
      01002A89H   LINE      CODE     ---       #469
      01002A95H   LINE      CODE     ---       #470
      01002AC1H   LINE      CODE     ---       #474
      01002AC7H   LINE      CODE     ---       #475
      01002ACBH   LINE      CODE     ---       #476
      01002AD3H   LINE      CODE     ---       #477
      01002AF5H   LINE      CODE     ---       #478
      01002B17H   LINE      CODE     ---       #479
      01002B39H   LINE      CODE     ---       #480
      01002B3BH   LINE      CODE     ---       #481
      01002B3BH   LINE      CODE     ---       #482
      01002B5DH   LINE      CODE     ---       #483
      01002B7FH   LINE      CODE     ---       #484
      01002BA1H   LINE      CODE     ---       #485
      01002BA1H   LINE      CODE     ---       #486
      01002BADH   LINE      CODE     ---       #487
      01002BD9H   LINE      CODE     ---       #491
      01002BDEH   LINE      CODE     ---       #492
      01002BE1H   LINE      CODE     ---       #493
      01002BE9H   LINE      CODE     ---       #494
      01002BEEH   LINE      CODE     ---       #495
      01002C05H   LINE      CODE     ---       #496
      01002C0BH   LINE      CODE     ---       #497
      01002C0DH   LINE      CODE     ---       #498
      01002C0DH   LINE      CODE     ---       #499
      01002C24H   LINE      CODE     ---       #500
      01002C2AH   LINE      CODE     ---       #501
      01002C2AH   LINE      CODE     ---       #502
      01002C39H   LINE      CODE     ---       #503
      01002C67H   LINE      CODE     ---       #505
      01002C77H   LINE      CODE     ---       #509
      01002C7CH   LINE      CODE     ---       #510
      01002C7FH   LINE      CODE     ---       #511
      01002C87H   LINE      CODE     ---       #512
      01002C90H   LINE      CODE     ---       #513
      01002C90H   LINE      CODE     ---       #514
      01002CA7H   LINE      CODE     ---       #515
      01002CADH   LINE      CODE     ---       #516
      01002CAFH   LINE      CODE     ---       #517
      01002CAFH   LINE      CODE     ---       #518
      01002CC6H   LINE      CODE     ---       #519
      01002CCCH   LINE      CODE     ---       #520
      01002CCCH   LINE      CODE     ---       #521
      01002CCCH   LINE      CODE     ---       #522
      01002CDBH   LINE      CODE     ---       #523
      01002D09H   LINE      CODE     ---       #525
      01002D19H   LINE      CODE     ---       #529
      01002D1EH   LINE      CODE     ---       #530
      01002D21H   LINE      CODE     ---       #531
      01002D29H   LINE      CODE     ---       #532
      01002D39H   LINE      CODE     ---       #533
      01002D39H   LINE      CODE     ---       #534
      01002D50H   LINE      CODE     ---       #535
      01002D56H   LINE      CODE     ---       #536
      01002D58H   LINE      CODE     ---       #537
      01002D58H   LINE      CODE     ---       #538
      01002D6FH   LINE      CODE     ---       #539
      01002D75H   LINE      CODE     ---       #540
      01002D77H   LINE      CODE     ---       #541
      01002D77H   LINE      CODE     ---       #542
      01002D8EH   LINE      CODE     ---       #543
      01002D94H   LINE      CODE     ---       #544
      01002D96H   LINE      CODE     ---       #545
LX51 LINKER/LOCATER V4.64.0.0                                                         01/12/2018  13:27:04  PAGE 45


      01002D96H   LINE      CODE     ---       #546
      01002DADH   LINE      CODE     ---       #547
      01002DB3H   LINE      CODE     ---       #548
      01002DB3H   LINE      CODE     ---       #557
      01002DB3H   LINE      CODE     ---       #558
      01002DC2H   LINE      CODE     ---       #559
      01002DF0H   LINE      CODE     ---       #561
      01002E00H   LINE      CODE     ---       #565
      01002E05H   LINE      CODE     ---       #566
      01002E09H   LINE      CODE     ---       #567
      01002E0CH   LINE      CODE     ---       #568
      01002E0EH   LINE      CODE     ---       #569
      01002E10H   LINE      CODE     ---       #570
      01002E1FH   LINE      CODE     ---       #571
      01002E4CH   LINE      CODE     ---       #572
      01002E63H   LINE      CODE     ---       #573
      01002E6DH   LINE      CODE     ---       #575
      01002E73H   LINE      CODE     ---       #576
      01002E7FH   LINE      CODE     ---       #577
      01002EADH   LINE      CODE     ---       #579
      01002EBDH   LINE      CODE     ---       #583
      01002EC1H   LINE      CODE     ---       #584
      01002EC3H   LINE      CODE     ---       #585
      01002ED3H   LINE      CODE     ---       #586
      01002F2CH   LINE      CODE     ---       #587
      01002F38H   LINE      CODE     ---       #588
      01002F64H   LINE      CODE     ---       #592
      01002F6AH   LINE      CODE     ---       #593
      01002F6EH   LINE      CODE     ---       #594
      01002F7EH   LINE      CODE     ---       #595
      01002FD2H   LINE      CODE     ---       #596
      01002FE9H   LINE      CODE     ---       #597
      0100300FH   LINE      CODE     ---       #601
      01003014H   LINE      CODE     ---       #602
      01003017H   LINE      CODE     ---       #603
      0100301FH   LINE      CODE     ---       #604
      01003024H   LINE      CODE     ---       #605
      0100303BH   LINE      CODE     ---       #606
      01003041H   LINE      CODE     ---       #607
      01003043H   LINE      CODE     ---       #608
      01003043H   LINE      CODE     ---       #609
      0100305AH   LINE      CODE     ---       #610
      01003060H   LINE      CODE     ---       #611
      01003060H   LINE      CODE     ---       #612
      0100306FH   LINE      CODE     ---       #613
      0100309DH   LINE      CODE     ---       #615
      010030ADH   LINE      CODE     ---       #619
      010030B2H   LINE      CODE     ---       #620
      010030B5H   LINE      CODE     ---       #621
      010030C8H   LINE      CODE     ---       #622
      01003124H   LINE      CODE     ---       #623
      01003180H   LINE      CODE     ---       #624
      0100318BH   LINE      CODE     ---       #625
      01003197H   LINE      CODE     ---       #626
      010031C3H   LINE      CODE     ---       #630
      010031C9H   LINE      CODE     ---       #631
      010031CDH   LINE      CODE     ---       #632
      010031E1H   LINE      CODE     ---       #633
      010031F5H   LINE      CODE     ---       #634
      0100320CH   LINE      CODE     ---       #635
      01003232H   LINE      CODE     ---       #639
      01003238H   LINE      CODE     ---       #640
      0100323CH   LINE      CODE     ---       #641
      0100324BH   LINE      CODE     ---       #642
      01003257H   LINE      CODE     ---       #643
LX51 LINKER/LOCATER V4.64.0.0                                                         01/12/2018  13:27:04  PAGE 46


      01003283H   LINE      CODE     ---       #647
      01003289H   LINE      CODE     ---       #648
      0100328DH   LINE      CODE     ---       #649
      010032A1H   LINE      CODE     ---       #650
      010032ADH   LINE      CODE     ---       #651
      010032D9H   LINE      CODE     ---       #655
      010032DFH   LINE      CODE     ---       #656
      010032E3H   LINE      CODE     ---       #657
      010032F2H   LINE      CODE     ---       #658
      010032FEH   LINE      CODE     ---       #659
      0100332AH   LINE      CODE     ---       #663
      01003330H   LINE      CODE     ---       #664
      01003334H   LINE      CODE     ---       #665
      01003343H   LINE      CODE     ---       #666
      0100334FH   LINE      CODE     ---       #667
      0100337BH   LINE      CODE     ---       #671
      01003380H   LINE      CODE     ---       #672
      01003383H   LINE      CODE     ---       #673
      0100338BH   LINE      CODE     ---       #674
      01003390H   LINE      CODE     ---       #675
      010033A7H   LINE      CODE     ---       #676
      010033ADH   LINE      CODE     ---       #677
      010033AFH   LINE      CODE     ---       #678
      010033AFH   LINE      CODE     ---       #679
      010033C6H   LINE      CODE     ---       #680
      010033CCH   LINE      CODE     ---       #681
      010033CCH   LINE      CODE     ---       #682
      010033DBH   LINE      CODE     ---       #683
      01003409H   LINE      CODE     ---       #685
      01003419H   LINE      CODE     ---       #689
      0100341DH   LINE      CODE     ---       #690
      01003421H   LINE      CODE     ---       #691
      01003430H   LINE      CODE     ---       #692
      0100343CH   LINE      CODE     ---       #693
      01003468H   LINE      CODE     ---       #697
      0100346DH   LINE      CODE     ---       #698
      01003470H   LINE      CODE     ---       #699
      01003478H   LINE      CODE     ---       #700
      0100347DH   LINE      CODE     ---       #701
      01003494H   LINE      CODE     ---       #702
      0100349AH   LINE      CODE     ---       #703
      0100349CH   LINE      CODE     ---       #704
      0100349CH   LINE      CODE     ---       #705
      010034B3H   LINE      CODE     ---       #706
      010034B9H   LINE      CODE     ---       #707
      010034B9H   LINE      CODE     ---       #708
      010034C8H   LINE      CODE     ---       #709
      010034F6H   LINE      CODE     ---       #711
      01003506H   LINE      CODE     ---       #715
      0100350BH   LINE      CODE     ---       #716
      0100350FH   LINE      CODE     ---       #717
      01003523H   LINE      CODE     ---       #718
      0100352FH   LINE      CODE     ---       #719
      0100355BH   LINE      CODE     ---       #723
      01003561H   LINE      CODE     ---       #724
      01003565H   LINE      CODE     ---       #725
      01003579H   LINE      CODE     ---       #726
      01003585H   LINE      CODE     ---       #727
      010035B1H   LINE      CODE     ---       #731
      010035B7H   LINE      CODE     ---       #732
      010035BAH   LINE      CODE     ---       #733
      010035C2H   LINE      CODE     ---       #734
      010035CEH   LINE      CODE     ---       #735
      010035FAH   LINE      CODE     ---       #739
      01003606H   LINE      CODE     ---       #740
LX51 LINKER/LOCATER V4.64.0.0                                                         01/12/2018  13:27:04  PAGE 47


      01003632H   LINE      CODE     ---       #742
      0100363EH   LINE      CODE     ---       #743
      0100366AH   LINE      CODE     ---       #745
      01003676H   LINE      CODE     ---       #746
      010036A2H   LINE      CODE     ---       #748
      010036AEH   LINE      CODE     ---       #749
      010036DAH   LINE      CODE     ---       #751
      010036FEH   LINE      CODE     ---       #752
      0100370CH   LINE      CODE     ---       #753
      0100370FH   LINE      CODE     ---       #754
      01003710H   LINE      CODE     ---       #757
      01003710H   LINE      CODE     ---       #758
      01003718H   LINE      CODE     ---       #759
      01003719H   LINE      CODE     ---       #762
      01003719H   LINE      CODE     ---       #763
      01003721H   LINE      CODE     ---       #764
      01003742H   LINE      CODE     ---       #765
      01003763H   LINE      CODE     ---       #766
      01003784H   LINE      CODE     ---       #767
      01003785H   LINE      CODE     ---       #768
      01003785H   LINE      CODE     ---       #769
      010037A6H   LINE      CODE     ---       #770
      010037C7H   LINE      CODE     ---       #771
      010037E8H   LINE      CODE     ---       #772
      010037E8H   LINE      CODE     ---       #773
      010037E9H   LINE      CODE     ---       #776
      010037E9H   LINE      CODE     ---       #777
      010037F1H   LINE      CODE     ---       #778
      01003812H   LINE      CODE     ---       #779
      01003833H   LINE      CODE     ---       #780
      01003854H   LINE      CODE     ---       #781
      01003855H   LINE      CODE     ---       #782
      01003855H   LINE      CODE     ---       #783
      01003876H   LINE      CODE     ---       #784
      01003897H   LINE      CODE     ---       #785
      010038B8H   LINE      CODE     ---       #786
      010038B8H   LINE      CODE     ---       #787
      010038B9H   LINE      CODE     ---       #790
      010038B9H   LINE      CODE     ---       #791
      010038BFH   LINE      CODE     ---       #792
      010038C6H   LINE      CODE     ---       #794
      010038CBH   LINE      CODE     ---       #795
      010038CCH   LINE      CODE     ---       #798
      010038CCH   LINE      CODE     ---       #799
      010038D4H   LINE      CODE     ---       #800
      010038D5H   LINE      CODE     ---       #803
      010038D5H   LINE      CODE     ---       #804
      010038DDH   LINE      CODE     ---       #805
      010038DEH   LINE      CODE     ---       #808
      010038DEH   LINE      CODE     ---       #809
      010038F1H   LINE      CODE     ---       #810
      01003917H   LINE      CODE     ---       #811
      01003917H   LINE      CODE     ---       #814
      01003917H   LINE      CODE     ---       #815
      0100392AH   LINE      CODE     ---       #816
      01003974H   LINE      CODE     ---       #817
      010039A6H   LINE      CODE     ---       #819
      010039B4H   LINE      CODE     ---       #820
      010039BFH   LINE      CODE     ---       #821
      010039C1H   LINE      CODE     ---       #822
      010039C2H   LINE      CODE     ---       #825
      010039C2H   LINE      CODE     ---       #826
      010039D5H   LINE      CODE     ---       #827
      01003A29H   LINE      CODE     ---       #828
      01003A29H   LINE      CODE     ---       #831
LX51 LINKER/LOCATER V4.64.0.0                                                         01/12/2018  13:27:04  PAGE 48


      01003A29H   LINE      CODE     ---       #832
      01003A31H   LINE      CODE     ---       #833
      01003A32H   LINE      CODE     ---       #836
      01003A32H   LINE      CODE     ---       #837
      01003A45H   LINE      CODE     ---       #838
      01003A8FH   LINE      CODE     ---       #839
      01003ADCH   LINE      CODE     ---       #841
      01003B0EH   LINE      CODE     ---       #842
      01003B4CH   LINE      CODE     ---       #843
      01003B57H   LINE      CODE     ---       #844
      01003B57H   LINE      CODE     ---       #847
      01003B57H   LINE      CODE     ---       #848
      01003B6BH   LINE      CODE     ---       #849
      01003B84H   LINE      CODE     ---       #850
      01003B98H   LINE      CODE     ---       #852
      01003BACH   LINE      CODE     ---       #853
      01003BC8H   LINE      CODE     ---       #854
      01003BDCH   LINE      CODE     ---       #855
      01003BDDH   LINE      CODE     ---       #858
      01003BDDH   LINE      CODE     ---       #859
      01003BECH   LINE      CODE     ---       #860
      01003BEDH   LINE      CODE     ---       #863
      01003BEDH   LINE      CODE     ---       #864
      01003C01H   LINE      CODE     ---       #865
      01003C02H   LINE      CODE     ---       #868
      01003C02H   LINE      CODE     ---       #869
      01003C11H   LINE      CODE     ---       #870
      01003C12H   LINE      CODE     ---       #873
      01003C12H   LINE      CODE     ---       #874
      01003C21H   LINE      CODE     ---       #875
      01003C22H   LINE      CODE     ---       #878
      01003C22H   LINE      CODE     ---       #879
      01003C2AH   LINE      CODE     ---       #880
      01003C2FH   LINE      CODE     ---       #881
      01003C30H   LINE      CODE     ---       #884
      01003C30H   LINE      CODE     ---       #885
      01003C3FH   LINE      CODE     ---       #886
      01003C40H   LINE      CODE     ---       #889
      01003C40H   LINE      CODE     ---       #890
      01003C48H   LINE      CODE     ---       #891
      01003C4DH   LINE      CODE     ---       #892
      01003C4EH   LINE      CODE     ---       #895
      01003C4EH   LINE      CODE     ---       #896
      01003C62H   LINE      CODE     ---       #897
      01003C63H   LINE      CODE     ---       #900
      01003C63H   LINE      CODE     ---       #901
      01003C77H   LINE      CODE     ---       #902
      01003C78H   LINE      CODE     ---       #904
      01003C78H   LINE      CODE     ---       #905
      01003C80H   LINE      CODE     ---       #906
      01003C80H   LINE      CODE     ---       #907
      01003C80H   LINE      CODE     ---       #908
      ---         BLOCKEND  ---      ---       LVL=0

      01003C81H   BLOCK     CODE     ---       LVL=0
      020005FDH   SYMBOL    XDATA    ---       info_string
      01003C8CH   BLOCK     CODE     NEAR LAB  LVL=1
      00000067H   SYMBOL    DATA     INT       i
      02000600H   SYMBOL    XDATA    ---       str
      ---         BLOCKEND  ---      ---       LVL=1
      01003C81H   LINE      CODE     ---       #914
      01003C8CH   LINE      CODE     ---       #915
      01003C8CH   LINE      CODE     ---       #920
      01003CA4H   LINE      CODE     ---       #921
      01003CC0H   LINE      CODE     ---       #922
LX51 LINKER/LOCATER V4.64.0.0                                                         01/12/2018  13:27:04  PAGE 49


      01003CDCH   LINE      CODE     ---       #923
      01003CF8H   LINE      CODE     ---       #924
      01003D14H   LINE      CODE     ---       #926
      01003D30H   LINE      CODE     ---       #927
      01003D54H   LINE      CODE     ---       #928
      01003D70H   LINE      CODE     ---       #929
      01003D8EH   LINE      CODE     ---       #930
      01003DAAH   LINE      CODE     ---       #931
      01003DD0H   LINE      CODE     ---       #932
      01003DECH   LINE      CODE     ---       #933
      01003E10H   LINE      CODE     ---       #934
      01003E2CH   LINE      CODE     ---       #935
      01003E48H   LINE      CODE     ---       #937
      01003E64H   LINE      CODE     ---       #938
      01003E80H   LINE      CODE     ---       #940
      01003E92H   LINE      CODE     ---       #941
      01003EE4H   LINE      CODE     ---       #942
      01003F00H   LINE      CODE     ---       #943
      01003F0BH   LINE      CODE     ---       #944
      01003F27H   LINE      CODE     ---       #946
      01003F3EH   LINE      CODE     ---       #948
      01003F46H   LINE      CODE     ---       #949
      01003F5DH   LINE      CODE     ---       #950
      01003F5FH   LINE      CODE     ---       #951
      01003F76H   LINE      CODE     ---       #952
      01003F76H   LINE      CODE     ---       #953
      01003F92H   LINE      CODE     ---       #956
      01003FAEH   LINE      CODE     ---       #957
      01003FCAH   LINE      CODE     ---       #958
      01003FDFH   LINE      CODE     ---       #960
      01004040H   LINE      CODE     ---       #961
      0100405CH   LINE      CODE     ---       #962
      01004078H   LINE      CODE     ---       #963
      01004083H   LINE      CODE     ---       #964
      010040AEH   LINE      CODE     ---       #965
      010040CAH   LINE      CODE     ---       #966
      010040E6H   LINE      CODE     ---       #968
      01004111H   LINE      CODE     ---       #969
      0100412DH   LINE      CODE     ---       #970
      01004149H   LINE      CODE     ---       #972
      01004174H   LINE      CODE     ---       #973
      01004190H   LINE      CODE     ---       #974
      010041ACH   LINE      CODE     ---       #977
      010041C8H   LINE      CODE     ---       #979
      010041E4H   LINE      CODE     ---       #980
      010041EFH   LINE      CODE     ---       #981
      01004228H   LINE      CODE     ---       #982
      01004244H   LINE      CODE     ---       #983
      0100427DH   LINE      CODE     ---       #984
      01004299H   LINE      CODE     ---       #985
      010042D2H   LINE      CODE     ---       #986
      010042EEH   LINE      CODE     ---       #987
      010042F1H   LINE      CODE     ---       #988
      010042F1H   LINE      CODE     ---       #989
      0100432AH   LINE      CODE     ---       #990
      01004346H   LINE      CODE     ---       #991
      0100437FH   LINE      CODE     ---       #992
      0100439BH   LINE      CODE     ---       #993
      010043D4H   LINE      CODE     ---       #994
      010043F0H   LINE      CODE     ---       #995
      010043F0H   LINE      CODE     ---       #997
      0100440CH   LINE      CODE     ---       #998
      01004417H   LINE      CODE     ---       #999
      01004450H   LINE      CODE     ---       #1000
      0100446CH   LINE      CODE     ---       #1001
LX51 LINKER/LOCATER V4.64.0.0                                                         01/12/2018  13:27:04  PAGE 50


      010044A5H   LINE      CODE     ---       #1002
      010044C1H   LINE      CODE     ---       #1003
      010044FAH   LINE      CODE     ---       #1004
      01004516H   LINE      CODE     ---       #1005
      01004519H   LINE      CODE     ---       #1006
      01004519H   LINE      CODE     ---       #1007
      01004552H   LINE      CODE     ---       #1008
      0100456EH   LINE      CODE     ---       #1009
      010045A7H   LINE      CODE     ---       #1010
      010045C3H   LINE      CODE     ---       #1011
      010045FCH   LINE      CODE     ---       #1012
      01004618H   LINE      CODE     ---       #1013
      01004618H   LINE      CODE     ---       #1015
      01004634H   LINE      CODE     ---       #1017
      0100463BH   LINE      CODE     ---       #1018
      01004657H   LINE      CODE     ---       #1019
      01004659H   LINE      CODE     ---       #1020
      01004675H   LINE      CODE     ---       #1021
      01004675H   LINE      CODE     ---       #1023
      0100467FH   LINE      CODE     ---       #1024
      0100467FH   LINE      CODE     ---       #1025
      0100469BH   LINE      CODE     ---       #1026
      0100469DH   LINE      CODE     ---       #1027
      0100469DH   LINE      CODE     ---       #1028
      010046B9H   LINE      CODE     ---       #1029
      010046B9H   LINE      CODE     ---       #1030
      010046B9H   LINE      CODE     ---       #1032
      010046D5H   LINE      CODE     ---       #1033
      010046E6H   LINE      CODE     ---       #1034
      010046E6H   LINE      CODE     ---       #1035
      01004702H   LINE      CODE     ---       #1036
      01004704H   LINE      CODE     ---       #1037
      01004704H   LINE      CODE     ---       #1038
      01004720H   LINE      CODE     ---       #1039
      01004722H   LINE      CODE     ---       #1040
      01004722H   LINE      CODE     ---       #1041
      0100473EH   LINE      CODE     ---       #1042
      01004740H   LINE      CODE     ---       #1043
      01004740H   LINE      CODE     ---       #1044
      0100475CH   LINE      CODE     ---       #1045
      0100475CH   LINE      CODE     ---       #1052
      0100475CH   LINE      CODE     ---       #1054
      01004778H   LINE      CODE     ---       #1055
      0100478AH   LINE      CODE     ---       #1056
      0100478AH   LINE      CODE     ---       #1058
      010047C6H   LINE      CODE     ---       #1059
      010047E2H   LINE      CODE     ---       #1060
      010047FEH   LINE      CODE     ---       #1061
      01004809H   LINE      CODE     ---       #1064
      01004825H   LINE      CODE     ---       #1065
      0100483AH   LINE      CODE     ---       #1066
      0100483AH   LINE      CODE     ---       #1068
      01004899H   LINE      CODE     ---       #1069
      010048B5H   LINE      CODE     ---       #1070
      010048D1H   LINE      CODE     ---       #1071
      010048DCH   LINE      CODE     ---       #1073
      010048F8H   LINE      CODE     ---       #1074
      0100490DH   LINE      CODE     ---       #1075
      0100490DH   LINE      CODE     ---       #1077
      0100495AH   LINE      CODE     ---       #1078
      01004976H   LINE      CODE     ---       #1079
      01004992H   LINE      CODE     ---       #1080
      0100499DH   LINE      CODE     ---       #1082
      010049B9H   LINE      CODE     ---       #1083
      010049E4H   LINE      CODE     ---       #1084
LX51 LINKER/LOCATER V4.64.0.0                                                         01/12/2018  13:27:04  PAGE 51


      01004A00H   LINE      CODE     ---       #1085
      01004A1CH   LINE      CODE     ---       #1087
      01004A38H   LINE      CODE     ---       #1088
      01004A5EH   LINE      CODE     ---       #1089
      01004A7AH   LINE      CODE     ---       #1090
      01004A96H   LINE      CODE     ---       #1092
      01004AB2H   LINE      CODE     ---       #1093
      01004AD8H   LINE      CODE     ---       #1094
      01004AF4H   LINE      CODE     ---       #1095
      01004B10H   LINE      CODE     ---       #1097
      01004B34H   LINE      CODE     ---       #1098
      01004B50H   LINE      CODE     ---       #1099
      01004B6CH   LINE      CODE     ---       #1101
      01004B81H   LINE      CODE     ---       #1103
      01004BE0H   LINE      CODE     ---       #1104
      01004BFCH   LINE      CODE     ---       #1107
      01004C4CH   LINE      CODE     ---       #1108
      01004C68H   LINE      CODE     ---       #1109
      01004C73H   LINE      CODE     ---       #1111
      01004CAEH   LINE      CODE     ---       #1112
      01004CCAH   LINE      CODE     ---       #1113
      01004CE6H   LINE      CODE     ---       #1115
      01004D0CH   LINE      CODE     ---       #1116
      01004D28H   LINE      CODE     ---       #1117
      01004D44H   LINE      CODE     ---       #1119
      01004D4AH   LINE      CODE     ---       #1120
      01004D68H   LINE      CODE     ---       #1122
      01004D84H   LINE      CODE     ---       #1124
      01004D8AH   LINE      CODE     ---       #1125
      01004DA8H   LINE      CODE     ---       #1127
      01004DC4H   LINE      CODE     ---       #1129
      01004DC7H   LINE      CODE     ---       #1130
      01004DE5H   LINE      CODE     ---       #1132
      01004E01H   LINE      CODE     ---       #1134
      01004E04H   LINE      CODE     ---       #1135
      01004E22H   LINE      CODE     ---       #1137
      01004E3EH   LINE      CODE     ---       #1139
      01004E82H   LINE      CODE     ---       #1140
      01004E9EH   LINE      CODE     ---       #1141
      01004EBAH   LINE      CODE     ---       #1142
      ---         BLOCKEND  ---      ---       LVL=0

      0100A1C0H   BLOCK     CODE     ---       LVL=0
      02000021H   SYMBOL    XDATA    ---       packet_data
      02000024H   SYMBOL    XDATA    WORD      packet_lenght
      02000026H   SYMBOL    XDATA    BYTE      old_id
      0100A1D1H   BLOCK     CODE     NEAR LAB  LVL=1
      0000006BH   SYMBOL    DATA     WORD      index
      ---         BLOCKEND  ---      ---       LVL=1
      0100A1C0H   LINE      CODE     ---       #1148
      0100A1D1H   LINE      CODE     ---       #1149
      0100A1D1H   LINE      CODE     ---       #1153
      0100A1D6H   LINE      CODE     ---       #1154
      0100A1DBH   LINE      CODE     ---       #1157
      0100A1E3H   LINE      CODE     ---       #1162
      0100A1EDH   LINE      CODE     ---       #1164
      0100A201H   LINE      CODE     ---       #1165
      0100A219H   LINE      CODE     ---       #1166
      0100A223H   LINE      CODE     ---       #1168
      0100A228H   LINE      CODE     ---       #1170
      0100A242H   LINE      CODE     ---       #1172
      0100A247H   LINE      CODE     ---       #1173
      0100A24CH   LINE      CODE     ---       #1174
      ---         BLOCKEND  ---      ---       LVL=0

LX51 LINKER/LOCATER V4.64.0.0                                                         01/12/2018  13:27:04  PAGE 52


      01009FEEH   BLOCK     CODE     ---       LVL=0
      02000A52H   SYMBOL    XDATA    ---       packet_data
      02000A55H   SYMBOL    XDATA    WORD      packet_lenght
      02000A57H   SYMBOL    XDATA    BYTE      next
      01009FFFH   BLOCK     CODE     NEAR LAB  LVL=1
      0000007BH   SYMBOL    DATA     WORD      index
      ---         BLOCKEND  ---      ---       LVL=1
      01009FEEH   LINE      CODE     ---       #1176
      01009FFFH   LINE      CODE     ---       #1177
      01009FFFH   LINE      CODE     ---       #1181
      0100A004H   LINE      CODE     ---       #1182
      0100A009H   LINE      CODE     ---       #1185
      0100A00FH   LINE      CODE     ---       #1188
      0100A019H   LINE      CODE     ---       #1190
      0100A021H   LINE      CODE     ---       #1193
      0100A02BH   LINE      CODE     ---       #1196
      0100A03FH   LINE      CODE     ---       #1197
      0100A061H   LINE      CODE     ---       #1199
      0100A066H   LINE      CODE     ---       #1201
      0100A080H   LINE      CODE     ---       #1203
      0100A086H   LINE      CODE     ---       #1204
      0100A08BH   LINE      CODE     ---       #1205
      0100A090H   LINE      CODE     ---       #1206
      0100A090H   LINE      CODE     ---       #1207
      ---         BLOCKEND  ---      ---       LVL=0

      0100B46AH   BLOCK     CODE     ---       LVL=0
      00000007H   SYMBOL    DATA     BYTE      value
      0100B46AH   BLOCK     CODE     NEAR LAB  LVL=1
      0000006BH   SYMBOL    DATA     ---       packet_data
      ---         BLOCKEND  ---      ---       LVL=1
      0100B46AH   LINE      CODE     ---       #1213
      0100B46AH   LINE      CODE     ---       #1220
      0100B46CH   LINE      CODE     ---       #1223
      0100B46EH   LINE      CODE     ---       #1225
      0100B47FH   LINE      CODE     ---       #1226
      ---         BLOCKEND  ---      ---       LVL=0

      01009D2CH   BLOCK     CODE     ---       LVL=0
      02000021H   SYMBOL    XDATA    INT       displacement
      01009D34H   BLOCK     CODE     NEAR LAB  LVL=1
      00000007H   SYMBOL    DATA     BYTE      writeStatus
      02000023H   SYMBOL    XDATA    INT       i
      02000025H   SYMBOL    XDATA    INT       pages
      02000027H   SYMBOL    XDATA    BYTE      ret_val
      ---         BLOCKEND  ---      ---       LVL=1
      01009D2CH   LINE      CODE     ---       #1236
      01009D34H   LINE      CODE     ---       #1241
      01009D3AH   LINE      CODE     ---       #1243
      01009D3FH   LINE      CODE     ---       #1244
      01009D44H   LINE      CODE     ---       #1247
      01009D47H   LINE      CODE     ---       #1249
      01009D5AH   LINE      CODE     ---       #1251
      01009D63H   LINE      CODE     ---       #1253
      01009D86H   LINE      CODE     ---       #1254
      01009DABH   LINE      CODE     ---       #1255
      01009DAEH   LINE      CODE     ---       #1256
      01009DB3H   LINE      CODE     ---       #1257
      01009DB5H   LINE      CODE     ---       #1258
      01009DB5H   LINE      CODE     ---       #1259
      01009DC5H   LINE      CODE     ---       #1261
      01009DD8H   LINE      CODE     ---       #1263
      01009DDDH   LINE      CODE     ---       #1264
      ---         BLOCKEND  ---      ---       LVL=0

LX51 LINKER/LOCATER V4.64.0.0                                                         01/12/2018  13:27:04  PAGE 53


      0100AB8CH   BLOCK     CODE     ---       LVL=0
      0100AB8CH   BLOCK     CODE     NEAR LAB  LVL=1
      00000006H   SYMBOL    DATA     WORD      i
      ---         BLOCKEND  ---      ---       LVL=1
      0100AB8CH   LINE      CODE     ---       #1274
      0100AB8CH   LINE      CODE     ---       #1278
      0100AB98H   LINE      CODE     ---       #1279
      0100ABBBH   LINE      CODE     ---       #1283
      0100ABC1H   LINE      CODE     ---       #1284
      0100ABC5H   LINE      CODE     ---       #1286
      0100ABD8H   LINE      CODE     ---       #1288
      ---         BLOCKEND  ---      ---       LVL=0

      0100AC6EH   BLOCK     CODE     ---       LVL=0
      0100AC6EH   BLOCK     CODE     NEAR LAB  LVL=1
      00000006H   SYMBOL    DATA     WORD      i
      ---         BLOCKEND  ---      ---       LVL=1
      0100AC6EH   LINE      CODE     ---       #1298
      0100AC6EH   LINE      CODE     ---       #1302
      0100AC7AH   LINE      CODE     ---       #1303
      0100ACA4H   LINE      CODE     ---       #1307
      0100ACAAH   LINE      CODE     ---       #1308
      0100ACAEH   LINE      CODE     ---       #1310
      0100ACB4H   LINE      CODE     ---       #1312
      ---         BLOCKEND  ---      ---       LVL=0

      0100887DH   BLOCK     CODE     ---       LVL=0
      0100887DH   BLOCK     CODE     NEAR LAB  LVL=1
      00000067H   SYMBOL    DATA     BYTE      i
      ---         BLOCKEND  ---      ---       LVL=1
      0100887DH   LINE      CODE     ---       #1321
      0100887DH   LINE      CODE     ---       #1325
      01008883H   LINE      CODE     ---       #1326
      0100888EH   LINE      CODE     ---       #1327
      01008899H   LINE      CODE     ---       #1328
      010088A6H   LINE      CODE     ---       #1329
      010088B2H   LINE      CODE     ---       #1330
      010088BDH   LINE      CODE     ---       #1331
      010088C8H   LINE      CODE     ---       #1333
      010088D6H   LINE      CODE     ---       #1334
      010088E1H   LINE      CODE     ---       #1335
      010088ECH   LINE      CODE     ---       #1336
      010088F9H   LINE      CODE     ---       #1337
      01008905H   LINE      CODE     ---       #1338
      01008910H   LINE      CODE     ---       #1340
      01008916H   LINE      CODE     ---       #1341
      01008919H   LINE      CODE     ---       #1342
      0100891DH   LINE      CODE     ---       #1343
      01008922H   LINE      CODE     ---       #1345
      01008926H   LINE      CODE     ---       #1347
      0100892FH   LINE      CODE     ---       #1348
      01008949H   LINE      CODE     ---       #1349
      01008962H   LINE      CODE     ---       #1350
      01008966H   LINE      CODE     ---       #1352
      01008970H   LINE      CODE     ---       #1353
      01008970H   LINE      CODE     ---       #1354
      01008989H   LINE      CODE     ---       #1355
      01008997H   LINE      CODE     ---       #1356
      0100899BH   LINE      CODE     ---       #1358
      010089A9H   LINE      CODE     ---       #1359
      010089B3H   LINE      CODE     ---       #1360
      010089BAH   LINE      CODE     ---       #1361
      010089BFH   LINE      CODE     ---       #1362
      010089C3H   LINE      CODE     ---       #1363
      010089CDH   LINE      CODE     ---       #1364
LX51 LINKER/LOCATER V4.64.0.0                                                         01/12/2018  13:27:04  PAGE 54


      010089D3H   LINE      CODE     ---       #1366
      010089E7H   LINE      CODE     ---       #1367
      010089FBH   LINE      CODE     ---       #1368
      01008A0FH   LINE      CODE     ---       #1370
      01008A16H   LINE      CODE     ---       #1372
      01008A20H   LINE      CODE     ---       #1375
      01008A26H   LINE      CODE     ---       #1378
      01008A3FH   LINE      CODE     ---       #1379
      ---         BLOCKEND  ---      ---       LVL=0

      0100A72DH   BLOCK     CODE     ---       LVL=0
      0100A72DH   BLOCK     CODE     NEAR LAB  LVL=1
      00000067H   SYMBOL    DATA     BYTE      index
      02000021H   SYMBOL    XDATA    ---       packet_data
      ---         BLOCKEND  ---      ---       LVL=1
      0100A72DH   LINE      CODE     ---       #1388
      0100A72DH   LINE      CODE     ---       #1403
      0100A733H   LINE      CODE     ---       #1405
      0100A73DH   LINE      CODE     ---       #1406
      0100A77CH   LINE      CODE     ---       #1415
      0100A78CH   LINE      CODE     ---       #1416
      0100A79DH   LINE      CODE     ---       #1419
      ---         BLOCKEND  ---      ---       LVL=0

      0100A874H   BLOCK     CODE     ---       LVL=0
      0100A874H   BLOCK     CODE     NEAR LAB  LVL=1
      02000021H   SYMBOL    XDATA    ---       packet_data
      ---         BLOCKEND  ---      ---       LVL=1
      0100A874H   LINE      CODE     ---       #1421
      0100A874H   LINE      CODE     ---       #1429
      0100A87AH   LINE      CODE     ---       #1431
      0100A899H   LINE      CODE     ---       #1432
      0100A8B8H   LINE      CODE     ---       #1436
      0100A8C8H   LINE      CODE     ---       #1438
      0100A8D9H   LINE      CODE     ---       #1440
      ---         BLOCKEND  ---      ---       LVL=0

      0100ACB5H   BLOCK     CODE     ---       LVL=0
      0100ACB5H   BLOCK     CODE     NEAR LAB  LVL=1
      02000021H   SYMBOL    XDATA    ---       packet_data
      ---         BLOCKEND  ---      ---       LVL=1
      0100ACB5H   LINE      CODE     ---       #1442
      0100ACB5H   LINE      CODE     ---       #1450
      0100ACBBH   LINE      CODE     ---       #1452
      0100ACCAH   LINE      CODE     ---       #1453
      0100ACD9H   LINE      CODE     ---       #1457
      0100ACE9H   LINE      CODE     ---       #1459
      0100ACFAH   LINE      CODE     ---       #1460
      ---         BLOCKEND  ---      ---       LVL=0

      0100A12FH   BLOCK     CODE     ---       LVL=0
      0100A12FH   BLOCK     CODE     NEAR LAB  LVL=1
      00000067H   SYMBOL    DATA     BYTE      index
      02000021H   SYMBOL    XDATA    ---       packet_data
      ---         BLOCKEND  ---      ---       LVL=1
      0100A12FH   LINE      CODE     ---       #1462
      0100A12FH   LINE      CODE     ---       #1476
      0100A135H   LINE      CODE     ---       #1479
      0100A144H   LINE      CODE     ---       #1480
      0100A153H   LINE      CODE     ---       #1483
      0100A15DH   LINE      CODE     ---       #1484
      0100A19EH   LINE      CODE     ---       #1493
      0100A1AEH   LINE      CODE     ---       #1494
      0100A1BFH   LINE      CODE     ---       #1496
      ---         BLOCKEND  ---      ---       LVL=0
LX51 LINKER/LOCATER V4.64.0.0                                                         01/12/2018  13:27:04  PAGE 55



      01008ECBH   BLOCK     CODE     ---       LVL=0
      01008ECBH   LINE      CODE     ---       #1498
      01008ECBH   LINE      CODE     ---       #1501
      01008EDFH   LINE      CODE     ---       #1502
      01008EFCH   LINE      CODE     ---       #1504
      01008F10H   LINE      CODE     ---       #1505
      01008F2DH   LINE      CODE     ---       #1508
      01008F36H   LINE      CODE     ---       #1510
      01008F56H   LINE      CODE     ---       #1511
      01008F6AH   LINE      CODE     ---       #1512
      01008F8CH   LINE      CODE     ---       #1513
      01008FA0H   LINE      CODE     ---       #1515
      01008FC2H   LINE      CODE     ---       #1516
      01008FD6H   LINE      CODE     ---       #1517
      01008FF8H   LINE      CODE     ---       #1518
      0100900CH   LINE      CODE     ---       #1519
      0100900CH   LINE      CODE     ---       #1520
      ---         BLOCKEND  ---      ---       LVL=0

      01008D60H   BLOCK     CODE     ---       LVL=0
      01008D60H   BLOCK     CODE     NEAR LAB  LVL=1
      00000067H   SYMBOL    DATA     LONG      pos
      0000006BH   SYMBOL    DATA     LONG      stiff
      ---         BLOCKEND  ---      ---       LVL=1
      01008D60H   LINE      CODE     ---       #1522
      01008D60H   LINE      CODE     ---       #1528
      01008D74H   LINE      CODE     ---       #1529
      01008D86H   LINE      CODE     ---       #1532
      01008D9FH   LINE      CODE     ---       #1535
      01008DD4H   LINE      CODE     ---       #1536
      01008DFEH   LINE      CODE     ---       #1538
      01008E2FH   LINE      CODE     ---       #1539
      01008E56H   LINE      CODE     ---       #1544
      01008E95H   LINE      CODE     ---       #1547
      01008EAFH   LINE      CODE     ---       #1548
      01008ECAH   LINE      CODE     ---       #1549
      ---         BLOCKEND  ---      ---       LVL=0

      0100A995H   BLOCK     CODE     ---       LVL=0
      0100A995H   BLOCK     CODE     NEAR LAB  LVL=1
      00000067H   SYMBOL    DATA     BYTE      index
      02000021H   SYMBOL    XDATA    ---       packet_data
      ---         BLOCKEND  ---      ---       LVL=1
      0100A995H   LINE      CODE     ---       #1551
      0100A995H   LINE      CODE     ---       #1566
      0100A99BH   LINE      CODE     ---       #1568
      0100A9A5H   LINE      CODE     ---       #1569
      0100A9CDH   LINE      CODE     ---       #1578
      0100A9DDH   LINE      CODE     ---       #1579
      0100A9EEH   LINE      CODE     ---       #1581
      ---         BLOCKEND  ---      ---       LVL=0

      0100AD3FH   BLOCK     CODE     ---       LVL=0
      0100AD3FH   LINE      CODE     ---       #1583
      0100AD3FH   LINE      CODE     ---       #1586
      0100AD47H   LINE      CODE     ---       #1589
      0100AD51H   LINE      CODE     ---       #1590
      0100AD51H   LINE      CODE     ---       #1591
      0100AD65H   LINE      CODE     ---       #1592
      0100AD79H   LINE      CODE     ---       #1593
      0100AD79H   LINE      CODE     ---       #1602
      0100AD81H   LINE      CODE     ---       #1604
      ---         BLOCKEND  ---      ---       LVL=0

LX51 LINKER/LOCATER V4.64.0.0                                                         01/12/2018  13:27:04  PAGE 56


      0100AD82H   BLOCK     CODE     ---       LVL=0
      0100AD82H   LINE      CODE     ---       #1606
      0100AD82H   LINE      CODE     ---       #1608
      0100AD8BH   LINE      CODE     ---       #1610
      0100AD90H   LINE      CODE     ---       #1611
      0100AD95H   LINE      CODE     ---       #1612
      0100AD96H   LINE      CODE     ---       #1613
      0100AD96H   LINE      CODE     ---       #1615
      0100AD9FH   LINE      CODE     ---       #1616
      0100ADA2H   LINE      CODE     ---       #1621
      0100ADBAH   LINE      CODE     ---       #1622
      0100ADBDH   LINE      CODE     ---       #1623
      0100ADC2H   LINE      CODE     ---       #1624
      0100ADC2H   LINE      CODE     ---       #1625
      ---         BLOCKEND  ---      ---       LVL=0

      0100B0D5H   BLOCK     CODE     ---       LVL=0
      0100B0D5H   BLOCK     CODE     NEAR LAB  LVL=1
      02000021H   SYMBOL    XDATA    ---       packet_data
      ---         BLOCKEND  ---      ---       LVL=1
      0100B0D5H   LINE      CODE     ---       #1627
      0100B0D5H   LINE      CODE     ---       #1632
      0100B0DBH   LINE      CODE     ---       #1635
      0100B0E3H   LINE      CODE     ---       #1638
      0100B0F3H   LINE      CODE     ---       #1641
      0100B104H   LINE      CODE     ---       #1643
      ---         BLOCKEND  ---      ---       LVL=0

      0100B422H   BLOCK     CODE     ---       LVL=0
      0100B422H   BLOCK     CODE     NEAR LAB  LVL=1
      02000021H   SYMBOL    XDATA    ---       packet_data
      ---         BLOCKEND  ---      ---       LVL=1
      0100B422H   LINE      CODE     ---       #1645
      0100B422H   LINE      CODE     ---       #1650
      0100B427H   LINE      CODE     ---       #1653
      0100B429H   LINE      CODE     ---       #1656
      0100B439H   LINE      CODE     ---       #1657
      ---         BLOCKEND  ---      ---       LVL=0

      01007A2AH   BLOCK     CODE     ---       LVL=0
      01007A2AH   BLOCK     CODE     NEAR LAB  LVL=1
      00000067H   SYMBOL    DATA     BYTE      packet_lenght
      00000068H   SYMBOL    DATA     ---       packet_data
      0000006AH   SYMBOL    DATA     BYTE      old_id
      ---         BLOCKEND  ---      ---       LVL=1
      01007A2AH   LINE      CODE     ---       #1659
      01007A2AH   LINE      CODE     ---       #1661
      01007A2DH   LINE      CODE     ---       #1666
      01007A36H   LINE      CODE     ---       #1668
      01007A57H   LINE      CODE     ---       #1670
      01007A83H   LINE      CODE     ---       #1672
      01007AAFH   LINE      CODE     ---       #1673
      01007AAFH   LINE      CODE     ---       #1675
      01007AD0H   LINE      CODE     ---       #1677
      01007AFCH   LINE      CODE     ---       #1679
      01007B28H   LINE      CODE     ---       #1680
      01007B28H   LINE      CODE     ---       #1682
      01007B4AH   LINE      CODE     ---       #1683
      01007BA1H   LINE      CODE     ---       #1685
      01007BC3H   LINE      CODE     ---       #1686
      01007C1AH   LINE      CODE     ---       #1689
      01007C23H   LINE      CODE     ---       #1690
      01007C57H   LINE      CODE     ---       #1691
      01007C8DH   LINE      CODE     ---       #1693
      01007CC3H   LINE      CODE     ---       #1694
LX51 LINKER/LOCATER V4.64.0.0                                                         01/12/2018  13:27:04  PAGE 57


      01007CF9H   LINE      CODE     ---       #1695
      01007CF9H   LINE      CODE     ---       #1696
      01007CF9H   LINE      CODE     ---       #1699
      01007D06H   LINE      CODE     ---       #1700
      01007D08H   LINE      CODE     ---       #1701
      01007D11H   LINE      CODE     ---       #1702
      01007D14H   LINE      CODE     ---       #1703
      01007D17H   LINE      CODE     ---       #1704
      01007D2BH   LINE      CODE     ---       #1705
      01007D2CH   LINE      CODE     ---       #1706
      01007D2CH   LINE      CODE     ---       #1707
      01007D2FH   LINE      CODE     ---       #1708
      01007D31H   LINE      CODE     ---       #1709
      01007D44H   LINE      CODE     ---       #1710
      01007D44H   LINE      CODE     ---       #1711
      01007D45H   LINE      CODE     ---       #1712
      01007D45H   LINE      CODE     ---       #1713
      01007D4EH   LINE      CODE     ---       #1714
      01007D53H   LINE      CODE     ---       #1715
      01007D54H   LINE      CODE     ---       #1716
      01007D59H   LINE      CODE     ---       #1717
      01007D59H   LINE      CODE     ---       #1718
      01007D59H   LINE      CODE     ---       #1719
      ---         BLOCKEND  ---      ---       LVL=0

      0100B2ECH   BLOCK     CODE     ---       LVL=0
      0100B2ECH   LINE      CODE     ---       #1721
      0100B2ECH   LINE      CODE     ---       #1724
      0100B2F4H   LINE      CODE     ---       #1726
      0100B2F8H   LINE      CODE     ---       #1727
      0100B2F8H   LINE      CODE     ---       #1728
      0100B301H   LINE      CODE     ---       #1729
      0100B302H   LINE      CODE     ---       #1730
      0100B302H   LINE      CODE     ---       #1731
      0100B30BH   LINE      CODE     ---       #1732
      0100B30BH   LINE      CODE     ---       #1733
      ---         BLOCKEND  ---      ---       LVL=0

      ---         MODULE    ---      ---       GLOBALS
      02000C7DH   PUBLIC    XDATA    BYTE      dev_pwm_limit
      00000021H.7 PUBLIC    BIT      BIT       tension_valid
      00000021H.6 PUBLIC    BIT      BIT       interrupt_flag
      02000C5EH   PUBLIC    XDATA    ---       g_meas
      02000C5CH   PUBLIC    XDATA    ---       pwm_sign
      02000C56H   PUBLIC    XDATA    ---       ADC_buf
      02000C52H   PUBLIC    XDATA    DWORD     timer_value0
      00000021H.5 PUBLIC    BIT      BIT       watchdog_flag
      00000021H.4 PUBLIC    BIT      BIT       reset_last_value_flag
      02000C49H   PUBLIC    XDATA    ---       g_refNew
      02000BC4H   PUBLIC    XDATA    ---       g_rx
      02000BBBH   PUBLIC    XDATA    ---       g_refOld
      02000BB7H   PUBLIC    XDATA    LONG      dev_tension
      02000BB3H   PUBLIC    XDATA    DWORD     timer_value
      00000021H.3 PUBLIC    BIT      BIT       cuff_flag_force
      00000021H.2 PUBLIC    BIT      BIT       cuff_flag_proprio
      02000B94H   PUBLIC    XDATA    ---       g_measOld
      02000B93H   PUBLIC    XDATA    BYTE      calibration_flag
      02000B0FH   PUBLIC    XDATA    ---       g_mem
      02000B06H   PUBLIC    XDATA    ---       g_ref
      02000A82H   PUBLIC    XDATA    ---       c_mem
      000000CAH   SFRSYM    DATA     BYTE      SFRPRT5SEL
      000000DAH   SFRSYM    DATA     BYTE      SFRPRT6SEL
      000000D0H.6 SFRSYM    DATA     BIT       AC
      000000A8H.7 SFRSYM    DATA     BIT       EA
      000000A8H   SFRSYM    DATA     BYTE      IE
LX51 LINKER/LOCATER V4.64.0.0                                                         01/12/2018  13:27:04  PAGE 58


      00000085H   SFRSYM    DATA     BYTE      DPH1
      00000084H   SFRSYM    DATA     BYTE      DPL1
      000000D0H.7 SFRSYM    DATA     BIT       CY
      000000A0H   SFRSYM    DATA     BYTE      P2AX
      00000095H   SFRSYM    DATA     BYTE      DPX1
      00000081H   SFRSYM    DATA     BYTE      SP
      000000D0H.2 SFRSYM    DATA     BIT       OV
      00000080H   SFRSYM    DATA     BYTE      SFRPRT0DR
      00000090H   SFRSYM    DATA     BYTE      SFRPRT1DR
      000000F2H   SFRSYM    DATA     BYTE      SFRPRT12SEL
      00000098H   SFRSYM    DATA     BYTE      SFRPRT2DR
      000000B0H   SFRSYM    DATA     BYTE      SFRPRT3DR
      000000C0H   SFRSYM    DATA     BYTE      SFRPRT4DR
      000000FAH   SFRSYM    DATA     BYTE      SFRPRT15SEL
      000000C8H   SFRSYM    DATA     BYTE      SFRPRT5DR
      000000D8H   SFRSYM    DATA     BYTE      SFRPRT6DR
      00000089H   SFRSYM    DATA     BYTE      SFRPRT0PS
      00000091H   SFRSYM    DATA     BYTE      SFRPRT1PS
      00000099H   SFRSYM    DATA     BYTE      SFRPRT2PS
      000000B1H   SFRSYM    DATA     BYTE      SFRPRT3PS
      000000C1H   SFRSYM    DATA     BYTE      SFRPRT4PS
      000000C9H   SFRSYM    DATA     BYTE      SFRPRT5PS
      000000D9H   SFRSYM    DATA     BYTE      SFRPRT6PS
      000000EAH   SFRSYM    DATA     BYTE      MXAX
      000000F0H   SFRSYM    DATA     BYTE      B
      000000E0H   SFRSYM    DATA     BYTE      ACC
      000000D0H   SFRSYM    DATA     BIT       P
      000000D0H.3 SFRSYM    DATA     BIT       RS0
      000000D0H.4 SFRSYM    DATA     BIT       RS1
      00000083H   SFRSYM    DATA     BYTE      DPH
      000000E8H   SFRSYM    DATA     BYTE      SFRPRT12DR
      00000082H   SFRSYM    DATA     BYTE      DPL
      000000F8H   SFRSYM    DATA     BYTE      SFRPRT15DR
      00000086H   SFRSYM    DATA     BYTE      DPS
      000000E9H   SFRSYM    DATA     BYTE      SFRPRT12PS
      00000093H   SFRSYM    DATA     BYTE      DPX
      000000F9H   SFRSYM    DATA     BYTE      SFRPRT15PS
      000000D0H.5 SFRSYM    DATA     BIT       F0
      000000D0H.1 SFRSYM    DATA     BIT       F1
      0000008AH   SFRSYM    DATA     BYTE      SFRPRT0SEL
      000000D0H   SFRSYM    DATA     BYTE      PSW
      000000A2H   SFRSYM    DATA     BYTE      SFRPRT1SEL
      0000009AH   SFRSYM    DATA     BYTE      SFRPRT2SEL
      000000B2H   SFRSYM    DATA     BYTE      SFRPRT3SEL
      000000C2H   SFRSYM    DATA     BYTE      SFRPRT4SEL

      ---         MODULE    ---      ---       MAIN
      0100804FH   PUBLIC    CODE     ---       main
      000000CAH   SFRSYM    DATA     BYTE      SFRPRT5SEL
      000000DAH   SFRSYM    DATA     BYTE      SFRPRT6SEL
      000000D0H.6 SFRSYM    DATA     BIT       AC
      000000A8H.7 SFRSYM    DATA     BIT       EA
      000000A8H   SFRSYM    DATA     BYTE      IE
      00000085H   SFRSYM    DATA     BYTE      DPH1
      00000084H   SFRSYM    DATA     BYTE      DPL1
      000000D0H.7 SFRSYM    DATA     BIT       CY
      000000A0H   SFRSYM    DATA     BYTE      P2AX
      00000095H   SFRSYM    DATA     BYTE      DPX1
      00000081H   SFRSYM    DATA     BYTE      SP
      000000D0H.2 SFRSYM    DATA     BIT       OV
      00000080H   SFRSYM    DATA     BYTE      SFRPRT0DR
      00000090H   SFRSYM    DATA     BYTE      SFRPRT1DR
      000000F2H   SFRSYM    DATA     BYTE      SFRPRT12SEL
      00000098H   SFRSYM    DATA     BYTE      SFRPRT2DR
      000000B0H   SFRSYM    DATA     BYTE      SFRPRT3DR
LX51 LINKER/LOCATER V4.64.0.0                                                         01/12/2018  13:27:04  PAGE 59


      000000C0H   SFRSYM    DATA     BYTE      SFRPRT4DR
      000000FAH   SFRSYM    DATA     BYTE      SFRPRT15SEL
      000000C8H   SFRSYM    DATA     BYTE      SFRPRT5DR
      000000D8H   SFRSYM    DATA     BYTE      SFRPRT6DR
      00000089H   SFRSYM    DATA     BYTE      SFRPRT0PS
      00000091H   SFRSYM    DATA     BYTE      SFRPRT1PS
      00000099H   SFRSYM    DATA     BYTE      SFRPRT2PS
      000000B1H   SFRSYM    DATA     BYTE      SFRPRT3PS
      000000C1H   SFRSYM    DATA     BYTE      SFRPRT4PS
      000000C9H   SFRSYM    DATA     BYTE      SFRPRT5PS
      000000D9H   SFRSYM    DATA     BYTE      SFRPRT6PS
      000000EAH   SFRSYM    DATA     BYTE      MXAX
      000000F0H   SFRSYM    DATA     BYTE      B
      000000E0H   SFRSYM    DATA     BYTE      ACC
      000000D0H   SFRSYM    DATA     BIT       P
      000000D0H.3 SFRSYM    DATA     BIT       RS0
      000000D0H.4 SFRSYM    DATA     BIT       RS1
      00000083H   SFRSYM    DATA     BYTE      DPH
      000000E8H   SFRSYM    DATA     BYTE      SFRPRT12DR
      00000082H   SFRSYM    DATA     BYTE      DPL
      000000F8H   SFRSYM    DATA     BYTE      SFRPRT15DR
      00000086H   SFRSYM    DATA     BYTE      DPS
      000000E9H   SFRSYM    DATA     BYTE      SFRPRT12PS
      00000093H   SFRSYM    DATA     BYTE      DPX
      000000F9H   SFRSYM    DATA     BYTE      SFRPRT15PS
      000000D0H.5 SFRSYM    DATA     BIT       F0
      000000D0H.1 SFRSYM    DATA     BIT       F1
      0000008AH   SFRSYM    DATA     BYTE      SFRPRT0SEL
      000000D0H   SFRSYM    DATA     BYTE      PSW
      000000A2H   SFRSYM    DATA     BYTE      SFRPRT1SEL
      0000009AH   SFRSYM    DATA     BYTE      SFRPRT2SEL
      000000B2H   SFRSYM    DATA     BYTE      SFRPRT3SEL
      000000C2H   SFRSYM    DATA     BYTE      SFRPRT4SEL

      0100804FH   BLOCK     CODE     ---       LVL=0
      0100804FH   BLOCK     CODE     NEAR LAB  LVL=1
      02000000H   SYMBOL    XDATA    BYTE      i
      02000001H   SYMBOL    XDATA    BYTE      DMA_Chan
      02000002H   SYMBOL    XDATA    ---       DMA_TD
      ---         BLOCKEND  ---      ---       LVL=1
      0100804FH   LINE      CODE     ---       #69
      0100804FH   LINE      CODE     ---       #83
      01008052H   LINE      CODE     ---       #84
      01008055H   LINE      CODE     ---       #88
      0100805EH   LINE      CODE     ---       #89
      01008063H   LINE      CODE     ---       #93
      01008066H   LINE      CODE     ---       #94
      01008069H   LINE      CODE     ---       #95
      0100806CH   LINE      CODE     ---       #97
      0100806FH   LINE      CODE     ---       #98
      01008072H   LINE      CODE     ---       #100
      01008079H   LINE      CODE     ---       #104
      0100807CH   LINE      CODE     ---       #106
      01008083H   LINE      CODE     ---       #110
      01008086H   LINE      CODE     ---       #111
      0100808BH   LINE      CODE     ---       #112
      01008090H   LINE      CODE     ---       #113
      01008095H   LINE      CODE     ---       #114
      0100809AH   LINE      CODE     ---       #119
      0100809DH   LINE      CODE     ---       #120
      010080A0H   LINE      CODE     ---       #121
      010080A3H   LINE      CODE     ---       #122
      010080A6H   LINE      CODE     ---       #131
      010080A9H   LINE      CODE     ---       #132
      010080AEH   LINE      CODE     ---       #135
LX51 LINKER/LOCATER V4.64.0.0                                                         01/12/2018  13:27:04  PAGE 60


      010080C3H   LINE      CODE     ---       #136
      010080CBH   LINE      CODE     ---       #137
      010080DBH   LINE      CODE     ---       #138
      010080F2H   LINE      CODE     ---       #139
      010080FDH   LINE      CODE     ---       #141
      01008107H   LINE      CODE     ---       #143
      0100810CH   LINE      CODE     ---       #147
      0100810FH   LINE      CODE     ---       #148
      01008112H   LINE      CODE     ---       #150
      0100811AH   LINE      CODE     ---       #154
      01008123H   LINE      CODE     ---       #157
      01008133H   LINE      CODE     ---       #158
      0100814BH   LINE      CODE     ---       #161
      0100815BH   LINE      CODE     ---       #162
      01008172H   LINE      CODE     ---       #163
      0100817EH   LINE      CODE     ---       #164
      01008180H   LINE      CODE     ---       #168
      01008188H   LINE      CODE     ---       #171
      0100818FH   LINE      CODE     ---       #172
      01008193H   LINE      CODE     ---       #175
      010081B3H   LINE      CODE     ---       #176
      010081BCH   LINE      CODE     ---       #177
      010081C3H   LINE      CODE     ---       #179
      010081C8H   LINE      CODE     ---       #181
      010081D7H   LINE      CODE     ---       #182
      010081DCH   LINE      CODE     ---       #183
      0100820DH   LINE      CODE     ---       #184
      01008215H   LINE      CODE     ---       #186
      0100821EH   LINE      CODE     ---       #187
      01008225H   LINE      CODE     ---       #189
      0100822AH   LINE      CODE     ---       #191
      0100823DH   LINE      CODE     ---       #193
      01008245H   LINE      CODE     ---       #195
      0100824AH   LINE      CODE     ---       #196
      0100824CH   LINE      CODE     ---       #198
      01008254H   LINE      CODE     ---       #199
      0100825CH   LINE      CODE     ---       #200
      01008261H   LINE      CODE     ---       #201
      01008263H   LINE      CODE     ---       #205
      01008269H   LINE      CODE     ---       #206
      01008270H   LINE      CODE     ---       #208
      01008275H   LINE      CODE     ---       #212
      01008275H   LINE      CODE     ---       #213
      01008275H   LINE      CODE     ---       #215
      0100827AH   LINE      CODE     ---       #218
      0100827DH   LINE      CODE     ---       #221
      01008283H   LINE      CODE     ---       #223
      01008286H   LINE      CODE     ---       #225
      0100828BH   LINE      CODE     ---       #227
      0100828DH   LINE      CODE     ---       #228
      0100828FH   LINE      CODE     ---       #230
      01008292H   LINE      CODE     ---       #231
      01008294H   LINE      CODE     ---       #233
      01008294H   LINE      CODE     ---       #234
      01008297H   LINE      CODE     ---       #236
      0100829CH   LINE      CODE     ---       #238
      010082A1H   LINE      CODE     ---       #239
      010082A1H   LINE      CODE     ---       #240
      010082A1H   LINE      CODE     ---       #241
      010082A3H   LINE      CODE     ---       #244
      010082A8H   LINE      CODE     ---       #247
      010082B0H   LINE      CODE     ---       #249
      010082B7H   LINE      CODE     ---       #250
      010082BAH   LINE      CODE     ---       #251
      010082BCH   LINE      CODE     ---       #252
LX51 LINKER/LOCATER V4.64.0.0                                                         01/12/2018  13:27:04  PAGE 61


      010082BCH   LINE      CODE     ---       #253
      ---         BLOCKEND  ---      ---       LVL=0

      ---         MODULE    ---      ---       UTILS
      0100B041H   PUBLIC    CODE     ---       _LCRChecksum
      0100A79EH   PUBLIC    CODE     ---       _check_enc_data
      0100A645H   PUBLIC    CODE     ---       _filter_i2
      0100A5D0H   PUBLIC    CODE     ---       _filter_i1
      000000CAH   SFRSYM    DATA     BYTE      SFRPRT5SEL
      000000DAH   SFRSYM    DATA     BYTE      SFRPRT6SEL
      000000D0H.6 SFRSYM    DATA     BIT       AC
      000000A8H.7 SFRSYM    DATA     BIT       EA
      000000A8H   SFRSYM    DATA     BYTE      IE
      00000085H   SFRSYM    DATA     BYTE      DPH1
      00000084H   SFRSYM    DATA     BYTE      DPL1
      000000D0H.7 SFRSYM    DATA     BIT       CY
      000000A0H   SFRSYM    DATA     BYTE      P2AX
      00000095H   SFRSYM    DATA     BYTE      DPX1
      00000081H   SFRSYM    DATA     BYTE      SP
      000000D0H.2 SFRSYM    DATA     BIT       OV
      00000080H   SFRSYM    DATA     BYTE      SFRPRT0DR
      00000090H   SFRSYM    DATA     BYTE      SFRPRT1DR
      000000F2H   SFRSYM    DATA     BYTE      SFRPRT12SEL
      00000098H   SFRSYM    DATA     BYTE      SFRPRT2DR
      000000B0H   SFRSYM    DATA     BYTE      SFRPRT3DR
      000000C0H   SFRSYM    DATA     BYTE      SFRPRT4DR
      000000FAH   SFRSYM    DATA     BYTE      SFRPRT15SEL
      000000C8H   SFRSYM    DATA     BYTE      SFRPRT5DR
      000000D8H   SFRSYM    DATA     BYTE      SFRPRT6DR
      00000089H   SFRSYM    DATA     BYTE      SFRPRT0PS
      00000091H   SFRSYM    DATA     BYTE      SFRPRT1PS
      00000099H   SFRSYM    DATA     BYTE      SFRPRT2PS
      000000B1H   SFRSYM    DATA     BYTE      SFRPRT3PS
      000000C1H   SFRSYM    DATA     BYTE      SFRPRT4PS
      000000C9H   SFRSYM    DATA     BYTE      SFRPRT5PS
      000000D9H   SFRSYM    DATA     BYTE      SFRPRT6PS
      000000EAH   SFRSYM    DATA     BYTE      MXAX
      000000F0H   SFRSYM    DATA     BYTE      B
      000000E0H   SFRSYM    DATA     BYTE      ACC
      000000D0H   SFRSYM    DATA     BIT       P
      000000D0H.3 SFRSYM    DATA     BIT       RS0
      000000D0H.4 SFRSYM    DATA     BIT       RS1
      00000083H   SFRSYM    DATA     BYTE      DPH
      000000E8H   SFRSYM    DATA     BYTE      SFRPRT12DR
      00000082H   SFRSYM    DATA     BYTE      DPL
      000000F8H   SFRSYM    DATA     BYTE      SFRPRT15DR
      00000086H   SFRSYM    DATA     BYTE      DPS
      000000E9H   SFRSYM    DATA     BYTE      SFRPRT12PS
      00000093H   SFRSYM    DATA     BYTE      DPX
      000000F9H   SFRSYM    DATA     BYTE      SFRPRT15PS
      000000D0H.5 SFRSYM    DATA     BIT       F0
      000000D0H.1 SFRSYM    DATA     BIT       F1
      0000008AH   SFRSYM    DATA     BYTE      SFRPRT0SEL
      000000D0H   SFRSYM    DATA     BYTE      PSW
      000000A2H   SFRSYM    DATA     BYTE      SFRPRT1SEL
      0000009AH   SFRSYM    DATA     BYTE      SFRPRT2SEL
      000000B2H   SFRSYM    DATA     BYTE      SFRPRT3SEL
      000000C2H   SFRSYM    DATA     BYTE      SFRPRT4SEL

      0100A5D0H   BLOCK     CODE     ---       LVL=0
      00000004H   SYMBOL    DATA     LONG      new_value
      0100A5D0H   BLOCK     CODE     NEAR LAB  LVL=1
      02000D77H   SYMBOL    XDATA    LONG      old_value
      02000D7BH   SYMBOL    XDATA    LONG      aux
      ---         BLOCKEND  ---      ---       LVL=1
LX51 LINKER/LOCATER V4.64.0.0                                                         01/12/2018  13:27:04  PAGE 62


      0100A5D0H   LINE      CODE     ---       #56
      0100A5D0H   LINE      CODE     ---       #60
      0100A61DH   LINE      CODE     ---       #62
      0100A631H   LINE      CODE     ---       #64
      0100A644H   LINE      CODE     ---       #65
      ---         BLOCKEND  ---      ---       LVL=0

      0100A645H   BLOCK     CODE     ---       LVL=0
      00000004H   SYMBOL    DATA     LONG      new_value
      0100A645H   BLOCK     CODE     NEAR LAB  LVL=1
      02000D7FH   SYMBOL    XDATA    LONG      old_value
      02000D83H   SYMBOL    XDATA    LONG      aux
      ---         BLOCKEND  ---      ---       LVL=1
      0100A645H   LINE      CODE     ---       #67
      0100A645H   LINE      CODE     ---       #71
      0100A692H   LINE      CODE     ---       #73
      0100A6A6H   LINE      CODE     ---       #75
      0100A6B9H   LINE      CODE     ---       #76
      ---         BLOCKEND  ---      ---       LVL=0
      00000004H   SYMBOL    DATA     LONG      new_value
      02000D87H   SYMBOL    XDATA    LONG      old_value
      02000D8BH   SYMBOL    XDATA    LONG      aux
      00000004H   SYMBOL    DATA     LONG      new_value
      02000D8FH   SYMBOL    XDATA    LONG      old_value
      02000D93H   SYMBOL    XDATA    LONG      aux
      00000004H   SYMBOL    DATA     LONG      new_value
      02000D97H   SYMBOL    XDATA    LONG      old_value
      02000D9BH   SYMBOL    XDATA    LONG      aux

      0100A79EH   BLOCK     CODE     ---       LVL=0
      00000001H   SYMBOL    DATA     ---       value
      0100A79EH   BLOCK     CODE     NEAR LAB  LVL=1
      00000010H   SYMBOL    IDATA    ---       p
      00000024H   SYMBOL    DATA     BYTE      a
      ---         BLOCKEND  ---      ---       LVL=1
      0100A79EH   LINE      CODE     ---       #122
      0100A79EH   LINE      CODE     ---       #124
      0100A7A8H   LINE      CODE     ---       #125
      0100A7ADH   LINE      CODE     ---       #127
      0100A7C1H   LINE      CODE     ---       #128
      0100A7D5H   LINE      CODE     ---       #129
      0100A7E9H   LINE      CODE     ---       #130
      0100A7F6H   LINE      CODE     ---       #132
      0100A808H   LINE      CODE     ---       #134
      ---         BLOCKEND  ---      ---       LVL=0

      0100B041H   BLOCK     CODE     ---       LVL=0
      02000A52H   SYMBOL    XDATA    ---       data_array
      00000005H   SYMBOL    DATA     BYTE      data_length
      0100B04CH   BLOCK     CODE     NEAR LAB  LVL=1
      0000007BH   SYMBOL    DATA     BYTE      i
      0000007CH   SYMBOL    DATA     BYTE      checksum
      ---         BLOCKEND  ---      ---       LVL=1
      0100B041H   LINE      CODE     ---       #143
      0100B04CH   LINE      CODE     ---       #146
      0100B04FH   LINE      CODE     ---       #148
      0100B057H   LINE      CODE     ---       #149
      0100B070H   LINE      CODE     ---       #151
      0100B072H   LINE      CODE     ---       #152
      ---         BLOCKEND  ---      ---       LVL=0

      ---         MODULE    ---      ---       INTERRUPTIONS
      0100C467H   PUBLIC    CONST    ---       hitech_pwm_preload_values_6v
      0100C443H   PUBLIC    CONST    ---       hitech_pwm_preload_values
      0100C426H   PUBLIC    CONST    ---       pwm_preload_values
LX51 LINKER/LOCATER V4.64.0.0                                                         01/12/2018  13:27:04  PAGE 63


      01009606H   PUBLIC    CODE     ---       pwm_limit_search
      010086B2H   PUBLIC    CODE     ---       calibration
      01007D5AH   PUBLIC    CODE     ---       _encoder_reading
      01009961H   PUBLIC    CODE     ---       analog_read_end
      01005DB5H   PUBLIC    CODE     ---       _motor_control
      01009A63H   PUBLIC    CODE     ---       function_scheduler
      010093A8H   PUBLIC    CODE     ---       interrupt_manager
      0100B8C5H   PUBLIC    CODE     ---       ISR_RS485_RX_ExInterrupt
      0100B8C2H   PUBLIC    CODE     ---       ISR_WATCHDOG_Handler
      000000CAH   SFRSYM    DATA     BYTE      SFRPRT5SEL
      000000DAH   SFRSYM    DATA     BYTE      SFRPRT6SEL
      000000D0H.6 SFRSYM    DATA     BIT       AC
      000000A8H.7 SFRSYM    DATA     BIT       EA
      000000A8H   SFRSYM    DATA     BYTE      IE
      00000085H   SFRSYM    DATA     BYTE      DPH1
      00000084H   SFRSYM    DATA     BYTE      DPL1
      000000D0H.7 SFRSYM    DATA     BIT       CY
      000000A0H   SFRSYM    DATA     BYTE      P2AX
      00000095H   SFRSYM    DATA     BYTE      DPX1
      00000081H   SFRSYM    DATA     BYTE      SP
      000000D0H.2 SFRSYM    DATA     BIT       OV
      00000080H   SFRSYM    DATA     BYTE      SFRPRT0DR
      00000090H   SFRSYM    DATA     BYTE      SFRPRT1DR
      000000F2H   SFRSYM    DATA     BYTE      SFRPRT12SEL
      00000098H   SFRSYM    DATA     BYTE      SFRPRT2DR
      000000B0H   SFRSYM    DATA     BYTE      SFRPRT3DR
      000000C0H   SFRSYM    DATA     BYTE      SFRPRT4DR
      000000FAH   SFRSYM    DATA     BYTE      SFRPRT15SEL
      000000C8H   SFRSYM    DATA     BYTE      SFRPRT5DR
      000000D8H   SFRSYM    DATA     BYTE      SFRPRT6DR
      00000089H   SFRSYM    DATA     BYTE      SFRPRT0PS
      00000091H   SFRSYM    DATA     BYTE      SFRPRT1PS
      00000099H   SFRSYM    DATA     BYTE      SFRPRT2PS
      000000B1H   SFRSYM    DATA     BYTE      SFRPRT3PS
      000000C1H   SFRSYM    DATA     BYTE      SFRPRT4PS
      000000C9H   SFRSYM    DATA     BYTE      SFRPRT5PS
      000000D9H   SFRSYM    DATA     BYTE      SFRPRT6PS
      000000EAH   SFRSYM    DATA     BYTE      MXAX
      000000F0H   SFRSYM    DATA     BYTE      B
      000000E0H   SFRSYM    DATA     BYTE      ACC
      000000D0H   SFRSYM    DATA     BIT       P
      000000D0H.3 SFRSYM    DATA     BIT       RS0
      000000D0H.4 SFRSYM    DATA     BIT       RS1
      00000083H   SFRSYM    DATA     BYTE      DPH
      000000E8H   SFRSYM    DATA     BYTE      SFRPRT12DR
      00000082H   SFRSYM    DATA     BYTE      DPL
      000000F8H   SFRSYM    DATA     BYTE      SFRPRT15DR
      00000086H   SFRSYM    DATA     BYTE      DPS
      000000E9H   SFRSYM    DATA     BYTE      SFRPRT12PS
      00000093H   SFRSYM    DATA     BYTE      DPX
      000000F9H   SFRSYM    DATA     BYTE      SFRPRT15PS
      000000D0H.5 SFRSYM    DATA     BIT       F0
      000000D0H.1 SFRSYM    DATA     BIT       F1
      0000008AH   SFRSYM    DATA     BYTE      SFRPRT0SEL
      000000D0H   SFRSYM    DATA     BYTE      PSW
      000000A2H   SFRSYM    DATA     BYTE      SFRPRT1SEL
      0000009AH   SFRSYM    DATA     BYTE      SFRPRT2SEL
      000000B2H   SFRSYM    DATA     BYTE      SFRPRT3SEL
      000000C2H   SFRSYM    DATA     BYTE      SFRPRT4SEL

      0100B8C2H   BLOCK     CODE     ---       LVL=0
      0100B8C2H   LINE      CODE     ---       #161
      0100B8C2H   LINE      CODE     ---       #165
      0100B8C4H   LINE      CODE     ---       #167
      ---         BLOCKEND  ---      ---       LVL=0
LX51 LINKER/LOCATER V4.64.0.0                                                         01/12/2018  13:27:04  PAGE 64



      0100B8C5H   BLOCK     CODE     ---       LVL=0
      0100B8C5H   LINE      CODE     ---       #173
      0100B8C5H   LINE      CODE     ---       #177
      0100B8C7H   LINE      CODE     ---       #179
      ---         BLOCKEND  ---      ---       LVL=0

      010093A8H   BLOCK     CODE     ---       LVL=0
      010093A8H   BLOCK     CODE     NEAR LAB  LVL=1
      00000008H   SYMBOL    DATA     BYTE      state
      00000009H   SYMBOL    DATA     BYTE      data_packet_index
      0000000AH   SYMBOL    DATA     BYTE      data_packet_length
      02000C7EH   SYMBOL    XDATA    ---       data_packet_buffer
      0000000BH   SYMBOL    DATA     ---       rx_queue
      00000064H   SYMBOL    DATA     BYTE      rx_data
      00000020H.0 SYMBOL    BIT      BIT       rx_data_type
      00000065H   SYMBOL    DATA     BYTE      package_count
      ---         BLOCKEND  ---      ---       LVL=1
      010093A8H   LINE      CODE     ---       #196
      010093A8H   LINE      CODE     ---       #212
      010093ABH   LINE      CODE     ---       #218
      010093BEH   LINE      CODE     ---       #222
      010093C3H   LINE      CODE     ---       #224
      010093DBH   LINE      CODE     ---       #226
      010093DBH   LINE      CODE     ---       #228
      010093DEH   LINE      CODE     ---       #229
      010093E1H   LINE      CODE     ---       #230
      010093E4H   LINE      CODE     ---       #233
      010093EEH   LINE      CODE     ---       #234
      010093F1H   LINE      CODE     ---       #235
      010093F3H   LINE      CODE     ---       #236
      010093F5H   LINE      CODE     ---       #237
      010093F8H   LINE      CODE     ---       #238
      010093FAH   LINE      CODE     ---       #239
      0100940AH   LINE      CODE     ---       #242
      0100940FH   LINE      CODE     ---       #243
      01009411H   LINE      CODE     ---       #246
      01009411H   LINE      CODE     ---       #249
      01009424H   LINE      CODE     ---       #250
      01009428H   LINE      CODE     ---       #252
      0100942AH   LINE      CODE     ---       #254
      0100942DH   LINE      CODE     ---       #255
      01009430H   LINE      CODE     ---       #256
      01009433H   LINE      CODE     ---       #259
      01009433H   LINE      CODE     ---       #262
      01009436H   LINE      CODE     ---       #264
      0100943DH   LINE      CODE     ---       #265
      01009440H   LINE      CODE     ---       #266
      01009442H   LINE      CODE     ---       #267
      0100944CH   LINE      CODE     ---       #268
      0100944FH   LINE      CODE     ---       #269
      01009451H   LINE      CODE     ---       #270
      01009454H   LINE      CODE     ---       #271
      01009457H   LINE      CODE     ---       #273
      0100945AH   LINE      CODE     ---       #274
      01009460H   LINE      CODE     ---       #276
      01009463H   LINE      CODE     ---       #277
      01009463H   LINE      CODE     ---       #278
      01009466H   LINE      CODE     ---       #281
      01009466H   LINE      CODE     ---       #283
      01009474H   LINE      CODE     ---       #284
      01009476H   LINE      CODE     ---       #287
      01009480H   LINE      CODE     ---       #289
      01009483H   LINE      CODE     ---       #291
      01009496H   LINE      CODE     ---       #292
LX51 LINKER/LOCATER V4.64.0.0                                                         01/12/2018  13:27:04  PAGE 65


      0100949FH   LINE      CODE     ---       #293
      010094A5H   LINE      CODE     ---       #294
      010094A8H   LINE      CODE     ---       #295
      010094A8H   LINE      CODE     ---       #297
      010094ABH   LINE      CODE     ---       #298
      010094ADH   LINE      CODE     ---       #299
      010094AFH   LINE      CODE     ---       #300
      010094B1H   LINE      CODE     ---       #302
      010094B1H   LINE      CODE     ---       #303
      010094B4H   LINE      CODE     ---       #306
      010094B4H   LINE      CODE     ---       #307
      010094BDH   LINE      CODE     ---       #308
      010094BFH   LINE      CODE     ---       #309
      010094C1H   LINE      CODE     ---       #310
      010094C6H   LINE      CODE     ---       #311
      010094CBH   LINE      CODE     ---       #312
      010094CEH   LINE      CODE     ---       #313
      010094D0H   LINE      CODE     ---       #314
      010094D0H   LINE      CODE     ---       #315
      010094D3H   LINE      CODE     ---       #316
      010094D3H   LINE      CODE     ---       #317
      010094D6H   LINE      CODE     ---       #318
      ---         BLOCKEND  ---      ---       LVL=0

      01009A63H   BLOCK     CODE     ---       LVL=0
      01009A63H   BLOCK     CODE     NEAR LAB  LVL=1
      02000CFEH   SYMBOL    XDATA    WORD      counter_calibration
      ---         BLOCKEND  ---      ---       LVL=1
      01009A63H   LINE      CODE     ---       #328
      01009A63H   LINE      CODE     ---       #334
      01009A6CH   LINE      CODE     ---       #336
      01009A71H   LINE      CODE     ---       #340
      01009A74H   LINE      CODE     ---       #341
      01009A76H   LINE      CODE     ---       #342
      01009A79H   LINE      CODE     ---       #343
      01009A79H   LINE      CODE     ---       #347
      01009A7FH   LINE      CODE     ---       #351
      01009A82H   LINE      CODE     ---       #352
      01009A84H   LINE      CODE     ---       #353
      01009A87H   LINE      CODE     ---       #354
      01009A87H   LINE      CODE     ---       #356
      01009A8EH   LINE      CODE     ---       #360
      01009A91H   LINE      CODE     ---       #361
      01009A93H   LINE      CODE     ---       #362
      01009A96H   LINE      CODE     ---       #363
      01009A96H   LINE      CODE     ---       #365
      01009A9DH   LINE      CODE     ---       #369
      01009AA0H   LINE      CODE     ---       #370
      01009AA2H   LINE      CODE     ---       #371
      01009AA5H   LINE      CODE     ---       #372
      01009AA5H   LINE      CODE     ---       #376
      01009AAAH   LINE      CODE     ---       #380
      01009AADH   LINE      CODE     ---       #381
      01009AAFH   LINE      CODE     ---       #382
      01009AB2H   LINE      CODE     ---       #383
      01009AB2H   LINE      CODE     ---       #385
      01009AB7H   LINE      CODE     ---       #389
      01009ABAH   LINE      CODE     ---       #390
      01009ABCH   LINE      CODE     ---       #391
      01009ABFH   LINE      CODE     ---       #392
      01009ABFH   LINE      CODE     ---       #396
      01009AC2H   LINE      CODE     ---       #401
      01009ACEH   LINE      CODE     ---       #402
      01009ADAH   LINE      CODE     ---       #403
      01009ADDH   LINE      CODE     ---       #404
LX51 LINKER/LOCATER V4.64.0.0                                                         01/12/2018  13:27:04  PAGE 66


      01009AE4H   LINE      CODE     ---       #405
      01009AE4H   LINE      CODE     ---       #406
      01009AF2H   LINE      CODE     ---       #407
      01009AF2H   LINE      CODE     ---       #410
      01009AF5H   LINE      CODE     ---       #411
      01009AF7H   LINE      CODE     ---       #412
      01009AFAH   LINE      CODE     ---       #413
      01009AFAH   LINE      CODE     ---       #415
      01009AFDH   LINE      CODE     ---       #416
      01009B00H   LINE      CODE     ---       #418
      01009B03H   LINE      CODE     ---       #419
      01009B06H   LINE      CODE     ---       #421
      01009B09H   LINE      CODE     ---       #422
      01009B0BH   LINE      CODE     ---       #423
      01009B0EH   LINE      CODE     ---       #424
      01009B0EH   LINE      CODE     ---       #429
      01009B21H   LINE      CODE     ---       #430
      01009B34H   LINE      CODE     ---       #433
      01009B47H   LINE      CODE     ---       #435
      01009B4AH   LINE      CODE     ---       #436
      01009B4CH   LINE      CODE     ---       #437
      01009B4FH   LINE      CODE     ---       #438
      01009B4FH   LINE      CODE     ---       #442
      01009B58H   LINE      CODE     ---       #443
      01009B63H   LINE      CODE     ---       #445
      ---         BLOCKEND  ---      ---       LVL=0

      01005DB5H   BLOCK     CODE     ---       LVL=0
      00000007H   SYMBOL    DATA     BYTE      idx
      01005DB5H   BLOCK     CODE     NEAR LAB  LVL=1
      00000023H   SYMBOL    DATA     BYTE      index
      00000024H   SYMBOL    DATA     LONG      curr_ref
      00000028H   SYMBOL    DATA     LONG      pwm_input
      0000002CH   SYMBOL    DATA     LONG      pos_error
      00000030H   SYMBOL    DATA     LONG      curr_error
      00000034H   SYMBOL    DATA     LONG      k_p
      00000038H   SYMBOL    DATA     LONG      k_i
      0000003CH   SYMBOL    DATA     LONG      k_d
      00000040H   SYMBOL    DATA     LONG      k_p_c
      00000044H   SYMBOL    DATA     LONG      k_i_c
      00000048H   SYMBOL    DATA     LONG      k_d_c
      0000004CH   SYMBOL    DATA     LONG      k_p_dl
      00000050H   SYMBOL    DATA     LONG      k_i_dl
      00000054H   SYMBOL    DATA     LONG      k_d_dl
      00000058H   SYMBOL    DATA     LONG      k_p_c_dl
      0000005CH   SYMBOL    DATA     LONG      k_i_c_dl
      00000060H   SYMBOL    DATA     LONG      k_d_c_dl
      00000022H.0 SYMBOL    BIT      BIT       dirM0
      00000022H.1 SYMBOL    BIT      BIT       dirM1
      02000D00H   SYMBOL    XDATA    ---       prev_curr
      02000D08H   SYMBOL    XDATA    ---       pos_error_sum
      02000D10H   SYMBOL    XDATA    ---       curr_error_sum
      ---         BLOCKEND  ---      ---       LVL=1
      01005DB5H   LINE      CODE     ---       #452
      01005DB5H   LINE      CODE     ---       #454
      01005DB7H   LINE      CODE     ---       #458
      01005DC0H   LINE      CODE     ---       #464
      01005DD5H   LINE      CODE     ---       #465
      01005DE8H   LINE      CODE     ---       #466
      01005DFBH   LINE      CODE     ---       #468
      01005E0EH   LINE      CODE     ---       #469
      01005E21H   LINE      CODE     ---       #470
      01005E34H   LINE      CODE     ---       #472
      01005E47H   LINE      CODE     ---       #473
      01005E5AH   LINE      CODE     ---       #474
LX51 LINKER/LOCATER V4.64.0.0                                                         01/12/2018  13:27:04  PAGE 67


      01005E6DH   LINE      CODE     ---       #476
      01005E80H   LINE      CODE     ---       #477
      01005E93H   LINE      CODE     ---       #478
      01005EA6H   LINE      CODE     ---       #490
      01005EB0H   LINE      CODE     ---       #493
      01005ECDH   LINE      CODE     ---       #494
      01005ECDH   LINE      CODE     ---       #505
      01005F10H   LINE      CODE     ---       #507
      01005F13H   LINE      CODE     ---       #508
      01005F15H   LINE      CODE     ---       #509
      01005F18H   LINE      CODE     ---       #510
      01005F18H   LINE      CODE     ---       #513
      01005F4BH   LINE      CODE     ---       #516
      01005F73H   LINE      CODE     ---       #517
      01005F8FH   LINE      CODE     ---       #518
      01005F8FH   LINE      CODE     ---       #519
      01005FB7H   LINE      CODE     ---       #520
      01005FD1H   LINE      CODE     ---       #521
      01005FD1H   LINE      CODE     ---       #523
      01005FD4H   LINE      CODE     ---       #524
      01005FD6H   LINE      CODE     ---       #525
      01005FD9H   LINE      CODE     ---       #526
      01005FD9H   LINE      CODE     ---       #528
      01005FE2H   LINE      CODE     ---       #530
      01005FF4H   LINE      CODE     ---       #532
      01006017H   LINE      CODE     ---       #533
      0100603EH   LINE      CODE     ---       #535
      0100605EH   LINE      CODE     ---       #536
      0100605EH   LINE      CODE     ---       #538
      01006061H   LINE      CODE     ---       #539
      01006063H   LINE      CODE     ---       #540
      01006066H   LINE      CODE     ---       #541
      01006066H   LINE      CODE     ---       #544
      01006079H   LINE      CODE     ---       #545
      010060BCH   LINE      CODE     ---       #548
      010060CFH   LINE      CODE     ---       #549
      01006132H   LINE      CODE     ---       #552
      01006135H   LINE      CODE     ---       #553
      01006137H   LINE      CODE     ---       #554
      0100613AH   LINE      CODE     ---       #555
      0100613AH   LINE      CODE     ---       #560
      0100613EH   LINE      CODE     ---       #561
      01006150H   LINE      CODE     ---       #562
      01006155H   LINE      CODE     ---       #565
      01006157H   LINE      CODE     ---       #567
      0100615AH   LINE      CODE     ---       #568
      0100616DH   LINE      CODE     ---       #569
      01006172H   LINE      CODE     ---       #572
      01006174H   LINE      CODE     ---       #574
      01006174H   LINE      CODE     ---       #576
      01006177H   LINE      CODE     ---       #578
      01006177H   LINE      CODE     ---       #588
      010061BAH   LINE      CODE     ---       #590
      010061EDH   LINE      CODE     ---       #592
      010061F0H   LINE      CODE     ---       #593
      010061F2H   LINE      CODE     ---       #594
      010061F5H   LINE      CODE     ---       #595
      010061F5H   LINE      CODE     ---       #598
      0100621DH   LINE      CODE     ---       #599
      01006239H   LINE      CODE     ---       #600
      01006239H   LINE      CODE     ---       #601
      01006261H   LINE      CODE     ---       #602
      0100627BH   LINE      CODE     ---       #603
      0100627BH   LINE      CODE     ---       #606
      01006284H   LINE      CODE     ---       #608
LX51 LINKER/LOCATER V4.64.0.0                                                         01/12/2018  13:27:04  PAGE 68


      01006287H   LINE      CODE     ---       #609
      01006289H   LINE      CODE     ---       #610
      0100628CH   LINE      CODE     ---       #611
      0100628CH   LINE      CODE     ---       #614
      0100629FH   LINE      CODE     ---       #615
      010062C5H   LINE      CODE     ---       #618
      010062D8H   LINE      CODE     ---       #619
      01006310H   LINE      CODE     ---       #622
      01006323H   LINE      CODE     ---       #623
      01006386H   LINE      CODE     ---       #625
      01006389H   LINE      CODE     ---       #626
      0100638BH   LINE      CODE     ---       #627
      0100638EH   LINE      CODE     ---       #628
      0100638EH   LINE      CODE     ---       #631
      010063AAH   LINE      CODE     ---       #632
      010063C0H   LINE      CODE     ---       #633
      010063C0H   LINE      CODE     ---       #634
      010063E2H   LINE      CODE     ---       #635
      010063FCH   LINE      CODE     ---       #636
      010063FCH   LINE      CODE     ---       #638
      010063FFH   LINE      CODE     ---       #639
      01006401H   LINE      CODE     ---       #640
      01006404H   LINE      CODE     ---       #641
      01006404H   LINE      CODE     ---       #644
      01006434H   LINE      CODE     ---       #646
      01006467H   LINE      CODE     ---       #648
      0100648FH   LINE      CODE     ---       #649
      010064ABH   LINE      CODE     ---       #650
      010064ABH   LINE      CODE     ---       #651
      010064D3H   LINE      CODE     ---       #652
      010064EDH   LINE      CODE     ---       #653
      010064EDH   LINE      CODE     ---       #655
      010064F0H   LINE      CODE     ---       #656
      010064F2H   LINE      CODE     ---       #657
      010064F5H   LINE      CODE     ---       #658
      010064F5H   LINE      CODE     ---       #662
      010064FEH   LINE      CODE     ---       #665
      01006510H   LINE      CODE     ---       #666
      01006536H   LINE      CODE     ---       #669
      01006549H   LINE      CODE     ---       #670
      01006581H   LINE      CODE     ---       #673
      01006594H   LINE      CODE     ---       #674
      010065F8H   LINE      CODE     ---       #677
      01006622H   LINE      CODE     ---       #679
      01006625H   LINE      CODE     ---       #680
      01006627H   LINE      CODE     ---       #681
      0100662AH   LINE      CODE     ---       #682
      0100662AH   LINE      CODE     ---       #684
      0100662EH   LINE      CODE     ---       #685
      01006640H   LINE      CODE     ---       #686
      01006645H   LINE      CODE     ---       #689
      01006647H   LINE      CODE     ---       #691
      0100664AH   LINE      CODE     ---       #692
      0100665DH   LINE      CODE     ---       #693
      01006662H   LINE      CODE     ---       #696
      01006664H   LINE      CODE     ---       #698
      01006664H   LINE      CODE     ---       #700
      01006667H   LINE      CODE     ---       #702
      01006667H   LINE      CODE     ---       #705
      0100669AH   LINE      CODE     ---       #708
      010066B6H   LINE      CODE     ---       #709
      010066CAH   LINE      CODE     ---       #712
      010066F5H   LINE      CODE     ---       #715
      01006728H   LINE      CODE     ---       #718
      01006750H   LINE      CODE     ---       #719
LX51 LINKER/LOCATER V4.64.0.0                                                         01/12/2018  13:27:04  PAGE 69


      0100676CH   LINE      CODE     ---       #720
      0100676CH   LINE      CODE     ---       #721
      01006791H   LINE      CODE     ---       #722
      010067A8H   LINE      CODE     ---       #723
      010067A8H   LINE      CODE     ---       #726
      010067B1H   LINE      CODE     ---       #729
      010067C3H   LINE      CODE     ---       #730
      010067EFH   LINE      CODE     ---       #734
      01006802H   LINE      CODE     ---       #735
      0100683FH   LINE      CODE     ---       #738
      01006852H   LINE      CODE     ---       #739
      010068B6H   LINE      CODE     ---       #742
      010068C9H   LINE      CODE     ---       #743
      010068D2H   LINE      CODE     ---       #746
      010068FCH   LINE      CODE     ---       #748
      01006900H   LINE      CODE     ---       #749
      01006912H   LINE      CODE     ---       #750
      01006917H   LINE      CODE     ---       #753
      01006919H   LINE      CODE     ---       #755
      0100691CH   LINE      CODE     ---       #756
      0100692FH   LINE      CODE     ---       #757
      01006933H   LINE      CODE     ---       #760
      01006935H   LINE      CODE     ---       #762
      01006935H   LINE      CODE     ---       #764
      01006937H   LINE      CODE     ---       #766
      01006937H   LINE      CODE     ---       #768
      0100696AH   LINE      CODE     ---       #770
      0100696EH   LINE      CODE     ---       #771
      01006980H   LINE      CODE     ---       #772
      01006984H   LINE      CODE     ---       #775
      01006986H   LINE      CODE     ---       #777
      01006988H   LINE      CODE     ---       #778
      0100699BH   LINE      CODE     ---       #779
      0100699FH   LINE      CODE     ---       #782
      010069A1H   LINE      CODE     ---       #784
      010069A1H   LINE      CODE     ---       #786
      010069A1H   LINE      CODE     ---       #788
      010069A1H   LINE      CODE     ---       #789
      010069A1H   LINE      CODE     ---       #790
      010069A1H   LINE      CODE     ---       #792
      010069A4H   LINE      CODE     ---       #793
      010069A6H   LINE      CODE     ---       #794
      010069A9H   LINE      CODE     ---       #795
      010069A9H   LINE      CODE     ---       #798
      010069BDH   LINE      CODE     ---       #799
      010069C7H   LINE      CODE     ---       #800
      010069DCH   LINE      CODE     ---       #801
      010069E7H   LINE      CODE     ---       #803
      010069EAH   LINE      CODE     ---       #804
      010069ECH   LINE      CODE     ---       #805
      010069EFH   LINE      CODE     ---       #806
      010069EFH   LINE      CODE     ---       #809
      010069F7H   LINE      CODE     ---       #810
      01006A2EH   LINE      CODE     ---       #814
      01006A31H   LINE      CODE     ---       #815
      01006A34H   LINE      CODE     ---       #816
      01006A3BH   LINE      CODE     ---       #818
      01006A40H   LINE      CODE     ---       #819
      01006A42H   LINE      CODE     ---       #820
      01006A42H   LINE      CODE     ---       #821
      01006A45H   LINE      CODE     ---       #822
      01006A4CH   LINE      CODE     ---       #824
      01006A51H   LINE      CODE     ---       #825
      01006A51H   LINE      CODE     ---       #827
      01006A54H   LINE      CODE     ---       #828
LX51 LINKER/LOCATER V4.64.0.0                                                         01/12/2018  13:27:04  PAGE 70


      01006A56H   LINE      CODE     ---       #829
      01006A59H   LINE      CODE     ---       #830
      01006A59H   LINE      CODE     ---       #832
      01006A5DH   LINE      CODE     ---       #833
      01006A97H   LINE      CODE     ---       #834
      01006AA1H   LINE      CODE     ---       #835
      01006AA3H   LINE      CODE     ---       #836
      01006AA3H   LINE      CODE     ---       #837
      01006ADEH   LINE      CODE     ---       #838
      01006AE8H   LINE      CODE     ---       #839
      01006AE8H   LINE      CODE     ---       #841
      01006AEBH   LINE      CODE     ---       #842
      01006AEDH   LINE      CODE     ---       #843
      01006AF0H   LINE      CODE     ---       #844
      01006AF0H   LINE      CODE     ---       #845
      ---         BLOCKEND  ---      ---       LVL=0

      01009961H   BLOCK     CODE     ---       LVL=0
      01009961H   LINE      CODE     ---       #851
      01009961H   LINE      CODE     ---       #872
      01009967H   LINE      CODE     ---       #873
      0100996AH   LINE      CODE     ---       #874
      0100996CH   LINE      CODE     ---       #875
      0100996FH   LINE      CODE     ---       #876
      0100996FH   LINE      CODE     ---       #877
      01009971H   LINE      CODE     ---       #880
      01009999H   LINE      CODE     ---       #882
      0100999CH   LINE      CODE     ---       #883
      0100999EH   LINE      CODE     ---       #884
      010099A1H   LINE      CODE     ---       #885
      010099A1H   LINE      CODE     ---       #889
      010099BDH   LINE      CODE     ---       #892
      010099C0H   LINE      CODE     ---       #896
      010099C3H   LINE      CODE     ---       #897
      010099C5H   LINE      CODE     ---       #898
      010099C8H   LINE      CODE     ---       #899
      010099C8H   LINE      CODE     ---       #902
      01009A07H   LINE      CODE     ---       #906
      01009A0AH   LINE      CODE     ---       #907
      01009A0CH   LINE      CODE     ---       #908
      01009A0FH   LINE      CODE     ---       #909
      01009A0FH   LINE      CODE     ---       #910
      01009A4EH   LINE      CODE     ---       #914
      01009A51H   LINE      CODE     ---       #915
      01009A53H   LINE      CODE     ---       #916
      01009A56H   LINE      CODE     ---       #917
      01009A56H   LINE      CODE     ---       #918
      01009A57H   LINE      CODE     ---       #919
      01009A57H   LINE      CODE     ---       #920
      01009A5EH   LINE      CODE     ---       #921
      01009A62H   LINE      CODE     ---       #922
      01009A62H   LINE      CODE     ---       #923
      ---         BLOCKEND  ---      ---       LVL=0

      01007D5AH   BLOCK     CODE     ---       LVL=0
      00000007H   SYMBOL    DATA     BYTE      idx
      02000003H   SYMBOL    XDATA    BYTE      flag
      01007D5FH   BLOCK     CODE     NEAR LAB  LVL=1
      00000023H   SYMBOL    DATA     BYTE      index
      00000003H   SYMBOL    DATA     BYTE      jj
      02000004H   SYMBOL    XDATA    DWORD     data_encoder
      02000008H   SYMBOL    XDATA    LONG      value_encoder
      0200000CH   SYMBOL    XDATA    LONG      aux
      02000D18H   SYMBOL    XDATA    ---       last_value_encoder
      02000D24H   SYMBOL    XDATA    ---       error
LX51 LINKER/LOCATER V4.64.0.0                                                         01/12/2018  13:27:04  PAGE 71


      00000022H.2 SYMBOL    BIT      BIT       only_first_time
      ---         BLOCKEND  ---      ---       LVL=1
      01007D5AH   LINE      CODE     ---       #929
      01007D5FH   LINE      CODE     ---       #930
      01007D5FH   LINE      CODE     ---       #931
      01007D61H   LINE      CODE     ---       #949
      01007D6BH   LINE      CODE     ---       #952
      01007D6EH   LINE      CODE     ---       #953
      01007D76H   LINE      CODE     ---       #954
      01007D8CH   LINE      CODE     ---       #955
      01007D8EH   LINE      CODE     ---       #956
      01007D90H   LINE      CODE     ---       #957
      01007D90H   LINE      CODE     ---       #960
      01007D94H   LINE      CODE     ---       #961
      01007DA7H   LINE      CODE     ---       #962
      01007DA7H   LINE      CODE     ---       #963
      01007DACH   LINE      CODE     ---       #964
      01007DBFH   LINE      CODE     ---       #965
      01007DBFH   LINE      CODE     ---       #966
      01007DC4H   LINE      CODE     ---       #967
      01007DD7H   LINE      CODE     ---       #969
      01007DE8H   LINE      CODE     ---       #970
      01007DE8H   LINE      CODE     ---       #971
      01007DE8H   LINE      CODE     ---       #973
      01007DF6H   LINE      CODE     ---       #974
      01007DFCH   LINE      CODE     ---       #975
      01007E29H   LINE      CODE     ---       #977
      01007E74H   LINE      CODE     ---       #980
      01007E77H   LINE      CODE     ---       #981
      01007E97H   LINE      CODE     ---       #983
      01007E9CH   LINE      CODE     ---       #984
      01007E9EH   LINE      CODE     ---       #985
      01007E9EH   LINE      CODE     ---       #988
      01007ED5H   LINE      CODE     ---       #1008
      01007EEFH   LINE      CODE     ---       #1009
      01007EFFH   LINE      CODE     ---       #1010
      01007EFFH   LINE      CODE     ---       #1011
      01007F1BH   LINE      CODE     ---       #1012
      01007F2BH   LINE      CODE     ---       #1013
      01007F2BH   LINE      CODE     ---       #1014
      01007F45H   LINE      CODE     ---       #1015
      01007F53H   LINE      CODE     ---       #1016
      01007F67H   LINE      CODE     ---       #1019
      01007F67H   LINE      CODE     ---       #1020
      01007F67H   LINE      CODE     ---       #1021
      01007F67H   LINE      CODE     ---       #1023
      01007F74H   LINE      CODE     ---       #1025
      01007F94H   LINE      CODE     ---       #1027
      01007FD0H   LINE      CODE     ---       #1029
      01007FF6H   LINE      CODE     ---       #1030
      0100802EH   LINE      CODE     ---       #1032
      0100804EH   LINE      CODE     ---       #1033
      0100804EH   LINE      CODE     ---       #1055
      ---         BLOCKEND  ---      ---       LVL=0

      010086B2H   BLOCK     CODE     ---       LVL=0
      010086B2H   BLOCK     CODE     NEAR LAB  LVL=1
      02000D27H   SYMBOL    XDATA    LONG      old_k_p
      02000D2BH   SYMBOL    XDATA    LONG      old_k_i
      02000D2FH   SYMBOL    XDATA    LONG      old_k_d
      02000D33H   SYMBOL    XDATA    BYTE      pause_counter
      ---         BLOCKEND  ---      ---       LVL=1
      010086B2H   LINE      CODE     ---       #1062
      010086B2H   LINE      CODE     ---       #1063
      010086B2H   LINE      CODE     ---       #1070
LX51 LINKER/LOCATER V4.64.0.0                                                         01/12/2018  13:27:04  PAGE 72


      010086D3H   LINE      CODE     ---       #1071
      010086D3H   LINE      CODE     ---       #1072
      010086D6H   LINE      CODE     ---       #1075
      010086EAH   LINE      CODE     ---       #1076
      010086FEH   LINE      CODE     ---       #1077
      01008712H   LINE      CODE     ---       #1080
      0100871DH   LINE      CODE     ---       #1081
      01008728H   LINE      CODE     ---       #1084
      01008730H   LINE      CODE     ---       #1085
      01008735H   LINE      CODE     ---       #1086
      01008735H   LINE      CODE     ---       #1089
      0100873BH   LINE      CODE     ---       #1090
      0100873CH   LINE      CODE     ---       #1092
      0100873CH   LINE      CODE     ---       #1093
      01008742H   LINE      CODE     ---       #1095
      0100874AH   LINE      CODE     ---       #1096
      0100874BH   LINE      CODE     ---       #1099
      01008757H   LINE      CODE     ---       #1100
      01008762H   LINE      CODE     ---       #1101
      0100876FH   LINE      CODE     ---       #1103
      01008775H   LINE      CODE     ---       #1104
      01008775H   LINE      CODE     ---       #1105
      01008776H   LINE      CODE     ---       #1107
      01008776H   LINE      CODE     ---       #1109
      01008795H   LINE      CODE     ---       #1110
      010087B8H   LINE      CODE     ---       #1113
      010087DCH   LINE      CODE     ---       #1115
      010087EFH   LINE      CODE     ---       #1118
      01008803H   LINE      CODE     ---       #1119
      01008817H   LINE      CODE     ---       #1120
      0100882BH   LINE      CODE     ---       #1123
      01008836H   LINE      CODE     ---       #1124
      01008841H   LINE      CODE     ---       #1127
      01008847H   LINE      CODE     ---       #1128
      01008847H   LINE      CODE     ---       #1129
      01008848H   LINE      CODE     ---       #1131
      01008848H   LINE      CODE     ---       #1132
      0100884EH   LINE      CODE     ---       #1134
      01008853H   LINE      CODE     ---       #1135
      01008854H   LINE      CODE     ---       #1137
      0100885AH   LINE      CODE     ---       #1138
      0100885AH   LINE      CODE     ---       #1139
      0100885BH   LINE      CODE     ---       #1141
      0100885BH   LINE      CODE     ---       #1143
      01008863H   LINE      CODE     ---       #1144
      01008867H   LINE      CODE     ---       #1145
      01008867H   LINE      CODE     ---       #1148
      0100886EH   LINE      CODE     ---       #1149
      01008874H   LINE      CODE     ---       #1151
      01008879H   LINE      CODE     ---       #1153
      0100887CH   LINE      CODE     ---       #1154
      0100887CH   LINE      CODE     ---       #1156
      0100887CH   LINE      CODE     ---       #1157
      0100887CH   LINE      CODE     ---       #1158
      0100887CH   LINE      CODE     ---       #1159
      0100887CH   LINE      CODE     ---       #1160
      ---         BLOCKEND  ---      ---       LVL=0

      01009606H   BLOCK     CODE     ---       LVL=0
      01009606H   BLOCK     CODE     NEAR LAB  LVL=1
      00000023H   SYMBOL    DATA     BYTE      index
      00000024H   SYMBOL    DATA     WORD      max_tension
      00000026H   SYMBOL    DATA     WORD      max_tension_6v_mod
      ---         BLOCKEND  ---      ---       LVL=1
      01009606H   LINE      CODE     ---       #1167
LX51 LINKER/LOCATER V4.64.0.0                                                         01/12/2018  13:27:04  PAGE 73


      01009606H   LINE      CODE     ---       #1170
      0100960CH   LINE      CODE     ---       #1171
      01009612H   LINE      CODE     ---       #1173
      01009621H   LINE      CODE     ---       #1175
      0100963BH   LINE      CODE     ---       #1176
      01009641H   LINE      CODE     ---       #1178
      01009641H   LINE      CODE     ---       #1179
      01009660H   LINE      CODE     ---       #1180
      01009667H   LINE      CODE     ---       #1181
      01009667H   LINE      CODE     ---       #1182
      01009695H   LINE      CODE     ---       #1183
      0100969EH   LINE      CODE     ---       #1184
      0100969EH   LINE      CODE     ---       #1185
      0100969EH   LINE      CODE     ---       #1186
      0100969FH   LINE      CODE     ---       #1187
      0100969FH   LINE      CODE     ---       #1189
      010096BAH   LINE      CODE     ---       #1190
      010096C0H   LINE      CODE     ---       #1191
      010096C0H   LINE      CODE     ---       #1192
      010096DFH   LINE      CODE     ---       #1193
      010096E6H   LINE      CODE     ---       #1194
      010096E6H   LINE      CODE     ---       #1195
      01009709H   LINE      CODE     ---       #1196
      01009718H   LINE      CODE     ---       #1197
      01009722H   LINE      CODE     ---       #1199
      0100972CH   LINE      CODE     ---       #1200
      0100972CH   LINE      CODE     ---       #1201
      0100972CH   LINE      CODE     ---       #1202
      0100972CH   LINE      CODE     ---       #1203
      ---         BLOCKEND  ---      ---       LVL=0

      ---         MODULE    ---      ---       CYFITTER_CFG
      0100C3FCH   PUBLIC    CONST    ---       ADC_AMux__maskTable
      0100C3F8H   PUBLIC    CONST    ---       ADC_AMux__addrTable
      0100984AH   PUBLIC    CODE     ---       cyfitter_cfg
      0100B073H   PUBLIC    CODE     ---       _ADC_AMux_Unset
      0100B105H   PUBLIC    CODE     ---       _ADC_AMux_Set
      000000CAH   SFRSYM    DATA     BYTE      SFRPRT5SEL
      000000DAH   SFRSYM    DATA     BYTE      SFRPRT6SEL
      000000D0H.6 SFRSYM    DATA     BIT       AC
      000000A8H.7 SFRSYM    DATA     BIT       EA
      000000A8H   SFRSYM    DATA     BYTE      IE
      00000085H   SFRSYM    DATA     BYTE      DPH1
      00000084H   SFRSYM    DATA     BYTE      DPL1
      000000D0H.7 SFRSYM    DATA     BIT       CY
      000000A0H   SFRSYM    DATA     BYTE      P2AX
      00000095H   SFRSYM    DATA     BYTE      DPX1
      00000081H   SFRSYM    DATA     BYTE      SP
      000000D0H.2 SFRSYM    DATA     BIT       OV
      00000080H   SFRSYM    DATA     BYTE      SFRPRT0DR
      00000090H   SFRSYM    DATA     BYTE      SFRPRT1DR
      000000F2H   SFRSYM    DATA     BYTE      SFRPRT12SEL
      00000098H   SFRSYM    DATA     BYTE      SFRPRT2DR
      000000B0H   SFRSYM    DATA     BYTE      SFRPRT3DR
      000000C0H   SFRSYM    DATA     BYTE      SFRPRT4DR
      000000FAH   SFRSYM    DATA     BYTE      SFRPRT15SEL
      000000C8H   SFRSYM    DATA     BYTE      SFRPRT5DR
      000000D8H   SFRSYM    DATA     BYTE      SFRPRT6DR
      00000089H   SFRSYM    DATA     BYTE      SFRPRT0PS
      00000091H   SFRSYM    DATA     BYTE      SFRPRT1PS
      00000099H   SFRSYM    DATA     BYTE      SFRPRT2PS
      000000B1H   SFRSYM    DATA     BYTE      SFRPRT3PS
      000000C1H   SFRSYM    DATA     BYTE      SFRPRT4PS
      000000C9H   SFRSYM    DATA     BYTE      SFRPRT5PS
      000000D9H   SFRSYM    DATA     BYTE      SFRPRT6PS
LX51 LINKER/LOCATER V4.64.0.0                                                         01/12/2018  13:27:04  PAGE 74


      000000EAH   SFRSYM    DATA     BYTE      MXAX
      000000F0H   SFRSYM    DATA     BYTE      B
      000000E0H   SFRSYM    DATA     BYTE      ACC
      000000D0H   SFRSYM    DATA     BIT       P
      000000D0H.3 SFRSYM    DATA     BIT       RS0
      000000D0H.4 SFRSYM    DATA     BIT       RS1
      00000083H   SFRSYM    DATA     BYTE      DPH
      000000E8H   SFRSYM    DATA     BYTE      SFRPRT12DR
      00000082H   SFRSYM    DATA     BYTE      DPL
      000000F8H   SFRSYM    DATA     BYTE      SFRPRT15DR
      00000086H   SFRSYM    DATA     BYTE      DPS
      000000E9H   SFRSYM    DATA     BYTE      SFRPRT12PS
      00000093H   SFRSYM    DATA     BYTE      DPX
      000000F9H   SFRSYM    DATA     BYTE      SFRPRT15PS
      000000D0H.5 SFRSYM    DATA     BIT       F0
      000000D0H.1 SFRSYM    DATA     BIT       F1
      0000008AH   SFRSYM    DATA     BYTE      SFRPRT0SEL
      000000D0H   SFRSYM    DATA     BYTE      PSW
      000000A2H   SFRSYM    DATA     BYTE      SFRPRT1SEL
      0000009AH   SFRSYM    DATA     BYTE      SFRPRT2SEL
      000000B2H   SFRSYM    DATA     BYTE      SFRPRT3SEL
      000000C2H   SFRSYM    DATA     BYTE      SFRPRT4SEL
      01008BE1H   SYMBOL    CODE     ---       ClockSetup
      0100B8C8H   SYMBOL    CODE     ---       _CyClockStartupError
      0100B1EDH   SYMBOL    CODE     ---       AnalogSetDefault
      01009B64H   SYMBOL    CODE     ---       cfg_dma_init

      0100B8C8H   BLOCK     CODE     ---       LVL=0
      02000000H   SYMBOL    XDATA    BYTE      errorCode
      0100B8C8H   LINE      CODE     ---       #76
      0100B8C8H   LINE      CODE     ---       #77
      0100B8C8H   LINE      CODE     ---       #80
      0100B8C8H   LINE      CODE     ---       #101
      ---         BLOCKEND  ---      ---       LVL=0

      01009B64H   BLOCK     CODE     ---       LVL=0
      01009B64H   BLOCK     CODE     NEAR LAB  LVL=1
      0100B8CFH   SYMBOL    CONST    ---       BS_UDB_2_4_HV_ROUTING_VAL
      0100B94FH   SYMBOL    CONST    ---       BS_UDBSWITCH_0_5_VAL
      0100B9CFH   SYMBOL    CONST    ---       BS_UDB_1_5_HV_ROUTING_VAL
      0100BA4FH   SYMBOL    CONST    ---       BS_UDBSWITCH_1_5_VAL
      0100BACFH   SYMBOL    CONST    ---       BS_UDB_2_5_HV_ROUTING_VAL
      0100BB4FH   SYMBOL    CONST    ---       BS_DSI3_0_HV_ROUTING_VAL
      0100BBCFH   SYMBOL    CONST    ---       BS_DSISWITCH_1_1_VAL
      0100BC4FH   SYMBOL    CONST    ---       BS_DSI3_1_HV_ROUTING_VAL
      0100BCCFH   SYMBOL    CONST    ---       BS_DSISWITCH_1_2_VAL
      0100BD4FH   SYMBOL    CONST    ---       BS_DSI3_2_HV_ROUTING_VAL
      0100BDCFH   SYMBOL    CONST    ---       BS_DSISWITCH_1_3_VAL
      0100BE4FH   SYMBOL    CONST    ---       BS_DSI3_3_HV_ROUTING_VAL
      0100BECFH   SYMBOL    CONST    ---       BS_DSISWITCH_1_4_VAL
      0100BF4FH   SYMBOL    CONST    ---       BS_DSI3_4_HV_ROUTING_VAL
      0100BFCFH   SYMBOL    CONST    ---       BS_DSISWITCH_1_5_VAL
      0100C04FH   SYMBOL    CONST    ---       BS_DSI3_5_HV_ROUTING_VAL
      0100C0CFH   SYMBOL    CONST    ---       CH1_ADDR_DATA0
      0100C0D7H   SYMBOL    CONST    ---       CH2_ADDR_DATA0
      0100C0DFH   SYMBOL    CONST    ---       CH4_ADDR_DATA0
      0100C0E7H   SYMBOL    CONST    ---       CH5_ADDR_DATA0
      0100C0EFH   SYMBOL    CONST    ---       CH6_ADDR_DATA0
      0100C0F7H   SYMBOL    CONST    ---       DMA_TD_START_CMD
      02000DF0H   SYMBOL    XDATA    DWORD     DMA_ZERO_VAL
      0100C0FCH   SYMBOL    CONST    ---       CFG_TD_LIST0
      ---         BLOCKEND  ---      ---       LVL=1
      01009B64H   LINE      CODE     ---       #324
      01009B64H   LINE      CODE     ---       #325
      01009B64H   LINE      CODE     ---       #632
LX51 LINKER/LOCATER V4.64.0.0                                                         01/12/2018  13:27:04  PAGE 75


      01009B6FH   LINE      CODE     ---       #633
      01009B75H   LINE      CODE     ---       #634
      01009B7BH   LINE      CODE     ---       #635
      01009B80H   LINE      CODE     ---       #636
      01009B8CH   LINE      CODE     ---       #637
      01009B92H   LINE      CODE     ---       #638
      01009B96H   LINE      CODE     ---       #639
      01009BB8H   LINE      CODE     ---       #640
      01009BC5H   LINE      CODE     ---       #641
      01009BD2H   LINE      CODE     ---       #642
      01009BDEH   LINE      CODE     ---       #643
      01009BE4H   LINE      CODE     ---       #644
      01009BE9H   LINE      CODE     ---       #645
      01009BEFH   LINE      CODE     ---       #646
      01009BF5H   LINE      CODE     ---       #647
      01009BFBH   LINE      CODE     ---       #649
      01009BFBH   LINE      CODE     ---       #650
      01009C01H   LINE      CODE     ---       #651
      01009C01H   LINE      CODE     ---       #654
      01009C09H   LINE      CODE     ---       #655
      01009C11H   LINE      CODE     ---       #656
      01009C19H   LINE      CODE     ---       #657
      01009C21H   LINE      CODE     ---       #658
      01009C29H   LINE      CODE     ---       #659
      01009C31H   LINE      CODE     ---       #662
      01009C4CH   LINE      CODE     ---       #664
      ---         BLOCKEND  ---      ---       LVL=0

      01008BE1H   BLOCK     CODE     ---       LVL=0
      01008BE1H   BLOCK     CODE     NEAR LAB  LVL=1
      0100C3F4H   SYMBOL    CONST    ---       BS_CYDEV_CLKDIST_ACFG0_CFG0_VAL
      02000000H   SYMBOL    XDATA    DWORD     timeout
      02000004H   SYMBOL    XDATA    BYTE      pllLock
      ---         BLOCKEND  ---      ---       LVL=1
      01008BE1H   LINE      CODE     ---       #682
      01008BE1H   LINE      CODE     ---       #683
      01008BE1H   LINE      CODE     ---       #693
      01008BEEH   LINE      CODE     ---       #694
      01008BF4H   LINE      CODE     ---       #695
      01008C00H   LINE      CODE     ---       #696
      01008C06H   LINE      CODE     ---       #697
      01008C13H   LINE      CODE     ---       #698
      01008C19H   LINE      CODE     ---       #699
      01008C26H   LINE      CODE     ---       #700
      01008C2CH   LINE      CODE     ---       #701
      01008C39H   LINE      CODE     ---       #702
      01008C3FH   LINE      CODE     ---       #703
      01008C4CH   LINE      CODE     ---       #704
      01008C52H   LINE      CODE     ---       #707
      01008C63H   LINE      CODE     ---       #710
      01008C69H   LINE      CODE     ---       #713
      01008C6FH   LINE      CODE     ---       #714
      01008C7DH   LINE      CODE     ---       #717
      01008C8AH   LINE      CODE     ---       #718
      01008C97H   LINE      CODE     ---       #720
      01008C9CH   LINE      CODE     ---       #721
      01008CC1H   LINE      CODE     ---       #722
      01008CC1H   LINE      CODE     ---       #723
      01008CD2H   LINE      CODE     ---       #724
      01008CDCH   LINE      CODE     ---       #725
      01008D04H   LINE      CODE     ---       #727
      01008D12H   LINE      CODE     ---       #728
      01008D12H   LINE      CODE     ---       #729
      01008D17H   LINE      CODE     ---       #730
      01008D17H   LINE      CODE     ---       #733
LX51 LINKER/LOCATER V4.64.0.0                                                         01/12/2018  13:27:04  PAGE 76


      01008D24H   LINE      CODE     ---       #734
      01008D2AH   LINE      CODE     ---       #735
      01008D2FH   LINE      CODE     ---       #736
      01008D35H   LINE      CODE     ---       #737
      01008D3AH   LINE      CODE     ---       #740
      01008D3EH   LINE      CODE     ---       #741
      01008D44H   LINE      CODE     ---       #742
      01008D4AH   LINE      CODE     ---       #744
      01008D51H   LINE      CODE     ---       #745
      01008D58H   LINE      CODE     ---       #746
      01008D5FH   LINE      CODE     ---       #747
      ---         BLOCKEND  ---      ---       LVL=0

      0100B1EDH   BLOCK     CODE     ---       LVL=0
      0100B1EDH   BLOCK     CODE     NEAR LAB  LVL=1
      00000007H   SYMBOL    DATA     BYTE      bg_xover_inl_trim
      ---         BLOCKEND  ---      ---       LVL=1
      0100B1EDH   LINE      CODE     ---       #769
      0100B1EDH   LINE      CODE     ---       #770
      0100B1EDH   LINE      CODE     ---       #771
      0100B1F6H   LINE      CODE     ---       #772
      0100B1FDH   LINE      CODE     ---       #773
      0100B203H   LINE      CODE     ---       #774
      0100B209H   LINE      CODE     ---       #775
      0100B20DH   LINE      CODE     ---       #776
      0100B213H   LINE      CODE     ---       #777
      ---         BLOCKEND  ---      ---       LVL=0
      00000007H   SYMBOL    DATA     BYTE      enabled
      00000006H   SYMBOL    DATA     BYTE      regValue

      0100B105H   BLOCK     CODE     ---       LVL=0
      00000007H   SYMBOL    DATA     BYTE      channel
      0100B105H   LINE      CODE     ---       #840
      0100B105H   LINE      CODE     ---       #841
      0100B105H   LINE      CODE     ---       #842
      0100B10BH   LINE      CODE     ---       #843
      0100B10BH   LINE      CODE     ---       #844
      0100B134H   LINE      CODE     ---       #845
      0100B134H   LINE      CODE     ---       #846
      ---         BLOCKEND  ---      ---       LVL=0

      0100B073H   BLOCK     CODE     ---       LVL=0
      00000007H   SYMBOL    DATA     BYTE      channel
      0100B073H   LINE      CODE     ---       #862
      0100B073H   LINE      CODE     ---       #863
      0100B073H   LINE      CODE     ---       #864
      0100B079H   LINE      CODE     ---       #865
      0100B079H   LINE      CODE     ---       #866
      0100B0A3H   LINE      CODE     ---       #867
      0100B0A3H   LINE      CODE     ---       #868
      ---         BLOCKEND  ---      ---       LVL=0

      0100984AH   BLOCK     CODE     ---       LVL=0
      0100984AH   BLOCK     CODE     NEAR LAB  LVL=1
      0100C3FEH   SYMBOL    CONST    ---       BS_IOPINS0_7_VAL
      0100C406H   SYMBOL    CONST    ---       BS_IOPINS0_8_VAL
      0100C410H   SYMBOL    CONST    ---       BS_IOPINS0_1_VAL
      0100C41AH   SYMBOL    CONST    ---       BS_IOPINS0_2_VAL
      0100C422H   SYMBOL    CONST    ---       BS_PHUB_CFGMEM10_VAL
      ---         BLOCKEND  ---      ---       LVL=1
      0100984AH   LINE      CODE     ---       #889
      0100984AH   LINE      CODE     ---       #890
      0100984AH   LINE      CODE     ---       #912
      01009860H   LINE      CODE     ---       #914
      01009860H   LINE      CODE     ---       #915
LX51 LINKER/LOCATER V4.64.0.0                                                         01/12/2018  13:27:04  PAGE 77


      01009863H   LINE      CODE     ---       #918
      01009869H   LINE      CODE     ---       #919
      0100987AH   LINE      CODE     ---       #922
      01009890H   LINE      CODE     ---       #923
      010098A6H   LINE      CODE     ---       #926
      010098ADH   LINE      CODE     ---       #927
      010098B4H   LINE      CODE     ---       #928
      010098B4H   LINE      CODE     ---       #932
      010098CCH   LINE      CODE     ---       #933
      010098DDH   LINE      CODE     ---       #934
      010098EEH   LINE      CODE     ---       #935
      010098FFH   LINE      CODE     ---       #936
      01009910H   LINE      CODE     ---       #937
      01009916H   LINE      CODE     ---       #939
      0100991DH   LINE      CODE     ---       #940
      01009926H   LINE      CODE     ---       #941
      01009926H   LINE      CODE     ---       #942
      0100992CH   LINE      CODE     ---       #943
      0100992CH   LINE      CODE     ---       #947
      01009932H   LINE      CODE     ---       #949
      01009935H   LINE      CODE     ---       #952
      01009938H   LINE      CODE     ---       #955
      01009959H   LINE      CODE     ---       #956
      01009960H   LINE      CODE     ---       #957
      ---         BLOCKEND  ---      ---       LVL=0

      ---         MODULE    ---      ---       UART_RS485
      02000DC5H   PUBLIC    XDATA    BYTE      UART_RS485_errorStatus
      02000DC4H   PUBLIC    XDATA    BYTE      UART_RS485_rxBufferOverflow
      02000DC3H   PUBLIC    XDATA    BYTE      UART_RS485_initVar
      02000DC2H   PUBLIC    XDATA    BYTE      UART_RS485_rxBufferWrite
      02000DA2H   PUBLIC    XDATA    ---       UART_RS485_rxBuffer
      02000DA1H   PUBLIC    XDATA    BYTE      UART_RS485_rxBufferRead
      02000DA0H   PUBLIC    XDATA    BYTE      UART_RS485_rxBufferLoopDetect
      0100B5BDH   PUBLIC    CODE     ---       UART_RS485_ClearTxBuffer
      0100AFA6H   PUBLIC    CODE     ---       _UART_RS485_PutString
      0100B6A3H   PUBLIC    CODE     ---       _UART_RS485_PutChar
      0100B812H   PUBLIC    CODE     ---       UART_RS485_ReadTxStatus
      0100B135H   PUBLIC    CODE     ---       UART_RS485_ClearRxBuffer
      0100AB3DH   PUBLIC    CODE     ---       UART_RS485_GetRxBufferSize
      0100A93AH   PUBLIC    CODE     ---       UART_RS485_GetChar
      0100B4EBH   PUBLIC    CODE     ---       UART_RS485_ReadRxStatus
      0100B2A9H   PUBLIC    CODE     ---       UART_RS485_Stop
      0100B287H   PUBLIC    CODE     ---       UART_RS485_Enable
      0100B00EH   PUBLIC    CODE     ---       UART_RS485_Init
      0100B4FFH   PUBLIC    CODE     ---       UART_RS485_Start
      000000CAH   SFRSYM    DATA     BYTE      SFRPRT5SEL
      000000DAH   SFRSYM    DATA     BYTE      SFRPRT6SEL
      000000D0H.6 SFRSYM    DATA     BIT       AC
      000000A8H.7 SFRSYM    DATA     BIT       EA
      000000A8H   SFRSYM    DATA     BYTE      IE
      00000085H   SFRSYM    DATA     BYTE      DPH1
      00000084H   SFRSYM    DATA     BYTE      DPL1
      000000D0H.7 SFRSYM    DATA     BIT       CY
      000000A0H   SFRSYM    DATA     BYTE      P2AX
      00000095H   SFRSYM    DATA     BYTE      DPX1
      00000081H   SFRSYM    DATA     BYTE      SP
      000000D0H.2 SFRSYM    DATA     BIT       OV
      00000080H   SFRSYM    DATA     BYTE      SFRPRT0DR
      00000090H   SFRSYM    DATA     BYTE      SFRPRT1DR
      000000F2H   SFRSYM    DATA     BYTE      SFRPRT12SEL
      00000098H   SFRSYM    DATA     BYTE      SFRPRT2DR
      000000B0H   SFRSYM    DATA     BYTE      SFRPRT3DR
      000000C0H   SFRSYM    DATA     BYTE      SFRPRT4DR
      000000FAH   SFRSYM    DATA     BYTE      SFRPRT15SEL
LX51 LINKER/LOCATER V4.64.0.0                                                         01/12/2018  13:27:04  PAGE 78


      000000C8H   SFRSYM    DATA     BYTE      SFRPRT5DR
      000000D8H   SFRSYM    DATA     BYTE      SFRPRT6DR
      00000089H   SFRSYM    DATA     BYTE      SFRPRT0PS
      00000091H   SFRSYM    DATA     BYTE      SFRPRT1PS
      00000099H   SFRSYM    DATA     BYTE      SFRPRT2PS
      000000B1H   SFRSYM    DATA     BYTE      SFRPRT3PS
      000000C1H   SFRSYM    DATA     BYTE      SFRPRT4PS
      000000C9H   SFRSYM    DATA     BYTE      SFRPRT5PS
      000000D9H   SFRSYM    DATA     BYTE      SFRPRT6PS
      000000EAH   SFRSYM    DATA     BYTE      MXAX
      000000F0H   SFRSYM    DATA     BYTE      B
      000000E0H   SFRSYM    DATA     BYTE      ACC
      000000D0H   SFRSYM    DATA     BIT       P
      000000D0H.3 SFRSYM    DATA     BIT       RS0
      000000D0H.4 SFRSYM    DATA     BIT       RS1
      00000083H   SFRSYM    DATA     BYTE      DPH
      000000E8H   SFRSYM    DATA     BYTE      SFRPRT12DR
      00000082H   SFRSYM    DATA     BYTE      DPL
      000000F8H   SFRSYM    DATA     BYTE      SFRPRT15DR
      00000086H   SFRSYM    DATA     BYTE      DPS
      000000E9H   SFRSYM    DATA     BYTE      SFRPRT12PS
      00000093H   SFRSYM    DATA     BYTE      DPX
      000000F9H   SFRSYM    DATA     BYTE      SFRPRT15PS
      000000D0H.5 SFRSYM    DATA     BIT       F0
      000000D0H.1 SFRSYM    DATA     BIT       F1
      0000008AH   SFRSYM    DATA     BYTE      SFRPRT0SEL
      000000D0H   SFRSYM    DATA     BYTE      PSW
      000000A2H   SFRSYM    DATA     BYTE      SFRPRT1SEL
      0000009AH   SFRSYM    DATA     BYTE      SFRPRT2SEL
      000000B2H   SFRSYM    DATA     BYTE      SFRPRT3SEL
      000000C2H   SFRSYM    DATA     BYTE      SFRPRT4SEL

      0100B4FFH   BLOCK     CODE     ---       LVL=0
      0100B4FFH   LINE      CODE     ---       #76
      0100B4FFH   LINE      CODE     ---       #77
      0100B4FFH   LINE      CODE     ---       #79
      0100B505H   LINE      CODE     ---       #80
      0100B505H   LINE      CODE     ---       #81
      0100B508H   LINE      CODE     ---       #82
      0100B50EH   LINE      CODE     ---       #83
      0100B50EH   LINE      CODE     ---       #85
      0100B511H   LINE      CODE     ---       #86
      ---         BLOCKEND  ---      ---       LVL=0

      0100B00EH   BLOCK     CODE     ---       LVL=0
      0100B00EH   LINE      CODE     ---       #106
      0100B00EH   LINE      CODE     ---       #107
      0100B00EH   LINE      CODE     ---       #112
      0100B017H   LINE      CODE     ---       #113
      0100B01EH   LINE      CODE     ---       #114
      0100B023H   LINE      CODE     ---       #124
      0100B029H   LINE      CODE     ---       #126
      0100B02FH   LINE      CODE     ---       #138
      0100B035H   LINE      CODE     ---       #139
      0100B03BH   LINE      CODE     ---       #150
      0100B040H   LINE      CODE     ---       #160
      ---         BLOCKEND  ---      ---       LVL=0

      0100B287H   BLOCK     CODE     ---       LVL=0
      0100B287H   BLOCK     CODE     NEAR LAB  LVL=1
      00000007H   SYMBOL    DATA     BYTE      enableInterrupts
      ---         BLOCKEND  ---      ---       LVL=1
      0100B287H   LINE      CODE     ---       #183
      0100B287H   LINE      CODE     ---       #184
      0100B287H   LINE      CODE     ---       #186
LX51 LINKER/LOCATER V4.64.0.0                                                         01/12/2018  13:27:04  PAGE 79


      0100B28AH   LINE      CODE     ---       #190
      0100B291H   LINE      CODE     ---       #193
      0100B298H   LINE      CODE     ---       #196
      0100B29EH   LINE      CODE     ---       #211
      0100B2A5H   LINE      CODE     ---       #222
      0100B2A8H   LINE      CODE     ---       #223
      ---         BLOCKEND  ---      ---       LVL=0

      0100B2A9H   BLOCK     CODE     ---       LVL=0
      0100B2A9H   BLOCK     CODE     NEAR LAB  LVL=1
      00000007H   SYMBOL    DATA     BYTE      enableInterrupts
      ---         BLOCKEND  ---      ---       LVL=1
      0100B2A9H   LINE      CODE     ---       #240
      0100B2A9H   LINE      CODE     ---       #241
      0100B2A9H   LINE      CODE     ---       #243
      0100B2ACH   LINE      CODE     ---       #247
      0100B2B3H   LINE      CODE     ---       #262
      0100B2BAH   LINE      CODE     ---       #265
      0100B2C0H   LINE      CODE     ---       #270
      0100B2C7H   LINE      CODE     ---       #277
      0100B2CAH   LINE      CODE     ---       #278
      ---         BLOCKEND  ---      ---       LVL=0
      00000007H   SYMBOL    DATA     BYTE      intSrc
      00000007H   SYMBOL    DATA     BYTE      rxData
      00000006H   SYMBOL    DATA     BYTE      locRxBufferRead
      00000005H   SYMBOL    DATA     BYTE      locRxBufferWrite

      0100B4EBH   BLOCK     CODE     ---       LVL=0
      0100B4EBH   BLOCK     CODE     NEAR LAB  LVL=1
      00000007H   SYMBOL    DATA     BYTE      status
      ---         BLOCKEND  ---      ---       LVL=1
      0100B4EBH   LINE      CODE     ---       #485
      0100B4EBH   LINE      CODE     ---       #486
      0100B4EBH   LINE      CODE     ---       #489
      0100B4F2H   LINE      CODE     ---       #492
      0100B4F8H   LINE      CODE     ---       #493
      0100B4F8H   LINE      CODE     ---       #494
      0100B4FCH   LINE      CODE     ---       #495
      0100B4FEH   LINE      CODE     ---       #496
      0100B4FEH   LINE      CODE     ---       #499
      0100B4FEH   LINE      CODE     ---       #500
      ---         BLOCKEND  ---      ---       LVL=0

      0100A93AH   BLOCK     CODE     ---       LVL=0
      0100A93AH   BLOCK     CODE     NEAR LAB  LVL=1
      00000007H   SYMBOL    DATA     BYTE      rxData
      00000006H   SYMBOL    DATA     BYTE      rxStatus
      00000006H   SYMBOL    DATA     BYTE      locRxBufferRead
      00000005H   SYMBOL    DATA     BYTE      locRxBufferWrite
      ---         BLOCKEND  ---      ---       LVL=1
      0100A93AH   LINE      CODE     ---       #532
      0100A93AH   LINE      CODE     ---       #533
      0100A93AH   LINE      CODE     ---       #534
      0100A93CH   LINE      CODE     ---       #542
      0100A942H   LINE      CODE     ---       #544
      0100A947H   LINE      CODE     ---       #545
      0100A94CH   LINE      CODE     ---       #547
      0100A956H   LINE      CODE     ---       #548
      0100A956H   LINE      CODE     ---       #549
      0100A962H   LINE      CODE     ---       #550
      0100A963H   LINE      CODE     ---       #551
      0100A969H   LINE      CODE     ---       #552
      0100A969H   LINE      CODE     ---       #553
      0100A96BH   LINE      CODE     ---       #554
      0100A96BH   LINE      CODE     ---       #556
LX51 LINKER/LOCATER V4.64.0.0                                                         01/12/2018  13:27:04  PAGE 80


      0100A970H   LINE      CODE     ---       #558
      0100A976H   LINE      CODE     ---       #559
      0100A976H   LINE      CODE     ---       #560
      0100A978H   LINE      CODE     ---       #575
      0100A978H   LINE      CODE     ---       #577
      0100A97AH   LINE      CODE     ---       #579
      0100A97FH   LINE      CODE     ---       #580
      0100A982H   LINE      CODE     ---       #581
      0100A982H   LINE      CODE     ---       #582
      0100A987H   LINE      CODE     ---       #585
      0100A98CH   LINE      CODE     ---       #586
      0100A98CH   LINE      CODE     ---       #587
      0100A98EH   LINE      CODE     ---       #588
      0100A98EH   LINE      CODE     ---       #589
      0100A98EH   LINE      CODE     ---       #590
      0100A98EH   LINE      CODE     ---       #592
      0100A994H   LINE      CODE     ---       #611
      0100A994H   LINE      CODE     ---       #612
      ---         BLOCKEND  ---      ---       LVL=0
      00000002H   SYMBOL    DATA     WORD      locErrorStatus

      0100AB3DH   BLOCK     CODE     ---       LVL=0
      0100AB3DH   BLOCK     CODE     NEAR LAB  LVL=1
      00000007H   SYMBOL    DATA     BYTE      size
      ---         BLOCKEND  ---      ---       LVL=1
      0100AB3DH   LINE      CODE     ---       #683
      0100AB3DH   LINE      CODE     ---       #685
      0100AB3DH   LINE      CODE     ---       #691
      0100AB43H   LINE      CODE     ---       #693
      0100AB4FH   LINE      CODE     ---       #694
      0100AB4FH   LINE      CODE     ---       #695
      0100AB55H   LINE      CODE     ---       #696
      0100AB55H   LINE      CODE     ---       #697
      0100AB57H   LINE      CODE     ---       #698
      0100AB59H   LINE      CODE     ---       #700
      0100AB59H   LINE      CODE     ---       #701
      0100AB5BH   LINE      CODE     ---       #702
      0100AB5BH   LINE      CODE     ---       #703
      0100AB5DH   LINE      CODE     ---       #704
      0100AB6AH   LINE      CODE     ---       #705
      0100AB6AH   LINE      CODE     ---       #706
      0100AB73H   LINE      CODE     ---       #707
      0100AB75H   LINE      CODE     ---       #709
      0100AB75H   LINE      CODE     ---       #710
      0100AB85H   LINE      CODE     ---       #711
      0100AB85H   LINE      CODE     ---       #713
      0100AB8BH   LINE      CODE     ---       #722
      0100AB8BH   LINE      CODE     ---       #723
      ---         BLOCKEND  ---      ---       LVL=0

      0100B135H   BLOCK     CODE     ---       LVL=0
      0100B135H   BLOCK     CODE     NEAR LAB  LVL=1
      00000007H   SYMBOL    DATA     BYTE      enableInterrupts
      ---         BLOCKEND  ---      ---       LVL=1
      0100B135H   LINE      CODE     ---       #757
      0100B135H   LINE      CODE     ---       #758
      0100B135H   LINE      CODE     ---       #762
      0100B138H   LINE      CODE     ---       #763
      0100B13FH   LINE      CODE     ---       #764
      0100B143H   LINE      CODE     ---       #765
      0100B146H   LINE      CODE     ---       #770
      0100B14CH   LINE      CODE     ---       #772
      0100B151H   LINE      CODE     ---       #773
      0100B155H   LINE      CODE     ---       #774
      0100B159H   LINE      CODE     ---       #775
LX51 LINKER/LOCATER V4.64.0.0                                                         01/12/2018  13:27:04  PAGE 81


      0100B15DH   LINE      CODE     ---       #777
      0100B163H   LINE      CODE     ---       #781
      ---         BLOCKEND  ---      ---       LVL=0
      00000007H   SYMBOL    DATA     BYTE      address
      00000007H   SYMBOL    DATA     BYTE      address
      00000007H   SYMBOL    DATA     BYTE      intSrc
      00000007H   SYMBOL    DATA     BYTE      txDataByte

      0100B812H   BLOCK     CODE     ---       LVL=0
      0100B812H   LINE      CODE     ---       #1003
      0100B812H   LINE      CODE     ---       #1004
      0100B812H   LINE      CODE     ---       #1005
      0100B817H   LINE      CODE     ---       #1006
      ---         BLOCKEND  ---      ---       LVL=0

      0100B6A3H   BLOCK     CODE     ---       LVL=0
      00000007H   SYMBOL    DATA     BYTE      txDataByte
      0100B6A3H   LINE      CODE     ---       #1041
      0100B6A3H   LINE      CODE     ---       #1042
      0100B6A3H   LINE      CODE     ---       #1107
      0100B6AAH   LINE      CODE     ---       #1108
      0100B6AAH   LINE      CODE     ---       #1110
      0100B6AAH   LINE      CODE     ---       #1113
      0100B6AFH   LINE      CODE     ---       #1116
      ---         BLOCKEND  ---      ---       LVL=0

      0100AFA6H   BLOCK     CODE     ---       LVL=0
      020005FDH   SYMBOL    XDATA    ---       string
      0100AFB1H   BLOCK     CODE     NEAR LAB  LVL=1
      00000004H   SYMBOL    DATA     WORD      bufIndex
      ---         BLOCKEND  ---      ---       LVL=1
      0100AFA6H   LINE      CODE     ---       #1145
      0100AFB1H   LINE      CODE     ---       #1146
      0100AFB1H   LINE      CODE     ---       #1147
      0100AFB4H   LINE      CODE     ---       #1150
      0100AFBAH   LINE      CODE     ---       #1151
      0100AFBAH   LINE      CODE     ---       #1153
      0100AFCFH   LINE      CODE     ---       #1154
      0100AFCFH   LINE      CODE     ---       #1155
      0100AFD2H   LINE      CODE     ---       #1156
      0100AFD7H   LINE      CODE     ---       #1157
      0100AFD9H   LINE      CODE     ---       #1158
      0100AFD9H   LINE      CODE     ---       #1159
      ---         BLOCKEND  ---      ---       LVL=0
      00000005H   SYMBOL    DATA     BYTE      byteCount
      00000006H   SYMBOL    DATA     BYTE      bufIndex
      00000007H   SYMBOL    DATA     BYTE      txDataByte
      00000007H   SYMBOL    DATA     BYTE      size

      0100B5BDH   BLOCK     CODE     ---       LVL=0
      0100B5BDH   BLOCK     CODE     NEAR LAB  LVL=1
      00000007H   SYMBOL    DATA     BYTE      enableInterrupts
      ---         BLOCKEND  ---      ---       LVL=1
      0100B5BDH   LINE      CODE     ---       #1354
      0100B5BDH   LINE      CODE     ---       #1355
      0100B5BDH   LINE      CODE     ---       #1358
      0100B5C0H   LINE      CODE     ---       #1360
      0100B5C7H   LINE      CODE     ---       #1361
      0100B5CBH   LINE      CODE     ---       #1362
      0100B5CEH   LINE      CODE     ---       #1376
      ---         BLOCKEND  ---      ---       LVL=0
      00000007H   SYMBOL    DATA     BYTE      retMode
      02000D9FH   SYMBOL    XDATA    BYTE      txPeriod

      ---         MODULE    ---      ---       PWM_MOTORS
LX51 LINKER/LOCATER V4.64.0.0                                                         01/12/2018  13:27:04  PAGE 82


      02000DF6H   PUBLIC    XDATA    BYTE      PWM_MOTORS_initVar
      0100B82AH   PUBLIC    CODE     ---       _PWM_MOTORS_WriteCompare2
      0100B824H   PUBLIC    CODE     ---       _PWM_MOTORS_WriteCompare1
      0100B81EH   PUBLIC    CODE     ---       _PWM_MOTORS_WritePeriod
      0100B818H   PUBLIC    CODE     ---       _PWM_MOTORS_WriteCounter
      0100B7B7H   PUBLIC    CODE     ---       PWM_MOTORS_Enable
      0100B23BH   PUBLIC    CODE     ---       PWM_MOTORS_Init
      0100B512H   PUBLIC    CODE     ---       PWM_MOTORS_Start
      000000CAH   SFRSYM    DATA     BYTE      SFRPRT5SEL
      000000DAH   SFRSYM    DATA     BYTE      SFRPRT6SEL
      000000D0H.6 SFRSYM    DATA     BIT       AC
      000000A8H.7 SFRSYM    DATA     BIT       EA
      000000A8H   SFRSYM    DATA     BYTE      IE
      00000085H   SFRSYM    DATA     BYTE      DPH1
      00000084H   SFRSYM    DATA     BYTE      DPL1
      000000D0H.7 SFRSYM    DATA     BIT       CY
      000000A0H   SFRSYM    DATA     BYTE      P2AX
      00000095H   SFRSYM    DATA     BYTE      DPX1
      00000081H   SFRSYM    DATA     BYTE      SP
      000000D0H.2 SFRSYM    DATA     BIT       OV
      00000080H   SFRSYM    DATA     BYTE      SFRPRT0DR
      00000090H   SFRSYM    DATA     BYTE      SFRPRT1DR
      000000F2H   SFRSYM    DATA     BYTE      SFRPRT12SEL
      00000098H   SFRSYM    DATA     BYTE      SFRPRT2DR
      000000B0H   SFRSYM    DATA     BYTE      SFRPRT3DR
      000000C0H   SFRSYM    DATA     BYTE      SFRPRT4DR
      000000FAH   SFRSYM    DATA     BYTE      SFRPRT15SEL
      000000C8H   SFRSYM    DATA     BYTE      SFRPRT5DR
      000000D8H   SFRSYM    DATA     BYTE      SFRPRT6DR
      00000089H   SFRSYM    DATA     BYTE      SFRPRT0PS
      00000091H   SFRSYM    DATA     BYTE      SFRPRT1PS
      00000099H   SFRSYM    DATA     BYTE      SFRPRT2PS
      000000B1H   SFRSYM    DATA     BYTE      SFRPRT3PS
      000000C1H   SFRSYM    DATA     BYTE      SFRPRT4PS
      000000C9H   SFRSYM    DATA     BYTE      SFRPRT5PS
      000000D9H   SFRSYM    DATA     BYTE      SFRPRT6PS
      000000EAH   SFRSYM    DATA     BYTE      MXAX
      000000F0H   SFRSYM    DATA     BYTE      B
      000000E0H   SFRSYM    DATA     BYTE      ACC
      000000D0H   SFRSYM    DATA     BIT       P
      000000D0H.3 SFRSYM    DATA     BIT       RS0
      000000D0H.4 SFRSYM    DATA     BIT       RS1
      00000083H   SFRSYM    DATA     BYTE      DPH
      000000E8H   SFRSYM    DATA     BYTE      SFRPRT12DR
      00000082H   SFRSYM    DATA     BYTE      DPL
      000000F8H   SFRSYM    DATA     BYTE      SFRPRT15DR
      00000086H   SFRSYM    DATA     BYTE      DPS
      000000E9H   SFRSYM    DATA     BYTE      SFRPRT12PS
      00000093H   SFRSYM    DATA     BYTE      DPX
      000000F9H   SFRSYM    DATA     BYTE      SFRPRT15PS
      000000D0H.5 SFRSYM    DATA     BIT       F0
      000000D0H.1 SFRSYM    DATA     BIT       F1
      0000008AH   SFRSYM    DATA     BYTE      SFRPRT0SEL
      000000D0H   SFRSYM    DATA     BYTE      PSW
      000000A2H   SFRSYM    DATA     BYTE      SFRPRT1SEL
      0000009AH   SFRSYM    DATA     BYTE      SFRPRT2SEL
      000000B2H   SFRSYM    DATA     BYTE      SFRPRT3SEL
      000000C2H   SFRSYM    DATA     BYTE      SFRPRT4SEL

      0100B512H   BLOCK     CODE     ---       LVL=0
      0100B512H   LINE      CODE     ---       #55
      0100B512H   LINE      CODE     ---       #56
      0100B512H   LINE      CODE     ---       #58
      0100B518H   LINE      CODE     ---       #59
      0100B518H   LINE      CODE     ---       #60
LX51 LINKER/LOCATER V4.64.0.0                                                         01/12/2018  13:27:04  PAGE 83


      0100B51BH   LINE      CODE     ---       #61
      0100B521H   LINE      CODE     ---       #62
      0100B521H   LINE      CODE     ---       #63
      0100B524H   LINE      CODE     ---       #65
      ---         BLOCKEND  ---      ---       LVL=0

      0100B23BH   BLOCK     CODE     ---       LVL=0
      0100B23BH   BLOCK     CODE     NEAR LAB  LVL=1
      00000007H   SYMBOL    DATA     BYTE      ctrl
      ---         BLOCKEND  ---      ---       LVL=1
      0100B23BH   LINE      CODE     ---       #84
      0100B23BH   LINE      CODE     ---       #85
      0100B23BH   LINE      CODE     ---       #118
      0100B242H   LINE      CODE     ---       #120
      0100B245H   LINE      CODE     ---       #126
      0100B24CH   LINE      CODE     ---       #133
      0100B251H   LINE      CODE     ---       #136
      0100B256H   LINE      CODE     ---       #141
      0100B25BH   LINE      CODE     ---       #142
      0100B260H   LINE      CODE     ---       #179
      ---         BLOCKEND  ---      ---       LVL=0

      0100B7B7H   BLOCK     CODE     ---       LVL=0
      0100B7B7H   LINE      CODE     ---       #199
      0100B7B7H   LINE      CODE     ---       #200
      0100B7B7H   LINE      CODE     ---       #209
      0100B7BEH   LINE      CODE     ---       #211
      ---         BLOCKEND  ---      ---       LVL=0

      0100B818H   BLOCK     CODE     ---       LVL=0
      00000007H   SYMBOL    DATA     BYTE      counter
      0100B818H   LINE      CODE     ---       #403
      0100B818H   LINE      CODE     ---       #405
      0100B818H   LINE      CODE     ---       #406
      0100B81DH   LINE      CODE     ---       #407
      ---         BLOCKEND  ---      ---       LVL=0

      0100B81EH   BLOCK     CODE     ---       LVL=0
      00000007H   SYMBOL    DATA     BYTE      period
      0100B81EH   LINE      CODE     ---       #482
      0100B81EH   LINE      CODE     ---       #483
      0100B81EH   LINE      CODE     ---       #487
      0100B823H   LINE      CODE     ---       #489
      ---         BLOCKEND  ---      ---       LVL=0

      0100B824H   BLOCK     CODE     ---       LVL=0
      00000007H   SYMBOL    DATA     BYTE      compare
      0100B824H   LINE      CODE     ---       #555
      0100B824H   LINE      CODE     ---       #557
      0100B824H   LINE      CODE     ---       #561
      0100B829H   LINE      CODE     ---       #563
      ---         BLOCKEND  ---      ---       LVL=0

      0100B82AH   BLOCK     CODE     ---       LVL=0
      00000007H   SYMBOL    DATA     BYTE      compare
      0100B82AH   LINE      CODE     ---       #584
      0100B82AH   LINE      CODE     ---       #586
      0100B82AH   LINE      CODE     ---       #590
      0100B82FH   LINE      CODE     ---       #592
      ---         BLOCKEND  ---      ---       LVL=0
      00000007H   SYMBOL    DATA     BYTE      result
      00000007H   SYMBOL    DATA     BYTE      control

      ---         MODULE    ---      ---       ISR_RS485_RX
      0100B7F6H   PUBLIC    CODE     ---       ISR_RS485_RX_Disable
LX51 LINKER/LOCATER V4.64.0.0                                                         01/12/2018  13:27:04  PAGE 84


      0100B7EFH   PUBLIC    CODE     ---       ISR_RS485_RX_Enable
      0100B735H   PUBLIC    CODE     ---       _ISR_RS485_RX_SetPriority
      0100AEF2H   PUBLIC    CODE     ---       _ISR_RS485_RX_SetVector
      0100B192H   PUBLIC    CODE     ---       ISR_RS485_RX_Interrupt
      0100B30CH   PUBLIC    CODE     ---       _ISR_RS485_RX_StartEx
      000000CAH   SFRSYM    DATA     BYTE      SFRPRT5SEL
      000000DAH   SFRSYM    DATA     BYTE      SFRPRT6SEL
      000000D0H.6 SFRSYM    DATA     BIT       AC
      000000A8H.7 SFRSYM    DATA     BIT       EA
      000000A8H   SFRSYM    DATA     BYTE      IE
      00000085H   SFRSYM    DATA     BYTE      DPH1
      00000084H   SFRSYM    DATA     BYTE      DPL1
      000000D0H.7 SFRSYM    DATA     BIT       CY
      000000A0H   SFRSYM    DATA     BYTE      P2AX
      00000095H   SFRSYM    DATA     BYTE      DPX1
      00000081H   SFRSYM    DATA     BYTE      SP
      000000D0H.2 SFRSYM    DATA     BIT       OV
      00000080H   SFRSYM    DATA     BYTE      SFRPRT0DR
      00000090H   SFRSYM    DATA     BYTE      SFRPRT1DR
      000000F2H   SFRSYM    DATA     BYTE      SFRPRT12SEL
      00000098H   SFRSYM    DATA     BYTE      SFRPRT2DR
      000000B0H   SFRSYM    DATA     BYTE      SFRPRT3DR
      000000C0H   SFRSYM    DATA     BYTE      SFRPRT4DR
      000000FAH   SFRSYM    DATA     BYTE      SFRPRT15SEL
      000000C8H   SFRSYM    DATA     BYTE      SFRPRT5DR
      000000D8H   SFRSYM    DATA     BYTE      SFRPRT6DR
      00000089H   SFRSYM    DATA     BYTE      SFRPRT0PS
      00000091H   SFRSYM    DATA     BYTE      SFRPRT1PS
      00000099H   SFRSYM    DATA     BYTE      SFRPRT2PS
      000000B1H   SFRSYM    DATA     BYTE      SFRPRT3PS
      000000C1H   SFRSYM    DATA     BYTE      SFRPRT4PS
      000000C9H   SFRSYM    DATA     BYTE      SFRPRT5PS
      000000D9H   SFRSYM    DATA     BYTE      SFRPRT6PS
      000000EAH   SFRSYM    DATA     BYTE      MXAX
      000000F0H   SFRSYM    DATA     BYTE      B
      000000E0H   SFRSYM    DATA     BYTE      ACC
      000000D0H   SFRSYM    DATA     BIT       P
      000000D0H.3 SFRSYM    DATA     BIT       RS0
      000000D0H.4 SFRSYM    DATA     BIT       RS1
      00000083H   SFRSYM    DATA     BYTE      DPH
      000000E8H   SFRSYM    DATA     BYTE      SFRPRT12DR
      00000082H   SFRSYM    DATA     BYTE      DPL
      000000F8H   SFRSYM    DATA     BYTE      SFRPRT15DR
      00000086H   SFRSYM    DATA     BYTE      DPS
      000000E9H   SFRSYM    DATA     BYTE      SFRPRT12PS
      00000093H   SFRSYM    DATA     BYTE      DPX
      000000F9H   SFRSYM    DATA     BYTE      SFRPRT15PS
      000000D0H.5 SFRSYM    DATA     BIT       F0
      000000D0H.1 SFRSYM    DATA     BIT       F1
      0000008AH   SFRSYM    DATA     BYTE      SFRPRT0SEL
      000000D0H   SFRSYM    DATA     BYTE      PSW
      000000A2H   SFRSYM    DATA     BYTE      SFRPRT1SEL
      0000009AH   SFRSYM    DATA     BYTE      SFRPRT2SEL
      000000B2H   SFRSYM    DATA     BYTE      SFRPRT3SEL
      000000C2H   SFRSYM    DATA     BYTE      SFRPRT4SEL

      0100B30CH   BLOCK     CODE     ---       LVL=0
      02000003H   SYMBOL    XDATA    ---       address
      0100B30CH   LINE      CODE     ---       #94
      0100B314H   LINE      CODE     ---       #95
      0100B314H   LINE      CODE     ---       #97
      0100B317H   LINE      CODE     ---       #100
      0100B322H   LINE      CODE     ---       #103
      0100B327H   LINE      CODE     ---       #106
      0100B32AH   LINE      CODE     ---       #107
LX51 LINKER/LOCATER V4.64.0.0                                                         01/12/2018  13:27:04  PAGE 85


      ---         BLOCKEND  ---      ---       LVL=0

      0100B192H   BLOCK     CODE     ---       LVL=0
      0100B192H   LINE      CODE     ---       #151
      0100B192H   LINE      CODE     ---       #168
      ---         BLOCKEND  ---      ---       LVL=0

      0100AEF2H   BLOCK     CODE     ---       LVL=0
      00000006H   SYMBOL    DATA     ---       address
      0100AEF2H   LINE      CODE     ---       #198
      0100AEF2H   LINE      CODE     ---       #199
      0100AEF2H   LINE      CODE     ---       #200
      0100AEFFH   LINE      CODE     ---       #201
      ---         BLOCKEND  ---      ---       LVL=0

      0100B735H   BLOCK     CODE     ---       LVL=0
      00000007H   SYMBOL    DATA     BYTE      priority
      0100B735H   LINE      CODE     ---       #248
      0100B735H   LINE      CODE     ---       #249
      0100B735H   LINE      CODE     ---       #250
      0100B73EH   LINE      CODE     ---       #251
      ---         BLOCKEND  ---      ---       LVL=0
      00000007H   SYMBOL    DATA     BYTE      priority

      0100B7EFH   BLOCK     CODE     ---       LVL=0
      0100B7EFH   LINE      CODE     ---       #297
      0100B7EFH   LINE      CODE     ---       #298
      0100B7EFH   LINE      CODE     ---       #300
      0100B7F5H   LINE      CODE     ---       #301
      ---         BLOCKEND  ---      ---       LVL=0

      0100B7F6H   BLOCK     CODE     ---       LVL=0
      0100B7F6H   LINE      CODE     ---       #339
      0100B7F6H   LINE      CODE     ---       #340
      0100B7F6H   LINE      CODE     ---       #342
      0100B7FCH   LINE      CODE     ---       #343
      ---         BLOCKEND  ---      ---       LVL=0

      ---         MODULE    ---      ---       CLOCK_UART
      0100B7BFH   PUBLIC    CODE     ---       CLOCK_UART_GetSourceRegister
      0100B73FH   PUBLIC    CODE     ---       CLOCK_UART_GetDividerRegister
      01009278H   PUBLIC    CODE     ---       _CLOCK_UART_SetDividerRegister
      00000007H   SYMBOL    DATA     BYTE      state

      01009278H   BLOCK     CODE     ---       LVL=0
      02000021H   SYMBOL    XDATA    WORD      clkDivider
      02000023H   SYMBOL    XDATA    BYTE      restart
      01009283H   BLOCK     CODE     NEAR LAB  LVL=1
      02000024H   SYMBOL    XDATA    BYTE      enabled
      02000025H   SYMBOL    XDATA    BYTE      currSrc
      02000026H   SYMBOL    XDATA    WORD      oldDivider
      ---         BLOCKEND  ---      ---       LVL=1
      01009278H   LINE      CODE     ---       #193
      01009283H   LINE      CODE     ---       #195
      01009283H   LINE      CODE     ---       #198
      0100928BH   LINE      CODE     ---       #199
      01009296H   LINE      CODE     ---       #201
      010092A8H   LINE      CODE     ---       #202
      010092A8H   LINE      CODE     ---       #203
      010092B2H   LINE      CODE     ---       #205
      010092C3H   LINE      CODE     ---       #206
      010092C3H   LINE      CODE     ---       #208
      010092C7H   LINE      CODE     ---       #209
      010092C7H   LINE      CODE     ---       #213
      010092D0H   LINE      CODE     ---       #214
LX51 LINKER/LOCATER V4.64.0.0                                                         01/12/2018  13:27:04  PAGE 86


      010092D7H   LINE      CODE     ---       #215
      010092D8H   LINE      CODE     ---       #217
      010092D8H   LINE      CODE     ---       #220
      010092DFH   LINE      CODE     ---       #221
      010092F0H   LINE      CODE     ---       #222
      010092F0H   LINE      CODE     ---       #223
      010092F1H   LINE      CODE     ---       #225
      010092F1H   LINE      CODE     ---       #227
      010092F7H   LINE      CODE     ---       #228
      010092F7H   LINE      CODE     ---       #229
      010092FCH   LINE      CODE     ---       #236
      01009301H   LINE      CODE     ---       #237
      01009306H   LINE      CODE     ---       #240
      0100930DH   LINE      CODE     ---       #243
      0100931FH   LINE      CODE     ---       #244
      0100931FH   LINE      CODE     ---       #246
      01009330H   LINE      CODE     ---       #247
      01009336H   LINE      CODE     ---       #250
      0100933EH   LINE      CODE     ---       #253
      01009345H   LINE      CODE     ---       #257
      0100934AH   LINE      CODE     ---       #259
      0100934AH   LINE      CODE     ---       #260
      0100934AH   LINE      CODE     ---       #263
      01009352H   LINE      CODE     ---       #264
      01009352H   LINE      CODE     ---       #266
      01009363H   LINE      CODE     ---       #268
      01009376H   LINE      CODE     ---       #269
      01009380H   LINE      CODE     ---       #270
      01009381H   LINE      CODE     ---       #272
      01009381H   LINE      CODE     ---       #274
      01009392H   LINE      CODE     ---       #275
      010093A7H   LINE      CODE     ---       #276
      010093A7H   LINE      CODE     ---       #277
      010093A7H   LINE      CODE     ---       #278
      010093A7H   LINE      CODE     ---       #279
      ---         BLOCKEND  ---      ---       LVL=0

      0100B73FH   BLOCK     CODE     ---       LVL=0
      0100B73FH   LINE      CODE     ---       #297
      0100B73FH   LINE      CODE     ---       #298
      0100B73FH   LINE      CODE     ---       #299
      0100B748H   LINE      CODE     ---       #300
      ---         BLOCKEND  ---      ---       LVL=0
      00000007H   SYMBOL    DATA     BYTE      modeBitMask
      00000007H   SYMBOL    DATA     BYTE      modeBitMask
      00000007H   SYMBOL    DATA     BYTE      oldSrc

      0100B7BFH   BLOCK     CODE     ---       LVL=0
      0100B7BFH   LINE      CODE     ---       #464
      0100B7BFH   LINE      CODE     ---       #465
      0100B7BFH   LINE      CODE     ---       #466
      0100B7C6H   LINE      CODE     ---       #467
      ---         BLOCKEND  ---      ---       LVL=0

      ---         MODULE    ---      ---       COUNTER_ENC
      02000DF7H   PUBLIC    XDATA    BYTE      COUNTER_ENC_initVar
      0100B6B0H   PUBLIC    CODE     ---       COUNTER_ENC_ClearFIFO
      0100B84EH   PUBLIC    CODE     ---       _COUNTER_ENC_WriteCompare
      0100B848H   PUBLIC    CODE     ---       _COUNTER_ENC_WritePeriod
      0100B842H   PUBLIC    CODE     ---       COUNTER_ENC_ReadCapture
      0100B83CH   PUBLIC    CODE     ---       _COUNTER_ENC_WriteCounter
      0100B836H   PUBLIC    CODE     ---       COUNTER_ENC_ReadStatusRegister
      0100B830H   PUBLIC    CODE     ---       _COUNTER_ENC_SetInterruptMode
      0100B525H   PUBLIC    CODE     ---       COUNTER_ENC_Start
      0100B7C7H   PUBLIC    CODE     ---       COUNTER_ENC_Enable
LX51 LINKER/LOCATER V4.64.0.0                                                         01/12/2018  13:27:04  PAGE 87


      0100AF71H   PUBLIC    CODE     ---       COUNTER_ENC_Init
      000000CAH   SFRSYM    DATA     BYTE      SFRPRT5SEL
      000000DAH   SFRSYM    DATA     BYTE      SFRPRT6SEL
      000000D0H.6 SFRSYM    DATA     BIT       AC
      000000A8H.7 SFRSYM    DATA     BIT       EA
      000000A8H   SFRSYM    DATA     BYTE      IE
      00000085H   SFRSYM    DATA     BYTE      DPH1
      00000084H   SFRSYM    DATA     BYTE      DPL1
      000000D0H.7 SFRSYM    DATA     BIT       CY
      000000A0H   SFRSYM    DATA     BYTE      P2AX
      00000095H   SFRSYM    DATA     BYTE      DPX1
      00000081H   SFRSYM    DATA     BYTE      SP
      000000D0H.2 SFRSYM    DATA     BIT       OV
      00000080H   SFRSYM    DATA     BYTE      SFRPRT0DR
      00000090H   SFRSYM    DATA     BYTE      SFRPRT1DR
      000000F2H   SFRSYM    DATA     BYTE      SFRPRT12SEL
      00000098H   SFRSYM    DATA     BYTE      SFRPRT2DR
      000000B0H   SFRSYM    DATA     BYTE      SFRPRT3DR
      000000C0H   SFRSYM    DATA     BYTE      SFRPRT4DR
      000000FAH   SFRSYM    DATA     BYTE      SFRPRT15SEL
      000000C8H   SFRSYM    DATA     BYTE      SFRPRT5DR
      000000D8H   SFRSYM    DATA     BYTE      SFRPRT6DR
      00000089H   SFRSYM    DATA     BYTE      SFRPRT0PS
      00000091H   SFRSYM    DATA     BYTE      SFRPRT1PS
      00000099H   SFRSYM    DATA     BYTE      SFRPRT2PS
      000000B1H   SFRSYM    DATA     BYTE      SFRPRT3PS
      000000C1H   SFRSYM    DATA     BYTE      SFRPRT4PS
      000000C9H   SFRSYM    DATA     BYTE      SFRPRT5PS
      000000D9H   SFRSYM    DATA     BYTE      SFRPRT6PS
      000000EAH   SFRSYM    DATA     BYTE      MXAX
      000000F0H   SFRSYM    DATA     BYTE      B
      000000E0H   SFRSYM    DATA     BYTE      ACC
      000000D0H   SFRSYM    DATA     BIT       P
      000000D0H.3 SFRSYM    DATA     BIT       RS0
      000000D0H.4 SFRSYM    DATA     BIT       RS1
      00000083H   SFRSYM    DATA     BYTE      DPH
      000000E8H   SFRSYM    DATA     BYTE      SFRPRT12DR
      00000082H   SFRSYM    DATA     BYTE      DPL
      000000F8H   SFRSYM    DATA     BYTE      SFRPRT15DR
      00000086H   SFRSYM    DATA     BYTE      DPS
      000000E9H   SFRSYM    DATA     BYTE      SFRPRT12PS
      00000093H   SFRSYM    DATA     BYTE      DPX
      000000F9H   SFRSYM    DATA     BYTE      SFRPRT15PS
      000000D0H.5 SFRSYM    DATA     BIT       F0
      000000D0H.1 SFRSYM    DATA     BIT       F1
      0000008AH   SFRSYM    DATA     BYTE      SFRPRT0SEL
      000000D0H   SFRSYM    DATA     BYTE      PSW
      000000A2H   SFRSYM    DATA     BYTE      SFRPRT1SEL
      0000009AH   SFRSYM    DATA     BYTE      SFRPRT2SEL
      000000B2H   SFRSYM    DATA     BYTE      SFRPRT3SEL
      000000C2H   SFRSYM    DATA     BYTE      SFRPRT4SEL

      0100AF71H   BLOCK     CODE     ---       LVL=0
      0100AF71H   BLOCK     CODE     NEAR LAB  LVL=1
      00000007H   SYMBOL    DATA     BYTE      ctrl
      00000007H   SYMBOL    DATA     BYTE      COUNTER_ENC_interruptState
      ---         BLOCKEND  ---      ---       LVL=1
      0100AF71H   LINE      CODE     ---       #37
      0100AF71H   LINE      CODE     ---       #38
      0100AF71H   LINE      CODE     ---       #79
      0100AF78H   LINE      CODE     ---       #80
      0100AF79H   LINE      CODE     ---       #83
      0100AF7DH   LINE      CODE     ---       #88
      0100AF7EH   LINE      CODE     ---       #96
      0100AF81H   LINE      CODE     ---       #100
LX51 LINKER/LOCATER V4.64.0.0                                                         01/12/2018  13:27:04  PAGE 88


      0100AF86H   LINE      CODE     ---       #102
      0100AF8BH   LINE      CODE     ---       #104
      0100AF90H   LINE      CODE     ---       #108
      0100AF93H   LINE      CODE     ---       #110
      0100AF98H   LINE      CODE     ---       #115
      0100AF9BH   LINE      CODE     ---       #117
      0100AFA2H   LINE      CODE     ---       #120
      0100AFA5H   LINE      CODE     ---       #123
      ---         BLOCKEND  ---      ---       LVL=0

      0100B7C7H   BLOCK     CODE     ---       LVL=0
      0100B7C7H   LINE      CODE     ---       #143
      0100B7C7H   LINE      CODE     ---       #144
      0100B7C7H   LINE      CODE     ---       #155
      0100B7CEH   LINE      CODE     ---       #158
      ---         BLOCKEND  ---      ---       LVL=0

      0100B525H   BLOCK     CODE     ---       LVL=0
      0100B525H   LINE      CODE     ---       #178
      0100B525H   LINE      CODE     ---       #179
      0100B525H   LINE      CODE     ---       #180
      0100B52BH   LINE      CODE     ---       #181
      0100B52BH   LINE      CODE     ---       #182
      0100B52EH   LINE      CODE     ---       #184
      0100B534H   LINE      CODE     ---       #185
      0100B534H   LINE      CODE     ---       #188
      0100B537H   LINE      CODE     ---       #189
      ---         BLOCKEND  ---      ---       LVL=0

      0100B830H   BLOCK     CODE     ---       LVL=0
      00000007H   SYMBOL    DATA     BYTE      interruptsMask
      0100B830H   LINE      CODE     ---       #237
      0100B830H   LINE      CODE     ---       #238
      0100B830H   LINE      CODE     ---       #239
      0100B835H   LINE      CODE     ---       #240
      ---         BLOCKEND  ---      ---       LVL=0

      0100B836H   BLOCK     CODE     ---       LVL=0
      0100B836H   LINE      CODE     ---       #261
      0100B836H   LINE      CODE     ---       #262
      0100B836H   LINE      CODE     ---       #263
      0100B83BH   LINE      CODE     ---       #264
      ---         BLOCKEND  ---      ---       LVL=0
      00000007H   SYMBOL    DATA     BYTE      control

      0100B83CH   BLOCK     CODE     ---       LVL=0
      00000007H   SYMBOL    DATA     BYTE      counter
      0100B83CH   LINE      CODE     ---       #326
      0100B83CH   LINE      CODE     ---       #328
      0100B83CH   LINE      CODE     ---       #337
      0100B841H   LINE      CODE     ---       #339
      ---         BLOCKEND  ---      ---       LVL=0

      0100B842H   BLOCK     CODE     ---       LVL=0
      0100B842H   LINE      CODE     ---       #390
      0100B842H   LINE      CODE     ---       #391
      0100B842H   LINE      CODE     ---       #395
      0100B847H   LINE      CODE     ---       #397
      ---         BLOCKEND  ---      ---       LVL=0

      0100B848H   BLOCK     CODE     ---       LVL=0
      00000007H   SYMBOL    DATA     BYTE      period
      0100B848H   LINE      CODE     ---       #415
      0100B848H   LINE      CODE     ---       #416
      0100B848H   LINE      CODE     ---       #420
LX51 LINKER/LOCATER V4.64.0.0                                                         01/12/2018  13:27:04  PAGE 89


      0100B84DH   LINE      CODE     ---       #422
      ---         BLOCKEND  ---      ---       LVL=0

      0100B84EH   BLOCK     CODE     ---       LVL=0
      00000007H   SYMBOL    DATA     BYTE      compare
      0100B84EH   LINE      CODE     ---       #465
      0100B84EH   LINE      CODE     ---       #467
      0100B84EH   LINE      CODE     ---       #471
      0100B853H   LINE      CODE     ---       #473
      ---         BLOCKEND  ---      ---       LVL=0

      0100B6B0H   BLOCK     CODE     ---       LVL=0
      0100B6B0H   LINE      CODE     ---       #558
      0100B6B0H   LINE      CODE     ---       #559
      0100B6B0H   LINE      CODE     ---       #561
      0100B6B7H   LINE      CODE     ---       #562
      0100B6B7H   LINE      CODE     ---       #563
      0100B6BAH   LINE      CODE     ---       #564
      0100B6BCH   LINE      CODE     ---       #566
      ---         BLOCKEND  ---      ---       LVL=0

      ---         MODULE    ---      ---       SHIFTREG_ENC_1
      02000DF8H   PUBLIC    XDATA    BYTE      SHIFTREG_ENC_1_initVar
      0100B749H   PUBLIC    CODE     ---       SHIFTREG_ENC_1_ReadData
      0100B5E1H   PUBLIC    CODE     ---       _SHIFTREG_ENC_1_SetIntMode
      0100B641H   PUBLIC    CODE     ---       SHIFTREG_ENC_1_EnableInt
      0100B854H   PUBLIC    CODE     ---       SHIFTREG_ENC_1_Init
      0100B714H   PUBLIC    CODE     ---       SHIFTREG_ENC_1_Enable
      0100B538H   PUBLIC    CODE     ---       SHIFTREG_ENC_1_Start
      000000CAH   SFRSYM    DATA     BYTE      SFRPRT5SEL
      000000DAH   SFRSYM    DATA     BYTE      SFRPRT6SEL
      000000D0H.6 SFRSYM    DATA     BIT       AC
      000000A8H.7 SFRSYM    DATA     BIT       EA
      000000A8H   SFRSYM    DATA     BYTE      IE
      00000085H   SFRSYM    DATA     BYTE      DPH1
      00000084H   SFRSYM    DATA     BYTE      DPL1
      000000D0H.7 SFRSYM    DATA     BIT       CY
      000000A0H   SFRSYM    DATA     BYTE      P2AX
      00000095H   SFRSYM    DATA     BYTE      DPX1
      00000081H   SFRSYM    DATA     BYTE      SP
      000000D0H.2 SFRSYM    DATA     BIT       OV
      00000080H   SFRSYM    DATA     BYTE      SFRPRT0DR
      00000090H   SFRSYM    DATA     BYTE      SFRPRT1DR
      000000F2H   SFRSYM    DATA     BYTE      SFRPRT12SEL
      00000098H   SFRSYM    DATA     BYTE      SFRPRT2DR
      000000B0H   SFRSYM    DATA     BYTE      SFRPRT3DR
      000000C0H   SFRSYM    DATA     BYTE      SFRPRT4DR
      000000FAH   SFRSYM    DATA     BYTE      SFRPRT15SEL
      000000C8H   SFRSYM    DATA     BYTE      SFRPRT5DR
      000000D8H   SFRSYM    DATA     BYTE      SFRPRT6DR
      00000089H   SFRSYM    DATA     BYTE      SFRPRT0PS
      00000091H   SFRSYM    DATA     BYTE      SFRPRT1PS
      00000099H   SFRSYM    DATA     BYTE      SFRPRT2PS
      000000B1H   SFRSYM    DATA     BYTE      SFRPRT3PS
      000000C1H   SFRSYM    DATA     BYTE      SFRPRT4PS
      000000C9H   SFRSYM    DATA     BYTE      SFRPRT5PS
      000000D9H   SFRSYM    DATA     BYTE      SFRPRT6PS
      000000EAH   SFRSYM    DATA     BYTE      MXAX
      000000F0H   SFRSYM    DATA     BYTE      B
      000000E0H   SFRSYM    DATA     BYTE      ACC
      000000D0H   SFRSYM    DATA     BIT       P
      000000D0H.3 SFRSYM    DATA     BIT       RS0
      000000D0H.4 SFRSYM    DATA     BIT       RS1
      00000083H   SFRSYM    DATA     BYTE      DPH
      000000E8H   SFRSYM    DATA     BYTE      SFRPRT12DR
LX51 LINKER/LOCATER V4.64.0.0                                                         01/12/2018  13:27:04  PAGE 90


      00000082H   SFRSYM    DATA     BYTE      DPL
      000000F8H   SFRSYM    DATA     BYTE      SFRPRT15DR
      00000086H   SFRSYM    DATA     BYTE      DPS
      000000E9H   SFRSYM    DATA     BYTE      SFRPRT12PS
      00000093H   SFRSYM    DATA     BYTE      DPX
      000000F9H   SFRSYM    DATA     BYTE      SFRPRT15PS
      000000D0H.5 SFRSYM    DATA     BIT       F0
      000000D0H.1 SFRSYM    DATA     BIT       F1
      0000008AH   SFRSYM    DATA     BYTE      SFRPRT0SEL
      000000D0H   SFRSYM    DATA     BYTE      PSW
      000000A2H   SFRSYM    DATA     BYTE      SFRPRT1SEL
      0000009AH   SFRSYM    DATA     BYTE      SFRPRT2SEL
      000000B2H   SFRSYM    DATA     BYTE      SFRPRT3SEL
      000000C2H   SFRSYM    DATA     BYTE      SFRPRT4SEL

      0100B538H   BLOCK     CODE     ---       LVL=0
      0100B538H   LINE      CODE     ---       #43
      0100B538H   LINE      CODE     ---       #44
      0100B538H   LINE      CODE     ---       #45
      0100B53EH   LINE      CODE     ---       #46
      0100B53EH   LINE      CODE     ---       #47
      0100B541H   LINE      CODE     ---       #48
      0100B547H   LINE      CODE     ---       #49
      0100B547H   LINE      CODE     ---       #51
      0100B54AH   LINE      CODE     ---       #52
      ---         BLOCKEND  ---      ---       LVL=0

      0100B714H   BLOCK     CODE     ---       LVL=0
      0100B714H   LINE      CODE     ---       #69
      0100B714H   LINE      CODE     ---       #70
      0100B714H   LINE      CODE     ---       #73
      0100B71BH   LINE      CODE     ---       #75
      0100B71EH   LINE      CODE     ---       #76
      ---         BLOCKEND  ---      ---       LVL=0

      0100B854H   BLOCK     CODE     ---       LVL=0
      0100B854H   LINE      CODE     ---       #93
      0100B854H   LINE      CODE     ---       #94
      0100B854H   LINE      CODE     ---       #95
      0100B859H   LINE      CODE     ---       #96
      ---         BLOCKEND  ---      ---       LVL=0

      0100B641H   BLOCK     CODE     ---       LVL=0
      0100B641H   BLOCK     CODE     NEAR LAB  LVL=1
      00000007H   SYMBOL    DATA     BYTE      interruptState
      ---         BLOCKEND  ---      ---       LVL=1
      0100B641H   LINE      CODE     ---       #135
      0100B641H   LINE      CODE     ---       #136
      0100B641H   LINE      CODE     ---       #139
      0100B644H   LINE      CODE     ---       #140
      0100B64BH   LINE      CODE     ---       #141
      0100B64EH   LINE      CODE     ---       #142
      ---         BLOCKEND  ---      ---       LVL=0
      00000007H   SYMBOL    DATA     BYTE      interruptState
      00000007H   SYMBOL    DATA     BYTE      fifoId
      00000005H   SYMBOL    DATA     BYTE      result

      0100B5E1H   BLOCK     CODE     ---       LVL=0
      00000007H   SYMBOL    DATA     BYTE      interruptSource
      0100B5E1H   LINE      CODE     ---       #261
      0100B5E1H   LINE      CODE     ---       #262
      0100B5E1H   LINE      CODE     ---       #263
      0100B5E8H   LINE      CODE     ---       #264
      0100B5F1H   LINE      CODE     ---       #265
      ---         BLOCKEND  ---      ---       LVL=0
LX51 LINKER/LOCATER V4.64.0.0                                                         01/12/2018  13:27:04  PAGE 91


      00000004H   SYMBOL    DATA     DWORD     shiftData

      0100B749H   BLOCK     CODE     ---       LVL=0
      0100B749H   LINE      CODE     ---       #366
      0100B749H   LINE      CODE     ---       #367
      0100B749H   LINE      CODE     ---       #368
      0100B752H   LINE      CODE     ---       #369
      ---         BLOCKEND  ---      ---       LVL=0

      ---         MODULE    ---      ---       SHIFTREG_ENC_2
      02000DF9H   PUBLIC    XDATA    BYTE      SHIFTREG_ENC_2_initVar
      0100B753H   PUBLIC    CODE     ---       SHIFTREG_ENC_2_ReadData
      0100B5F2H   PUBLIC    CODE     ---       _SHIFTREG_ENC_2_SetIntMode
      0100B64FH   PUBLIC    CODE     ---       SHIFTREG_ENC_2_EnableInt
      0100B85AH   PUBLIC    CODE     ---       SHIFTREG_ENC_2_Init
      0100B71FH   PUBLIC    CODE     ---       SHIFTREG_ENC_2_Enable
      0100B54BH   PUBLIC    CODE     ---       SHIFTREG_ENC_2_Start
      000000CAH   SFRSYM    DATA     BYTE      SFRPRT5SEL
      000000DAH   SFRSYM    DATA     BYTE      SFRPRT6SEL
      000000D0H.6 SFRSYM    DATA     BIT       AC
      000000A8H.7 SFRSYM    DATA     BIT       EA
      000000A8H   SFRSYM    DATA     BYTE      IE
      00000085H   SFRSYM    DATA     BYTE      DPH1
      00000084H   SFRSYM    DATA     BYTE      DPL1
      000000D0H.7 SFRSYM    DATA     BIT       CY
      000000A0H   SFRSYM    DATA     BYTE      P2AX
      00000095H   SFRSYM    DATA     BYTE      DPX1
      00000081H   SFRSYM    DATA     BYTE      SP
      000000D0H.2 SFRSYM    DATA     BIT       OV
      00000080H   SFRSYM    DATA     BYTE      SFRPRT0DR
      00000090H   SFRSYM    DATA     BYTE      SFRPRT1DR
      000000F2H   SFRSYM    DATA     BYTE      SFRPRT12SEL
      00000098H   SFRSYM    DATA     BYTE      SFRPRT2DR
      000000B0H   SFRSYM    DATA     BYTE      SFRPRT3DR
      000000C0H   SFRSYM    DATA     BYTE      SFRPRT4DR
      000000FAH   SFRSYM    DATA     BYTE      SFRPRT15SEL
      000000C8H   SFRSYM    DATA     BYTE      SFRPRT5DR
      000000D8H   SFRSYM    DATA     BYTE      SFRPRT6DR
      00000089H   SFRSYM    DATA     BYTE      SFRPRT0PS
      00000091H   SFRSYM    DATA     BYTE      SFRPRT1PS
      00000099H   SFRSYM    DATA     BYTE      SFRPRT2PS
      000000B1H   SFRSYM    DATA     BYTE      SFRPRT3PS
      000000C1H   SFRSYM    DATA     BYTE      SFRPRT4PS
      000000C9H   SFRSYM    DATA     BYTE      SFRPRT5PS
      000000D9H   SFRSYM    DATA     BYTE      SFRPRT6PS
      000000EAH   SFRSYM    DATA     BYTE      MXAX
      000000F0H   SFRSYM    DATA     BYTE      B
      000000E0H   SFRSYM    DATA     BYTE      ACC
      000000D0H   SFRSYM    DATA     BIT       P
      000000D0H.3 SFRSYM    DATA     BIT       RS0
      000000D0H.4 SFRSYM    DATA     BIT       RS1
      00000083H   SFRSYM    DATA     BYTE      DPH
      000000E8H   SFRSYM    DATA     BYTE      SFRPRT12DR
      00000082H   SFRSYM    DATA     BYTE      DPL
      000000F8H   SFRSYM    DATA     BYTE      SFRPRT15DR
      00000086H   SFRSYM    DATA     BYTE      DPS
      000000E9H   SFRSYM    DATA     BYTE      SFRPRT12PS
      00000093H   SFRSYM    DATA     BYTE      DPX
      000000F9H   SFRSYM    DATA     BYTE      SFRPRT15PS
      000000D0H.5 SFRSYM    DATA     BIT       F0
      000000D0H.1 SFRSYM    DATA     BIT       F1
      0000008AH   SFRSYM    DATA     BYTE      SFRPRT0SEL
      000000D0H   SFRSYM    DATA     BYTE      PSW
      000000A2H   SFRSYM    DATA     BYTE      SFRPRT1SEL
      0000009AH   SFRSYM    DATA     BYTE      SFRPRT2SEL
LX51 LINKER/LOCATER V4.64.0.0                                                         01/12/2018  13:27:04  PAGE 92


      000000B2H   SFRSYM    DATA     BYTE      SFRPRT3SEL
      000000C2H   SFRSYM    DATA     BYTE      SFRPRT4SEL

      0100B54BH   BLOCK     CODE     ---       LVL=0
      0100B54BH   LINE      CODE     ---       #43
      0100B54BH   LINE      CODE     ---       #44
      0100B54BH   LINE      CODE     ---       #45
      0100B551H   LINE      CODE     ---       #46
      0100B551H   LINE      CODE     ---       #47
      0100B554H   LINE      CODE     ---       #48
      0100B55AH   LINE      CODE     ---       #49
      0100B55AH   LINE      CODE     ---       #51
      0100B55DH   LINE      CODE     ---       #52
      ---         BLOCKEND  ---      ---       LVL=0

      0100B71FH   BLOCK     CODE     ---       LVL=0
      0100B71FH   LINE      CODE     ---       #69
      0100B71FH   LINE      CODE     ---       #70
      0100B71FH   LINE      CODE     ---       #73
      0100B726H   LINE      CODE     ---       #75
      0100B729H   LINE      CODE     ---       #76
      ---         BLOCKEND  ---      ---       LVL=0

      0100B85AH   BLOCK     CODE     ---       LVL=0
      0100B85AH   LINE      CODE     ---       #93
      0100B85AH   LINE      CODE     ---       #94
      0100B85AH   LINE      CODE     ---       #95
      0100B85FH   LINE      CODE     ---       #96
      ---         BLOCKEND  ---      ---       LVL=0

      0100B64FH   BLOCK     CODE     ---       LVL=0
      0100B64FH   BLOCK     CODE     NEAR LAB  LVL=1
      00000007H   SYMBOL    DATA     BYTE      interruptState
      ---         BLOCKEND  ---      ---       LVL=1
      0100B64FH   LINE      CODE     ---       #135
      0100B64FH   LINE      CODE     ---       #136
      0100B64FH   LINE      CODE     ---       #139
      0100B652H   LINE      CODE     ---       #140
      0100B659H   LINE      CODE     ---       #141
      0100B65CH   LINE      CODE     ---       #142
      ---         BLOCKEND  ---      ---       LVL=0
      00000007H   SYMBOL    DATA     BYTE      interruptState
      00000007H   SYMBOL    DATA     BYTE      fifoId
      00000005H   SYMBOL    DATA     BYTE      result

      0100B5F2H   BLOCK     CODE     ---       LVL=0
      00000007H   SYMBOL    DATA     BYTE      interruptSource
      0100B5F2H   LINE      CODE     ---       #261
      0100B5F2H   LINE      CODE     ---       #262
      0100B5F2H   LINE      CODE     ---       #263
      0100B5F9H   LINE      CODE     ---       #264
      0100B602H   LINE      CODE     ---       #265
      ---         BLOCKEND  ---      ---       LVL=0
      00000004H   SYMBOL    DATA     DWORD     shiftData

      0100B753H   BLOCK     CODE     ---       LVL=0
      0100B753H   LINE      CODE     ---       #366
      0100B753H   LINE      CODE     ---       #367
      0100B753H   LINE      CODE     ---       #368
      0100B75CH   LINE      CODE     ---       #369
      ---         BLOCKEND  ---      ---       LVL=0

      ---         MODULE    ---      ---       SHIFTREG_ENC_3
      02000DFAH   PUBLIC    XDATA    BYTE      SHIFTREG_ENC_3_initVar
      0100B75DH   PUBLIC    CODE     ---       SHIFTREG_ENC_3_ReadData
LX51 LINKER/LOCATER V4.64.0.0                                                         01/12/2018  13:27:04  PAGE 93


      0100B603H   PUBLIC    CODE     ---       _SHIFTREG_ENC_3_SetIntMode
      0100B65DH   PUBLIC    CODE     ---       SHIFTREG_ENC_3_EnableInt
      0100B860H   PUBLIC    CODE     ---       SHIFTREG_ENC_3_Init
      0100B72AH   PUBLIC    CODE     ---       SHIFTREG_ENC_3_Enable
      0100B55EH   PUBLIC    CODE     ---       SHIFTREG_ENC_3_Start
      000000CAH   SFRSYM    DATA     BYTE      SFRPRT5SEL
      000000DAH   SFRSYM    DATA     BYTE      SFRPRT6SEL
      000000D0H.6 SFRSYM    DATA     BIT       AC
      000000A8H.7 SFRSYM    DATA     BIT       EA
      000000A8H   SFRSYM    DATA     BYTE      IE
      00000085H   SFRSYM    DATA     BYTE      DPH1
      00000084H   SFRSYM    DATA     BYTE      DPL1
      000000D0H.7 SFRSYM    DATA     BIT       CY
      000000A0H   SFRSYM    DATA     BYTE      P2AX
      00000095H   SFRSYM    DATA     BYTE      DPX1
      00000081H   SFRSYM    DATA     BYTE      SP
      000000D0H.2 SFRSYM    DATA     BIT       OV
      00000080H   SFRSYM    DATA     BYTE      SFRPRT0DR
      00000090H   SFRSYM    DATA     BYTE      SFRPRT1DR
      000000F2H   SFRSYM    DATA     BYTE      SFRPRT12SEL
      00000098H   SFRSYM    DATA     BYTE      SFRPRT2DR
      000000B0H   SFRSYM    DATA     BYTE      SFRPRT3DR
      000000C0H   SFRSYM    DATA     BYTE      SFRPRT4DR
      000000FAH   SFRSYM    DATA     BYTE      SFRPRT15SEL
      000000C8H   SFRSYM    DATA     BYTE      SFRPRT5DR
      000000D8H   SFRSYM    DATA     BYTE      SFRPRT6DR
      00000089H   SFRSYM    DATA     BYTE      SFRPRT0PS
      00000091H   SFRSYM    DATA     BYTE      SFRPRT1PS
      00000099H   SFRSYM    DATA     BYTE      SFRPRT2PS
      000000B1H   SFRSYM    DATA     BYTE      SFRPRT3PS
      000000C1H   SFRSYM    DATA     BYTE      SFRPRT4PS
      000000C9H   SFRSYM    DATA     BYTE      SFRPRT5PS
      000000D9H   SFRSYM    DATA     BYTE      SFRPRT6PS
      000000EAH   SFRSYM    DATA     BYTE      MXAX
      000000F0H   SFRSYM    DATA     BYTE      B
      000000E0H   SFRSYM    DATA     BYTE      ACC
      000000D0H   SFRSYM    DATA     BIT       P
      000000D0H.3 SFRSYM    DATA     BIT       RS0
      000000D0H.4 SFRSYM    DATA     BIT       RS1
      00000083H   SFRSYM    DATA     BYTE      DPH
      000000E8H   SFRSYM    DATA     BYTE      SFRPRT12DR
      00000082H   SFRSYM    DATA     BYTE      DPL
      000000F8H   SFRSYM    DATA     BYTE      SFRPRT15DR
      00000086H   SFRSYM    DATA     BYTE      DPS
      000000E9H   SFRSYM    DATA     BYTE      SFRPRT12PS
      00000093H   SFRSYM    DATA     BYTE      DPX
      000000F9H   SFRSYM    DATA     BYTE      SFRPRT15PS
      000000D0H.5 SFRSYM    DATA     BIT       F0
      000000D0H.1 SFRSYM    DATA     BIT       F1
      0000008AH   SFRSYM    DATA     BYTE      SFRPRT0SEL
      000000D0H   SFRSYM    DATA     BYTE      PSW
      000000A2H   SFRSYM    DATA     BYTE      SFRPRT1SEL
      0000009AH   SFRSYM    DATA     BYTE      SFRPRT2SEL
      000000B2H   SFRSYM    DATA     BYTE      SFRPRT3SEL
      000000C2H   SFRSYM    DATA     BYTE      SFRPRT4SEL

      0100B55EH   BLOCK     CODE     ---       LVL=0
      0100B55EH   LINE      CODE     ---       #43
      0100B55EH   LINE      CODE     ---       #44
      0100B55EH   LINE      CODE     ---       #45
      0100B564H   LINE      CODE     ---       #46
      0100B564H   LINE      CODE     ---       #47
      0100B567H   LINE      CODE     ---       #48
      0100B56DH   LINE      CODE     ---       #49
      0100B56DH   LINE      CODE     ---       #51
LX51 LINKER/LOCATER V4.64.0.0                                                         01/12/2018  13:27:04  PAGE 94


      0100B570H   LINE      CODE     ---       #52
      ---         BLOCKEND  ---      ---       LVL=0

      0100B72AH   BLOCK     CODE     ---       LVL=0
      0100B72AH   LINE      CODE     ---       #69
      0100B72AH   LINE      CODE     ---       #70
      0100B72AH   LINE      CODE     ---       #73
      0100B731H   LINE      CODE     ---       #75
      0100B734H   LINE      CODE     ---       #76
      ---         BLOCKEND  ---      ---       LVL=0

      0100B860H   BLOCK     CODE     ---       LVL=0
      0100B860H   LINE      CODE     ---       #93
      0100B860H   LINE      CODE     ---       #94
      0100B860H   LINE      CODE     ---       #95
      0100B865H   LINE      CODE     ---       #96
      ---         BLOCKEND  ---      ---       LVL=0

      0100B65DH   BLOCK     CODE     ---       LVL=0
      0100B65DH   BLOCK     CODE     NEAR LAB  LVL=1
      00000007H   SYMBOL    DATA     BYTE      interruptState
      ---         BLOCKEND  ---      ---       LVL=1
      0100B65DH   LINE      CODE     ---       #135
      0100B65DH   LINE      CODE     ---       #136
      0100B65DH   LINE      CODE     ---       #139
      0100B660H   LINE      CODE     ---       #140
      0100B667H   LINE      CODE     ---       #141
      0100B66AH   LINE      CODE     ---       #142
      ---         BLOCKEND  ---      ---       LVL=0
      00000007H   SYMBOL    DATA     BYTE      interruptState
      00000007H   SYMBOL    DATA     BYTE      fifoId
      00000005H   SYMBOL    DATA     BYTE      result

      0100B603H   BLOCK     CODE     ---       LVL=0
      00000007H   SYMBOL    DATA     BYTE      interruptSource
      0100B603H   LINE      CODE     ---       #261
      0100B603H   LINE      CODE     ---       #262
      0100B603H   LINE      CODE     ---       #263
      0100B60AH   LINE      CODE     ---       #264
      0100B613H   LINE      CODE     ---       #265
      ---         BLOCKEND  ---      ---       LVL=0
      00000004H   SYMBOL    DATA     DWORD     shiftData

      0100B75DH   BLOCK     CODE     ---       LVL=0
      0100B75DH   LINE      CODE     ---       #366
      0100B75DH   LINE      CODE     ---       #367
      0100B75DH   LINE      CODE     ---       #368
      0100B766H   LINE      CODE     ---       #369
      ---         BLOCKEND  ---      ---       LVL=0

      ---         MODULE    ---      ---       EEPROM
      01009C4DH   PUBLIC    CODE     ---       _EEPROM_Write
      0100B8BEH   PUBLIC    CODE     ---       EEPROM_UpdateTemperature
      0100B8BAH   PUBLIC    CODE     ---       EEPROM_Start
      0100B7FDH   PUBLIC    CODE     ---       EEPROM_Enable
      000000CAH   SFRSYM    DATA     BYTE      SFRPRT5SEL
      000000DAH   SFRSYM    DATA     BYTE      SFRPRT6SEL
      000000D0H.6 SFRSYM    DATA     BIT       AC
      000000A8H.7 SFRSYM    DATA     BIT       EA
      000000A8H   SFRSYM    DATA     BYTE      IE
      00000085H   SFRSYM    DATA     BYTE      DPH1
      00000084H   SFRSYM    DATA     BYTE      DPL1
      000000D0H.7 SFRSYM    DATA     BIT       CY
      000000A0H   SFRSYM    DATA     BYTE      P2AX
      00000095H   SFRSYM    DATA     BYTE      DPX1
LX51 LINKER/LOCATER V4.64.0.0                                                         01/12/2018  13:27:04  PAGE 95


      00000081H   SFRSYM    DATA     BYTE      SP
      000000D0H.2 SFRSYM    DATA     BIT       OV
      00000080H   SFRSYM    DATA     BYTE      SFRPRT0DR
      00000090H   SFRSYM    DATA     BYTE      SFRPRT1DR
      000000F2H   SFRSYM    DATA     BYTE      SFRPRT12SEL
      00000098H   SFRSYM    DATA     BYTE      SFRPRT2DR
      000000B0H   SFRSYM    DATA     BYTE      SFRPRT3DR
      000000C0H   SFRSYM    DATA     BYTE      SFRPRT4DR
      000000FAH   SFRSYM    DATA     BYTE      SFRPRT15SEL
      000000C8H   SFRSYM    DATA     BYTE      SFRPRT5DR
      000000D8H   SFRSYM    DATA     BYTE      SFRPRT6DR
      00000089H   SFRSYM    DATA     BYTE      SFRPRT0PS
      00000091H   SFRSYM    DATA     BYTE      SFRPRT1PS
      00000099H   SFRSYM    DATA     BYTE      SFRPRT2PS
      000000B1H   SFRSYM    DATA     BYTE      SFRPRT3PS
      000000C1H   SFRSYM    DATA     BYTE      SFRPRT4PS
      000000C9H   SFRSYM    DATA     BYTE      SFRPRT5PS
      000000D9H   SFRSYM    DATA     BYTE      SFRPRT6PS
      000000EAH   SFRSYM    DATA     BYTE      MXAX
      000000F0H   SFRSYM    DATA     BYTE      B
      000000E0H   SFRSYM    DATA     BYTE      ACC
      000000D0H   SFRSYM    DATA     BIT       P
      000000D0H.3 SFRSYM    DATA     BIT       RS0
      000000D0H.4 SFRSYM    DATA     BIT       RS1
      00000083H   SFRSYM    DATA     BYTE      DPH
      000000E8H   SFRSYM    DATA     BYTE      SFRPRT12DR
      00000082H   SFRSYM    DATA     BYTE      DPL
      000000F8H   SFRSYM    DATA     BYTE      SFRPRT15DR
      00000086H   SFRSYM    DATA     BYTE      DPS
      000000E9H   SFRSYM    DATA     BYTE      SFRPRT12PS
      00000093H   SFRSYM    DATA     BYTE      DPX
      000000F9H   SFRSYM    DATA     BYTE      SFRPRT15PS
      000000D0H.5 SFRSYM    DATA     BIT       F0
      000000D0H.1 SFRSYM    DATA     BIT       F1
      0000008AH   SFRSYM    DATA     BYTE      SFRPRT0SEL
      000000D0H   SFRSYM    DATA     BYTE      PSW
      000000A2H   SFRSYM    DATA     BYTE      SFRPRT1SEL
      0000009AH   SFRSYM    DATA     BYTE      SFRPRT2SEL
      000000B2H   SFRSYM    DATA     BYTE      SFRPRT3SEL
      000000C2H   SFRSYM    DATA     BYTE      SFRPRT4SEL

      0100B7FDH   BLOCK     CODE     ---       LVL=0
      0100B7FDH   LINE      CODE     ---       #33
      0100B7FDH   LINE      CODE     ---       #34
      0100B7FDH   LINE      CODE     ---       #36
      0100B800H   LINE      CODE     ---       #39
      0100B803H   LINE      CODE     ---       #40
      ---         BLOCKEND  ---      ---       LVL=0

      0100B8BAH   BLOCK     CODE     ---       LVL=0
      0100B8BAH   LINE      CODE     ---       #57
      0100B8BAH   LINE      CODE     ---       #58
      0100B8BAH   LINE      CODE     ---       #59
      0100B8BDH   LINE      CODE     ---       #60
      ---         BLOCKEND  ---      ---       LVL=0

      0100B8BEH   BLOCK     CODE     ---       LVL=0
      0100B8BEH   LINE      CODE     ---       #247
      0100B8BEH   LINE      CODE     ---       #248
      0100B8BEH   LINE      CODE     ---       #249
      0100B8C1H   LINE      CODE     ---       #250
      ---         BLOCKEND  ---      ---       LVL=0

      01009C4DH   BLOCK     CODE     ---       LVL=0
      02000028H   SYMBOL    XDATA    ---       rowData
LX51 LINKER/LOCATER V4.64.0.0                                                         01/12/2018  13:27:04  PAGE 96


      0200002BH   SYMBOL    XDATA    BYTE      rowNumber
      01009C5BH   BLOCK     CODE     NEAR LAB  LVL=1
      0200002CH   SYMBOL    XDATA    BYTE      status
      ---         BLOCKEND  ---      ---       LVL=1
      01009C4DH   LINE      CODE     ---       #345
      01009C5BH   LINE      CODE     ---       #346
      01009C5BH   LINE      CODE     ---       #349
      01009C5EH   LINE      CODE     ---       #351
      01009C6AH   LINE      CODE     ---       #352
      01009C6AH   LINE      CODE     ---       #354
      01009C73H   LINE      CODE     ---       #355
      01009C73H   LINE      CODE     ---       #357
      01009C79H   LINE      CODE     ---       #360
      01009C97H   LINE      CODE     ---       #361
      01009C97H   LINE      CODE     ---       #362
      01009C9FH   LINE      CODE     ---       #363
      01009C9FH   LINE      CODE     ---       #365
      01009C9FH   LINE      CODE     ---       #368
      01009CB5H   LINE      CODE     ---       #369
      01009CB5H   LINE      CODE     ---       #370
      01009CB9H   LINE      CODE     ---       #371
      01009CB9H   LINE      CODE     ---       #374
      01009CBFH   LINE      CODE     ---       #375
      01009CBFH   LINE      CODE     ---       #376
      01009CDBH   LINE      CODE     ---       #378
      01009CDBH   LINE      CODE     ---       #380
      01009CE1H   LINE      CODE     ---       #382
      01009CE9H   LINE      CODE     ---       #383
      01009CE9H   LINE      CODE     ---       #385
      01009CE9H   LINE      CODE     ---       #388
      01009CFFH   LINE      CODE     ---       #389
      01009CFFH   LINE      CODE     ---       #390
      01009D03H   LINE      CODE     ---       #391
      01009D03H   LINE      CODE     ---       #392
      01009D05H   LINE      CODE     ---       #394
      01009D05H   LINE      CODE     ---       #395
      01009D0BH   LINE      CODE     ---       #396
      01009D0BH   LINE      CODE     ---       #397
      01009D0DH   LINE      CODE     ---       #399
      01009D0DH   LINE      CODE     ---       #400
      01009D13H   LINE      CODE     ---       #401
      01009D13H   LINE      CODE     ---       #402
      01009D13H   LINE      CODE     ---       #405
      01009D16H   LINE      CODE     ---       #406
      01009D18H   LINE      CODE     ---       #408
      01009D18H   LINE      CODE     ---       #409
      01009D1EH   LINE      CODE     ---       #410
      01009D1EH   LINE      CODE     ---       #411
      01009D20H   LINE      CODE     ---       #413
      01009D20H   LINE      CODE     ---       #414
      01009D26H   LINE      CODE     ---       #415
      01009D26H   LINE      CODE     ---       #417
      01009D2BH   LINE      CODE     ---       #418
      ---         BLOCKEND  ---      ---       LVL=0

      ---         MODULE    ---      ---       SHIFTREG_ENC_4
      02000DFBH   PUBLIC    XDATA    BYTE      SHIFTREG_ENC_4_initVar
      0100B767H   PUBLIC    CODE     ---       SHIFTREG_ENC_4_ReadData
      000000CAH   SFRSYM    DATA     BYTE      SFRPRT5SEL
      000000DAH   SFRSYM    DATA     BYTE      SFRPRT6SEL
      000000D0H.6 SFRSYM    DATA     BIT       AC
      000000A8H.7 SFRSYM    DATA     BIT       EA
      000000A8H   SFRSYM    DATA     BYTE      IE
      00000085H   SFRSYM    DATA     BYTE      DPH1
      00000084H   SFRSYM    DATA     BYTE      DPL1
LX51 LINKER/LOCATER V4.64.0.0                                                         01/12/2018  13:27:04  PAGE 97


      000000D0H.7 SFRSYM    DATA     BIT       CY
      000000A0H   SFRSYM    DATA     BYTE      P2AX
      00000095H   SFRSYM    DATA     BYTE      DPX1
      00000081H   SFRSYM    DATA     BYTE      SP
      000000D0H.2 SFRSYM    DATA     BIT       OV
      00000080H   SFRSYM    DATA     BYTE      SFRPRT0DR
      00000090H   SFRSYM    DATA     BYTE      SFRPRT1DR
      000000F2H   SFRSYM    DATA     BYTE      SFRPRT12SEL
      00000098H   SFRSYM    DATA     BYTE      SFRPRT2DR
      000000B0H   SFRSYM    DATA     BYTE      SFRPRT3DR
      000000C0H   SFRSYM    DATA     BYTE      SFRPRT4DR
      000000FAH   SFRSYM    DATA     BYTE      SFRPRT15SEL
      000000C8H   SFRSYM    DATA     BYTE      SFRPRT5DR
      000000D8H   SFRSYM    DATA     BYTE      SFRPRT6DR
      00000089H   SFRSYM    DATA     BYTE      SFRPRT0PS
      00000091H   SFRSYM    DATA     BYTE      SFRPRT1PS
      00000099H   SFRSYM    DATA     BYTE      SFRPRT2PS
      000000B1H   SFRSYM    DATA     BYTE      SFRPRT3PS
      000000C1H   SFRSYM    DATA     BYTE      SFRPRT4PS
      000000C9H   SFRSYM    DATA     BYTE      SFRPRT5PS
      000000D9H   SFRSYM    DATA     BYTE      SFRPRT6PS
      000000EAH   SFRSYM    DATA     BYTE      MXAX
      000000F0H   SFRSYM    DATA     BYTE      B
      000000E0H   SFRSYM    DATA     BYTE      ACC
      000000D0H   SFRSYM    DATA     BIT       P
      000000D0H.3 SFRSYM    DATA     BIT       RS0
      000000D0H.4 SFRSYM    DATA     BIT       RS1
      00000083H   SFRSYM    DATA     BYTE      DPH
      000000E8H   SFRSYM    DATA     BYTE      SFRPRT12DR
      00000082H   SFRSYM    DATA     BYTE      DPL
      000000F8H   SFRSYM    DATA     BYTE      SFRPRT15DR
      00000086H   SFRSYM    DATA     BYTE      DPS
      000000E9H   SFRSYM    DATA     BYTE      SFRPRT12PS
      00000093H   SFRSYM    DATA     BYTE      DPX
      000000F9H   SFRSYM    DATA     BYTE      SFRPRT15PS
      000000D0H.5 SFRSYM    DATA     BIT       F0
      000000D0H.1 SFRSYM    DATA     BIT       F1
      0000008AH   SFRSYM    DATA     BYTE      SFRPRT0SEL
      000000D0H   SFRSYM    DATA     BYTE      PSW
      000000A2H   SFRSYM    DATA     BYTE      SFRPRT1SEL
      0000009AH   SFRSYM    DATA     BYTE      SFRPRT2SEL
      000000B2H   SFRSYM    DATA     BYTE      SFRPRT3SEL
      000000C2H   SFRSYM    DATA     BYTE      SFRPRT4SEL
      00000007H   SYMBOL    DATA     BYTE      interruptState
      00000007H   SYMBOL    DATA     BYTE      interruptState
      00000007H   SYMBOL    DATA     BYTE      fifoId
      00000005H   SYMBOL    DATA     BYTE      result
      00000007H   SYMBOL    DATA     BYTE      interruptSource
      00000004H   SYMBOL    DATA     DWORD     shiftData

      0100B767H   BLOCK     CODE     ---       LVL=0
      0100B767H   LINE      CODE     ---       #366
      0100B767H   LINE      CODE     ---       #367
      0100B767H   LINE      CODE     ---       #368
      0100B770H   LINE      CODE     ---       #369
      ---         BLOCKEND  ---      ---       LVL=0

      ---         MODULE    ---      ---       RS485_CTS
      0100B866H   PUBLIC    CODE     ---       _RS485_CTS_Write

      0100B866H   BLOCK     CODE     ---       LVL=0
      00000007H   SYMBOL    DATA     BYTE      control
      0100B866H   LINE      CODE     ---       #37
      0100B866H   LINE      CODE     ---       #38
      0100B866H   LINE      CODE     ---       #39
LX51 LINKER/LOCATER V4.64.0.0                                                         01/12/2018  13:27:04  PAGE 98


      0100B86BH   LINE      CODE     ---       #40
      ---         BLOCKEND  ---      ---       LVL=0

      ---         MODULE    ---      ---       MOTOR_ON_OFF
      0100B86CH   PUBLIC    CODE     ---       _MOTOR_ON_OFF_Write

      0100B86CH   BLOCK     CODE     ---       LVL=0
      00000007H   SYMBOL    DATA     BYTE      control
      0100B86CH   LINE      CODE     ---       #37
      0100B86CH   LINE      CODE     ---       #38
      0100B86CH   LINE      CODE     ---       #39
      0100B871H   LINE      CODE     ---       #40
      ---         BLOCKEND  ---      ---       LVL=0

      ---         MODULE    ---      ---       BOOTLOADABLE
      0100B771H   PUBLIC    CODE     ---       Bootloadable_Load
      000000CAH   SFRSYM    DATA     BYTE      SFRPRT5SEL
      000000DAH   SFRSYM    DATA     BYTE      SFRPRT6SEL
      000000D0H.6 SFRSYM    DATA     BIT       AC
      000000A8H.7 SFRSYM    DATA     BIT       EA
      000000A8H   SFRSYM    DATA     BYTE      IE
      00000085H   SFRSYM    DATA     BYTE      DPH1
      00000084H   SFRSYM    DATA     BYTE      DPL1
      000000D0H.7 SFRSYM    DATA     BIT       CY
      000000A0H   SFRSYM    DATA     BYTE      P2AX
      00000095H   SFRSYM    DATA     BYTE      DPX1
      00000081H   SFRSYM    DATA     BYTE      SP
      000000D0H.2 SFRSYM    DATA     BIT       OV
      00000080H   SFRSYM    DATA     BYTE      SFRPRT0DR
      00000090H   SFRSYM    DATA     BYTE      SFRPRT1DR
      000000F2H   SFRSYM    DATA     BYTE      SFRPRT12SEL
      00000098H   SFRSYM    DATA     BYTE      SFRPRT2DR
      000000B0H   SFRSYM    DATA     BYTE      SFRPRT3DR
      000000C0H   SFRSYM    DATA     BYTE      SFRPRT4DR
      000000FAH   SFRSYM    DATA     BYTE      SFRPRT15SEL
      000000C8H   SFRSYM    DATA     BYTE      SFRPRT5DR
      000000D8H   SFRSYM    DATA     BYTE      SFRPRT6DR
      00000089H   SFRSYM    DATA     BYTE      SFRPRT0PS
      00000091H   SFRSYM    DATA     BYTE      SFRPRT1PS
      00000099H   SFRSYM    DATA     BYTE      SFRPRT2PS
      000000B1H   SFRSYM    DATA     BYTE      SFRPRT3PS
      000000C1H   SFRSYM    DATA     BYTE      SFRPRT4PS
      000000C9H   SFRSYM    DATA     BYTE      SFRPRT5PS
      000000D9H   SFRSYM    DATA     BYTE      SFRPRT6PS
      000000EAH   SFRSYM    DATA     BYTE      MXAX
      000000F0H   SFRSYM    DATA     BYTE      B
      000000E0H   SFRSYM    DATA     BYTE      ACC
      000000D0H   SFRSYM    DATA     BIT       P
      000000D0H.3 SFRSYM    DATA     BIT       RS0
      000000D0H.4 SFRSYM    DATA     BIT       RS1
      00000083H   SFRSYM    DATA     BYTE      DPH
      000000E8H   SFRSYM    DATA     BYTE      SFRPRT12DR
      00000082H   SFRSYM    DATA     BYTE      DPL
      000000F8H   SFRSYM    DATA     BYTE      SFRPRT15DR
      00000086H   SFRSYM    DATA     BYTE      DPS
      000000E9H   SFRSYM    DATA     BYTE      SFRPRT12PS
      00000093H   SFRSYM    DATA     BYTE      DPX
      000000F9H   SFRSYM    DATA     BYTE      SFRPRT15PS
      000000D0H.5 SFRSYM    DATA     BIT       F0
      000000D0H.1 SFRSYM    DATA     BIT       F1
      0000008AH   SFRSYM    DATA     BYTE      SFRPRT0SEL
      000000D0H   SFRSYM    DATA     BYTE      PSW
      000000A2H   SFRSYM    DATA     BYTE      SFRPRT1SEL
      0000009AH   SFRSYM    DATA     BYTE      SFRPRT2SEL
      000000B2H   SFRSYM    DATA     BYTE      SFRPRT3SEL
LX51 LINKER/LOCATER V4.64.0.0                                                         01/12/2018  13:27:04  PAGE 99


      000000C2H   SFRSYM    DATA     BYTE      SFRPRT4SEL

      0100B771H   BLOCK     CODE     ---       LVL=0
      0100B771H   LINE      CODE     ---       #41
      0100B771H   LINE      CODE     ---       #42
      0100B771H   LINE      CODE     ---       #44
      0100B777H   LINE      CODE     ---       #46
      0100B77AH   LINE      CODE     ---       #47
      ---         BLOCKEND  ---      ---       LVL=0
      00000002H   SYMBOL    DATA     WORD      idx

      ---         MODULE    ---      ---       MY_TIMER
      02000DFCH   PUBLIC    XDATA    BYTE      MY_TIMER_initVar
      0100B6BDH   PUBLIC    CODE     ---       MY_TIMER_ClearFIFO
      0100B614H   PUBLIC    CODE     ---       MY_TIMER_ReadCounter
      0100B78FH   PUBLIC    CODE     ---       _MY_TIMER_WriteCounter
      0100B785H   PUBLIC    CODE     ---       MY_TIMER_ReadCapture
      0100B77BH   PUBLIC    CODE     ---       _MY_TIMER_WritePeriod
      0100B878H   PUBLIC    CODE     ---       MY_TIMER_ReadStatusRegister
      0100B872H   PUBLIC    CODE     ---       _MY_TIMER_SetInterruptMode
      0100B571H   PUBLIC    CODE     ---       MY_TIMER_Start
      0100B7CFH   PUBLIC    CODE     ---       MY_TIMER_Enable
      0100B1C1H   PUBLIC    CODE     ---       MY_TIMER_Init
      000000CAH   SFRSYM    DATA     BYTE      SFRPRT5SEL
      000000DAH   SFRSYM    DATA     BYTE      SFRPRT6SEL
      000000D0H.6 SFRSYM    DATA     BIT       AC
      000000A8H.7 SFRSYM    DATA     BIT       EA
      000000A8H   SFRSYM    DATA     BYTE      IE
      00000085H   SFRSYM    DATA     BYTE      DPH1
      00000084H   SFRSYM    DATA     BYTE      DPL1
      000000D0H.7 SFRSYM    DATA     BIT       CY
      000000A0H   SFRSYM    DATA     BYTE      P2AX
      00000095H   SFRSYM    DATA     BYTE      DPX1
      00000081H   SFRSYM    DATA     BYTE      SP
      000000D0H.2 SFRSYM    DATA     BIT       OV
      00000080H   SFRSYM    DATA     BYTE      SFRPRT0DR
      00000090H   SFRSYM    DATA     BYTE      SFRPRT1DR
      000000F2H   SFRSYM    DATA     BYTE      SFRPRT12SEL
      00000098H   SFRSYM    DATA     BYTE      SFRPRT2DR
      000000B0H   SFRSYM    DATA     BYTE      SFRPRT3DR
      000000C0H   SFRSYM    DATA     BYTE      SFRPRT4DR
      000000FAH   SFRSYM    DATA     BYTE      SFRPRT15SEL
      000000C8H   SFRSYM    DATA     BYTE      SFRPRT5DR
      000000D8H   SFRSYM    DATA     BYTE      SFRPRT6DR
      00000089H   SFRSYM    DATA     BYTE      SFRPRT0PS
      00000091H   SFRSYM    DATA     BYTE      SFRPRT1PS
      00000099H   SFRSYM    DATA     BYTE      SFRPRT2PS
      000000B1H   SFRSYM    DATA     BYTE      SFRPRT3PS
      000000C1H   SFRSYM    DATA     BYTE      SFRPRT4PS
      000000C9H   SFRSYM    DATA     BYTE      SFRPRT5PS
      000000D9H   SFRSYM    DATA     BYTE      SFRPRT6PS
      000000EAH   SFRSYM    DATA     BYTE      MXAX
      000000F0H   SFRSYM    DATA     BYTE      B
      000000E0H   SFRSYM    DATA     BYTE      ACC
      000000D0H   SFRSYM    DATA     BIT       P
      000000D0H.3 SFRSYM    DATA     BIT       RS0
      000000D0H.4 SFRSYM    DATA     BIT       RS1
      00000083H   SFRSYM    DATA     BYTE      DPH
      000000E8H   SFRSYM    DATA     BYTE      SFRPRT12DR
      00000082H   SFRSYM    DATA     BYTE      DPL
      000000F8H   SFRSYM    DATA     BYTE      SFRPRT15DR
      00000086H   SFRSYM    DATA     BYTE      DPS
      000000E9H   SFRSYM    DATA     BYTE      SFRPRT12PS
      00000093H   SFRSYM    DATA     BYTE      DPX
      000000F9H   SFRSYM    DATA     BYTE      SFRPRT15PS
LX51 LINKER/LOCATER V4.64.0.0                                                         01/12/2018  13:27:04  PAGE 100


      000000D0H.5 SFRSYM    DATA     BIT       F0
      000000D0H.1 SFRSYM    DATA     BIT       F1
      0000008AH   SFRSYM    DATA     BYTE      SFRPRT0SEL
      000000D0H   SFRSYM    DATA     BYTE      PSW
      000000A2H   SFRSYM    DATA     BYTE      SFRPRT1SEL
      0000009AH   SFRSYM    DATA     BYTE      SFRPRT2SEL
      000000B2H   SFRSYM    DATA     BYTE      SFRPRT3SEL
      000000C2H   SFRSYM    DATA     BYTE      SFRPRT4SEL

      0100B1C1H   BLOCK     CODE     ---       LVL=0
      0100B1C1H   BLOCK     CODE     NEAR LAB  LVL=1
      00000007H   SYMBOL    DATA     BYTE      MY_TIMER_interruptState
      ---         BLOCKEND  ---      ---       LVL=1
      0100B1C1H   LINE      CODE     ---       #43
      0100B1C1H   LINE      CODE     ---       #44
      0100B1C1H   LINE      CODE     ---       #118
      0100B1CCH   LINE      CODE     ---       #119
      0100B1D7H   LINE      CODE     ---       #142
      0100B1DAH   LINE      CODE     ---       #145
      0100B1E1H   LINE      CODE     ---       #148
      0100B1E4H   LINE      CODE     ---       #159
      0100B1E7H   LINE      CODE     ---       #162
      0100B1ECH   LINE      CODE     ---       #163
      ---         BLOCKEND  ---      ---       LVL=0

      0100B7CFH   BLOCK     CODE     ---       LVL=0
      0100B7CFH   LINE      CODE     ---       #180
      0100B7CFH   LINE      CODE     ---       #181
      0100B7CFH   LINE      CODE     ---       #190
      0100B7D6H   LINE      CODE     ---       #192
      ---         BLOCKEND  ---      ---       LVL=0

      0100B571H   BLOCK     CODE     ---       LVL=0
      0100B571H   LINE      CODE     ---       #215
      0100B571H   LINE      CODE     ---       #216
      0100B571H   LINE      CODE     ---       #217
      0100B577H   LINE      CODE     ---       #218
      0100B577H   LINE      CODE     ---       #219
      0100B57AH   LINE      CODE     ---       #221
      0100B580H   LINE      CODE     ---       #222
      0100B580H   LINE      CODE     ---       #225
      0100B583H   LINE      CODE     ---       #226
      ---         BLOCKEND  ---      ---       LVL=0

      0100B872H   BLOCK     CODE     ---       LVL=0
      00000007H   SYMBOL    DATA     BYTE      interruptMode
      0100B872H   LINE      CODE     ---       #279
      0100B872H   LINE      CODE     ---       #280
      0100B872H   LINE      CODE     ---       #281
      0100B877H   LINE      CODE     ---       #282
      ---         BLOCKEND  ---      ---       LVL=0

      0100B878H   BLOCK     CODE     ---       LVL=0
      0100B878H   LINE      CODE     ---       #333
      0100B878H   LINE      CODE     ---       #334
      0100B878H   LINE      CODE     ---       #335
      0100B87DH   LINE      CODE     ---       #336
      ---         BLOCKEND  ---      ---       LVL=0
      00000007H   SYMBOL    DATA     BYTE      control

      0100B77BH   BLOCK     CODE     ---       LVL=0
      00000004H   SYMBOL    DATA     DWORD     period
      0100B77BH   LINE      CODE     ---       #431
      0100B77BH   LINE      CODE     ---       #432
      0100B77BH   LINE      CODE     ---       #437
LX51 LINKER/LOCATER V4.64.0.0                                                         01/12/2018  13:27:04  PAGE 101


      0100B784H   LINE      CODE     ---       #439
      ---         BLOCKEND  ---      ---       LVL=0

      0100B785H   BLOCK     CODE     ---       LVL=0
      0100B785H   LINE      CODE     ---       #456
      0100B785H   LINE      CODE     ---       #457
      0100B785H   LINE      CODE     ---       #461
      0100B78EH   LINE      CODE     ---       #463
      ---         BLOCKEND  ---      ---       LVL=0

      0100B78FH   BLOCK     CODE     ---       LVL=0
      00000004H   SYMBOL    DATA     DWORD     counter
      0100B78FH   LINE      CODE     ---       #480
      0100B78FH   LINE      CODE     ---       #481
      0100B78FH   LINE      CODE     ---       #489
      0100B798H   LINE      CODE     ---       #491
      ---         BLOCKEND  ---      ---       LVL=0

      0100B614H   BLOCK     CODE     ---       LVL=0
      0100B614H   LINE      CODE     ---       #508
      0100B614H   LINE      CODE     ---       #509
      0100B614H   LINE      CODE     ---       #516
      0100B619H   LINE      CODE     ---       #523
      0100B622H   LINE      CODE     ---       #525
      ---         BLOCKEND  ---      ---       LVL=0

      0100B6BDH   BLOCK     CODE     ---       LVL=0
      0100B6BDH   LINE      CODE     ---       #763
      0100B6BDH   LINE      CODE     ---       #764
      0100B6BDH   LINE      CODE     ---       #765
      0100B6C4H   LINE      CODE     ---       #766
      0100B6C4H   LINE      CODE     ---       #767
      0100B6C7H   LINE      CODE     ---       #768
      0100B6C9H   LINE      CODE     ---       #769
      ---         BLOCKEND  ---      ---       LVL=0

      ---         MODULE    ---      ---       FTDI_ENABLE_REG
      0100B87EH   PUBLIC    CODE     ---       _FTDI_ENABLE_REG_Write

      0100B87EH   BLOCK     CODE     ---       LVL=0
      00000007H   SYMBOL    DATA     BYTE      control
      0100B87EH   LINE      CODE     ---       #37
      0100B87EH   LINE      CODE     ---       #38
      0100B87EH   LINE      CODE     ---       #39
      0100B883H   LINE      CODE     ---       #40
      ---         BLOCKEND  ---      ---       LVL=0

      ---         MODULE    ---      ---       PACER_TIMER
      02000DFDH   PUBLIC    XDATA    BYTE      PACER_TIMER_initVar
      0100B679H   PUBLIC    CODE     ---       _PACER_TIMER_WriteCounter
      0100B66BH   PUBLIC    CODE     ---       _PACER_TIMER_WritePeriod
      0100B884H   PUBLIC    CODE     ---       _PACER_TIMER_SetInterruptMode
      0100B584H   PUBLIC    CODE     ---       PACER_TIMER_Start
      0100B480H   PUBLIC    CODE     ---       PACER_TIMER_Enable
      0100AE7EH   PUBLIC    CODE     ---       PACER_TIMER_Init
      000000CAH   SFRSYM    DATA     BYTE      SFRPRT5SEL
      000000DAH   SFRSYM    DATA     BYTE      SFRPRT6SEL
      000000D0H.6 SFRSYM    DATA     BIT       AC
      000000A8H.7 SFRSYM    DATA     BIT       EA
      000000A8H   SFRSYM    DATA     BYTE      IE
      00000085H   SFRSYM    DATA     BYTE      DPH1
      00000084H   SFRSYM    DATA     BYTE      DPL1
      000000D0H.7 SFRSYM    DATA     BIT       CY
      000000A0H   SFRSYM    DATA     BYTE      P2AX
      00000095H   SFRSYM    DATA     BYTE      DPX1
LX51 LINKER/LOCATER V4.64.0.0                                                         01/12/2018  13:27:04  PAGE 102


      00000081H   SFRSYM    DATA     BYTE      SP
      000000D0H.2 SFRSYM    DATA     BIT       OV
      00000080H   SFRSYM    DATA     BYTE      SFRPRT0DR
      00000090H   SFRSYM    DATA     BYTE      SFRPRT1DR
      000000F2H   SFRSYM    DATA     BYTE      SFRPRT12SEL
      00000098H   SFRSYM    DATA     BYTE      SFRPRT2DR
      000000B0H   SFRSYM    DATA     BYTE      SFRPRT3DR
      000000C0H   SFRSYM    DATA     BYTE      SFRPRT4DR
      000000FAH   SFRSYM    DATA     BYTE      SFRPRT15SEL
      000000C8H   SFRSYM    DATA     BYTE      SFRPRT5DR
      000000D8H   SFRSYM    DATA     BYTE      SFRPRT6DR
      00000089H   SFRSYM    DATA     BYTE      SFRPRT0PS
      00000091H   SFRSYM    DATA     BYTE      SFRPRT1PS
      00000099H   SFRSYM    DATA     BYTE      SFRPRT2PS
      000000B1H   SFRSYM    DATA     BYTE      SFRPRT3PS
      000000C1H   SFRSYM    DATA     BYTE      SFRPRT4PS
      000000C9H   SFRSYM    DATA     BYTE      SFRPRT5PS
      000000D9H   SFRSYM    DATA     BYTE      SFRPRT6PS
      000000EAH   SFRSYM    DATA     BYTE      MXAX
      000000F0H   SFRSYM    DATA     BYTE      B
      000000E0H   SFRSYM    DATA     BYTE      ACC
      000000D0H   SFRSYM    DATA     BIT       P
      000000D0H.3 SFRSYM    DATA     BIT       RS0
      000000D0H.4 SFRSYM    DATA     BIT       RS1
      00000083H   SFRSYM    DATA     BYTE      DPH
      000000E8H   SFRSYM    DATA     BYTE      SFRPRT12DR
      00000082H   SFRSYM    DATA     BYTE      DPL
      000000F8H   SFRSYM    DATA     BYTE      SFRPRT15DR
      00000086H   SFRSYM    DATA     BYTE      DPS
      000000E9H   SFRSYM    DATA     BYTE      SFRPRT12PS
      00000093H   SFRSYM    DATA     BYTE      DPX
      000000F9H   SFRSYM    DATA     BYTE      SFRPRT15PS
      000000D0H.5 SFRSYM    DATA     BIT       F0
      000000D0H.1 SFRSYM    DATA     BIT       F1
      0000008AH   SFRSYM    DATA     BYTE      SFRPRT0SEL
      000000D0H   SFRSYM    DATA     BYTE      PSW
      000000A2H   SFRSYM    DATA     BYTE      SFRPRT1SEL
      0000009AH   SFRSYM    DATA     BYTE      SFRPRT2SEL
      000000B2H   SFRSYM    DATA     BYTE      SFRPRT3SEL
      000000C2H   SFRSYM    DATA     BYTE      SFRPRT4SEL

      0100AE7EH   BLOCK     CODE     ---       LVL=0
      0100AE7EH   LINE      CODE     ---       #43
      0100AE7EH   LINE      CODE     ---       #44
      0100AE7EH   LINE      CODE     ---       #52
      0100AE85H   LINE      CODE     ---       #60
      0100AE8CH   LINE      CODE     ---       #106
      0100AE93H   LINE      CODE     ---       #107
      0100AE97H   LINE      CODE     ---       #110
      0100AE9BH   LINE      CODE     ---       #111
      0100AE9FH   LINE      CODE     ---       #114
      0100AEA6H   LINE      CODE     ---       #118
      0100AEADH   LINE      CODE     ---       #119
      0100AEB4H   LINE      CODE     ---       #162
      0100AEB9H   LINE      CODE     ---       #163
      ---         BLOCKEND  ---      ---       LVL=0

      0100B480H   BLOCK     CODE     ---       LVL=0
      0100B480H   LINE      CODE     ---       #180
      0100B480H   LINE      CODE     ---       #181
      0100B480H   LINE      CODE     ---       #184
      0100B487H   LINE      CODE     ---       #185
      0100B48EH   LINE      CODE     ---       #190
      0100B495H   LINE      CODE     ---       #192
      ---         BLOCKEND  ---      ---       LVL=0
LX51 LINKER/LOCATER V4.64.0.0                                                         01/12/2018  13:27:04  PAGE 103



      0100B584H   BLOCK     CODE     ---       LVL=0
      0100B584H   LINE      CODE     ---       #215
      0100B584H   LINE      CODE     ---       #216
      0100B584H   LINE      CODE     ---       #217
      0100B58AH   LINE      CODE     ---       #218
      0100B58AH   LINE      CODE     ---       #219
      0100B58DH   LINE      CODE     ---       #221
      0100B593H   LINE      CODE     ---       #222
      0100B593H   LINE      CODE     ---       #225
      0100B596H   LINE      CODE     ---       #226
      ---         BLOCKEND  ---      ---       LVL=0

      0100B884H   BLOCK     CODE     ---       LVL=0
      00000007H   SYMBOL    DATA     BYTE      interruptMode
      0100B884H   LINE      CODE     ---       #279
      0100B884H   LINE      CODE     ---       #280
      0100B884H   LINE      CODE     ---       #281
      0100B889H   LINE      CODE     ---       #282
      ---         BLOCKEND  ---      ---       LVL=0
      00000007H   SYMBOL    DATA     BYTE      control

      0100B66BH   BLOCK     CODE     ---       LVL=0
      00000006H   SYMBOL    DATA     WORD      period
      0100B66BH   BLOCK     CODE     NEAR LAB  LVL=1
      00000006H   SYMBOL    DATA     WORD      period_temp
      ---         BLOCKEND  ---      ---       LVL=1
      0100B66BH   LINE      CODE     ---       #431
      0100B66BH   LINE      CODE     ---       #432
      0100B66BH   LINE      CODE     ---       #434
      0100B66BH   LINE      CODE     ---       #435
      0100B678H   LINE      CODE     ---       #439
      ---         BLOCKEND  ---      ---       LVL=0

      0100B679H   BLOCK     CODE     ---       LVL=0
      00000006H   SYMBOL    DATA     WORD      counter
      0100B679H   LINE      CODE     ---       #480
      0100B679H   LINE      CODE     ---       #481
      0100B679H   LINE      CODE     ---       #486
      0100B686H   LINE      CODE     ---       #491
      ---         BLOCKEND  ---      ---       LVL=0

      ---         MODULE    ---      ---       FF_STATUS
      0100B88AH   PUBLIC    CODE     ---       FF_STATUS_Read
      000000CAH   SFRSYM    DATA     BYTE      SFRPRT5SEL
      000000DAH   SFRSYM    DATA     BYTE      SFRPRT6SEL
      000000D0H.6 SFRSYM    DATA     BIT       AC
      000000A8H.7 SFRSYM    DATA     BIT       EA
      000000A8H   SFRSYM    DATA     BYTE      IE
      00000085H   SFRSYM    DATA     BYTE      DPH1
      00000084H   SFRSYM    DATA     BYTE      DPL1
      000000D0H.7 SFRSYM    DATA     BIT       CY
      000000A0H   SFRSYM    DATA     BYTE      P2AX
      00000095H   SFRSYM    DATA     BYTE      DPX1
      00000081H   SFRSYM    DATA     BYTE      SP
      000000D0H.2 SFRSYM    DATA     BIT       OV
      00000080H   SFRSYM    DATA     BYTE      SFRPRT0DR
      00000090H   SFRSYM    DATA     BYTE      SFRPRT1DR
      000000F2H   SFRSYM    DATA     BYTE      SFRPRT12SEL
      00000098H   SFRSYM    DATA     BYTE      SFRPRT2DR
      000000B0H   SFRSYM    DATA     BYTE      SFRPRT3DR
      000000C0H   SFRSYM    DATA     BYTE      SFRPRT4DR
      000000FAH   SFRSYM    DATA     BYTE      SFRPRT15SEL
      000000C8H   SFRSYM    DATA     BYTE      SFRPRT5DR
      000000D8H   SFRSYM    DATA     BYTE      SFRPRT6DR
LX51 LINKER/LOCATER V4.64.0.0                                                         01/12/2018  13:27:04  PAGE 104


      00000089H   SFRSYM    DATA     BYTE      SFRPRT0PS
      00000091H   SFRSYM    DATA     BYTE      SFRPRT1PS
      00000099H   SFRSYM    DATA     BYTE      SFRPRT2PS
      000000B1H   SFRSYM    DATA     BYTE      SFRPRT3PS
      000000C1H   SFRSYM    DATA     BYTE      SFRPRT4PS
      000000C9H   SFRSYM    DATA     BYTE      SFRPRT5PS
      000000D9H   SFRSYM    DATA     BYTE      SFRPRT6PS
      000000EAH   SFRSYM    DATA     BYTE      MXAX
      000000F0H   SFRSYM    DATA     BYTE      B
      000000E0H   SFRSYM    DATA     BYTE      ACC
      000000D0H   SFRSYM    DATA     BIT       P
      000000D0H.3 SFRSYM    DATA     BIT       RS0
      000000D0H.4 SFRSYM    DATA     BIT       RS1
      00000083H   SFRSYM    DATA     BYTE      DPH
      000000E8H   SFRSYM    DATA     BYTE      SFRPRT12DR
      00000082H   SFRSYM    DATA     BYTE      DPL
      000000F8H   SFRSYM    DATA     BYTE      SFRPRT15DR
      00000086H   SFRSYM    DATA     BYTE      DPS
      000000E9H   SFRSYM    DATA     BYTE      SFRPRT12PS
      00000093H   SFRSYM    DATA     BYTE      DPX
      000000F9H   SFRSYM    DATA     BYTE      SFRPRT15PS
      000000D0H.5 SFRSYM    DATA     BIT       F0
      000000D0H.1 SFRSYM    DATA     BIT       F1
      0000008AH   SFRSYM    DATA     BYTE      SFRPRT0SEL
      000000D0H   SFRSYM    DATA     BYTE      PSW
      000000A2H   SFRSYM    DATA     BYTE      SFRPRT1SEL
      0000009AH   SFRSYM    DATA     BYTE      SFRPRT2SEL
      000000B2H   SFRSYM    DATA     BYTE      SFRPRT3SEL
      000000C2H   SFRSYM    DATA     BYTE      SFRPRT4SEL

      0100B88AH   BLOCK     CODE     ---       LVL=0
      0100B88AH   LINE      CODE     ---       #37
      0100B88AH   LINE      CODE     ---       #38
      0100B88AH   LINE      CODE     ---       #39
      0100B88FH   LINE      CODE     ---       #40
      ---         BLOCKEND  ---      ---       LVL=0
      00000007H   SYMBOL    DATA     BYTE      interruptState
      00000007H   SYMBOL    DATA     BYTE      interruptState
      00000007H   SYMBOL    DATA     BYTE      mask

      ---         MODULE    ---      ---       RESET_FF
      0100B890H   PUBLIC    CODE     ---       _RESET_FF_Write

      0100B890H   BLOCK     CODE     ---       LVL=0
      00000007H   SYMBOL    DATA     BYTE      control
      0100B890H   LINE      CODE     ---       #37
      0100B890H   LINE      CODE     ---       #38
      0100B890H   LINE      CODE     ---       #39
      0100B895H   LINE      CODE     ---       #40
      ---         BLOCKEND  ---      ---       LVL=0

      ---         MODULE    ---      ---       MOTOR_DIR
      0100B896H   PUBLIC    CODE     ---       _MOTOR_DIR_Write

      0100B896H   BLOCK     CODE     ---       LVL=0
      00000007H   SYMBOL    DATA     BYTE      control
      0100B896H   LINE      CODE     ---       #37
      0100B896H   LINE      CODE     ---       #38
      0100B896H   LINE      CODE     ---       #39
      0100B89BH   LINE      CODE     ---       #40
      ---         BLOCKEND  ---      ---       LVL=0

      ---         MODULE    ---      ---       ADC_STATUS
      0100B89CH   PUBLIC    CODE     ---       ADC_STATUS_Read
      000000CAH   SFRSYM    DATA     BYTE      SFRPRT5SEL
LX51 LINKER/LOCATER V4.64.0.0                                                         01/12/2018  13:27:04  PAGE 105


      000000DAH   SFRSYM    DATA     BYTE      SFRPRT6SEL
      000000D0H.6 SFRSYM    DATA     BIT       AC
      000000A8H.7 SFRSYM    DATA     BIT       EA
      000000A8H   SFRSYM    DATA     BYTE      IE
      00000085H   SFRSYM    DATA     BYTE      DPH1
      00000084H   SFRSYM    DATA     BYTE      DPL1
      000000D0H.7 SFRSYM    DATA     BIT       CY
      000000A0H   SFRSYM    DATA     BYTE      P2AX
      00000095H   SFRSYM    DATA     BYTE      DPX1
      00000081H   SFRSYM    DATA     BYTE      SP
      000000D0H.2 SFRSYM    DATA     BIT       OV
      00000080H   SFRSYM    DATA     BYTE      SFRPRT0DR
      00000090H   SFRSYM    DATA     BYTE      SFRPRT1DR
      000000F2H   SFRSYM    DATA     BYTE      SFRPRT12SEL
      00000098H   SFRSYM    DATA     BYTE      SFRPRT2DR
      000000B0H   SFRSYM    DATA     BYTE      SFRPRT3DR
      000000C0H   SFRSYM    DATA     BYTE      SFRPRT4DR
      000000FAH   SFRSYM    DATA     BYTE      SFRPRT15SEL
      000000C8H   SFRSYM    DATA     BYTE      SFRPRT5DR
      000000D8H   SFRSYM    DATA     BYTE      SFRPRT6DR
      00000089H   SFRSYM    DATA     BYTE      SFRPRT0PS
      00000091H   SFRSYM    DATA     BYTE      SFRPRT1PS
      00000099H   SFRSYM    DATA     BYTE      SFRPRT2PS
      000000B1H   SFRSYM    DATA     BYTE      SFRPRT3PS
      000000C1H   SFRSYM    DATA     BYTE      SFRPRT4PS
      000000C9H   SFRSYM    DATA     BYTE      SFRPRT5PS
      000000D9H   SFRSYM    DATA     BYTE      SFRPRT6PS
      000000EAH   SFRSYM    DATA     BYTE      MXAX
      000000F0H   SFRSYM    DATA     BYTE      B
      000000E0H   SFRSYM    DATA     BYTE      ACC
      000000D0H   SFRSYM    DATA     BIT       P
      000000D0H.3 SFRSYM    DATA     BIT       RS0
      000000D0H.4 SFRSYM    DATA     BIT       RS1
      00000083H   SFRSYM    DATA     BYTE      DPH
      000000E8H   SFRSYM    DATA     BYTE      SFRPRT12DR
      00000082H   SFRSYM    DATA     BYTE      DPL
      000000F8H   SFRSYM    DATA     BYTE      SFRPRT15DR
      00000086H   SFRSYM    DATA     BYTE      DPS
      000000E9H   SFRSYM    DATA     BYTE      SFRPRT12PS
      00000093H   SFRSYM    DATA     BYTE      DPX
      000000F9H   SFRSYM    DATA     BYTE      SFRPRT15PS
      000000D0H.5 SFRSYM    DATA     BIT       F0
      000000D0H.1 SFRSYM    DATA     BIT       F1
      0000008AH   SFRSYM    DATA     BYTE      SFRPRT0SEL
      000000D0H   SFRSYM    DATA     BYTE      PSW
      000000A2H   SFRSYM    DATA     BYTE      SFRPRT1SEL
      0000009AH   SFRSYM    DATA     BYTE      SFRPRT2SEL
      000000B2H   SFRSYM    DATA     BYTE      SFRPRT3SEL
      000000C2H   SFRSYM    DATA     BYTE      SFRPRT4SEL

      0100B89CH   BLOCK     CODE     ---       LVL=0
      0100B89CH   LINE      CODE     ---       #37
      0100B89CH   LINE      CODE     ---       #38
      0100B89CH   LINE      CODE     ---       #39
      0100B8A1H   LINE      CODE     ---       #40
      ---         BLOCKEND  ---      ---       LVL=0
      00000007H   SYMBOL    DATA     BYTE      interruptState
      00000007H   SYMBOL    DATA     BYTE      interruptState
      00000007H   SYMBOL    DATA     BYTE      mask

      ---         MODULE    ---      ---       ADC
      02000DD2H   PUBLIC    XDATA    LONG      ADC_CountsPerVolt
      02000DD1H   PUBLIC    XDATA    BYTE      ADC_convDone
      02000DCDH   PUBLIC    XDATA    BYTE      ADC_started
      02000DCCH   PUBLIC    XDATA    BYTE      ADC_stopConversion
LX51 LINKER/LOCATER V4.64.0.0                                                         01/12/2018  13:27:04  PAGE 106


      02000DC8H   PUBLIC    XDATA    LONG      ADC_Offset
      02000DC7H   PUBLIC    XDATA    BYTE      ADC_initVar
      02000DC6H   PUBLIC    XDATA    BYTE      ADC_Config
      0100B3D7H   PUBLIC    CODE     ---       ADC_Start
      0100A24DH   PUBLIC    CODE     ---       ADC_Enable
      01009DDEH   PUBLIC    CODE     ---       ADC_Init
      000000CAH   SFRSYM    DATA     BYTE      SFRPRT5SEL
      000000DAH   SFRSYM    DATA     BYTE      SFRPRT6SEL
      000000D0H.6 SFRSYM    DATA     BIT       AC
      000000A8H.7 SFRSYM    DATA     BIT       EA
      000000A8H   SFRSYM    DATA     BYTE      IE
      00000085H   SFRSYM    DATA     BYTE      DPH1
      00000084H   SFRSYM    DATA     BYTE      DPL1
      000000D0H.7 SFRSYM    DATA     BIT       CY
      000000A0H   SFRSYM    DATA     BYTE      P2AX
      00000095H   SFRSYM    DATA     BYTE      DPX1
      00000081H   SFRSYM    DATA     BYTE      SP
      000000D0H.2 SFRSYM    DATA     BIT       OV
      00000080H   SFRSYM    DATA     BYTE      SFRPRT0DR
      00000090H   SFRSYM    DATA     BYTE      SFRPRT1DR
      000000F2H   SFRSYM    DATA     BYTE      SFRPRT12SEL
      00000098H   SFRSYM    DATA     BYTE      SFRPRT2DR
      000000B0H   SFRSYM    DATA     BYTE      SFRPRT3DR
      000000C0H   SFRSYM    DATA     BYTE      SFRPRT4DR
      000000FAH   SFRSYM    DATA     BYTE      SFRPRT15SEL
      000000C8H   SFRSYM    DATA     BYTE      SFRPRT5DR
      000000D8H   SFRSYM    DATA     BYTE      SFRPRT6DR
      00000089H   SFRSYM    DATA     BYTE      SFRPRT0PS
      00000091H   SFRSYM    DATA     BYTE      SFRPRT1PS
      00000099H   SFRSYM    DATA     BYTE      SFRPRT2PS
      000000B1H   SFRSYM    DATA     BYTE      SFRPRT3PS
      000000C1H   SFRSYM    DATA     BYTE      SFRPRT4PS
      000000C9H   SFRSYM    DATA     BYTE      SFRPRT5PS
      000000D9H   SFRSYM    DATA     BYTE      SFRPRT6PS
      000000EAH   SFRSYM    DATA     BYTE      MXAX
      000000F0H   SFRSYM    DATA     BYTE      B
      000000E0H   SFRSYM    DATA     BYTE      ACC
      000000D0H   SFRSYM    DATA     BIT       P
      000000D0H.3 SFRSYM    DATA     BIT       RS0
      000000D0H.4 SFRSYM    DATA     BIT       RS1
      00000083H   SFRSYM    DATA     BYTE      DPH
      000000E8H   SFRSYM    DATA     BYTE      SFRPRT12DR
      00000082H   SFRSYM    DATA     BYTE      DPL
      000000F8H   SFRSYM    DATA     BYTE      SFRPRT15DR
      00000086H   SFRSYM    DATA     BYTE      DPS
      000000E9H   SFRSYM    DATA     BYTE      SFRPRT12PS
      00000093H   SFRSYM    DATA     BYTE      DPX
      000000F9H   SFRSYM    DATA     BYTE      SFRPRT15PS
      000000D0H.5 SFRSYM    DATA     BIT       F0
      000000D0H.1 SFRSYM    DATA     BIT       F1
      0000008AH   SFRSYM    DATA     BYTE      SFRPRT0SEL
      000000D0H   SFRSYM    DATA     BYTE      PSW
      000000A2H   SFRSYM    DATA     BYTE      SFRPRT1SEL
      0000009AH   SFRSYM    DATA     BYTE      SFRPRT2SEL
      000000B2H   SFRSYM    DATA     BYTE      SFRPRT3SEL
      000000C2H   SFRSYM    DATA     BYTE      SFRPRT4SEL
      01009F40H   SYMBOL    CODE     ---       _ADC_InitConfig
      01008A40H   SYMBOL    CODE     ---       _ADC_GainCompensation
      0100AE41H   SYMBOL    CODE     ---       _ADC_SetDSMRef0Reg
      02000DCEH   SYMBOL    XDATA    ---       ADC_gcor

      01009DDEH   BLOCK     CODE     ---       LVL=0
      01009DDEH   LINE      CODE     ---       #91
      01009DDEH   LINE      CODE     ---       #92
      01009DDEH   LINE      CODE     ---       #94
LX51 LINKER/LOCATER V4.64.0.0                                                         01/12/2018  13:27:04  PAGE 107


      01009DE4H   LINE      CODE     ---       #95
      01009DE9H   LINE      CODE     ---       #97
      01009DEEH   LINE      CODE     ---       #101
      01009DF3H   LINE      CODE     ---       #106
      01009DFAH   LINE      CODE     ---       #110
      01009E00H   LINE      CODE     ---       #111
      01009E03H   LINE      CODE     ---       #112
      01009E07H   LINE      CODE     ---       #113
      01009E0EH   LINE      CODE     ---       #114
      01009E13H   LINE      CODE     ---       #116
      01009E17H   LINE      CODE     ---       #117
      01009E19H   LINE      CODE     ---       #119
      01009E1FH   LINE      CODE     ---       #120
      01009E22H   LINE      CODE     ---       #124
      01009E26H   LINE      CODE     ---       #126
      01009E2CH   LINE      CODE     ---       #127
      01009E2FH   LINE      CODE     ---       #128
      01009E34H   LINE      CODE     ---       #130
      01009E3AH   LINE      CODE     ---       #133
      01009E51H   LINE      CODE     ---       #161
      01009E67H   LINE      CODE     ---       #162
      01009E86H   LINE      CODE     ---       #165
      01009E8EH   LINE      CODE     ---       #166
      ---         BLOCKEND  ---      ---       LVL=0

      0100A24DH   BLOCK     CODE     ---       LVL=0
      0100A24DH   BLOCK     CODE     NEAR LAB  LVL=1
      02000003H   SYMBOL    XDATA    BYTE      config
      02000004H   SYMBOL    XDATA    BYTE      enableInterrupts
      ---         BLOCKEND  ---      ---       LVL=1
      0100A24DH   LINE      CODE     ---       #184
      0100A24DH   LINE      CODE     ---       #185
      0100A24DH   LINE      CODE     ---       #188
      0100A255H   LINE      CODE     ---       #191
      0100A25DH   LINE      CODE     ---       #194
      0100A264H   LINE      CODE     ---       #195
      0100A268H   LINE      CODE     ---       #198
      0100A26FH   LINE      CODE     ---       #199
      0100A273H   LINE      CODE     ---       #202
      0100A27AH   LINE      CODE     ---       #203
      0100A27FH   LINE      CODE     ---       #205
      0100A286H   LINE      CODE     ---       #265
      0100A286H   LINE      CODE     ---       #266
      0100A286H   LINE      CODE     ---       #268
      0100A286H   LINE      CODE     ---       #271
      0100A28DH   LINE      CODE     ---       #274
      0100A294H   LINE      CODE     ---       #275
      0100A299H   LINE      CODE     ---       #278
      0100A2A0H   LINE      CODE     ---       #281
      0100A2A6H   LINE      CODE     ---       #285
      0100A2ADH   LINE      CODE     ---       #286
      0100A2B4H   LINE      CODE     ---       #290
      0100A2BBH   LINE      CODE     ---       #291
      0100A2C2H   LINE      CODE     ---       #295
      0100A2C8H   LINE      CODE     ---       #297
      0100A2CCH   LINE      CODE     ---       #300
      0100A2D4H   LINE      CODE     ---       #302
      ---         BLOCKEND  ---      ---       LVL=0

      0100B3D7H   BLOCK     CODE     ---       LVL=0
      0100B3D7H   LINE      CODE     ---       #329
      0100B3D7H   LINE      CODE     ---       #330
      0100B3D7H   LINE      CODE     ---       #331
      0100B3DDH   LINE      CODE     ---       #332
      0100B3DDH   LINE      CODE     ---       #333
LX51 LINKER/LOCATER V4.64.0.0                                                         01/12/2018  13:27:04  PAGE 108


      0100B3E3H   LINE      CODE     ---       #334
      0100B3E3H   LINE      CODE     ---       #335
      0100B3E6H   LINE      CODE     ---       #336
      0100B3E6H   LINE      CODE     ---       #337
      0100B3ECH   LINE      CODE     ---       #338
      0100B3ECH   LINE      CODE     ---       #341
      0100B3EFH   LINE      CODE     ---       #342
      ---         BLOCKEND  ---      ---       LVL=0
      00000007H   SYMBOL    DATA     BYTE      gain
      00000006H   SYMBOL    DATA     BYTE      tmpReg
      00000007H   SYMBOL    DATA     BYTE      coherency
      00000006H   SYMBOL    DATA     BYTE      tmpReg
      00000004H   SYMBOL    DATA     WORD      gcorValue
      00000007H   SYMBOL    DATA     BYTE      retMode
      00000006H   SYMBOL    DATA     BYTE      status
      00000006H   SYMBOL    DATA     CHAR      result
      00000007H   SYMBOL    DATA     BYTE      coherency
      00000004H   SYMBOL    DATA     LONG      offset
      00000004H   SYMBOL    DATA     LONG      adcGain
      00000006H   SYMBOL    DATA     INT       mVolts
      00000004H   SYMBOL    DATA     FLOAT     Volts
      00000004H   SYMBOL    DATA     LONG      uVolts

      01009F40H   BLOCK     CODE     ---       LVL=0
      00000007H   SYMBOL    DATA     BYTE      config
      01009F40H   LINE      CODE     ---       #1242
      01009F40H   LINE      CODE     ---       #1243
      01009F40H   LINE      CODE     ---       #1244
      01009F45H   LINE      CODE     ---       #1246
      01009F4DH   LINE      CODE     ---       #1247
      01009F4DH   LINE      CODE     ---       #1249
      01009F53H   LINE      CODE     ---       #1250
      01009F59H   LINE      CODE     ---       #1251
      01009F5DH   LINE      CODE     ---       #1252
      01009F60H   LINE      CODE     ---       #1253
      01009F62H   LINE      CODE     ---       #1254
      01009F66H   LINE      CODE     ---       #1255
      01009F6BH   LINE      CODE     ---       #1256
      01009F6DH   LINE      CODE     ---       #1257
      01009F6FH   LINE      CODE     ---       #1258
      01009F74H   LINE      CODE     ---       #1260
      01009F7AH   LINE      CODE     ---       #1261
      01009F7EH   LINE      CODE     ---       #1262
      01009F82H   LINE      CODE     ---       #1263
      01009F85H   LINE      CODE     ---       #1264
      01009F8BH   LINE      CODE     ---       #1265
      01009F8FH   LINE      CODE     ---       #1266
      01009F93H   LINE      CODE     ---       #1267
      01009F98H   LINE      CODE     ---       #1268
      01009F9CH   LINE      CODE     ---       #1269
      01009FA0H   LINE      CODE     ---       #1270
      01009FA4H   LINE      CODE     ---       #1272
      01009FA9H   LINE      CODE     ---       #1273
      01009FAFH   LINE      CODE     ---       #1274
      01009FB2H   LINE      CODE     ---       #1276
      01009FB7H   LINE      CODE     ---       #1277
      01009FB9H   LINE      CODE     ---       #1278
      01009FBCH   LINE      CODE     ---       #1279
      01009FC0H   LINE      CODE     ---       #1288
      01009FC5H   LINE      CODE     ---       #1300
      01009FD2H   LINE      CODE     ---       #1302
      01009FDBH   LINE      CODE     ---       #1306
      01009FE4H   LINE      CODE     ---       #1311
      01009FEDH   LINE      CODE     ---       #1313
      01009FEDH   LINE      CODE     ---       #1526
LX51 LINKER/LOCATER V4.64.0.0                                                         01/12/2018  13:27:04  PAGE 109


      ---         BLOCKEND  ---      ---       LVL=0

      01008A40H   BLOCK     CODE     ---       LVL=0
      00000007H   SYMBOL    DATA     BYTE      inputRange
      02000004H   SYMBOL    XDATA    WORD      idealDecGain
      02000006H   SYMBOL    XDATA    WORD      idealOddDecGain
      02000008H   SYMBOL    XDATA    BYTE      resolution
      02000009H   SYMBOL    XDATA    BYTE      config
      01008A4EH   BLOCK     CODE     NEAR LAB  LVL=1
      0200000AH   SYMBOL    XDATA    CHAR      flash
      00000004H   SYMBOL    DATA     LONG      normalised
      00000004H   SYMBOL    DATA     WORD      gcorValue
      00000004H   SYMBOL    DATA     DWORD     gcorTmp
      ---         BLOCKEND  ---      ---       LVL=1
      01008A40H   LINE      CODE     ---       #1617
      01008A4EH   LINE      CODE     ---       #1619
      01008A4EH   LINE      CODE     ---       #1625
      01008A64H   LINE      CODE     ---       #1626
      01008A64H   LINE      CODE     ---       #1627
      01008A7EH   LINE      CODE     ---       #1628
      01008A7EH   LINE      CODE     ---       #1629
      01008A7EH   LINE      CODE     ---       #1630
      01008A7EH   LINE      CODE     ---       #1632
      01008A87H   LINE      CODE     ---       #1633
      01008A87H   LINE      CODE     ---       #1634
      01008A95H   LINE      CODE     ---       #1635
      01008A98H   LINE      CODE     ---       #1637
      01008A98H   LINE      CODE     ---       #1638
      01008AA6H   LINE      CODE     ---       #1639
      01008AA6H   LINE      CODE     ---       #1640
      01008AA9H   LINE      CODE     ---       #1642
      01008AA9H   LINE      CODE     ---       #1644
      01008AB2H   LINE      CODE     ---       #1645
      01008AB2H   LINE      CODE     ---       #1646
      01008AC0H   LINE      CODE     ---       #1647
      01008AC2H   LINE      CODE     ---       #1649
      01008AC2H   LINE      CODE     ---       #1650
      01008AD0H   LINE      CODE     ---       #1651
      01008AD0H   LINE      CODE     ---       #1652
      01008AD2H   LINE      CODE     ---       #1654
      01008AD2H   LINE      CODE     ---       #1656
      01008ADBH   LINE      CODE     ---       #1657
      01008ADBH   LINE      CODE     ---       #1658
      01008AE9H   LINE      CODE     ---       #1659
      01008AEBH   LINE      CODE     ---       #1661
      01008AEBH   LINE      CODE     ---       #1662
      01008AF9H   LINE      CODE     ---       #1663
      01008AF9H   LINE      CODE     ---       #1664
      01008AFBH   LINE      CODE     ---       #1666
      01008AFBH   LINE      CODE     ---       #1668
      01008B04H   LINE      CODE     ---       #1669
      01008B04H   LINE      CODE     ---       #1670
      01008B12H   LINE      CODE     ---       #1671
      01008B14H   LINE      CODE     ---       #1673
      01008B14H   LINE      CODE     ---       #1674
      01008B22H   LINE      CODE     ---       #1675
      01008B22H   LINE      CODE     ---       #1676
      01008B24H   LINE      CODE     ---       #1678
      01008B24H   LINE      CODE     ---       #1679
      01008B29H   LINE      CODE     ---       #1680
      01008B29H   LINE      CODE     ---       #1681
      01008B29H   LINE      CODE     ---       #1684
      01008B5CH   LINE      CODE     ---       #1685
      01008B6FH   LINE      CODE     ---       #1686
      01008B7CH   LINE      CODE     ---       #1688
LX51 LINKER/LOCATER V4.64.0.0                                                         01/12/2018  13:27:04  PAGE 110


      01008B85H   LINE      CODE     ---       #1689
      01008B85H   LINE      CODE     ---       #1690
      01008B9CH   LINE      CODE     ---       #1691
      01008BB2H   LINE      CODE     ---       #1692
      01008BB4H   LINE      CODE     ---       #1694
      01008BB4H   LINE      CODE     ---       #1696
      01008BC8H   LINE      CODE     ---       #1697
      01008BC8H   LINE      CODE     ---       #1700
      01008BE0H   LINE      CODE     ---       #1701
      01008BE0H   LINE      CODE     ---       #1703
      01008BE0H   LINE      CODE     ---       #1706
      01008BE0H   LINE      CODE     ---       #1707
      ---         BLOCKEND  ---      ---       LVL=0

      0100AE41H   BLOCK     CODE     ---       LVL=0
      02000003H   SYMBOL    XDATA    BYTE      value
      0100AE46H   BLOCK     CODE     NEAR LAB  LVL=1
      02000004H   SYMBOL    XDATA    BYTE      enableInterrupts
      ---         BLOCKEND  ---      ---       LVL=1
      0100AE41H   LINE      CODE     ---       #1724
      0100AE46H   LINE      CODE     ---       #1725
      0100AE46H   LINE      CODE     ---       #1727
      0100AE4EH   LINE      CODE     ---       #1730
      0100AE55H   LINE      CODE     ---       #1731
      0100AE5AH   LINE      CODE     ---       #1732
      0100AE62H   LINE      CODE     ---       #1735
      0100AE69H   LINE      CODE     ---       #1737
      0100AE70H   LINE      CODE     ---       #1738
      0100AE75H   LINE      CODE     ---       #1740
      0100AE7DH   LINE      CODE     ---       #1741
      ---         BLOCKEND  ---      ---       LVL=0
      00000007H   SYMBOL    DATA     CHAR      result
      00000006H   SYMBOL    DATA     INT       result
      00000004H   SYMBOL    DATA     LONG      result

      ---         MODULE    ---      ---       DMA_DMA
      02000DFEH   PUBLIC    XDATA    BYTE      DMA_DmaHandle
      02000003H   PUBLIC    XDATA    BYTE      ?_DMA_DmaInitialize?BYTE
      0100AC24H   PUBLIC    CODE     ---       _DMA_DmaInitialize
      000000CAH   SFRSYM    DATA     BYTE      SFRPRT5SEL
      000000DAH   SFRSYM    DATA     BYTE      SFRPRT6SEL
      000000D0H.6 SFRSYM    DATA     BIT       AC
      000000A8H.7 SFRSYM    DATA     BIT       EA
      000000A8H   SFRSYM    DATA     BYTE      IE
      00000085H   SFRSYM    DATA     BYTE      DPH1
      00000084H   SFRSYM    DATA     BYTE      DPL1
      000000D0H.7 SFRSYM    DATA     BIT       CY
      000000A0H   SFRSYM    DATA     BYTE      P2AX
      00000095H   SFRSYM    DATA     BYTE      DPX1
      00000081H   SFRSYM    DATA     BYTE      SP
      000000D0H.2 SFRSYM    DATA     BIT       OV
      00000080H   SFRSYM    DATA     BYTE      SFRPRT0DR
      00000090H   SFRSYM    DATA     BYTE      SFRPRT1DR
      000000F2H   SFRSYM    DATA     BYTE      SFRPRT12SEL
      00000098H   SFRSYM    DATA     BYTE      SFRPRT2DR
      000000B0H   SFRSYM    DATA     BYTE      SFRPRT3DR
      000000C0H   SFRSYM    DATA     BYTE      SFRPRT4DR
      000000FAH   SFRSYM    DATA     BYTE      SFRPRT15SEL
      000000C8H   SFRSYM    DATA     BYTE      SFRPRT5DR
      000000D8H   SFRSYM    DATA     BYTE      SFRPRT6DR
      00000089H   SFRSYM    DATA     BYTE      SFRPRT0PS
      00000091H   SFRSYM    DATA     BYTE      SFRPRT1PS
      00000099H   SFRSYM    DATA     BYTE      SFRPRT2PS
      000000B1H   SFRSYM    DATA     BYTE      SFRPRT3PS
      000000C1H   SFRSYM    DATA     BYTE      SFRPRT4PS
LX51 LINKER/LOCATER V4.64.0.0                                                         01/12/2018  13:27:04  PAGE 111


      000000C9H   SFRSYM    DATA     BYTE      SFRPRT5PS
      000000D9H   SFRSYM    DATA     BYTE      SFRPRT6PS
      000000EAH   SFRSYM    DATA     BYTE      MXAX
      000000F0H   SFRSYM    DATA     BYTE      B
      000000E0H   SFRSYM    DATA     BYTE      ACC
      000000D0H   SFRSYM    DATA     BIT       P
      000000D0H.3 SFRSYM    DATA     BIT       RS0
      000000D0H.4 SFRSYM    DATA     BIT       RS1
      00000083H   SFRSYM    DATA     BYTE      DPH
      000000E8H   SFRSYM    DATA     BYTE      SFRPRT12DR
      00000082H   SFRSYM    DATA     BYTE      DPL
      000000F8H   SFRSYM    DATA     BYTE      SFRPRT15DR
      00000086H   SFRSYM    DATA     BYTE      DPS
      000000E9H   SFRSYM    DATA     BYTE      SFRPRT12PS
      00000093H   SFRSYM    DATA     BYTE      DPX
      000000F9H   SFRSYM    DATA     BYTE      SFRPRT15PS
      000000D0H.5 SFRSYM    DATA     BIT       F0
      000000D0H.1 SFRSYM    DATA     BIT       F1
      0000008AH   SFRSYM    DATA     BYTE      SFRPRT0SEL
      000000D0H   SFRSYM    DATA     BYTE      PSW
      000000A2H   SFRSYM    DATA     BYTE      SFRPRT1SEL
      0000009AH   SFRSYM    DATA     BYTE      SFRPRT2SEL
      000000B2H   SFRSYM    DATA     BYTE      SFRPRT3SEL
      000000C2H   SFRSYM    DATA     BYTE      SFRPRT4SEL

      0100AC24H   BLOCK     CODE     ---       LVL=0
      00000007H   SYMBOL    DATA     BYTE      BurstCount
      00000006H   SYMBOL    DATA     BYTE      ReqestPerBurst
      02000005H   SYMBOL    XDATA    WORD      UpperSrcAddress
      02000007H   SYMBOL    XDATA    WORD      UpperDestAddress
      0100AC24H   LINE      CODE     ---       #97
      0100AC2EH   LINE      CODE     ---       #98
      0100AC2EH   LINE      CODE     ---       #101
      0100AC34H   LINE      CODE     ---       #109
      0100AC48H   LINE      CODE     ---       #112
      0100AC5EH   LINE      CODE     ---       #115
      0100AC68H   LINE      CODE     ---       #117
      0100AC6DH   LINE      CODE     ---       #118
      ---         BLOCKEND  ---      ---       LVL=0

      ---         MODULE    ---      ---       ADC_SOC
      0100B8A2H   PUBLIC    CODE     ---       _ADC_SOC_Write

      0100B8A2H   BLOCK     CODE     ---       LVL=0
      00000007H   SYMBOL    DATA     BYTE      control
      0100B8A2H   LINE      CODE     ---       #37
      0100B8A2H   LINE      CODE     ---       #38
      0100B8A2H   LINE      CODE     ---       #39
      0100B8A7H   LINE      CODE     ---       #40
      ---         BLOCKEND  ---      ---       LVL=0

      ---         MODULE    ---      ---       ISR_WATCHDOG
      0100B80BH   PUBLIC    CODE     ---       ISR_WATCHDOG_Disable
      0100B804H   PUBLIC    CODE     ---       ISR_WATCHDOG_Enable
      0100B799H   PUBLIC    CODE     ---       _ISR_WATCHDOG_SetPriority
      0100B687H   PUBLIC    CODE     ---       _ISR_WATCHDOG_SetVector
      0100B193H   PUBLIC    CODE     ---       ISR_WATCHDOG_Interrupt
      0100B32BH   PUBLIC    CODE     ---       _ISR_WATCHDOG_StartEx
      000000CAH   SFRSYM    DATA     BYTE      SFRPRT5SEL
      000000DAH   SFRSYM    DATA     BYTE      SFRPRT6SEL
      000000D0H.6 SFRSYM    DATA     BIT       AC
      000000A8H.7 SFRSYM    DATA     BIT       EA
      000000A8H   SFRSYM    DATA     BYTE      IE
      00000085H   SFRSYM    DATA     BYTE      DPH1
      00000084H   SFRSYM    DATA     BYTE      DPL1
LX51 LINKER/LOCATER V4.64.0.0                                                         01/12/2018  13:27:04  PAGE 112


      000000D0H.7 SFRSYM    DATA     BIT       CY
      000000A0H   SFRSYM    DATA     BYTE      P2AX
      00000095H   SFRSYM    DATA     BYTE      DPX1
      00000081H   SFRSYM    DATA     BYTE      SP
      000000D0H.2 SFRSYM    DATA     BIT       OV
      00000080H   SFRSYM    DATA     BYTE      SFRPRT0DR
      00000090H   SFRSYM    DATA     BYTE      SFRPRT1DR
      000000F2H   SFRSYM    DATA     BYTE      SFRPRT12SEL
      00000098H   SFRSYM    DATA     BYTE      SFRPRT2DR
      000000B0H   SFRSYM    DATA     BYTE      SFRPRT3DR
      000000C0H   SFRSYM    DATA     BYTE      SFRPRT4DR
      000000FAH   SFRSYM    DATA     BYTE      SFRPRT15SEL
      000000C8H   SFRSYM    DATA     BYTE      SFRPRT5DR
      000000D8H   SFRSYM    DATA     BYTE      SFRPRT6DR
      00000089H   SFRSYM    DATA     BYTE      SFRPRT0PS
      00000091H   SFRSYM    DATA     BYTE      SFRPRT1PS
      00000099H   SFRSYM    DATA     BYTE      SFRPRT2PS
      000000B1H   SFRSYM    DATA     BYTE      SFRPRT3PS
      000000C1H   SFRSYM    DATA     BYTE      SFRPRT4PS
      000000C9H   SFRSYM    DATA     BYTE      SFRPRT5PS
      000000D9H   SFRSYM    DATA     BYTE      SFRPRT6PS
      000000EAH   SFRSYM    DATA     BYTE      MXAX
      000000F0H   SFRSYM    DATA     BYTE      B
      000000E0H   SFRSYM    DATA     BYTE      ACC
      000000D0H   SFRSYM    DATA     BIT       P
      000000D0H.3 SFRSYM    DATA     BIT       RS0
      000000D0H.4 SFRSYM    DATA     BIT       RS1
      00000083H   SFRSYM    DATA     BYTE      DPH
      000000E8H   SFRSYM    DATA     BYTE      SFRPRT12DR
      00000082H   SFRSYM    DATA     BYTE      DPL
      000000F8H   SFRSYM    DATA     BYTE      SFRPRT15DR
      00000086H   SFRSYM    DATA     BYTE      DPS
      000000E9H   SFRSYM    DATA     BYTE      SFRPRT12PS
      00000093H   SFRSYM    DATA     BYTE      DPX
      000000F9H   SFRSYM    DATA     BYTE      SFRPRT15PS
      000000D0H.5 SFRSYM    DATA     BIT       F0
      000000D0H.1 SFRSYM    DATA     BIT       F1
      0000008AH   SFRSYM    DATA     BYTE      SFRPRT0SEL
      000000D0H   SFRSYM    DATA     BYTE      PSW
      000000A2H   SFRSYM    DATA     BYTE      SFRPRT1SEL
      0000009AH   SFRSYM    DATA     BYTE      SFRPRT2SEL
      000000B2H   SFRSYM    DATA     BYTE      SFRPRT3SEL
      000000C2H   SFRSYM    DATA     BYTE      SFRPRT4SEL

      0100B32BH   BLOCK     CODE     ---       LVL=0
      02000003H   SYMBOL    XDATA    ---       address
      0100B32BH   LINE      CODE     ---       #94
      0100B333H   LINE      CODE     ---       #95
      0100B333H   LINE      CODE     ---       #97
      0100B336H   LINE      CODE     ---       #100
      0100B341H   LINE      CODE     ---       #103
      0100B346H   LINE      CODE     ---       #106
      0100B349H   LINE      CODE     ---       #107
      ---         BLOCKEND  ---      ---       LVL=0

      0100B193H   BLOCK     CODE     ---       LVL=0
      0100B193H   LINE      CODE     ---       #151
      0100B193H   LINE      CODE     ---       #168
      ---         BLOCKEND  ---      ---       LVL=0

      0100B687H   BLOCK     CODE     ---       LVL=0
      00000006H   SYMBOL    DATA     ---       address
      0100B687H   LINE      CODE     ---       #198
      0100B687H   LINE      CODE     ---       #199
      0100B687H   LINE      CODE     ---       #200
LX51 LINKER/LOCATER V4.64.0.0                                                         01/12/2018  13:27:04  PAGE 113


      0100B694H   LINE      CODE     ---       #201
      ---         BLOCKEND  ---      ---       LVL=0

      0100B799H   BLOCK     CODE     ---       LVL=0
      00000007H   SYMBOL    DATA     BYTE      priority
      0100B799H   LINE      CODE     ---       #248
      0100B799H   LINE      CODE     ---       #249
      0100B799H   LINE      CODE     ---       #250
      0100B7A2H   LINE      CODE     ---       #251
      ---         BLOCKEND  ---      ---       LVL=0
      00000007H   SYMBOL    DATA     BYTE      priority

      0100B804H   BLOCK     CODE     ---       LVL=0
      0100B804H   LINE      CODE     ---       #297
      0100B804H   LINE      CODE     ---       #298
      0100B804H   LINE      CODE     ---       #300
      0100B80AH   LINE      CODE     ---       #301
      ---         BLOCKEND  ---      ---       LVL=0

      0100B80BH   BLOCK     CODE     ---       LVL=0
      0100B80BH   LINE      CODE     ---       #339
      0100B80BH   LINE      CODE     ---       #340
      0100B80BH   LINE      CODE     ---       #342
      0100B811H   LINE      CODE     ---       #343
      ---         BLOCKEND  ---      ---       LVL=0

      ---         MODULE    ---      ---       WATCHDOG_COUNTER
      02000DFFH   PUBLIC    XDATA    BYTE      WATCHDOG_COUNTER_initVar
      0100B695H   PUBLIC    CODE     ---       _WATCHDOG_COUNTER_WritePeriod
      0100B387H   PUBLIC    CODE     ---       _WATCHDOG_COUNTER_WriteCounter
      0100B8A8H   PUBLIC    CODE     ---       _WATCHDOG_COUNTER_SetInterruptMode
      0100B597H   PUBLIC    CODE     ---       WATCHDOG_COUNTER_Start
      0100B496H   PUBLIC    CODE     ---       WATCHDOG_COUNTER_Enable
      0100AEBAH   PUBLIC    CODE     ---       WATCHDOG_COUNTER_Init
      000000CAH   SFRSYM    DATA     BYTE      SFRPRT5SEL
      000000DAH   SFRSYM    DATA     BYTE      SFRPRT6SEL
      000000D0H.6 SFRSYM    DATA     BIT       AC
      000000A8H.7 SFRSYM    DATA     BIT       EA
      000000A8H   SFRSYM    DATA     BYTE      IE
      00000085H   SFRSYM    DATA     BYTE      DPH1
      00000084H   SFRSYM    DATA     BYTE      DPL1
      000000D0H.7 SFRSYM    DATA     BIT       CY
      000000A0H   SFRSYM    DATA     BYTE      P2AX
      00000095H   SFRSYM    DATA     BYTE      DPX1
      00000081H   SFRSYM    DATA     BYTE      SP
      000000D0H.2 SFRSYM    DATA     BIT       OV
      00000080H   SFRSYM    DATA     BYTE      SFRPRT0DR
      00000090H   SFRSYM    DATA     BYTE      SFRPRT1DR
      000000F2H   SFRSYM    DATA     BYTE      SFRPRT12SEL
      00000098H   SFRSYM    DATA     BYTE      SFRPRT2DR
      000000B0H   SFRSYM    DATA     BYTE      SFRPRT3DR
      000000C0H   SFRSYM    DATA     BYTE      SFRPRT4DR
      000000FAH   SFRSYM    DATA     BYTE      SFRPRT15SEL
      000000C8H   SFRSYM    DATA     BYTE      SFRPRT5DR
      000000D8H   SFRSYM    DATA     BYTE      SFRPRT6DR
      00000089H   SFRSYM    DATA     BYTE      SFRPRT0PS
      00000091H   SFRSYM    DATA     BYTE      SFRPRT1PS
      00000099H   SFRSYM    DATA     BYTE      SFRPRT2PS
      000000B1H   SFRSYM    DATA     BYTE      SFRPRT3PS
      000000C1H   SFRSYM    DATA     BYTE      SFRPRT4PS
      000000C9H   SFRSYM    DATA     BYTE      SFRPRT5PS
      000000D9H   SFRSYM    DATA     BYTE      SFRPRT6PS
      000000EAH   SFRSYM    DATA     BYTE      MXAX
      000000F0H   SFRSYM    DATA     BYTE      B
      000000E0H   SFRSYM    DATA     BYTE      ACC
LX51 LINKER/LOCATER V4.64.0.0                                                         01/12/2018  13:27:04  PAGE 114


      000000D0H   SFRSYM    DATA     BIT       P
      000000D0H.3 SFRSYM    DATA     BIT       RS0
      000000D0H.4 SFRSYM    DATA     BIT       RS1
      00000083H   SFRSYM    DATA     BYTE      DPH
      000000E8H   SFRSYM    DATA     BYTE      SFRPRT12DR
      00000082H   SFRSYM    DATA     BYTE      DPL
      000000F8H   SFRSYM    DATA     BYTE      SFRPRT15DR
      00000086H   SFRSYM    DATA     BYTE      DPS
      000000E9H   SFRSYM    DATA     BYTE      SFRPRT12PS
      00000093H   SFRSYM    DATA     BYTE      DPX
      000000F9H   SFRSYM    DATA     BYTE      SFRPRT15PS
      000000D0H.5 SFRSYM    DATA     BIT       F0
      000000D0H.1 SFRSYM    DATA     BIT       F1
      0000008AH   SFRSYM    DATA     BYTE      SFRPRT0SEL
      000000D0H   SFRSYM    DATA     BYTE      PSW
      000000A2H   SFRSYM    DATA     BYTE      SFRPRT1SEL
      0000009AH   SFRSYM    DATA     BYTE      SFRPRT2SEL
      000000B2H   SFRSYM    DATA     BYTE      SFRPRT3SEL
      000000C2H   SFRSYM    DATA     BYTE      SFRPRT4SEL

      0100AEBAH   BLOCK     CODE     ---       LVL=0
      0100AEBAH   LINE      CODE     ---       #37
      0100AEBAH   LINE      CODE     ---       #38
      0100AEBAH   LINE      CODE     ---       #50
      0100AEC1H   LINE      CODE     ---       #57
      0100AEC8H   LINE      CODE     ---       #66
      0100AECFH   LINE      CODE     ---       #69
      0100AED6H   LINE      CODE     ---       #70
      0100AEDAH   LINE      CODE     ---       #73
      0100AEDEH   LINE      CODE     ---       #74
      0100AEE2H   LINE      CODE     ---       #100
      0100AEE7H   LINE      CODE     ---       #102
      0100AEECH   LINE      CODE     ---       #104
      0100AEF1H   LINE      CODE     ---       #123
      ---         BLOCKEND  ---      ---       LVL=0

      0100B496H   BLOCK     CODE     ---       LVL=0
      0100B496H   LINE      CODE     ---       #143
      0100B496H   LINE      CODE     ---       #144
      0100B496H   LINE      CODE     ---       #147
      0100B49DH   LINE      CODE     ---       #148
      0100B4A4H   LINE      CODE     ---       #155
      0100B4ABH   LINE      CODE     ---       #158
      ---         BLOCKEND  ---      ---       LVL=0

      0100B597H   BLOCK     CODE     ---       LVL=0
      0100B597H   LINE      CODE     ---       #178
      0100B597H   LINE      CODE     ---       #179
      0100B597H   LINE      CODE     ---       #180
      0100B59DH   LINE      CODE     ---       #181
      0100B59DH   LINE      CODE     ---       #182
      0100B5A0H   LINE      CODE     ---       #184
      0100B5A6H   LINE      CODE     ---       #185
      0100B5A6H   LINE      CODE     ---       #188
      0100B5A9H   LINE      CODE     ---       #189
      ---         BLOCKEND  ---      ---       LVL=0

      0100B8A8H   BLOCK     CODE     ---       LVL=0
      00000007H   SYMBOL    DATA     BYTE      interruptsMask
      0100B8A8H   LINE      CODE     ---       #237
      0100B8A8H   LINE      CODE     ---       #238
      0100B8A8H   LINE      CODE     ---       #239
      0100B8ADH   LINE      CODE     ---       #240
      ---         BLOCKEND  ---      ---       LVL=0
      00000007H   SYMBOL    DATA     BYTE      control
LX51 LINKER/LOCATER V4.64.0.0                                                         01/12/2018  13:27:04  PAGE 115



      0100B387H   BLOCK     CODE     ---       LVL=0
      00000007H   SYMBOL    DATA     BYTE      counter
      0100B387H   LINE      CODE     ---       #326
      0100B387H   LINE      CODE     ---       #328
      0100B387H   LINE      CODE     ---       #333
      0100B38EH   LINE      CODE     ---       #334
      0100B39BH   LINE      CODE     ---       #335
      0100B3A2H   LINE      CODE     ---       #339
      ---         BLOCKEND  ---      ---       LVL=0

      0100B695H   BLOCK     CODE     ---       LVL=0
      00000007H   SYMBOL    DATA     BYTE      period
      0100B695H   LINE      CODE     ---       #415
      0100B695H   LINE      CODE     ---       #416
      0100B695H   LINE      CODE     ---       #418
      0100B6A2H   LINE      CODE     ---       #422
      ---         BLOCKEND  ---      ---       LVL=0

      ---         MODULE    ---      ---       WATCHDOG_ENABLER
      0100B8AEH   PUBLIC    CODE     ---       _WATCHDOG_ENABLER_Write

      0100B8AEH   BLOCK     CODE     ---       LVL=0
      00000007H   SYMBOL    DATA     BYTE      control
      0100B8AEH   LINE      CODE     ---       #37
      0100B8AEH   LINE      CODE     ---       #38
      0100B8AEH   LINE      CODE     ---       #39
      0100B8B3H   LINE      CODE     ---       #40
      ---         BLOCKEND  ---      ---       LVL=0

      ---         MODULE    ---      ---       WATCHDOG_REFRESH
      0100B8B4H   PUBLIC    CODE     ---       _WATCHDOG_REFRESH_Write

      0100B8B4H   BLOCK     CODE     ---       LVL=0
      00000007H   SYMBOL    DATA     BYTE      control
      0100B8B4H   LINE      CODE     ---       #37
      0100B8B4H   LINE      CODE     ---       #38
      0100B8B4H   LINE      CODE     ---       #39
      0100B8B9H   LINE      CODE     ---       #40
      ---         BLOCKEND  ---      ---       LVL=0

      ---         MODULE    ---      ---       CYDMAC
      0100A558H   PUBLIC    CODE     ---       _CyDmaTdSetAddress
      02000003H   PUBLIC    XDATA    BYTE      ?_CyDmaTdSetConfiguration?BYTE
      0100A35DH   PUBLIC    CODE     ---       _CyDmaTdSetConfiguration
      0100AE03H   PUBLIC    CODE     ---       CyDmaTdAllocate
      02000009H   PUBLIC    XDATA    BYTE      ?_CyDmaChSetConfiguration?BYTE
      0100A467H   PUBLIC    CODE     ---       _CyDmaChSetConfiguration
      0100B369H   PUBLIC    CODE     ---       _CyDmaChSetInitialTd
      0100A4E0H   PUBLIC    CODE     ---       _CyDmaChSetExtendedAddress
      0100ADC3H   PUBLIC    CODE     ---       _CyDmaChPriority
      0100ABD9H   PUBLIC    CODE     ---       _CyDmaChEnable
      0100AF3BH   PUBLIC    CODE     ---       CyDmacConfigure
      000000CAH   SFRSYM    DATA     BYTE      SFRPRT5SEL
      000000DAH   SFRSYM    DATA     BYTE      SFRPRT6SEL
      000000D0H.6 SFRSYM    DATA     BIT       AC
      000000A8H.7 SFRSYM    DATA     BIT       EA
      000000A8H   SFRSYM    DATA     BYTE      IE
      00000085H   SFRSYM    DATA     BYTE      DPH1
      00000084H   SFRSYM    DATA     BYTE      DPL1
      000000D0H.7 SFRSYM    DATA     BIT       CY
      000000A0H   SFRSYM    DATA     BYTE      P2AX
      00000095H   SFRSYM    DATA     BYTE      DPX1
      00000081H   SFRSYM    DATA     BYTE      SP
      000000D0H.2 SFRSYM    DATA     BIT       OV
LX51 LINKER/LOCATER V4.64.0.0                                                         01/12/2018  13:27:04  PAGE 116


      00000080H   SFRSYM    DATA     BYTE      SFRPRT0DR
      00000090H   SFRSYM    DATA     BYTE      SFRPRT1DR
      000000F2H   SFRSYM    DATA     BYTE      SFRPRT12SEL
      00000098H   SFRSYM    DATA     BYTE      SFRPRT2DR
      000000B0H   SFRSYM    DATA     BYTE      SFRPRT3DR
      000000C0H   SFRSYM    DATA     BYTE      SFRPRT4DR
      000000FAH   SFRSYM    DATA     BYTE      SFRPRT15SEL
      000000C8H   SFRSYM    DATA     BYTE      SFRPRT5DR
      000000D8H   SFRSYM    DATA     BYTE      SFRPRT6DR
      00000089H   SFRSYM    DATA     BYTE      SFRPRT0PS
      00000091H   SFRSYM    DATA     BYTE      SFRPRT1PS
      00000099H   SFRSYM    DATA     BYTE      SFRPRT2PS
      000000B1H   SFRSYM    DATA     BYTE      SFRPRT3PS
      000000C1H   SFRSYM    DATA     BYTE      SFRPRT4PS
      000000C9H   SFRSYM    DATA     BYTE      SFRPRT5PS
      000000D9H   SFRSYM    DATA     BYTE      SFRPRT6PS
      000000EAH   SFRSYM    DATA     BYTE      MXAX
      000000F0H   SFRSYM    DATA     BYTE      B
      000000E0H   SFRSYM    DATA     BYTE      ACC
      000000D0H   SFRSYM    DATA     BIT       P
      000000D0H.3 SFRSYM    DATA     BIT       RS0
      000000D0H.4 SFRSYM    DATA     BIT       RS1
      00000083H   SFRSYM    DATA     BYTE      DPH
      000000E8H   SFRSYM    DATA     BYTE      SFRPRT12DR
      00000082H   SFRSYM    DATA     BYTE      DPL
      000000F8H   SFRSYM    DATA     BYTE      SFRPRT15DR
      00000086H   SFRSYM    DATA     BYTE      DPS
      000000E9H   SFRSYM    DATA     BYTE      SFRPRT12PS
      00000093H   SFRSYM    DATA     BYTE      DPX
      000000F9H   SFRSYM    DATA     BYTE      SFRPRT15PS
      000000D0H.5 SFRSYM    DATA     BIT       F0
      000000D0H.1 SFRSYM    DATA     BIT       F1
      0000008AH   SFRSYM    DATA     BYTE      SFRPRT0SEL
      000000D0H   SFRSYM    DATA     BYTE      PSW
      000000A2H   SFRSYM    DATA     BYTE      SFRPRT1SEL
      0000009AH   SFRSYM    DATA     BYTE      SFRPRT2SEL
      000000B2H   SFRSYM    DATA     BYTE      SFRPRT3SEL
      000000C2H   SFRSYM    DATA     BYTE      SFRPRT4SEL
      02000DE5H   SYMBOL    XDATA    DWORD     CyDmaChannels
      02000DE9H   SYMBOL    XDATA    BYTE      CyDmaTdFreeIndex
      02000DEAH   SYMBOL    XDATA    BYTE      CyDmaTdCurrentNumber

      0100AF3BH   BLOCK     CODE     ---       LVL=0
      0100AF3BH   BLOCK     CODE     NEAR LAB  LVL=1
      00000007H   SYMBOL    DATA     BYTE      dmaIndex
      ---         BLOCKEND  ---      ---       LVL=1
      0100AF3BH   LINE      CODE     ---       #61
      0100AF3BH   LINE      CODE     ---       #62
      0100AF3BH   LINE      CODE     ---       #66
      0100AF41H   LINE      CODE     ---       #67
      0100AF44H   LINE      CODE     ---       #70
      0100AF49H   LINE      CODE     ---       #71
      0100AF49H   LINE      CODE     ---       #72
      0100AF5CH   LINE      CODE     ---       #73
      0100AF5FH   LINE      CODE     ---       #76
      0100AF70H   LINE      CODE     ---       #77
      ---         BLOCKEND  ---      ---       LVL=0
      00000007H   SYMBOL    DATA     BYTE      error

      0100ABD9H   BLOCK     CODE     ---       LVL=0
      00000007H   SYMBOL    DATA     BYTE      chHandle
      00000005H   SYMBOL    DATA     BYTE      preserveTds
      0100ABD9H   BLOCK     CODE     NEAR LAB  LVL=1
      00000006H   SYMBOL    DATA     BYTE      status
      ---         BLOCKEND  ---      ---       LVL=1
LX51 LINKER/LOCATER V4.64.0.0                                                         01/12/2018  13:27:04  PAGE 117


      0100ABD9H   LINE      CODE     ---       #304
      0100ABD9H   LINE      CODE     ---       #305
      0100ABD9H   LINE      CODE     ---       #306
      0100ABDBH   LINE      CODE     ---       #308
      0100ABE1H   LINE      CODE     ---       #309
      0100ABE1H   LINE      CODE     ---       #310
      0100ABE4H   LINE      CODE     ---       #311
      0100ABE4H   LINE      CODE     ---       #315
      0100ABF7H   LINE      CODE     ---       #316
      0100ABF9H   LINE      CODE     ---       #318
      0100ABF9H   LINE      CODE     ---       #320
      0100AC0CH   LINE      CODE     ---       #321
      0100AC0CH   LINE      CODE     ---       #324
      0100AC1FH   LINE      CODE     ---       #326
      0100AC21H   LINE      CODE     ---       #327
      0100AC21H   LINE      CODE     ---       #329
      0100AC23H   LINE      CODE     ---       #330
      ---         BLOCKEND  ---      ---       LVL=0
      00000007H   SYMBOL    DATA     BYTE      chHandle
      00000006H   SYMBOL    DATA     BYTE      status
      00000007H   SYMBOL    DATA     BYTE      chHandle
      00000006H   SYMBOL    DATA     BYTE      status

      0100ADC3H   BLOCK     CODE     ---       LVL=0
      00000004H   SYMBOL    DATA     BYTE      chHandle
      00000005H   SYMBOL    DATA     BYTE      priority
      0100ADC5H   BLOCK     CODE     NEAR LAB  LVL=1
      00000002H   SYMBOL    DATA     BYTE      value
      00000003H   SYMBOL    DATA     BYTE      status
      ---         BLOCKEND  ---      ---       LVL=1
      0100ADC3H   LINE      CODE     ---       #429
      0100ADC5H   LINE      CODE     ---       #430
      0100ADC5H   LINE      CODE     ---       #432
      0100ADC7H   LINE      CODE     ---       #434
      0100ADCDH   LINE      CODE     ---       #435
      0100ADCDH   LINE      CODE     ---       #436
      0100ADE0H   LINE      CODE     ---       #438
      0100ADFEH   LINE      CODE     ---       #440
      0100AE00H   LINE      CODE     ---       #441
      0100AE00H   LINE      CODE     ---       #443
      0100AE02H   LINE      CODE     ---       #444
      ---         BLOCKEND  ---      ---       LVL=0

      0100A4E0H   BLOCK     CODE     ---       LVL=0
      02000009H   SYMBOL    XDATA    BYTE      chHandle
      0200000AH   SYMBOL    XDATA    WORD      source
      0200000CH   SYMBOL    XDATA    WORD      destination
      0100A4F3H   BLOCK     CODE     NEAR LAB  LVL=1
      0200000EH   SYMBOL    XDATA    BYTE      status
      0200000FH   SYMBOL    XDATA    ---       convert
      ---         BLOCKEND  ---      ---       LVL=1
      0100A4E0H   LINE      CODE     ---       #470
      0100A4F3H   LINE      CODE     ---       #472
      0100A4F3H   LINE      CODE     ---       #473
      0100A4F9H   LINE      CODE     ---       #492
      0100A4FFH   LINE      CODE     ---       #493
      0100A4FFH   LINE      CODE     ---       #495
      0100A516H   LINE      CODE     ---       #496
      0100A526H   LINE      CODE     ---       #499
      0100A53DH   LINE      CODE     ---       #500
      0100A54DH   LINE      CODE     ---       #501
      0100A552H   LINE      CODE     ---       #502
      0100A552H   LINE      CODE     ---       #504
      0100A557H   LINE      CODE     ---       #505
      ---         BLOCKEND  ---      ---       LVL=0
LX51 LINKER/LOCATER V4.64.0.0                                                         01/12/2018  13:27:04  PAGE 118



      0100B369H   BLOCK     CODE     ---       LVL=0
      00000007H   SYMBOL    DATA     BYTE      chHandle
      00000005H   SYMBOL    DATA     BYTE      startTd
      0100B369H   BLOCK     CODE     NEAR LAB  LVL=1
      00000006H   SYMBOL    DATA     BYTE      status
      ---         BLOCKEND  ---      ---       LVL=1
      0100B369H   LINE      CODE     ---       #529
      0100B369H   LINE      CODE     ---       #530
      0100B369H   LINE      CODE     ---       #531
      0100B36BH   LINE      CODE     ---       #533
      0100B371H   LINE      CODE     ---       #534
      0100B371H   LINE      CODE     ---       #535
      0100B382H   LINE      CODE     ---       #536
      0100B384H   LINE      CODE     ---       #537
      0100B384H   LINE      CODE     ---       #539
      0100B386H   LINE      CODE     ---       #540
      ---         BLOCKEND  ---      ---       LVL=0
      00000007H   SYMBOL    DATA     BYTE      chHandle
      00000005H   SYMBOL    DATA     BYTE      request
      00000006H   SYMBOL    DATA     BYTE      status
      00000007H   SYMBOL    DATA     BYTE      chHandle
      00000003H   SYMBOL    DATA     BYTE      status
      00000007H   SYMBOL    DATA     BYTE      chHandle
      00000006H   SYMBOL    DATA     BYTE      status

      0100A467H   BLOCK     CODE     ---       LVL=0
      00000004H   SYMBOL    DATA     BYTE      chHandle
      00000005H   SYMBOL    DATA     BYTE      burstCount
      00000003H   SYMBOL    DATA     BYTE      requestPerBurst
      0200000CH   SYMBOL    XDATA    BYTE      tdDone0
      0200000DH   SYMBOL    XDATA    BYTE      tdDone1
      0200000EH   SYMBOL    XDATA    BYTE      tdStop
      0100A469H   BLOCK     CODE     NEAR LAB  LVL=1
      00000002H   SYMBOL    DATA     BYTE      status
      ---         BLOCKEND  ---      ---       LVL=1
      0100A467H   LINE      CODE     ---       #716
      0100A469H   LINE      CODE     ---       #718
      0100A469H   LINE      CODE     ---       #719
      0100A46BH   LINE      CODE     ---       #721
      0100A471H   LINE      CODE     ---       #722
      0100A471H   LINE      CODE     ---       #723
      0100A48FH   LINE      CODE     ---       #724
      0100A4B3H   LINE      CODE     ---       #725
      0100A4CBH   LINE      CODE     ---       #726
      0100A4DCH   LINE      CODE     ---       #728
      0100A4DDH   LINE      CODE     ---       #729
      0100A4DDH   LINE      CODE     ---       #731
      0100A4DFH   LINE      CODE     ---       #732
      ---         BLOCKEND  ---      ---       LVL=0

      0100AE03H   BLOCK     CODE     ---       LVL=0
      0100AE03H   BLOCK     CODE     NEAR LAB  LVL=1
      00000007H   SYMBOL    DATA     BYTE      interruptState
      02000003H   SYMBOL    XDATA    BYTE      element
      ---         BLOCKEND  ---      ---       LVL=1
      0100AE03H   LINE      CODE     ---       #752
      0100AE03H   LINE      CODE     ---       #753
      0100AE03H   LINE      CODE     ---       #755
      0100AE09H   LINE      CODE     ---       #758
      0100AE0CH   LINE      CODE     ---       #760
      0100AE15H   LINE      CODE     ---       #761
      0100AE15H   LINE      CODE     ---       #763
      0100AE1EH   LINE      CODE     ---       #766
      0100AE24H   LINE      CODE     ---       #769
LX51 LINKER/LOCATER V4.64.0.0                                                         01/12/2018  13:27:04  PAGE 119


      0100AE38H   LINE      CODE     ---       #770
      0100AE38H   LINE      CODE     ---       #773
      0100AE3BH   LINE      CODE     ---       #775
      0100AE40H   LINE      CODE     ---       #776
      ---         BLOCKEND  ---      ---       LVL=0

      0100A35DH   BLOCK     CODE     ---       LVL=0
      02000003H   SYMBOL    XDATA    BYTE      tdHandle
      02000004H   SYMBOL    XDATA    WORD      transferCount
      02000006H   SYMBOL    XDATA    BYTE      nextTd
      02000007H   SYMBOL    XDATA    BYTE      configuration
      0100A36DH   BLOCK     CODE     NEAR LAB  LVL=1
      02000008H   SYMBOL    XDATA    BYTE      status
      0100A382H   BLOCK     CODE     NEAR LAB  LVL=2
      02000009H   SYMBOL    XDATA    ---       convert
      ---         BLOCKEND  ---      ---       LVL=2
      ---         BLOCKEND  ---      ---       LVL=1
      0100A35DH   LINE      CODE     ---       #891
      0100A36DH   LINE      CODE     ---       #893
      0100A36DH   LINE      CODE     ---       #894
      0100A373H   LINE      CODE     ---       #896
      0100A382H   LINE      CODE     ---       #897
      0100A382H   LINE      CODE     ---       #899
      0100A399H   LINE      CODE     ---       #900
      0100A3A9H   LINE      CODE     ---       #903
      0100A3C3H   LINE      CODE     ---       #906
      0100A3D9H   LINE      CODE     ---       #908
      0100A3DEH   LINE      CODE     ---       #909
      0100A3DEH   LINE      CODE     ---       #911
      0100A3E3H   LINE      CODE     ---       #912
      ---         BLOCKEND  ---      ---       LVL=0

      0100A558H   BLOCK     CODE     ---       LVL=0
      02000003H   SYMBOL    XDATA    BYTE      tdHandle
      02000004H   SYMBOL    XDATA    WORD      source
      02000006H   SYMBOL    XDATA    WORD      destination
      0100A56BH   BLOCK     CODE     NEAR LAB  LVL=1
      02000008H   SYMBOL    XDATA    BYTE      status
      02000009H   SYMBOL    XDATA    ---       convert
      ---         BLOCKEND  ---      ---       LVL=1
      0100A558H   LINE      CODE     ---       #1010
      0100A56BH   LINE      CODE     ---       #1011
      0100A56BH   LINE      CODE     ---       #1012
      0100A571H   LINE      CODE     ---       #1015
      0100A577H   LINE      CODE     ---       #1016
      0100A577H   LINE      CODE     ---       #1018
      0100A58EH   LINE      CODE     ---       #1019
      0100A59EH   LINE      CODE     ---       #1022
      0100A5B5H   LINE      CODE     ---       #1023
      0100A5C5H   LINE      CODE     ---       #1025
      0100A5CAH   LINE      CODE     ---       #1026
      0100A5CAH   LINE      CODE     ---       #1028
      0100A5CFH   LINE      CODE     ---       #1029
      ---         BLOCKEND  ---      ---       LVL=0
      00000007H   SYMBOL    DATA     BYTE      chHandle
      00000005H   SYMBOL    DATA     BYTE      enableRR
      00000006H   SYMBOL    DATA     BYTE      status

      ---         MODULE    ---      ---       CYLIB
      02000DE1H   PUBLIC    XDATA    DWORD     cydelay_32k_ms
      02000DE0H   PUBLIC    XDATA    BYTE      CyResetStatus
      02000DDCH   PUBLIC    XDATA    DWORD     cydelay_freq_hz
      02000DDBH   PUBLIC    XDATA    BYTE      cydelay_freq_mhz
      02000DD7H   PUBLIC    XDATA    DWORD     cydelay_freq_khz
      0100B3F0H   PUBLIC    CODE     ---       _CyIntSetPriority
LX51 LINKER/LOCATER V4.64.0.0                                                         01/12/2018  13:27:04  PAGE 120


      0100AA45H   PUBLIC    CODE     ---       _CyIntSetVector
      0100A2D5H   PUBLIC    CODE     ---       _?CyDelay
      0100B7D7H   PUBLIC    CODE     ---       CySoftwareReset
      000000CAH   SFRSYM    DATA     BYTE      SFRPRT5SEL
      000000DAH   SFRSYM    DATA     BYTE      SFRPRT6SEL
      000000D0H.6 SFRSYM    DATA     BIT       AC
      000000A8H.7 SFRSYM    DATA     BIT       EA
      000000A8H   SFRSYM    DATA     BYTE      IE
      00000085H   SFRSYM    DATA     BYTE      DPH1
      00000084H   SFRSYM    DATA     BYTE      DPL1
      000000D0H.7 SFRSYM    DATA     BIT       CY
      000000A0H   SFRSYM    DATA     BYTE      P2AX
      00000095H   SFRSYM    DATA     BYTE      DPX1
      00000081H   SFRSYM    DATA     BYTE      SP
      000000D0H.2 SFRSYM    DATA     BIT       OV
      00000080H   SFRSYM    DATA     BYTE      SFRPRT0DR
      00000090H   SFRSYM    DATA     BYTE      SFRPRT1DR
      000000F2H   SFRSYM    DATA     BYTE      SFRPRT12SEL
      00000098H   SFRSYM    DATA     BYTE      SFRPRT2DR
      000000B0H   SFRSYM    DATA     BYTE      SFRPRT3DR
      000000C0H   SFRSYM    DATA     BYTE      SFRPRT4DR
      000000FAH   SFRSYM    DATA     BYTE      SFRPRT15SEL
      000000C8H   SFRSYM    DATA     BYTE      SFRPRT5DR
      000000D8H   SFRSYM    DATA     BYTE      SFRPRT6DR
      00000089H   SFRSYM    DATA     BYTE      SFRPRT0PS
      00000091H   SFRSYM    DATA     BYTE      SFRPRT1PS
      00000099H   SFRSYM    DATA     BYTE      SFRPRT2PS
      000000B1H   SFRSYM    DATA     BYTE      SFRPRT3PS
      000000C1H   SFRSYM    DATA     BYTE      SFRPRT4PS
      000000C9H   SFRSYM    DATA     BYTE      SFRPRT5PS
      000000D9H   SFRSYM    DATA     BYTE      SFRPRT6PS
      000000EAH   SFRSYM    DATA     BYTE      MXAX
      000000F0H   SFRSYM    DATA     BYTE      B
      000000E0H   SFRSYM    DATA     BYTE      ACC
      000000D0H   SFRSYM    DATA     BIT       P
      000000D0H.3 SFRSYM    DATA     BIT       RS0
      000000D0H.4 SFRSYM    DATA     BIT       RS1
      00000083H   SFRSYM    DATA     BYTE      DPH
      000000E8H   SFRSYM    DATA     BYTE      SFRPRT12DR
      00000082H   SFRSYM    DATA     BYTE      DPL
      000000F8H   SFRSYM    DATA     BYTE      SFRPRT15DR
      00000086H   SFRSYM    DATA     BYTE      DPS
      000000E9H   SFRSYM    DATA     BYTE      SFRPRT12PS
      00000093H   SFRSYM    DATA     BYTE      DPX
      000000F9H   SFRSYM    DATA     BYTE      SFRPRT15PS
      000000D0H.5 SFRSYM    DATA     BIT       F0
      000000D0H.1 SFRSYM    DATA     BIT       F1
      0000008AH   SFRSYM    DATA     BYTE      SFRPRT0SEL
      000000D0H   SFRSYM    DATA     BYTE      PSW
      000000A2H   SFRSYM    DATA     BYTE      SFRPRT1SEL
      0000009AH   SFRSYM    DATA     BYTE      SFRPRT2SEL
      000000B2H   SFRSYM    DATA     BYTE      SFRPRT3SEL
      000000C2H   SFRSYM    DATA     BYTE      SFRPRT4SEL
      00000007H   SYMBOL    DATA     BYTE      wait
      00000007H   SYMBOL    DATA     BYTE      pDiv
      00000005H   SYMBOL    DATA     BYTE      qDiv
      00000003H   SYMBOL    DATA     BYTE      current
      00000007H   SYMBOL    DATA     BYTE      source
      00000007H   SYMBOL    DATA     BYTE      wait
      00000007H   SYMBOL    DATA     BYTE      poweredOn
      00000006H   SYMBOL    DATA     BYTE      freq
      00000007H   SYMBOL    DATA     BYTE      source
      00000007H   SYMBOL    DATA     BYTE      source
      00000007H   SYMBOL    DATA     BYTE      divider
      00000006H   SYMBOL    DATA     WORD      divider
LX51 LINKER/LOCATER V4.64.0.0                                                         01/12/2018  13:27:04  PAGE 121


      00000005H   SYMBOL    DATA     BYTE      masterClkDiv
      00000006H   SYMBOL    DATA     WORD      busClkDiv
      00000001H   SYMBOL    DATA     BYTE      interruptState
      00000007H   SYMBOL    DATA     BYTE      divider
      00000007H   SYMBOL    DATA     BYTE      source
      00000007H   SYMBOL    DATA     BYTE      source
      00000007H   SYMBOL    DATA     BYTE      mode
      00000006H   SYMBOL    DATA     BYTE      state
      00000007H   SYMBOL    DATA     BYTE      mode
      00000007H   SYMBOL    DATA     BYTE      wait
      00000007H   SYMBOL    DATA     BYTE      setting
      00000007H   SYMBOL    DATA     BYTE      setting
      00000007H   SYMBOL    DATA     BYTE      setting
      00000000H   SYMBOL    XSTK     BYTE      reason

      0100B7D7H   BLOCK     CODE     ---       LVL=0
      0100B7D7H   LINE      CODE     ---       #1666
      0100B7D7H   LINE      CODE     ---       #1667
      0100B7D7H   LINE      CODE     ---       #1668
      0100B7DEH   LINE      CODE     ---       #1669
      ---         BLOCKEND  ---      ---       LVL=0

      0100A2D5H   BLOCK     CODE     ---       LVL=0
      00000000H   SYMBOL    XSTK     DWORD     milliseconds
      0100A2D5H   LINE      CODE     ---       #1692
      0100A2DEH   LINE      CODE     ---       #1694
      0100A2F4H   LINE      CODE     ---       #1695
      0100A2F4H   LINE      CODE     ---       #1700
      0100A305H   LINE      CODE     ---       #1701
      0100A32FH   LINE      CODE     ---       #1702
      0100A331H   LINE      CODE     ---       #1704
      0100A356H   LINE      CODE     ---       #1705
      ---         BLOCKEND  ---      ---       LVL=0
      00000000H   SYMBOL    XSTK     DWORD     freq
      00000007H   SYMBOL    DATA     BYTE      ticks
      00000005H   SYMBOL    DATA     BYTE      lpMode
      02000DD6H   SYMBOL    XDATA    BYTE      interruptStatus
      00000005H   SYMBOL    DATA     BYTE      interruptState
      00000005H   SYMBOL    DATA     BYTE      interruptState
      00000003H   SYMBOL    DATA     BYTE      interruptState

      0100AA45H   BLOCK     CODE     ---       LVL=0
      02000003H   SYMBOL    XDATA    BYTE      number
      02000004H   SYMBOL    XDATA    ---       address
      0100AA52H   BLOCK     CODE     NEAR LAB  LVL=1
      02000006H   SYMBOL    XDATA    ---       oldIsr
      ---         BLOCKEND  ---      ---       LVL=1
      0100AA45H   LINE      CODE     ---       #2641
      0100AA52H   LINE      CODE     ---       #2642
      0100AA52H   LINE      CODE     ---       #2648
      0100AA70H   LINE      CODE     ---       #2652
      0100AA90H   LINE      CODE     ---       #2654
      0100AA98H   LINE      CODE     ---       #2655
      ---         BLOCKEND  ---      ---       LVL=0
      00000007H   SYMBOL    DATA     BYTE      number

      0100B3F0H   BLOCK     CODE     ---       LVL=0
      00000004H   SYMBOL    DATA     BYTE      number
      00000005H   SYMBOL    DATA     BYTE      priority
      0100B3F0H   LINE      CODE     ---       #2696
      0100B3F2H   LINE      CODE     ---       #2697
      0100B3F2H   LINE      CODE     ---       #2702
      0100B408H   LINE      CODE     ---       #2704
      ---         BLOCKEND  ---      ---       LVL=0
      00000007H   SYMBOL    DATA     BYTE      number
LX51 LINKER/LOCATER V4.64.0.0                                                         01/12/2018  13:27:04  PAGE 122


      00000007H   SYMBOL    DATA     BYTE      priority
      00000005H   SYMBOL    DATA     BYTE      number
      00000006H   SYMBOL    DATA     ---       stateReg

      ---         MODULE    ---      ---       CYBOOTASMKEIL
      0100B4ACH   PUBLIC    CODE     NEAR LAB  CyEnterCriticalSection
      0100AF00H   PUBLIC    CODE     NEAR LAB  _CyDelayCycles
      0100B194H   PUBLIC    CODE     NEAR LAB  _CyDelayUs
      0100B43AH   PUBLIC    CODE     NEAR LAB  _CyExitCriticalSection

      ---         MODULE    ---      ---       CYMEM
      02000000H   PUBLIC    XDATA    BYTE      ?_cyconfigcpy?BYTE
      0100AFDAH   PUBLIC    CODE     NEAR LAB  _cyconfigcpy
      0100B261H   PUBLIC    CODE     NEAR LAB  _cyconfigcpycode
      0100B623H   PUBLIC    CODE     NEAR LAB  _cyread16
      0100B625H   PUBLIC    CODE     NEAR LAB  _cyread16_nodpx
      0100B5AAH   PUBLIC    CODE     NEAR LAB  _cyread24
      0100B5ACH   PUBLIC    CODE     NEAR LAB  _cyread24_nodpx
      0100B6E4H   PUBLIC    CODE     NEAR LAB  _cyread8
      0100B6E6H   PUBLIC    CODE     NEAR LAB  _cyread8_nodpx
      0100B632H   PUBLIC    CODE     NEAR LAB  _cywrite16
      0100B634H   PUBLIC    CODE     NEAR LAB  _cywrite16_nodpx
      0100B5CFH   PUBLIC    CODE     NEAR LAB  _cywrite24
      0100B5D1H   PUBLIC    CODE     NEAR LAB  _cywrite24_nodpx
      0100B6F0H   PUBLIC    CODE     NEAR LAB  _cywrite8
      0100B6F2H   PUBLIC    CODE     NEAR LAB  _cywrite8_nodpx

      ---         MODULE    ---      ---       ?C_STARTUP
      00000000H   PUBLIC    NUMBER   ---       ?C?XPAGE1RST
      00000093H   PUBLIC    DATA     BYTE      ?C?XPAGE1SFR
      01002600H   PUBLIC    CODE     NEAR LAB  ?C_STARTUP
      0100972DH   PUBLIC    CODE     NEAR LAB  STARTUP1
      01002604H   PUBLIC    CODE     NEAR LAB  _dma_wait

      ---         MODULE    ---      ---       UART_RS485_INT
      01009E8FH   PUBLIC    CODE     ---       UART_RS485_RXISR
      000000CAH   SFRSYM    DATA     BYTE      SFRPRT5SEL
      000000DAH   SFRSYM    DATA     BYTE      SFRPRT6SEL
      000000D0H.6 SFRSYM    DATA     BIT       AC
      000000A8H.7 SFRSYM    DATA     BIT       EA
      000000A8H   SFRSYM    DATA     BYTE      IE
      00000085H   SFRSYM    DATA     BYTE      DPH1
      00000084H   SFRSYM    DATA     BYTE      DPL1
      000000D0H.7 SFRSYM    DATA     BIT       CY
      000000A0H   SFRSYM    DATA     BYTE      P2AX
      00000095H   SFRSYM    DATA     BYTE      DPX1
      00000081H   SFRSYM    DATA     BYTE      SP
      000000D0H.2 SFRSYM    DATA     BIT       OV
      00000080H   SFRSYM    DATA     BYTE      SFRPRT0DR
      00000090H   SFRSYM    DATA     BYTE      SFRPRT1DR
      000000F2H   SFRSYM    DATA     BYTE      SFRPRT12SEL
      00000098H   SFRSYM    DATA     BYTE      SFRPRT2DR
      000000B0H   SFRSYM    DATA     BYTE      SFRPRT3DR
      000000C0H   SFRSYM    DATA     BYTE      SFRPRT4DR
      000000FAH   SFRSYM    DATA     BYTE      SFRPRT15SEL
      000000C8H   SFRSYM    DATA     BYTE      SFRPRT5DR
      000000D8H   SFRSYM    DATA     BYTE      SFRPRT6DR
      00000089H   SFRSYM    DATA     BYTE      SFRPRT0PS
      00000091H   SFRSYM    DATA     BYTE      SFRPRT1PS
      00000099H   SFRSYM    DATA     BYTE      SFRPRT2PS
      000000B1H   SFRSYM    DATA     BYTE      SFRPRT3PS
      000000C1H   SFRSYM    DATA     BYTE      SFRPRT4PS
      000000C9H   SFRSYM    DATA     BYTE      SFRPRT5PS
      000000D9H   SFRSYM    DATA     BYTE      SFRPRT6PS
      000000EAH   SFRSYM    DATA     BYTE      MXAX
LX51 LINKER/LOCATER V4.64.0.0                                                         01/12/2018  13:27:04  PAGE 123


      000000F0H   SFRSYM    DATA     BYTE      B
      000000E0H   SFRSYM    DATA     BYTE      ACC
      000000D0H   SFRSYM    DATA     BIT       P
      000000D0H.3 SFRSYM    DATA     BIT       RS0
      000000D0H.4 SFRSYM    DATA     BIT       RS1
      00000083H   SFRSYM    DATA     BYTE      DPH
      000000E8H   SFRSYM    DATA     BYTE      SFRPRT12DR
      00000082H   SFRSYM    DATA     BYTE      DPL
      000000F8H   SFRSYM    DATA     BYTE      SFRPRT15DR
      00000086H   SFRSYM    DATA     BYTE      DPS
      000000E9H   SFRSYM    DATA     BYTE      SFRPRT12PS
      00000093H   SFRSYM    DATA     BYTE      DPX
      000000F9H   SFRSYM    DATA     BYTE      SFRPRT15PS
      000000D0H.5 SFRSYM    DATA     BIT       F0
      000000D0H.1 SFRSYM    DATA     BIT       F1
      0000008AH   SFRSYM    DATA     BYTE      SFRPRT0SEL
      000000D0H   SFRSYM    DATA     BYTE      PSW
      000000A2H   SFRSYM    DATA     BYTE      SFRPRT1SEL
      0000009AH   SFRSYM    DATA     BYTE      SFRPRT2SEL
      000000B2H   SFRSYM    DATA     BYTE      SFRPRT3SEL
      000000C2H   SFRSYM    DATA     BYTE      SFRPRT4SEL

      01009E8FH   BLOCK     CODE     ---       LVL=0
      01009EB2H   BLOCK     CODE     NEAR LAB  LVL=1
      00000006H   SYMBOL    DATA     BYTE      readData
      00000007H   SYMBOL    DATA     BYTE      readStatus
      00000003H   SYMBOL    DATA     BYTE      increment_pointer
      00000002H   SYMBOL    DATA     BYTE      int_en
      ---         BLOCKEND  ---      ---       LVL=1
      01009E8FH   LINE      CODE     ---       #59
      01009EB2H   LINE      CODE     ---       #63
      01009EB4H   LINE      CODE     ---       #79
      01009EB8H   LINE      CODE     ---       #80
      01009EC0H   LINE      CODE     ---       #84
      01009EC0H   LINE      CODE     ---       #86
      01009EC5H   LINE      CODE     ---       #90
      01009EC6H   LINE      CODE     ---       #95
      01009ECBH   LINE      CODE     ---       #96
      01009ECBH   LINE      CODE     ---       #101
      01009ED1H   LINE      CODE     ---       #109
      01009ED1H   LINE      CODE     ---       #111
      01009ED5H   LINE      CODE     ---       #112
      01009ED5H   LINE      CODE     ---       #114
      01009EDAH   LINE      CODE     ---       #141
      01009EE9H   LINE      CODE     ---       #142
      01009EEBH   LINE      CODE     ---       #146
      01009EEEH   LINE      CODE     ---       #147
      01009EEEH   LINE      CODE     ---       #148
      01009EF4H   LINE      CODE     ---       #149
      01009EF4H   LINE      CODE     ---       #150
      01009EFAH   LINE      CODE     ---       #151
      01009EFAH   LINE      CODE     ---       #153
      01009F00H   LINE      CODE     ---       #156
      01009F06H   LINE      CODE     ---       #157
      01009F06H   LINE      CODE     ---       #158
      01009F08H   LINE      CODE     ---       #159
      01009F08H   LINE      CODE     ---       #162
      01009F14H   LINE      CODE     ---       #163
      01009F14H   LINE      CODE     ---       #164
      01009F1AH   LINE      CODE     ---       #172
      01009F1AH   LINE      CODE     ---       #173
      01009F1AH   LINE      CODE     ---       #174
      01009F1AH   LINE      CODE     ---       #175
      01009F1EH   LINE      CODE     ---       #187
      01009F25H   LINE      CODE     ---       #189
LX51 LINKER/LOCATER V4.64.0.0                                                         01/12/2018  13:27:04  PAGE 124


      ---         BLOCKEND  ---      ---       LVL=0

      ---         MODULE    ---      ---       ADC_INT
      0100B8CEH   PUBLIC    CODE     ---       ADC_ISR4
      0100B8CDH   PUBLIC    CODE     ---       ADC_ISR3
      0100B8CCH   PUBLIC    CODE     ---       ADC_ISR2
      0100B8CBH   PUBLIC    CODE     ---       ADC_ISR1
      000000CAH   SFRSYM    DATA     BYTE      SFRPRT5SEL
      000000DAH   SFRSYM    DATA     BYTE      SFRPRT6SEL
      000000D0H.6 SFRSYM    DATA     BIT       AC
      000000A8H.7 SFRSYM    DATA     BIT       EA
      000000A8H   SFRSYM    DATA     BYTE      IE
      00000085H   SFRSYM    DATA     BYTE      DPH1
      00000084H   SFRSYM    DATA     BYTE      DPL1
      000000D0H.7 SFRSYM    DATA     BIT       CY
      000000A0H   SFRSYM    DATA     BYTE      P2AX
      00000095H   SFRSYM    DATA     BYTE      DPX1
      00000081H   SFRSYM    DATA     BYTE      SP
      000000D0H.2 SFRSYM    DATA     BIT       OV
      00000080H   SFRSYM    DATA     BYTE      SFRPRT0DR
      00000090H   SFRSYM    DATA     BYTE      SFRPRT1DR
      000000F2H   SFRSYM    DATA     BYTE      SFRPRT12SEL
      00000098H   SFRSYM    DATA     BYTE      SFRPRT2DR
      000000B0H   SFRSYM    DATA     BYTE      SFRPRT3DR
      000000C0H   SFRSYM    DATA     BYTE      SFRPRT4DR
      000000FAH   SFRSYM    DATA     BYTE      SFRPRT15SEL
      000000C8H   SFRSYM    DATA     BYTE      SFRPRT5DR
      000000D8H   SFRSYM    DATA     BYTE      SFRPRT6DR
      00000089H   SFRSYM    DATA     BYTE      SFRPRT0PS
      00000091H   SFRSYM    DATA     BYTE      SFRPRT1PS
      00000099H   SFRSYM    DATA     BYTE      SFRPRT2PS
      000000B1H   SFRSYM    DATA     BYTE      SFRPRT3PS
      000000C1H   SFRSYM    DATA     BYTE      SFRPRT4PS
      000000C9H   SFRSYM    DATA     BYTE      SFRPRT5PS
      000000D9H   SFRSYM    DATA     BYTE      SFRPRT6PS
      000000EAH   SFRSYM    DATA     BYTE      MXAX
      000000F0H   SFRSYM    DATA     BYTE      B
      000000E0H   SFRSYM    DATA     BYTE      ACC
      000000D0H   SFRSYM    DATA     BIT       P
      000000D0H.3 SFRSYM    DATA     BIT       RS0
      000000D0H.4 SFRSYM    DATA     BIT       RS1
      00000083H   SFRSYM    DATA     BYTE      DPH
      000000E8H   SFRSYM    DATA     BYTE      SFRPRT12DR
      00000082H   SFRSYM    DATA     BYTE      DPL
      000000F8H   SFRSYM    DATA     BYTE      SFRPRT15DR
      00000086H   SFRSYM    DATA     BYTE      DPS
      000000E9H   SFRSYM    DATA     BYTE      SFRPRT12PS
      00000093H   SFRSYM    DATA     BYTE      DPX
      000000F9H   SFRSYM    DATA     BYTE      SFRPRT15PS
      000000D0H.5 SFRSYM    DATA     BIT       F0
      000000D0H.1 SFRSYM    DATA     BIT       F1
      0000008AH   SFRSYM    DATA     BYTE      SFRPRT0SEL
      000000D0H   SFRSYM    DATA     BYTE      PSW
      000000A2H   SFRSYM    DATA     BYTE      SFRPRT1SEL
      0000009AH   SFRSYM    DATA     BYTE      SFRPRT2SEL
      000000B2H   SFRSYM    DATA     BYTE      SFRPRT3SEL
      000000C2H   SFRSYM    DATA     BYTE      SFRPRT4SEL

      0100B8CBH   BLOCK     CODE     ---       LVL=0
      0100B8CBH   LINE      CODE     ---       #51
      0100B8CBH   LINE      CODE     ---       #81
      ---         BLOCKEND  ---      ---       LVL=0

      0100B8CCH   BLOCK     CODE     ---       LVL=0
      0100B8CCH   LINE      CODE     ---       #101
LX51 LINKER/LOCATER V4.64.0.0                                                         01/12/2018  13:27:04  PAGE 125


      0100B8CCH   LINE      CODE     ---       #131
      ---         BLOCKEND  ---      ---       LVL=0

      0100B8CDH   BLOCK     CODE     ---       LVL=0
      0100B8CDH   LINE      CODE     ---       #151
      0100B8CDH   LINE      CODE     ---       #181
      ---         BLOCKEND  ---      ---       LVL=0

      0100B8CEH   BLOCK     CODE     ---       LVL=0
      0100B8CEH   LINE      CODE     ---       #201
      0100B8CEH   LINE      CODE     ---       #231
      ---         BLOCKEND  ---      ---       LVL=0

      ---         MODULE    ---      ---       ADC_AMUX
      0100B409H   PUBLIC    CODE     ---       _ADC_AMux_Select
      0100B2CBH   PUBLIC    CODE     ---       ADC_AMux_Start
      02000E00H   SYMBOL    XDATA    BYTE      ADC_AMux_lastChannel

      0100B2CBH   BLOCK     CODE     ---       LVL=0
      0100B2CBH   BLOCK     CODE     NEAR LAB  LVL=1
      02000004H   SYMBOL    XDATA    BYTE      chan
      ---         BLOCKEND  ---      ---       LVL=1
      0100B2CBH   LINE      CODE     ---       #36
      0100B2CBH   LINE      CODE     ---       #37
      0100B2CBH   LINE      CODE     ---       #40
      0100B2DAH   LINE      CODE     ---       #41
      0100B2DAH   LINE      CODE     ---       #43
      0100B2DDH   LINE      CODE     ---       #48
      0100B2E5H   LINE      CODE     ---       #50
      0100B2EBH   LINE      CODE     ---       #51
      ---         BLOCKEND  ---      ---       LVL=0

      0100B409H   BLOCK     CODE     ---       LVL=0
      02000003H   SYMBOL    XDATA    BYTE      channel
      0100B409H   LINE      CODE     ---       #69
      0100B40EH   LINE      CODE     ---       #70
      0100B40EH   LINE      CODE     ---       #71
      0100B411H   LINE      CODE     ---       #72
      0100B419H   LINE      CODE     ---       #73
      0100B421H   LINE      CODE     ---       #74
      ---         BLOCKEND  ---      ---       LVL=0

      ---         MODULE    ---      ---       ADC_EXT_CP_CLK
      0100B7DFH   PUBLIC    CODE     ---       ADC_Ext_CP_Clk_GetSourceRegister
      0100B6CAH   PUBLIC    CODE     ---       _ADC_Ext_CP_Clk_SetModeRegister
      0100B7A3H   PUBLIC    CODE     ---       ADC_Ext_CP_Clk_GetDividerRegister
      01009147H   PUBLIC    CODE     ---       _ADC_Ext_CP_Clk_SetDividerRegister
      00000007H   SYMBOL    DATA     BYTE      state

      01009147H   BLOCK     CODE     ---       LVL=0
      02000003H   SYMBOL    XDATA    WORD      clkDivider
      02000005H   SYMBOL    XDATA    BYTE      restart
      01009152H   BLOCK     CODE     NEAR LAB  LVL=1
      02000006H   SYMBOL    XDATA    BYTE      enabled
      02000007H   SYMBOL    XDATA    BYTE      currSrc
      02000008H   SYMBOL    XDATA    WORD      oldDivider
      ---         BLOCKEND  ---      ---       LVL=1
      01009147H   LINE      CODE     ---       #193
      01009152H   LINE      CODE     ---       #195
      01009152H   LINE      CODE     ---       #198
      0100915AH   LINE      CODE     ---       #199
      01009165H   LINE      CODE     ---       #201
      01009177H   LINE      CODE     ---       #202
      01009177H   LINE      CODE     ---       #203
      01009181H   LINE      CODE     ---       #205
LX51 LINKER/LOCATER V4.64.0.0                                                         01/12/2018  13:27:04  PAGE 126


      01009192H   LINE      CODE     ---       #206
      01009192H   LINE      CODE     ---       #208
      01009196H   LINE      CODE     ---       #209
      01009196H   LINE      CODE     ---       #213
      0100919FH   LINE      CODE     ---       #214
      010091A6H   LINE      CODE     ---       #215
      010091A7H   LINE      CODE     ---       #217
      010091A7H   LINE      CODE     ---       #220
      010091AEH   LINE      CODE     ---       #221
      010091BFH   LINE      CODE     ---       #222
      010091BFH   LINE      CODE     ---       #223
      010091C0H   LINE      CODE     ---       #225
      010091C0H   LINE      CODE     ---       #227
      010091C6H   LINE      CODE     ---       #228
      010091C6H   LINE      CODE     ---       #229
      010091CBH   LINE      CODE     ---       #236
      010091D1H   LINE      CODE     ---       #237
      010091D6H   LINE      CODE     ---       #240
      010091DDH   LINE      CODE     ---       #243
      010091EFH   LINE      CODE     ---       #244
      010091EFH   LINE      CODE     ---       #246
      01009200H   LINE      CODE     ---       #247
      01009206H   LINE      CODE     ---       #250
      0100920EH   LINE      CODE     ---       #253
      01009215H   LINE      CODE     ---       #257
      0100921AH   LINE      CODE     ---       #259
      0100921AH   LINE      CODE     ---       #260
      0100921AH   LINE      CODE     ---       #263
      01009222H   LINE      CODE     ---       #264
      01009222H   LINE      CODE     ---       #266
      01009233H   LINE      CODE     ---       #268
      01009246H   LINE      CODE     ---       #269
      01009250H   LINE      CODE     ---       #270
      01009251H   LINE      CODE     ---       #272
      01009251H   LINE      CODE     ---       #274
      01009262H   LINE      CODE     ---       #275
      01009277H   LINE      CODE     ---       #276
      01009277H   LINE      CODE     ---       #277
      01009277H   LINE      CODE     ---       #278
      01009277H   LINE      CODE     ---       #279
      ---         BLOCKEND  ---      ---       LVL=0

      0100B7A3H   BLOCK     CODE     ---       LVL=0
      0100B7A3H   LINE      CODE     ---       #297
      0100B7A3H   LINE      CODE     ---       #298
      0100B7A3H   LINE      CODE     ---       #299
      0100B7ACH   LINE      CODE     ---       #300
      ---         BLOCKEND  ---      ---       LVL=0

      0100B6CAH   BLOCK     CODE     ---       LVL=0
      00000007H   SYMBOL    DATA     BYTE      modeBitMask
      0100B6CAH   LINE      CODE     ---       #332
      0100B6CAH   LINE      CODE     ---       #333
      0100B6CAH   LINE      CODE     ---       #334
      0100B6D6H   LINE      CODE     ---       #335
      ---         BLOCKEND  ---      ---       LVL=0
      00000007H   SYMBOL    DATA     BYTE      modeBitMask
      00000007H   SYMBOL    DATA     BYTE      oldSrc

      0100B7DFH   BLOCK     CODE     ---       LVL=0
      0100B7DFH   LINE      CODE     ---       #464
      0100B7DFH   LINE      CODE     ---       #465
      0100B7DFH   LINE      CODE     ---       #466
      0100B7E6H   LINE      CODE     ---       #467
      ---         BLOCKEND  ---      ---       LVL=0
LX51 LINKER/LOCATER V4.64.0.0                                                         01/12/2018  13:27:04  PAGE 127



      ---         MODULE    ---      ---       ADC_THEACLK
      0100B7E7H   PUBLIC    CODE     ---       ADC_theACLK_GetSourceRegister
      0100B6D7H   PUBLIC    CODE     ---       _ADC_theACLK_SetModeRegister
      0100B7ADH   PUBLIC    CODE     ---       ADC_theACLK_GetDividerRegister
      010094D7H   PUBLIC    CODE     ---       _ADC_theACLK_SetDividerRegister
      00000007H   SYMBOL    DATA     BYTE      state

      010094D7H   BLOCK     CODE     ---       LVL=0
      02000003H   SYMBOL    XDATA    WORD      clkDivider
      02000005H   SYMBOL    XDATA    BYTE      restart
      010094E2H   BLOCK     CODE     NEAR LAB  LVL=1
      02000006H   SYMBOL    XDATA    BYTE      enabled
      02000007H   SYMBOL    XDATA    BYTE      currSrc
      02000008H   SYMBOL    XDATA    WORD      oldDivider
      ---         BLOCKEND  ---      ---       LVL=1
      010094D7H   LINE      CODE     ---       #193
      010094E2H   LINE      CODE     ---       #195
      010094E2H   LINE      CODE     ---       #198
      010094EAH   LINE      CODE     ---       #199
      010094F5H   LINE      CODE     ---       #201
      01009507H   LINE      CODE     ---       #202
      01009507H   LINE      CODE     ---       #203
      01009511H   LINE      CODE     ---       #205
      01009522H   LINE      CODE     ---       #206
      01009522H   LINE      CODE     ---       #208
      01009526H   LINE      CODE     ---       #209
      01009526H   LINE      CODE     ---       #213
      0100952EH   LINE      CODE     ---       #214
      01009535H   LINE      CODE     ---       #215
      01009536H   LINE      CODE     ---       #217
      01009536H   LINE      CODE     ---       #220
      0100953DH   LINE      CODE     ---       #221
      0100954EH   LINE      CODE     ---       #222
      0100954EH   LINE      CODE     ---       #223
      0100954FH   LINE      CODE     ---       #225
      0100954FH   LINE      CODE     ---       #227
      01009555H   LINE      CODE     ---       #228
      01009555H   LINE      CODE     ---       #229
      0100955AH   LINE      CODE     ---       #233
      0100955FH   LINE      CODE     ---       #234
      01009564H   LINE      CODE     ---       #240
      0100956BH   LINE      CODE     ---       #243
      0100957DH   LINE      CODE     ---       #244
      0100957DH   LINE      CODE     ---       #246
      0100958EH   LINE      CODE     ---       #247
      01009594H   LINE      CODE     ---       #250
      0100959CH   LINE      CODE     ---       #253
      010095A3H   LINE      CODE     ---       #257
      010095A8H   LINE      CODE     ---       #259
      010095A8H   LINE      CODE     ---       #260
      010095A8H   LINE      CODE     ---       #263
      010095B0H   LINE      CODE     ---       #264
      010095B0H   LINE      CODE     ---       #266
      010095C1H   LINE      CODE     ---       #268
      010095D4H   LINE      CODE     ---       #269
      010095DEH   LINE      CODE     ---       #270
      010095DFH   LINE      CODE     ---       #272
      010095DFH   LINE      CODE     ---       #274
      010095F0H   LINE      CODE     ---       #275
      01009605H   LINE      CODE     ---       #276
      01009605H   LINE      CODE     ---       #277
      01009605H   LINE      CODE     ---       #278
      01009605H   LINE      CODE     ---       #279
      ---         BLOCKEND  ---      ---       LVL=0
LX51 LINKER/LOCATER V4.64.0.0                                                         01/12/2018  13:27:04  PAGE 128



      0100B7ADH   BLOCK     CODE     ---       LVL=0
      0100B7ADH   LINE      CODE     ---       #297
      0100B7ADH   LINE      CODE     ---       #298
      0100B7ADH   LINE      CODE     ---       #299
      0100B7B6H   LINE      CODE     ---       #300
      ---         BLOCKEND  ---      ---       LVL=0

      0100B6D7H   BLOCK     CODE     ---       LVL=0
      00000007H   SYMBOL    DATA     BYTE      modeBitMask
      0100B6D7H   LINE      CODE     ---       #332
      0100B6D7H   LINE      CODE     ---       #333
      0100B6D7H   LINE      CODE     ---       #334
      0100B6E3H   LINE      CODE     ---       #335
      ---         BLOCKEND  ---      ---       LVL=0
      00000007H   SYMBOL    DATA     BYTE      modeBitMask
      00000007H   SYMBOL    DATA     BYTE      oldSrc

      0100B7E7H   BLOCK     CODE     ---       LVL=0
      0100B7E7H   LINE      CODE     ---       #464
      0100B7E7H   LINE      CODE     ---       #465
      0100B7E7H   LINE      CODE     ---       #466
      0100B7EEH   LINE      CODE     ---       #467
      ---         BLOCKEND  ---      ---       LVL=0
      00000007H   SYMBOL    DATA     BYTE      clkPhase

      ---         MODULE    ---      ---       CYFLASH
      02000DEEH   PUBLIC    XDATA    ---       dieTemperature
      0100B0A4H   PUBLIC    CODE     ---       CyEEPROM_Start
      0100B452H   PUBLIC    CODE     ---       CySetTemp
      000000CAH   SFRSYM    DATA     BYTE      SFRPRT5SEL
      000000DAH   SFRSYM    DATA     BYTE      SFRPRT6SEL
      000000D0H.6 SFRSYM    DATA     BIT       AC
      000000A8H.7 SFRSYM    DATA     BIT       EA
      000000A8H   SFRSYM    DATA     BYTE      IE
      00000085H   SFRSYM    DATA     BYTE      DPH1
      00000084H   SFRSYM    DATA     BYTE      DPL1
      000000D0H.7 SFRSYM    DATA     BIT       CY
      000000A0H   SFRSYM    DATA     BYTE      P2AX
      00000095H   SFRSYM    DATA     BYTE      DPX1
      00000081H   SFRSYM    DATA     BYTE      SP
      000000D0H.2 SFRSYM    DATA     BIT       OV
      00000080H   SFRSYM    DATA     BYTE      SFRPRT0DR
      00000090H   SFRSYM    DATA     BYTE      SFRPRT1DR
      000000F2H   SFRSYM    DATA     BYTE      SFRPRT12SEL
      00000098H   SFRSYM    DATA     BYTE      SFRPRT2DR
      000000B0H   SFRSYM    DATA     BYTE      SFRPRT3DR
      000000C0H   SFRSYM    DATA     BYTE      SFRPRT4DR
      000000FAH   SFRSYM    DATA     BYTE      SFRPRT15SEL
      000000C8H   SFRSYM    DATA     BYTE      SFRPRT5DR
      000000D8H   SFRSYM    DATA     BYTE      SFRPRT6DR
      00000089H   SFRSYM    DATA     BYTE      SFRPRT0PS
      00000091H   SFRSYM    DATA     BYTE      SFRPRT1PS
      00000099H   SFRSYM    DATA     BYTE      SFRPRT2PS
      000000B1H   SFRSYM    DATA     BYTE      SFRPRT3PS
      000000C1H   SFRSYM    DATA     BYTE      SFRPRT4PS
      000000C9H   SFRSYM    DATA     BYTE      SFRPRT5PS
      000000D9H   SFRSYM    DATA     BYTE      SFRPRT6PS
      000000EAH   SFRSYM    DATA     BYTE      MXAX
      000000F0H   SFRSYM    DATA     BYTE      B
      000000E0H   SFRSYM    DATA     BYTE      ACC
      000000D0H   SFRSYM    DATA     BIT       P
      000000D0H.3 SFRSYM    DATA     BIT       RS0
      000000D0H.4 SFRSYM    DATA     BIT       RS1
      00000083H   SFRSYM    DATA     BYTE      DPH
LX51 LINKER/LOCATER V4.64.0.0                                                         01/12/2018  13:27:04  PAGE 129


      000000E8H   SFRSYM    DATA     BYTE      SFRPRT12DR
      00000082H   SFRSYM    DATA     BYTE      DPL
      000000F8H   SFRSYM    DATA     BYTE      SFRPRT15DR
      00000086H   SFRSYM    DATA     BYTE      DPS
      000000E9H   SFRSYM    DATA     BYTE      SFRPRT12PS
      00000093H   SFRSYM    DATA     BYTE      DPX
      000000F9H   SFRSYM    DATA     BYTE      SFRPRT15PS
      000000D0H.5 SFRSYM    DATA     BIT       F0
      000000D0H.1 SFRSYM    DATA     BIT       F1
      0000008AH   SFRSYM    DATA     BYTE      SFRPRT0SEL
      000000D0H   SFRSYM    DATA     BYTE      PSW
      000000A2H   SFRSYM    DATA     BYTE      SFRPRT1SEL
      0000009AH   SFRSYM    DATA     BYTE      SFRPRT2SEL
      000000B2H   SFRSYM    DATA     BYTE      SFRPRT3SEL
      000000C2H   SFRSYM    DATA     BYTE      SFRPRT4SEL
      0100AAEDH   SYMBOL    CODE     ---       CyFlashGetSpcAlgorithm
      0100A9EFH   SYMBOL    CODE     ---       CySetTempInt
      02000DEBH   SYMBOL    XDATA    ---       rowBuffer
      00000007H   SYMBOL    DATA     BYTE      interruptState
      00000007H   SYMBOL    DATA     BYTE      interruptState

      0100A9EFH   BLOCK     CODE     ---       LVL=0
      0100A9EFH   BLOCK     CODE     NEAR LAB  LVL=1
      02000029H   SYMBOL    XDATA    BYTE      status
      ---         BLOCKEND  ---      ---       LVL=1
      0100A9EFH   LINE      CODE     ---       #155
      0100A9EFH   LINE      CODE     ---       #156
      0100A9EFH   LINE      CODE     ---       #160
      0100A9F2H   LINE      CODE     ---       #163
      0100A9F8H   LINE      CODE     ---       #165
      0100A9FEH   LINE      CODE     ---       #166
      0100A9FEH   LINE      CODE     ---       #168
      0100AA08H   LINE      CODE     ---       #169
      0100AA08H   LINE      CODE     ---       #171
      0100AA08H   LINE      CODE     ---       #172
      0100AA17H   LINE      CODE     ---       #173
      0100AA17H   LINE      CODE     ---       #174
      0100AA1CH   LINE      CODE     ---       #176
      0100AA24H   LINE      CODE     ---       #177
      0100AA24H   LINE      CODE     ---       #179
      0100AA2AH   LINE      CODE     ---       #180
      0100AA2CH   LINE      CODE     ---       #181
      0100AA2CH   LINE      CODE     ---       #182
      0100AA2CH   LINE      CODE     ---       #184
      0100AA34H   LINE      CODE     ---       #185
      0100AA34H   LINE      CODE     ---       #187
      0100AA37H   LINE      CODE     ---       #188
      0100AA39H   LINE      CODE     ---       #190
      0100AA39H   LINE      CODE     ---       #191
      0100AA3FH   LINE      CODE     ---       #192
      0100AA3FH   LINE      CODE     ---       #194
      0100AA44H   LINE      CODE     ---       #195
      ---         BLOCKEND  ---      ---       LVL=0

      0100AAEDH   BLOCK     CODE     ---       LVL=0
      0100AAEDH   BLOCK     CODE     NEAR LAB  LVL=1
      02000029H   SYMBOL    XDATA    BYTE      status
      ---         BLOCKEND  ---      ---       LVL=1
      0100AAEDH   LINE      CODE     ---       #215
      0100AAEDH   LINE      CODE     ---       #216
      0100AAEDH   LINE      CODE     ---       #220
      0100AAF0H   LINE      CODE     ---       #222
      0100AAF6H   LINE      CODE     ---       #223
      0100AAF6H   LINE      CODE     ---       #224
      0100AAFEH   LINE      CODE     ---       #226
LX51 LINKER/LOCATER V4.64.0.0                                                         01/12/2018  13:27:04  PAGE 130


      0100AB02H   LINE      CODE     ---       #227
      0100AB02H   LINE      CODE     ---       #228
      0100AB0AH   LINE      CODE     ---       #229
      0100AB0AH   LINE      CODE     ---       #231
      0100AB10H   LINE      CODE     ---       #232
      0100AB12H   LINE      CODE     ---       #234
      0100AB28H   LINE      CODE     ---       #235
      0100AB28H   LINE      CODE     ---       #236
      0100AB2CH   LINE      CODE     ---       #237
      0100AB2CH   LINE      CODE     ---       #238
      0100AB2CH   LINE      CODE     ---       #239
      0100AB2FH   LINE      CODE     ---       #240
      0100AB31H   LINE      CODE     ---       #242
      0100AB31H   LINE      CODE     ---       #243
      0100AB37H   LINE      CODE     ---       #244
      0100AB37H   LINE      CODE     ---       #246
      0100AB3CH   LINE      CODE     ---       #247
      ---         BLOCKEND  ---      ---       LVL=0

      0100B452H   BLOCK     CODE     ---       LVL=0
      0100B452H   BLOCK     CODE     NEAR LAB  LVL=1
      02000028H   SYMBOL    XDATA    BYTE      status
      ---         BLOCKEND  ---      ---       LVL=1
      0100B452H   LINE      CODE     ---       #273
      0100B452H   LINE      CODE     ---       #274
      0100B452H   LINE      CODE     ---       #275
      0100B45AH   LINE      CODE     ---       #277
      0100B45CH   LINE      CODE     ---       #278
      0100B45CH   LINE      CODE     ---       #279
      0100B464H   LINE      CODE     ---       #280
      0100B464H   LINE      CODE     ---       #282
      0100B469H   LINE      CODE     ---       #283
      ---         BLOCKEND  ---      ---       LVL=0
      00000004H   SYMBOL    DATA     WORD      rowAddress
      00000001H   SYMBOL    DATA     ---       rowData
      00000007H   SYMBOL    DATA     BYTE      status
      00000007H   SYMBOL    DATA     BYTE      interruptState

      0100B0A4H   BLOCK     CODE     ---       LVL=0
      0100B0A4H   BLOCK     CODE     NEAR LAB  LVL=1
      00000007H   SYMBOL    DATA     BYTE      interruptState
      ---         BLOCKEND  ---      ---       LVL=1
      0100B0A4H   LINE      CODE     ---       #636
      0100B0A4H   LINE      CODE     ---       #637
      0100B0A4H   LINE      CODE     ---       #640
      0100B0A7H   LINE      CODE     ---       #647
      0100B0AEH   LINE      CODE     ---       #648
      0100B0B5H   LINE      CODE     ---       #661
      0100B0BBH   LINE      CODE     ---       #668
      0100B0C2H   LINE      CODE     ---       #669
      0100B0C9H   LINE      CODE     ---       #671
      0100B0D1H   LINE      CODE     ---       #672
      0100B0D1H   LINE      CODE     ---       #674
      0100B0D1H   LINE      CODE     ---       #676
      0100B0D4H   LINE      CODE     ---       #677
      ---         BLOCKEND  ---      ---       LVL=0
      00000007H   SYMBOL    DATA     BYTE      interruptState

      ---         MODULE    ---      ---       CYPM
      000000CAH   SFRSYM    DATA     BYTE      SFRPRT5SEL
      000000DAH   SFRSYM    DATA     BYTE      SFRPRT6SEL
      000000D0H.6 SFRSYM    DATA     BIT       AC
      000000A8H.7 SFRSYM    DATA     BIT       EA
      000000A8H   SFRSYM    DATA     BYTE      IE
      00000085H   SFRSYM    DATA     BYTE      DPH1
LX51 LINKER/LOCATER V4.64.0.0                                                         01/12/2018  13:27:04  PAGE 131


      00000084H   SFRSYM    DATA     BYTE      DPL1
      000000D0H.7 SFRSYM    DATA     BIT       CY
      000000A0H   SFRSYM    DATA     BYTE      P2AX
      00000095H   SFRSYM    DATA     BYTE      DPX1
      00000081H   SFRSYM    DATA     BYTE      SP
      000000D0H.2 SFRSYM    DATA     BIT       OV
      00000080H   SFRSYM    DATA     BYTE      SFRPRT0DR
      00000090H   SFRSYM    DATA     BYTE      SFRPRT1DR
      000000F2H   SFRSYM    DATA     BYTE      SFRPRT12SEL
      00000098H   SFRSYM    DATA     BYTE      SFRPRT2DR
      000000B0H   SFRSYM    DATA     BYTE      SFRPRT3DR
      000000C0H   SFRSYM    DATA     BYTE      SFRPRT4DR
      000000FAH   SFRSYM    DATA     BYTE      SFRPRT15SEL
      000000C8H   SFRSYM    DATA     BYTE      SFRPRT5DR
      000000D8H   SFRSYM    DATA     BYTE      SFRPRT6DR
      00000089H   SFRSYM    DATA     BYTE      SFRPRT0PS
      00000091H   SFRSYM    DATA     BYTE      SFRPRT1PS
      00000099H   SFRSYM    DATA     BYTE      SFRPRT2PS
      000000B1H   SFRSYM    DATA     BYTE      SFRPRT3PS
      000000C1H   SFRSYM    DATA     BYTE      SFRPRT4PS
      000000C9H   SFRSYM    DATA     BYTE      SFRPRT5PS
      000000D9H   SFRSYM    DATA     BYTE      SFRPRT6PS
      000000EAH   SFRSYM    DATA     BYTE      MXAX
      000000F0H   SFRSYM    DATA     BYTE      B
      000000E0H   SFRSYM    DATA     BYTE      ACC
      000000D0H   SFRSYM    DATA     BIT       P
      000000D0H.3 SFRSYM    DATA     BIT       RS0
      000000D0H.4 SFRSYM    DATA     BIT       RS1
      00000083H   SFRSYM    DATA     BYTE      DPH
      000000E8H   SFRSYM    DATA     BYTE      SFRPRT12DR
      00000082H   SFRSYM    DATA     BYTE      DPL
      000000F8H   SFRSYM    DATA     BYTE      SFRPRT15DR
      00000086H   SFRSYM    DATA     BYTE      DPS
      000000E9H   SFRSYM    DATA     BYTE      SFRPRT12PS
      00000093H   SFRSYM    DATA     BYTE      DPX
      000000F9H   SFRSYM    DATA     BYTE      SFRPRT15PS
      000000D0H.5 SFRSYM    DATA     BIT       F0
      000000D0H.1 SFRSYM    DATA     BIT       F1
      0000008AH   SFRSYM    DATA     BYTE      SFRPRT0SEL
      000000D0H   SFRSYM    DATA     BYTE      PSW
      000000A2H   SFRSYM    DATA     BYTE      SFRPRT1SEL
      0000009AH   SFRSYM    DATA     BYTE      SFRPRT2SEL
      000000B2H   SFRSYM    DATA     BYTE      SFRPRT3SEL
      000000C2H   SFRSYM    DATA     BYTE      SFRPRT4SEL
      02000D35H   SYMBOL    XDATA    ---       cyPmClockBackup
      02000D45H   SYMBOL    XDATA    ---       cyPmBackup
      00000006H   SYMBOL    DATA     WORD      clkBusDivTmp
      02000D34H   SYMBOL    XDATA    BYTE      interruptStatus
      00000005H   SYMBOL    DATA     BYTE      interruptState

      ---         MODULE    ---      ---       CYSPC
      02000E01H   PUBLIC    XDATA    BYTE      SpcLockState
      0100B3A3H   PUBLIC    CODE     ---       CySpcGetAlgorithm
      0100B6FCH   PUBLIC    CODE     ---       CySpcUnlock
      0100B34AH   PUBLIC    CODE     ---       CySpcLock
      0100B164H   PUBLIC    CODE     ---       _CySpcGetTemp
      0200002DH   PUBLIC    XDATA    BYTE      ?_CySpcWriteRow?BYTE
      0100AA99H   PUBLIC    CODE     ---       _CySpcWriteRow
      0200002DH   PUBLIC    XDATA    BYTE      ?_CySpcLoadRow?BYTE
      0100A6BAH   PUBLIC    CODE     ---       _CySpcLoadRow
      0100A8DAH   PUBLIC    CODE     ---       _CySpcReadData
      0100B4C1H   PUBLIC    CODE     ---       CySpcStart
      000000CAH   SFRSYM    DATA     BYTE      SFRPRT5SEL
      000000DAH   SFRSYM    DATA     BYTE      SFRPRT6SEL
      000000D0H.6 SFRSYM    DATA     BIT       AC
LX51 LINKER/LOCATER V4.64.0.0                                                         01/12/2018  13:27:04  PAGE 132


      000000A8H.7 SFRSYM    DATA     BIT       EA
      000000A8H   SFRSYM    DATA     BYTE      IE
      00000085H   SFRSYM    DATA     BYTE      DPH1
      00000084H   SFRSYM    DATA     BYTE      DPL1
      000000D0H.7 SFRSYM    DATA     BIT       CY
      000000A0H   SFRSYM    DATA     BYTE      P2AX
      00000095H   SFRSYM    DATA     BYTE      DPX1
      00000081H   SFRSYM    DATA     BYTE      SP
      000000D0H.2 SFRSYM    DATA     BIT       OV
      00000080H   SFRSYM    DATA     BYTE      SFRPRT0DR
      00000090H   SFRSYM    DATA     BYTE      SFRPRT1DR
      000000F2H   SFRSYM    DATA     BYTE      SFRPRT12SEL
      00000098H   SFRSYM    DATA     BYTE      SFRPRT2DR
      000000B0H   SFRSYM    DATA     BYTE      SFRPRT3DR
      000000C0H   SFRSYM    DATA     BYTE      SFRPRT4DR
      000000FAH   SFRSYM    DATA     BYTE      SFRPRT15SEL
      000000C8H   SFRSYM    DATA     BYTE      SFRPRT5DR
      000000D8H   SFRSYM    DATA     BYTE      SFRPRT6DR
      00000089H   SFRSYM    DATA     BYTE      SFRPRT0PS
      00000091H   SFRSYM    DATA     BYTE      SFRPRT1PS
      00000099H   SFRSYM    DATA     BYTE      SFRPRT2PS
      000000B1H   SFRSYM    DATA     BYTE      SFRPRT3PS
      000000C1H   SFRSYM    DATA     BYTE      SFRPRT4PS
      000000C9H   SFRSYM    DATA     BYTE      SFRPRT5PS
      000000D9H   SFRSYM    DATA     BYTE      SFRPRT6PS
      000000EAH   SFRSYM    DATA     BYTE      MXAX
      000000F0H   SFRSYM    DATA     BYTE      B
      000000E0H   SFRSYM    DATA     BYTE      ACC
      000000D0H   SFRSYM    DATA     BIT       P
      000000D0H.3 SFRSYM    DATA     BIT       RS0
      000000D0H.4 SFRSYM    DATA     BIT       RS1
      00000083H   SFRSYM    DATA     BYTE      DPH
      000000E8H   SFRSYM    DATA     BYTE      SFRPRT12DR
      00000082H   SFRSYM    DATA     BYTE      DPL
      000000F8H   SFRSYM    DATA     BYTE      SFRPRT15DR
      00000086H   SFRSYM    DATA     BYTE      DPS
      000000E9H   SFRSYM    DATA     BYTE      SFRPRT12PS
      00000093H   SFRSYM    DATA     BYTE      DPX
      000000F9H   SFRSYM    DATA     BYTE      SFRPRT15PS
      000000D0H.5 SFRSYM    DATA     BIT       F0
      000000D0H.1 SFRSYM    DATA     BIT       F1
      0000008AH   SFRSYM    DATA     BYTE      SFRPRT0SEL
      000000D0H   SFRSYM    DATA     BYTE      PSW
      000000A2H   SFRSYM    DATA     BYTE      SFRPRT1SEL
      0000009AH   SFRSYM    DATA     BYTE      SFRPRT2SEL
      000000B2H   SFRSYM    DATA     BYTE      SFRPRT3SEL
      000000C2H   SFRSYM    DATA     BYTE      SFRPRT4SEL

      0100B4C1H   BLOCK     CODE     ---       LVL=0
      0100B4C1H   BLOCK     CODE     NEAR LAB  LVL=1
      00000007H   SYMBOL    DATA     BYTE      interruptState
      ---         BLOCKEND  ---      ---       LVL=1
      0100B4C1H   LINE      CODE     ---       #78
      0100B4C1H   LINE      CODE     ---       #79
      0100B4C1H   LINE      CODE     ---       #81
      0100B4C4H   LINE      CODE     ---       #83
      0100B4CBH   LINE      CODE     ---       #84
      0100B4D2H   LINE      CODE     ---       #87
      0100B4D5H   LINE      CODE     ---       #88
      ---         BLOCKEND  ---      ---       LVL=0
      00000007H   SYMBOL    DATA     BYTE      interruptState

      0100A8DAH   BLOCK     CODE     ---       LVL=0
      0200002AH   SYMBOL    XDATA    ---       buffer
      0200002DH   SYMBOL    XDATA    BYTE      size
LX51 LINKER/LOCATER V4.64.0.0                                                         01/12/2018  13:27:04  PAGE 133


      0100A8E8H   BLOCK     CODE     NEAR LAB  LVL=1
      0200002EH   SYMBOL    XDATA    BYTE      i
      ---         BLOCKEND  ---      ---       LVL=1
      0100A8DAH   LINE      CODE     ---       #135
      0100A8E8H   LINE      CODE     ---       #136
      0100A8E8H   LINE      CODE     ---       #139
      0100A8F6H   LINE      CODE     ---       #140
      0100A8F6H   LINE      CODE     ---       #141
      0100A904H   LINE      CODE     ---       #142
      0100A904H   LINE      CODE     ---       #143
      0100A90BH   LINE      CODE     ---       #144
      0100A90DH   LINE      CODE     ---       #145
      0100A92CH   LINE      CODE     ---       #146
      0100A934H   LINE      CODE     ---       #148
      0100A939H   LINE      CODE     ---       #149
      ---         BLOCKEND  ---      ---       LVL=0
      00000005H   SYMBOL    DATA     BYTE      status
      00000007H   SYMBOL    DATA     BYTE      i

      0100A6BAH   BLOCK     CODE     ---       LVL=0
      00000007H   SYMBOL    DATA     BYTE      array
      0200002EH   SYMBOL    XDATA    ---       buffer
      02000031H   SYMBOL    XDATA    WORD      size
      0100A6C5H   BLOCK     CODE     NEAR LAB  LVL=1
      02000033H   SYMBOL    XDATA    BYTE      status
      00000006H   SYMBOL    DATA     WORD      i
      ---         BLOCKEND  ---      ---       LVL=1
      0100A6BAH   LINE      CODE     ---       #258
      0100A6C5H   LINE      CODE     ---       #259
      0100A6C5H   LINE      CODE     ---       #260
      0100A6CBH   LINE      CODE     ---       #264
      0100A6D3H   LINE      CODE     ---       #265
      0100A6D3H   LINE      CODE     ---       #266
      0100A6D9H   LINE      CODE     ---       #267
      0100A6DCH   LINE      CODE     ---       #268
      0100A6DFH   LINE      CODE     ---       #271
      0100A6E7H   LINE      CODE     ---       #272
      0100A6E7H   LINE      CODE     ---       #273
      0100A6ECH   LINE      CODE     ---       #275
      0100A6FCH   LINE      CODE     ---       #276
      0100A6FCH   LINE      CODE     ---       #277
      0100A712H   LINE      CODE     ---       #278
      0100A719H   LINE      CODE     ---       #279
      0100A719H   LINE      CODE     ---       #281
      0100A719H   LINE      CODE     ---       #282
      0100A71FH   LINE      CODE     ---       #283
      0100A71FH   LINE      CODE     ---       #284
      0100A721H   LINE      CODE     ---       #286
      0100A721H   LINE      CODE     ---       #287
      0100A727H   LINE      CODE     ---       #288
      0100A727H   LINE      CODE     ---       #290
      0100A72CH   LINE      CODE     ---       #291
      ---         BLOCKEND  ---      ---       LVL=0

      0100AA99H   BLOCK     CODE     ---       LVL=0
      00000004H   SYMBOL    DATA     BYTE      array
      0200002EH   SYMBOL    XDATA    WORD      address
      00000003H   SYMBOL    DATA     BYTE      tempPolarity
      02000031H   SYMBOL    XDATA    BYTE      tempMagnitude
      0100AAA3H   BLOCK     CODE     NEAR LAB  LVL=1
      00000005H   SYMBOL    DATA     BYTE      status
      ---         BLOCKEND  ---      ---       LVL=1
      0100AA99H   LINE      CODE     ---       #464
      0100AAA3H   LINE      CODE     ---       #466
      0100AAA3H   LINE      CODE     ---       #467
LX51 LINKER/LOCATER V4.64.0.0                                                         01/12/2018  13:27:04  PAGE 134


      0100AAA5H   LINE      CODE     ---       #470
      0100AAADH   LINE      CODE     ---       #471
      0100AAADH   LINE      CODE     ---       #472
      0100AAB3H   LINE      CODE     ---       #473
      0100AAB6H   LINE      CODE     ---       #474
      0100AAB9H   LINE      CODE     ---       #477
      0100AAC1H   LINE      CODE     ---       #478
      0100AAC1H   LINE      CODE     ---       #479
      0100AAC6H   LINE      CODE     ---       #480
      0100AACEH   LINE      CODE     ---       #481
      0100AAD8H   LINE      CODE     ---       #482
      0100AADAH   LINE      CODE     ---       #483
      0100AAE2H   LINE      CODE     ---       #484
      0100AAE4H   LINE      CODE     ---       #486
      0100AAE4H   LINE      CODE     ---       #487
      0100AAE6H   LINE      CODE     ---       #488
      0100AAE6H   LINE      CODE     ---       #489
      0100AAE8H   LINE      CODE     ---       #491
      0100AAE8H   LINE      CODE     ---       #492
      0100AAEAH   LINE      CODE     ---       #493
      0100AAEAH   LINE      CODE     ---       #495
      0100AAECH   LINE      CODE     ---       #496
      ---         BLOCKEND  ---      ---       LVL=0
      00000007H   SYMBOL    DATA     BYTE      array
      00000005H   SYMBOL    DATA     BYTE      sectorNumber
      00000006H   SYMBOL    DATA     BYTE      status

      0100B164H   BLOCK     CODE     ---       LVL=0
      00000007H   SYMBOL    DATA     BYTE      numSamples
      0100B164H   BLOCK     CODE     NEAR LAB  LVL=1
      00000006H   SYMBOL    DATA     BYTE      status
      ---         BLOCKEND  ---      ---       LVL=1
      0100B164H   LINE      CODE     ---       #573
      0100B164H   LINE      CODE     ---       #574
      0100B164H   LINE      CODE     ---       #575
      0100B166H   LINE      CODE     ---       #578
      0100B16EH   LINE      CODE     ---       #579
      0100B16EH   LINE      CODE     ---       #580
      0100B174H   LINE      CODE     ---       #581
      0100B177H   LINE      CODE     ---       #582
      0100B17AH   LINE      CODE     ---       #585
      0100B182H   LINE      CODE     ---       #586
      0100B182H   LINE      CODE     ---       #587
      0100B187H   LINE      CODE     ---       #588
      0100B189H   LINE      CODE     ---       #590
      0100B189H   LINE      CODE     ---       #591
      0100B18BH   LINE      CODE     ---       #592
      0100B18BH   LINE      CODE     ---       #593
      0100B18DH   LINE      CODE     ---       #595
      0100B18DH   LINE      CODE     ---       #596
      0100B18FH   LINE      CODE     ---       #597
      0100B18FH   LINE      CODE     ---       #599
      0100B191H   LINE      CODE     ---       #600
      ---         BLOCKEND  ---      ---       LVL=0

      0100B34AH   BLOCK     CODE     ---       LVL=0
      0100B34AH   BLOCK     CODE     NEAR LAB  LVL=1
      0200002DH   SYMBOL    XDATA    BYTE      status
      00000007H   SYMBOL    DATA     BYTE      interruptState
      ---         BLOCKEND  ---      ---       LVL=1
      0100B34AH   LINE      CODE     ---       #618
      0100B34AH   LINE      CODE     ---       #619
      0100B34AH   LINE      CODE     ---       #620
      0100B350H   LINE      CODE     ---       #624
      0100B353H   LINE      CODE     ---       #626
LX51 LINKER/LOCATER V4.64.0.0                                                         01/12/2018  13:27:04  PAGE 135


      0100B359H   LINE      CODE     ---       #627
      0100B359H   LINE      CODE     ---       #628
      0100B35BH   LINE      CODE     ---       #629
      0100B360H   LINE      CODE     ---       #647
      0100B360H   LINE      CODE     ---       #650
      0100B363H   LINE      CODE     ---       #652
      0100B368H   LINE      CODE     ---       #653
      ---         BLOCKEND  ---      ---       LVL=0

      0100B6FCH   BLOCK     CODE     ---       LVL=0
      0100B6FCH   BLOCK     CODE     NEAR LAB  LVL=1
      00000007H   SYMBOL    DATA     BYTE      interruptState
      ---         BLOCKEND  ---      ---       LVL=1
      0100B6FCH   LINE      CODE     ---       #670
      0100B6FCH   LINE      CODE     ---       #671
      0100B6FCH   LINE      CODE     ---       #675
      0100B6FFH   LINE      CODE     ---       #678
      0100B704H   LINE      CODE     ---       #698
      0100B707H   LINE      CODE     ---       #699
      ---         BLOCKEND  ---      ---       LVL=0

      0100B3A3H   BLOCK     CODE     ---       LVL=0
      0100B3A3H   BLOCK     CODE     NEAR LAB  LVL=1
      00000007H   SYMBOL    DATA     BYTE      status
      ---         BLOCKEND  ---      ---       LVL=1
      0100B3A3H   LINE      CODE     ---       #716
      0100B3A3H   LINE      CODE     ---       #717
      0100B3A3H   LINE      CODE     ---       #718
      0100B3A5H   LINE      CODE     ---       #721
      0100B3ADH   LINE      CODE     ---       #722
      0100B3ADH   LINE      CODE     ---       #723
      0100B3B3H   LINE      CODE     ---       #724
      0100B3B6H   LINE      CODE     ---       #725
      0100B3B9H   LINE      CODE     ---       #726
      0100B3BBH   LINE      CODE     ---       #728
      0100B3BBH   LINE      CODE     ---       #729
      0100B3BDH   LINE      CODE     ---       #730
      0100B3BDH   LINE      CODE     ---       #732
      0100B3BDH   LINE      CODE     ---       #733
      ---         BLOCKEND  ---      ---       LVL=0

      ---         MODULE    ---      ---       ?C?FPMUL
      01006AF1H   PUBLIC    CODE     ---       ?C?FPMUL

      ---         MODULE    ---      ---       ?C?FPDIV
      01006BFAH   PUBLIC    CODE     ---       ?C?FPDIV

      ---         MODULE    ---      ---       ?C?FPCMP
      01006C99H   PUBLIC    CODE     ---       ?C?FPCMP
      01006C97H   PUBLIC    CODE     ---       ?C?FPCMP3

      ---         MODULE    ---      ---       ?C?FCAST
      01006D1AH   PUBLIC    CODE     ---       ?C?FCASTC
      01006D15H   PUBLIC    CODE     ---       ?C?FCASTI
      01006D10H   PUBLIC    CODE     ---       ?C?FCASTL

      ---         MODULE    ---      ---       ?C?CASTF
      01006D4EH   PUBLIC    CODE     ---       ?C?CASTF

      ---         MODULE    ---      ---       PRINTF
      02000A52H   PUBLIC    XDATA    ---       ?_PRINTF?BYTE
      02000A52H   PUBLIC    XDATA    ---       ?_SPRINTF?BYTE
      01007612H   PUBLIC    CODE     ---       _PRINTF
      0100760CH   PUBLIC    CODE     ---       _SPRINTF

LX51 LINKER/LOCATER V4.64.0.0                                                         01/12/2018  13:27:04  PAGE 136


      ---         MODULE    ---      ---       ?C?FPGETOPN
      01006D85H   PUBLIC    CODE     ---       ?C?FPGETOPN2
      01006DBAH   PUBLIC    CODE     ---       ?C?FPNANRESULT
      01006DC4H   PUBLIC    CODE     ---       ?C?FPOVERFLOW
      01006D9CH   PUBLIC    CODE     ---       ?C?FPRESULT
      01006DB0H   PUBLIC    CODE     ---       ?C?FPRESULT2
      01006DC1H   PUBLIC    CODE     ---       ?C?FPUNDERFLOW

      ---         MODULE    ---      ---       ?C?FPROUND
      01006DCFH   PUBLIC    CODE     ---       ?C?FPROUND

      ---         MODULE    ---      ---       ?C?FPCONVERT
      01006E0CH   PUBLIC    CODE     ---       ?C?FPCONVERT

      ---         MODULE    ---      ---       ?C?FPADD
      01006F18H   PUBLIC    CODE     ---       ?C?FPADD
      01006F14H   PUBLIC    CODE     ---       ?C?FPSUB

      ---         MODULE    ---      ---       ?C?FTNPWR
      01007039H   PUBLIC    CODE     ---       ?C?FTNPWR

      ---         MODULE    ---      ---       ?C_INIT
      01009805H   PUBLIC    CODE     ---       ?C_START

      ---         MODULE    ---      ---       ?C?CLDPTR
      01007079H   PUBLIC    CODE     ---       ?C?CLDPTR

      ---         MODULE    ---      ---       ?C?CLDOPTR
      01007092H   PUBLIC    CODE     ---       ?C?CLDOPTR

      ---         MODULE    ---      ---       ?C?CSTPTR
      010070BFH   PUBLIC    CODE     ---       ?C?CSTPTR

      ---         MODULE    ---      ---       ?C?IMUL
      010070D1H   PUBLIC    CODE     ---       ?C?IMUL

      ---         MODULE    ---      ---       ?C?ISTPTR
      010070E3H   PUBLIC    CODE     ---       ?C?ISTPTR

      ---         MODULE    ---      ---       ?C?LMUL
      01007102H   PUBLIC    CODE     ---       ?C?LMUL

      ---         MODULE    ---      ---       ?C?ULDIV
      0100718DH   PUBLIC    CODE     ---       ?C?ULDIV

      ---         MODULE    ---      ---       ?C?SLDIV
      0100ACFBH   PUBLIC    CODE     ---       ?C?SLDIV

      ---         MODULE    ---      ---       ?C?LNOT
      0100721FH   PUBLIC    CODE     ---       ?C?LNOT

      ---         MODULE    ---      ---       ?C?LNEG
      0100722CH   PUBLIC    CODE     ---       ?C?LNEG

      ---         MODULE    ---      ---       ?C?SLCMP
      0100723AH   PUBLIC    CODE     ---       ?C?SLCMP

      ---         MODULE    ---      ---       ?C?ULCMP
      01007250H   PUBLIC    CODE     ---       ?C?ULCMP

      ---         MODULE    ---      ---       ?C?ULSHR
      01007261H   PUBLIC    CODE     ---       ?C?ULSHR

      ---         MODULE    ---      ---       ?C?SLSHR
      01007274H   PUBLIC    CODE     ---       ?C?SLSHR
LX51 LINKER/LOCATER V4.64.0.0                                                         01/12/2018  13:27:04  PAGE 137



      ---         MODULE    ---      ---       ?C?LSHL
      01007288H   PUBLIC    CODE     ---       ?C?LSHL

      ---         MODULE    ---      ---       ?C?LLDPTR
      0100729BH   PUBLIC    CODE     ---       ?C?LLDPTR

      ---         MODULE    ---      ---       ?C?LSTPTR
      010072BBH   PUBLIC    CODE     ---       ?C?LSTPTR

      ---         MODULE    ---      ---       ?C?LSTXDATA
      010072D5H   PUBLIC    CODE     ---       ?C?LSTXDATA

      ---         MODULE    ---      ---       ?C?PLDIXDATA
      010072E1H   PUBLIC    CODE     ---       ?C?PLDIXDATA

      ---         MODULE    ---      ---       ?C?PSTXDATA
      010072F8H   PUBLIC    CODE     ---       ?C?PSTXDATA

      ---         MODULE    ---      ---       ?C?CCASE
      01007301H   PUBLIC    CODE     ---       ?C?CCASE

      ---         MODULE    ---      ---       ?C_XBP
      0000000EH   PUBLIC    DATA     ---       ?C_XBP

      ---         MODULE    ---      ---       ?C?ADDXBP
      01007327H   PUBLIC    CODE     ---       ?C?ADDXBP

      ---         MODULE    ---      ---       ?C?LIMUL
      0100734BH   PUBLIC    CODE     ---       ?C?LIMUL

      ---         MODULE    ---      ---       PUTCHAR
      0100B214H   PUBLIC    CODE     ---       _PUTCHAR

      ---         MODULE    ---      ---       ABS
      0100B708H   PUBLIC    CODE     ---       _ABS

      ---         MODULE    ---      ---       STRCAT
      02000A52H   PUBLIC    XDATA    ---       ?_STRCAT?BYTE
      0100A809H   PUBLIC    CODE     ---       _STRCAT

      ---         MODULE    ---      ---       STRLEN
      0100B4D6H   PUBLIC    CODE     ---       _STRLEN

      ---         MODULE    ---      ---       ?C?COPYAMD
      01007434H   PUBLIC    CODE     ---       ?C?COPYAMD

      ---         MODULE    ---      ---       ?C?STRCPYAMD
      01007512H   PUBLIC    CODE     ---       ?C?STRCPYAMD

      ---         MODULE    ---      ---       ?C?IILDX
      0100752FH   PUBLIC    CODE     ---       ?C?IILDX

      ---         MODULE    ---      ---       ?C?ILDIX
      01007545H   PUBLIC    CODE     ---       ?C?ILDIX

      ---         MODULE    ---      ---       ?C?LLDIDATA
      0100755BH   PUBLIC    CODE     ---       ?C?LLDIDATA

      ---         MODULE    ---      ---       ?C?LLDXDATA
      01007567H   PUBLIC    CODE     ---       ?C?LLDXDATA

      ---         MODULE    ---      ---       ?C?LLDPDATA
      01007573H   PUBLIC    CODE     ---       ?C?LLDPDATA

LX51 LINKER/LOCATER V4.64.0.0                                                         01/12/2018  13:27:04  PAGE 138


      ---         MODULE    ---      ---       ?C?LLDCODE
      0100757FH   PUBLIC    CODE     ---       ?C?LLDCODE

      ---         MODULE    ---      ---       ?C?LSTIDATA
      0100758FH   PUBLIC    CODE     ---       ?C?LSTIDATA

      ---         MODULE    ---      ---       ?C?LSTPDATA
      0100759BH   PUBLIC    CODE     ---       ?C?LSTPDATA



INTER-MODULE CROSS-REFERENCE LISTING


NAME . . . . . . . . . . . . . . . . . . CLASS    MODULE NAMES
==============================================================

?_Bootloadable_SetFlashByte?BYTE . . . . XDATA    BOOTLOADABLE  
?_commWrite?BYTE . . . . . . . . . . . . XDATA    COMMAND_PROCESSING  
?_commWrite_old_id?BYTE. . . . . . . . . XDATA    COMMAND_PROCESSING  
?_cyconfigcpy?BYTE . . . . . . . . . . . XDATA    CYMEM  CYFITTER_CFG  
?_CyDmaChSetConfiguration?BYTE . . . . . XDATA    CYDMAC  DMA_DMA  
?_CyDmaChStatus?BYTE . . . . . . . . . . XDATA    CYDMAC  
?_CyDmaTdGetAddress?BYTE . . . . . . . . XDATA    CYDMAC  
?_CyDmaTdGetConfiguration?BYTE . . . . . XDATA    CYDMAC  
?_CyDmaTdSetConfiguration?BYTE . . . . . XDATA    CYDMAC  MAIN  
?_CySpcLoadMultiByte?BYTE. . . . . . . . XDATA    CYSPC  EEPROM  
?_CySpcLoadRow?BYTE. . . . . . . . . . . XDATA    CYSPC  EEPROM  
?_CySpcLoadRowFull?BYTE. . . . . . . . . XDATA    CYSPC  CYFLASH  
?_CySpcWriteRow?BYTE . . . . . . . . . . XDATA    CYSPC  CYFLASH  EEPROM  
?_CyWriteRowFull?BYTE. . . . . . . . . . XDATA    CYFLASH  
?_DMA_DmaInitialize?BYTE . . . . . . . . XDATA    DMA_DMA  MAIN  
?_PRINTF?BYTE. . . . . . . . . . . . . . XDATA    PRINTF  
?_SPRINTF?BYTE . . . . . . . . . . . . . XDATA    PRINTF  COMMAND_PROCESSING  
?_strcat?BYTE. . . . . . . . . . . . . . XDATA    STRCAT  COMMAND_PROCESSING  
?C?ADDXBP. . . . . . . . . . . . . . . . CODE     ?C?ADDXBP  CYLIB  
?C?CASTF . . . . . . . . . . . . . . . . CODE     ?C?CASTF  ADC  COMMAND_PROCESSING  INTERRUPTIONS  
?C?CCASE . . . . . . . . . . . . . . . . CODE     ?C?CCASE  COMMAND_PROCESSING  PRINTF  
?C?CLDOPTR . . . . . . . . . . . . . . . CODE     ?C?CLDOPTR  PRINTF  
?C?CLDPTR. . . . . . . . . . . . . . . . CODE     ?C?CLDPTR  COMMAND_PROCESSING  CYSPC  PRINTF  STRCAT  STRLEN  UART_RS4
                                                  85  UTILS  
?C?CODESEG . . . . . . . . . . . . . . . NUMBER   ** LX51 GENERATED **  
?C?COPYAMD . . . . . . . . . . . . . . . CODE     ?C?COPYAMD  COMMAND_PROCESSING  INTERRUPTIONS  MAIN  
?C?CSTPTR. . . . . . . . . . . . . . . . CODE     ?C?CSTPTR  CYDMAC  CYSPC  PRINTF  STRCAT  
?C?FCASTC. . . . . . . . . . . . . . . . CODE     ?C?FCAST  
?C?FCASTI. . . . . . . . . . . . . . . . CODE     ?C?FCAST  ADC  COMMAND_PROCESSING  
?C?FCASTL. . . . . . . . . . . . . . . . CODE     ?C?FCAST  ADC  COMMAND_PROCESSING  INTERRUPTIONS  
?C?FPADD . . . . . . . . . . . . . . . . CODE     ?C?FPADD  ?C?FPCONVERT  
?C?FPCMP . . . . . . . . . . . . . . . . CODE     ?C?FPCMP  
?C?FPCMP3. . . . . . . . . . . . . . . . CODE     ?C?FPCMP  ADC  COMMAND_PROCESSING  INTERRUPTIONS  
?C?FPCONVERT . . . . . . . . . . . . . . CODE     ?C?FPCONVERT  PRINTF  
?C?FPDIV . . . . . . . . . . . . . . . . CODE     ?C?FPDIV  ?C?FPCONVERT  ADC  COMMAND_PROCESSING  
?C?FPGETOPN2 . . . . . . . . . . . . . . CODE     ?C?FPGETOPN  ?C?FPADD  ?C?FPDIV  ?C?FPMUL  
?C?FPMUL . . . . . . . . . . . . . . . . CODE     ?C?FPMUL  ?C?FPCONVERT  ?C?FTNPWR  ADC  COMMAND_PROCESSING  INTERRUPTI
                                                  ONS  
?C?FPNANRESULT . . . . . . . . . . . . . CODE     ?C?FPGETOPN  ?C?FPADD  ?C?FPDIV  ?C?FPMUL  
?C?FPOVERFLOW. . . . . . . . . . . . . . CODE     ?C?FPGETOPN  ?C?FPADD  ?C?FPDIV  ?C?FPMUL  
?C?FPRESULT. . . . . . . . . . . . . . . CODE     ?C?FPGETOPN  ?C?FPADD  ?C?FPDIV  ?C?FPMUL  
?C?FPRESULT2 . . . . . . . . . . . . . . CODE     ?C?FPGETOPN  ?C?FPDIV  ?C?FPMUL  
?C?FPROUND . . . . . . . . . . . . . . . CODE     ?C?FPROUND  PRINTF  
?C?FPSUB . . . . . . . . . . . . . . . . CODE     ?C?FPADD  
?C?FPUNDERFLOW . . . . . . . . . . . . . CODE     ?C?FPGETOPN  ?C?FPADD  ?C?FPDIV  ?C?FPMUL  
?C?FTNPWR. . . . . . . . . . . . . . . . CODE     ?C?FTNPWR  ?C?FPCONVERT  
?C?IILDX . . . . . . . . . . . . . . . . CODE     ?C?IILDX  STRCAT  
?C?ILDIX . . . . . . . . . . . . . . . . CODE     ?C?ILDIX  STRCAT  
LX51 LINKER/LOCATER V4.64.0.0                                                         01/12/2018  13:27:04  PAGE 139


?C?IMUL. . . . . . . . . . . . . . . . . CODE     ?C?IMUL  INTERRUPTIONS  
?C?ISTPTR. . . . . . . . . . . . . . . . CODE     ?C?ISTPTR  CYDMAC  
?C?LIMUL . . . . . . . . . . . . . . . . CODE     ?C?LIMUL  COMMAND_PROCESSING  CYSPC  
?C?LLDCODE . . . . . . . . . . . . . . . CODE     ?C?LLDCODE  ?C?LLDPTR  
?C?LLDIDATA. . . . . . . . . . . . . . . CODE     ?C?LLDIDATA  ?C?LLDPTR  
?C?LLDPDATA. . . . . . . . . . . . . . . CODE     ?C?LLDPDATA  ?C?LLDPTR  
?C?LLDPTR. . . . . . . . . . . . . . . . CODE     ?C?LLDPTR  CYLIB  
?C?LLDXDATA. . . . . . . . . . . . . . . CODE     ?C?LLDXDATA  ?C?LLDPTR  
?C?LMUL. . . . . . . . . . . . . . . . . CODE     ?C?LMUL  ADC  COMMAND_PROCESSING  CYLIB  CYPM  INTERRUPTIONS  UTILS  
?C?LNEG. . . . . . . . . . . . . . . . . CODE     ?C?LNEG  ?C?CASTF  ?C?FCAST  COMMAND_PROCESSING  MAIN  
?C?LNOT. . . . . . . . . . . . . . . . . CODE     ?C?LNOT  CYDMAC  
?C?LSHL. . . . . . . . . . . . . . . . . CODE     ?C?LSHL  ADC  COMMAND_PROCESSING  CYDMAC  CYLIB  INTERRUPTIONS  UTILS 
                                                   
?C?LSTIDATA. . . . . . . . . . . . . . . CODE     ?C?LSTIDATA  ?C?LSTPTR  
?C?LSTPDATA. . . . . . . . . . . . . . . CODE     ?C?LSTPDATA  ?C?LSTPTR  
?C?LSTPTR. . . . . . . . . . . . . . . . CODE     ?C?LSTPTR  CYLIB  
?C?LSTXDATA. . . . . . . . . . . . . . . CODE     ?C?LSTXDATA  ?C?LSTPTR  ADC  BOOTLOADABLE  COMMAND_PROCESSING  CYDMAC 
                                                   CYFITTER_CFG  CYLIB  CYSPC  INTERRUPTIONS  MAIN  SHIFTREG_ENC_1  SHIF
                                                  TREG_ENC_2  SHIFTREG_ENC_3  SHIFTREG_ENC_4  UTILS  
?C?PLDIXDATA . . . . . . . . . . . . . . CODE     ?C?PLDIXDATA  PRINTF  
?C?PSTXDATA. . . . . . . . . . . . . . . CODE     ?C?PSTXDATA  PRINTF  
?C?SLCMP . . . . . . . . . . . . . . . . CODE     ?C?SLCMP  COMMAND_PROCESSING  INTERRUPTIONS  
?C?SLDIV . . . . . . . . . . . . . . . . CODE     ?C?SLDIV  ADC  COMMAND_PROCESSING  INTERRUPTIONS  UTILS  
?C?SLSHR . . . . . . . . . . . . . . . . CODE     ?C?SLSHR  COMMAND_PROCESSING  INTERRUPTIONS  UTILS  
?C?STRCPYAMD . . . . . . . . . . . . . . CODE     ?C?STRCPYAMD  COMMAND_PROCESSING  
?C?ULCMP . . . . . . . . . . . . . . . . CODE     ?C?ULCMP  COMMAND_PROCESSING  CYDMAC  CYFLASH  
?C?ULDIV . . . . . . . . . . . . . . . . CODE     ?C?ULDIV  ?C?SLDIV  ADC  BOOTLOADABLE  CYLIB  CYPM  
?C?ULSHR . . . . . . . . . . . . . . . . CODE     ?C?ULSHR  COMMAND_PROCESSING  CYLIB  INTERRUPTIONS  
?C?XDATASEG. . . . . . . . . . . . . . . NUMBER   ** LX51 GENERATED **  
?C?XPAGE1RST . . . . . . . . . . . . . . NUMBER   ?C_STARTUP  ADC_INT  INTERRUPTIONS  ISR_RS485_RX  ISR_WATCHDOG  UART_R
                                                  S485_INT  
?C?XPAGE1SFR . . . . . . . . . . . . . . DATA     ?C_STARTUP  ADC_INT  INTERRUPTIONS  ISR_RS485_RX  ISR_WATCHDOG  UART_R
                                                  S485_INT  
?C_START . . . . . . . . . . . . . . . . CODE     ?C_INIT  ?C_STARTUP  
?C_STARTUP . . . . . . . . . . . . . . . CODE     ?C_STARTUP  MAIN  
?C_XBP . . . . . . . . . . . . . . . . . DATA     ?C_XBP  ?C?ADDXBP  ?C_STARTUP  CYLIB  
_?CyDelay. . . . . . . . . . . . . . . . CODE     CYLIB  COMMAND_PROCESSING  CYBOOTASMKEIL  MAIN  
_?CyDelayFreq. . . . . . . . . . . . . . CODE     CYLIB  
_?CyHalt . . . . . . . . . . . . . . . . CODE     CYLIB  
_ABS . . . . . . . . . . . . . . . . . . CODE     ABS  INTERRUPTIONS  
_ADC_AMux_FastSelect . . . . . . . . . . CODE     ADC_AMUX  
_ADC_AMux_Select . . . . . . . . . . . . CODE     ADC_AMUX  ADC  
_ADC_AMux_Set. . . . . . . . . . . . . . CODE     CYFITTER_CFG  ADC_AMUX  
_ADC_AMux_Unset. . . . . . . . . . . . . CODE     CYFITTER_CFG  ADC_AMUX  
_ADC_CountsTo_mVolts . . . . . . . . . . CODE     ADC  
_ADC_CountsTo_uVolts . . . . . . . . . . CODE     ADC  
_ADC_CountsTo_Volts. . . . . . . . . . . CODE     ADC  
_ADC_Ext_CP_Clk_ClearModeRegister. . . . CODE     ADC_EXT_CP_CLK  
_ADC_Ext_CP_Clk_SetDividerRegister . . . CODE     ADC_EXT_CP_CLK  ADC  
_ADC_Ext_CP_Clk_SetModeRegister. . . . . CODE     ADC_EXT_CP_CLK  ADC  
_ADC_Ext_CP_Clk_SetSourceRegister. . . . CODE     ADC_EXT_CP_CLK  
_ADC_Ext_CP_Clk_StandbyPower . . . . . . CODE     ADC_EXT_CP_CLK  
_ADC_IsEndConversion . . . . . . . . . . CODE     ADC  
_ADC_SelectConfiguration . . . . . . . . CODE     ADC  
_ADC_SetBufferGain . . . . . . . . . . . CODE     ADC  
_ADC_SetCoherency. . . . . . . . . . . . CODE     ADC  
_ADC_SetGain . . . . . . . . . . . . . . CODE     ADC  
_ADC_SetGCOR . . . . . . . . . . . . . . CODE     ADC  
_ADC_SetOffset . . . . . . . . . . . . . CODE     ADC  
_ADC_SOC_Write . . . . . . . . . . . . . CODE     ADC_SOC  INTERRUPTIONS  MAIN  
_ADC_STATUS_WriteMask. . . . . . . . . . CODE     ADC_STATUS  
_ADC_theACLK_ClearModeRegister . . . . . CODE     ADC_THEACLK  
_ADC_theACLK_SetDividerRegister. . . . . CODE     ADC_THEACLK  ADC  
_ADC_theACLK_SetModeRegister . . . . . . CODE     ADC_THEACLK  ADC  
_ADC_theACLK_SetPhaseRegister. . . . . . CODE     ADC_THEACLK  
LX51 LINKER/LOCATER V4.64.0.0                                                         01/12/2018  13:27:04  PAGE 140


_ADC_theACLK_SetSourceRegister . . . . . CODE     ADC_THEACLK  
_ADC_theACLK_StandbyPower. . . . . . . . CODE     ADC_THEACLK  
_Bootloadable_SetFlashByte . . . . . . . CODE     BOOTLOADABLE  
_cfg_write_bytes . . . . . . . . . . . . CODE     CYMEM  
_cfg_write_bytes_code. . . . . . . . . . CODE     CYMEM  
_check_enc_data. . . . . . . . . . . . . CODE     UTILS  INTERRUPTIONS  
_CLOCK_UART_ClearModeRegister. . . . . . CODE     CLOCK_UART  
_CLOCK_UART_SetDividerRegister . . . . . CODE     CLOCK_UART  COMMAND_PROCESSING  
_CLOCK_UART_SetModeRegister. . . . . . . CODE     CLOCK_UART  
_CLOCK_UART_SetSourceRegister. . . . . . CODE     CLOCK_UART  
_CLOCK_UART_StandbyPower . . . . . . . . CODE     CLOCK_UART  
_commWrite . . . . . . . . . . . . . . . CODE     COMMAND_PROCESSING  
_commWrite_old_id. . . . . . . . . . . . CODE     COMMAND_PROCESSING  
_COUNTER_ENC_SetInterruptMode. . . . . . CODE     COUNTER_ENC  
_COUNTER_ENC_WriteCompare. . . . . . . . CODE     COUNTER_ENC  
_COUNTER_ENC_WriteControlRegister. . . . CODE     COUNTER_ENC  
_COUNTER_ENC_WriteCounter. . . . . . . . CODE     COUNTER_ENC  
_COUNTER_ENC_WritePeriod . . . . . . . . CODE     COUNTER_ENC  
_CyBusClk_SetDivider . . . . . . . . . . CODE     CYLIB  CYPM  
_cyconfigcpy . . . . . . . . . . . . . . CODE     CYMEM  CYFITTER_CFG  
_cyconfigcpycode . . . . . . . . . . . . CODE     CYMEM  CYFITTER_CFG  
_CyCpuClk_SetDivider . . . . . . . . . . CODE     CYLIB  
_CyDelay . . . . . . . . . . . . . . . . CODE     CYBOOTASMKEIL  
_CyDelayCycles . . . . . . . . . . . . . CODE     CYBOOTASMKEIL  CYFITTER_CFG  CYLIB  CYPM  
_CyDelayUs . . . . . . . . . . . . . . . CODE     CYBOOTASMKEIL  ADC  CYFLASH  CYLIB  CYPM  CYSPC  
_CyDmacClearError. . . . . . . . . . . . CODE     CYDMAC  
_CyDmaChDisable. . . . . . . . . . . . . CODE     CYDMAC  DMA_DMA  
_CyDmaChEnable . . . . . . . . . . . . . CODE     CYDMAC  MAIN  
_CyDmaChFree . . . . . . . . . . . . . . CODE     CYDMAC  
_CyDmaChGetRequest . . . . . . . . . . . CODE     CYDMAC  
_CyDmaChPriority . . . . . . . . . . . . CODE     CYDMAC  DMA_DMA  
_CyDmaChRoundRobin . . . . . . . . . . . CODE     CYDMAC  
_CyDmaChSetConfiguration . . . . . . . . CODE     CYDMAC  DMA_DMA  
_CyDmaChSetExtendedAddress . . . . . . . CODE     CYDMAC  DMA_DMA  
_CyDmaChSetInitialTd . . . . . . . . . . CODE     CYDMAC  MAIN  
_CyDmaChSetRequest . . . . . . . . . . . CODE     CYDMAC  
_CyDmaChStatus . . . . . . . . . . . . . CODE     CYDMAC  
_CyDmaClearPendingDrq. . . . . . . . . . CODE     CYDMAC  
_CyDmaTdFree . . . . . . . . . . . . . . CODE     CYDMAC  
_CyDmaTdGetAddress . . . . . . . . . . . CODE     CYDMAC  
_CyDmaTdGetConfiguration . . . . . . . . CODE     CYDMAC  
_CyDmaTdSetAddress . . . . . . . . . . . CODE     CYDMAC  MAIN  
_CyDmaTdSetConfiguration . . . . . . . . CODE     CYDMAC  MAIN  
_CyEnableInts. . . . . . . . . . . . . . CODE     CYLIB  
_CyExitCriticalSection . . . . . . . . . CODE     CYBOOTASMKEIL  ADC  ADC_STATUS  COUNTER_ENC  CYDMAC  CYFLASH  CYLIB  C
                                                  YPM  CYSPC  EEPROM  FF_STATUS  MY_TIMER  SHIFTREG_ENC_1  SHIFTREG_ENC_
                                                  2  SHIFTREG_ENC_3  SHIFTREG_ENC_4  UART_RS485  
_CyFlash_SetWaitCycles . . . . . . . . . CODE     CYFLASH  CYPM  
_CyGetUniqueId . . . . . . . . . . . . . CODE     CYLIB  
_CyILO_SetPowerMode. . . . . . . . . . . CODE     CYLIB  CYPM  
_CyILO_SetSource . . . . . . . . . . . . CODE     CYLIB  
_CyIMO_SetFreq . . . . . . . . . . . . . CODE     CYLIB  CYPM  
_CyIMO_SetSource . . . . . . . . . . . . CODE     CYLIB  CYPM  
_CyIMO_Start . . . . . . . . . . . . . . CODE     CYLIB  CYPM  
_CyIntGetPriority. . . . . . . . . . . . CODE     CYLIB  
_CyIntGetState . . . . . . . . . . . . . CODE     CYLIB  
_CyIntGetVector. . . . . . . . . . . . . CODE     CYLIB  
_CyIntSetPriority. . . . . . . . . . . . CODE     CYLIB  ADC  UART_RS485  
_CyIntSetVector. . . . . . . . . . . . . CODE     CYLIB  ADC  UART_RS485  
_CyMasterClk_SetDivider. . . . . . . . . CODE     CYLIB  CYPM  
_CyMasterClk_SetSource . . . . . . . . . CODE     CYLIB  CYPM  
_cymemzero . . . . . . . . . . . . . . . CODE     CYMEM  
_CyPLL_OUT_SetPQ . . . . . . . . . . . . CODE     CYLIB  
_CyPLL_OUT_SetSource . . . . . . . . . . CODE     CYLIB  
_CyPLL_OUT_Start . . . . . . . . . . . . CODE     CYLIB  CYPM  
LX51 LINKER/LOCATER V4.64.0.0                                                         01/12/2018  13:27:04  PAGE 141


_CyPmAltAct. . . . . . . . . . . . . . . CODE     CYPM  
_CyPmCtwSetInterval. . . . . . . . . . . CODE     CYPM  
_CyPmFtwSetInterval. . . . . . . . . . . CODE     CYPM  CYLIB  
_CyPmHibernateEx . . . . . . . . . . . . CODE     CYPM  
_CyPmReadStatus. . . . . . . . . . . . . CODE     CYPM  CYLIB  
_CyPmSleep . . . . . . . . . . . . . . . CODE     CYPM  
_cyread16. . . . . . . . . . . . . . . . CODE     CYMEM  
_cyread16_nodpx. . . . . . . . . . . . . CODE     CYMEM  ADC  ADC_EXT_CP_CLK  ADC_THEACLK  CLOCK_UART  CYDMAC  CYLIB  IS
                                                  R_RS485_RX  ISR_WATCHDOG  PACER_TIMER  WATCHDOG_COUNTER  
_cyread24. . . . . . . . . . . . . . . . CODE     CYMEM  
_cyread24_nodpx. . . . . . . . . . . . . CODE     CYMEM  MY_TIMER  SHIFTREG_ENC_1  SHIFTREG_ENC_2  SHIFTREG_ENC_3  SHIFT
                                                  REG_ENC_4  
_cyread32. . . . . . . . . . . . . . . . CODE     CYMEM  
_cyread32_nodpx. . . . . . . . . . . . . CODE     CYMEM  CYDMAC  
_cyread8 . . . . . . . . . . . . . . . . CODE     CYMEM  ADC  CYFITTER_CFG  CYLIB  CYSPC  
_cyread8_nodpx . . . . . . . . . . . . . CODE     CYMEM  
_CySetFlashEEBuffer. . . . . . . . . . . CODE     CYFLASH  
_CySpcEraseSector. . . . . . . . . . . . CODE     CYSPC  EEPROM  
_CySpcGetTemp. . . . . . . . . . . . . . CODE     CYSPC  CYFLASH  
_CySpcLoadMultiByte. . . . . . . . . . . CODE     CYSPC  EEPROM  
_CySpcLoadRow. . . . . . . . . . . . . . CODE     CYSPC  EEPROM  
_CySpcLoadRowFull. . . . . . . . . . . . CODE     CYSPC  CYFLASH  
_CySpcReadData . . . . . . . . . . . . . CODE     CYSPC  CYFLASH  
_CySpcWriteRow . . . . . . . . . . . . . CODE     CYSPC  CYFLASH  EEPROM  
_CyUsbClk_SetSource. . . . . . . . . . . CODE     CYLIB  
_CyVdLvAnalogEnable. . . . . . . . . . . CODE     CYLIB  CYPM  
_CyVdLvDigitEnable . . . . . . . . . . . CODE     CYLIB  CYPM  
_CyVdStickyStatus. . . . . . . . . . . . CODE     CYLIB  
_CyWdtStart. . . . . . . . . . . . . . . CODE     CYLIB  
_cywrite16 . . . . . . . . . . . . . . . CODE     CYMEM  CYFITTER_CFG  
_cywrite16_nodpx . . . . . . . . . . . . CODE     CYMEM  ADC  ADC_EXT_CP_CLK  ADC_THEACLK  CLOCK_UART  CYDMAC  CYFITTER_
                                                  CFG  CYLIB  ISR_RS485_RX  ISR_WATCHDOG  PACER_TIMER  WATCHDOG_COUNTER 
                                                   
_cywrite24 . . . . . . . . . . . . . . . CODE     CYMEM  
_cywrite24_nodpx . . . . . . . . . . . . CODE     CYMEM  MY_TIMER  SHIFTREG_ENC_1  SHIFTREG_ENC_2  SHIFTREG_ENC_3  SHIFT
                                                  REG_ENC_4  
_cywrite32 . . . . . . . . . . . . . . . CODE     CYMEM  
_cywrite32_nodpx . . . . . . . . . . . . CODE     CYMEM  
_cywrite8. . . . . . . . . . . . . . . . CODE     CYMEM  CYFITTER_CFG  
_cywrite8_nodpx. . . . . . . . . . . . . CODE     CYMEM  
_CyWriteRowData. . . . . . . . . . . . . CODE     CYFLASH  BOOTLOADABLE  
_CyWriteRowFull. . . . . . . . . . . . . CODE     CYFLASH  
_CyXTAL_32KHZ_SetPowerMode . . . . . . . CODE     CYLIB  
_CyXTAL_SetFbVoltage . . . . . . . . . . CODE     CYLIB  
_CyXTAL_SetStartup . . . . . . . . . . . CODE     CYLIB  
_CyXTAL_SetWdVoltage . . . . . . . . . . CODE     CYLIB  
_CyXTAL_Start. . . . . . . . . . . . . . CODE     CYLIB  CYPM  
_DMA_DmaInitialize . . . . . . . . . . . CODE     DMA_DMA  MAIN  
_dma_wait. . . . . . . . . . . . . . . . CODE     ?C_STARTUP  
_EEPROM_ByteWritePos . . . . . . . . . . CODE     EEPROM  
_EEPROM_EraseSector. . . . . . . . . . . CODE     EEPROM  
_EEPROM_ReadByte . . . . . . . . . . . . CODE     EEPROM  
_EEPROM_StartErase . . . . . . . . . . . CODE     EEPROM  
_EEPROM_StartWrite . . . . . . . . . . . CODE     EEPROM  
_EEPROM_Write. . . . . . . . . . . . . . CODE     EEPROM  COMMAND_PROCESSING  
_EEPROM_WriteByte. . . . . . . . . . . . CODE     EEPROM  
_encoder_reading . . . . . . . . . . . . CODE     INTERRUPTIONS  MAIN  
_FF_STATUS_WriteMask . . . . . . . . . . CODE     FF_STATUS  
_filter_i1 . . . . . . . . . . . . . . . CODE     UTILS  INTERRUPTIONS  
_filter_i2 . . . . . . . . . . . . . . . CODE     UTILS  INTERRUPTIONS  
_filter_vel_1. . . . . . . . . . . . . . CODE     UTILS  
_filter_vel_2. . . . . . . . . . . . . . CODE     UTILS  
_filter_vel_3. . . . . . . . . . . . . . CODE     UTILS  
_FTDI_ENABLE_REG_Write . . . . . . . . . CODE     FTDI_ENABLE_REG  COMMAND_PROCESSING  MAIN  
_get_param_list. . . . . . . . . . . . . CODE     COMMAND_PROCESSING  
LX51 LINKER/LOCATER V4.64.0.0                                                         01/12/2018  13:27:04  PAGE 142


_infoGet . . . . . . . . . . . . . . . . CODE     COMMAND_PROCESSING  INTERRUPTIONS  
_infoPrepare . . . . . . . . . . . . . . CODE     COMMAND_PROCESSING  
_ISR_RS485_RX_SetPriority. . . . . . . . CODE     ISR_RS485_RX  
_ISR_RS485_RX_SetVector. . . . . . . . . CODE     ISR_RS485_RX  
_ISR_RS485_RX_StartEx. . . . . . . . . . CODE     ISR_RS485_RX  MAIN  
_ISR_WATCHDOG_SetPriority. . . . . . . . CODE     ISR_WATCHDOG  
_ISR_WATCHDOG_SetVector. . . . . . . . . CODE     ISR_WATCHDOG  
_ISR_WATCHDOG_StartEx. . . . . . . . . . CODE     ISR_WATCHDOG  MAIN  
_LCRChecksum . . . . . . . . . . . . . . CODE     UTILS  COMMAND_PROCESSING  
_memStore. . . . . . . . . . . . . . . . CODE     COMMAND_PROCESSING  INTERRUPTIONS  MAIN  
_motor_control . . . . . . . . . . . . . CODE     INTERRUPTIONS  
_MOTOR_DIR_Write . . . . . . . . . . . . CODE     MOTOR_DIR  INTERRUPTIONS  MAIN  
_MOTOR_ON_OFF_Write. . . . . . . . . . . CODE     MOTOR_ON_OFF  COMMAND_PROCESSING  INTERRUPTIONS  MAIN  
_MY_TIMER_SetInterruptMode . . . . . . . CODE     MY_TIMER  
_MY_TIMER_WriteControlRegister . . . . . CODE     MY_TIMER  
_MY_TIMER_WriteCounter . . . . . . . . . CODE     MY_TIMER  INTERRUPTIONS  
_MY_TIMER_WritePeriod. . . . . . . . . . CODE     MY_TIMER  
_PACER_TIMER_SetInterruptMode. . . . . . CODE     PACER_TIMER  
_PACER_TIMER_WriteControlRegister. . . . CODE     PACER_TIMER  
_PACER_TIMER_WriteCounter. . . . . . . . CODE     PACER_TIMER  
_PACER_TIMER_WritePeriod . . . . . . . . CODE     PACER_TIMER  
_PRINTF. . . . . . . . . . . . . . . . . CODE     PRINTF  
_PUTCHAR . . . . . . . . . . . . . . . . CODE     PUTCHAR  PRINTF  
_PWM_MOTORS_WriteCompare1. . . . . . . . CODE     PWM_MOTORS  COMMAND_PROCESSING  INTERRUPTIONS  MAIN  
_PWM_MOTORS_WriteCompare2. . . . . . . . CODE     PWM_MOTORS  COMMAND_PROCESSING  INTERRUPTIONS  MAIN  
_PWM_MOTORS_WriteControlRegister . . . . CODE     PWM_MOTORS  
_PWM_MOTORS_WriteCounter . . . . . . . . CODE     PWM_MOTORS  
_PWM_MOTORS_WritePeriod. . . . . . . . . CODE     PWM_MOTORS  
_RESET_FF_Write. . . . . . . . . . . . . CODE     RESET_FF  MAIN  
_RS485_CTS_Write . . . . . . . . . . . . CODE     RS485_CTS  COMMAND_PROCESSING  INTERRUPTIONS  MAIN  
_sendAcknowledgment. . . . . . . . . . . CODE     COMMAND_PROCESSING  MAIN  
_SetAnalogRoutingPumps . . . . . . . . . CODE     CYFITTER_CFG  
_SHIFTREG_ENC_1_GetFIFOStatus. . . . . . CODE     SHIFTREG_ENC_1  
_SHIFTREG_ENC_1_SetIntMode . . . . . . . CODE     SHIFTREG_ENC_1  
_SHIFTREG_ENC_1_WriteRegValue. . . . . . CODE     SHIFTREG_ENC_1  
_SHIFTREG_ENC_2_GetFIFOStatus. . . . . . CODE     SHIFTREG_ENC_2  
_SHIFTREG_ENC_2_SetIntMode . . . . . . . CODE     SHIFTREG_ENC_2  
_SHIFTREG_ENC_2_WriteRegValue. . . . . . CODE     SHIFTREG_ENC_2  
_SHIFTREG_ENC_3_GetFIFOStatus. . . . . . CODE     SHIFTREG_ENC_3  
_SHIFTREG_ENC_3_SetIntMode . . . . . . . CODE     SHIFTREG_ENC_3  
_SHIFTREG_ENC_3_WriteRegValue. . . . . . CODE     SHIFTREG_ENC_3  
_SHIFTREG_ENC_4_GetFIFOStatus. . . . . . CODE     SHIFTREG_ENC_4  
_SHIFTREG_ENC_4_SetIntMode . . . . . . . CODE     SHIFTREG_ENC_4  
_SHIFTREG_ENC_4_WriteRegValue. . . . . . CODE     SHIFTREG_ENC_4  
_SPRINTF . . . . . . . . . . . . . . . . CODE     PRINTF  COMMAND_PROCESSING  
_strcat. . . . . . . . . . . . . . . . . CODE     STRCAT  COMMAND_PROCESSING  
_STRLEN. . . . . . . . . . . . . . . . . CODE     STRLEN  COMMAND_PROCESSING  
_UART_RS485_PutArray . . . . . . . . . . CODE     UART_RS485  
_UART_RS485_PutChar. . . . . . . . . . . CODE     UART_RS485  COMMAND_PROCESSING  
_UART_RS485_PutCRLF. . . . . . . . . . . CODE     UART_RS485  
_UART_RS485_PutString. . . . . . . . . . CODE     UART_RS485  COMMAND_PROCESSING  
_UART_RS485_SendBreak. . . . . . . . . . CODE     UART_RS485  
_UART_RS485_SetRxAddress1. . . . . . . . CODE     UART_RS485  
_UART_RS485_SetRxAddress2. . . . . . . . CODE     UART_RS485  
_UART_RS485_SetRxAddressMode . . . . . . CODE     UART_RS485  
_UART_RS485_SetRxInterruptMode . . . . . CODE     UART_RS485  
_UART_RS485_SetTxAddressMode . . . . . . CODE     UART_RS485  
_UART_RS485_SetTxInterruptMode . . . . . CODE     UART_RS485  
_UART_RS485_WriteControlRegister . . . . CODE     UART_RS485  
_UART_RS485_WriteTxData. . . . . . . . . CODE     UART_RS485  
_WATCHDOG_COUNTER_SetInterruptMode . . . CODE     WATCHDOG_COUNTER  
_WATCHDOG_COUNTER_WriteControlRegister . CODE     WATCHDOG_COUNTER  
_WATCHDOG_COUNTER_WriteCounter . . . . . CODE     WATCHDOG_COUNTER  
_WATCHDOG_COUNTER_WritePeriod. . . . . . CODE     WATCHDOG_COUNTER  COMMAND_PROCESSING  
_WATCHDOG_ENABLER_Write. . . . . . . . . CODE     WATCHDOG_ENABLER  COMMAND_PROCESSING  MAIN  
LX51 LINKER/LOCATER V4.64.0.0                                                         01/12/2018  13:27:04  PAGE 143


_WATCHDOG_REFRESH_Write. . . . . . . . . CODE     WATCHDOG_REFRESH  MAIN  
AC . . . . . . . . . . . . . . . . . . . DATA     COMMAND_PROCESSING  
ACC. . . . . . . . . . . . . . . . . . . DATA     COMMAND_PROCESSING  
ADC_AMux__addrTable. . . . . . . . . . . CONST    CYFITTER_CFG  
ADC_AMux__maskTable. . . . . . . . . . . CONST    CYFITTER_CFG  
ADC_AMux_Start . . . . . . . . . . . . . CODE     ADC_AMUX  
ADC_buf. . . . . . . . . . . . . . . . . XDATA    GLOBALS  INTERRUPTIONS  MAIN  
ADC_Config . . . . . . . . . . . . . . . XDATA    ADC  
ADC_convDone . . . . . . . . . . . . . . XDATA    ADC  
ADC_CountsPerVolt. . . . . . . . . . . . XDATA    ADC  
ADC_Enable . . . . . . . . . . . . . . . CODE     ADC  
ADC_Ext_CP_Clk_GetDividerRegister. . . . CODE     ADC_EXT_CP_CLK  
ADC_Ext_CP_Clk_GetModeRegister . . . . . CODE     ADC_EXT_CP_CLK  
ADC_Ext_CP_Clk_GetSourceRegister . . . . CODE     ADC_EXT_CP_CLK  
ADC_Ext_CP_Clk_Start . . . . . . . . . . CODE     ADC_EXT_CP_CLK  
ADC_Ext_CP_Clk_Stop. . . . . . . . . . . CODE     ADC_EXT_CP_CLK  
ADC_Ext_CP_Clk_StopBlock . . . . . . . . CODE     ADC_EXT_CP_CLK  
ADC_GetResult16. . . . . . . . . . . . . CODE     ADC  
ADC_GetResult32. . . . . . . . . . . . . CODE     ADC  
ADC_GetResult8 . . . . . . . . . . . . . CODE     ADC  
ADC_Init . . . . . . . . . . . . . . . . CODE     ADC  
ADC_initVar. . . . . . . . . . . . . . . XDATA    ADC  
ADC_ISR1 . . . . . . . . . . . . . . . . CODE     ADC_INT  ADC  
ADC_ISR2 . . . . . . . . . . . . . . . . CODE     ADC_INT  
ADC_ISR3 . . . . . . . . . . . . . . . . CODE     ADC_INT  
ADC_ISR4 . . . . . . . . . . . . . . . . CODE     ADC_INT  
ADC_Offset . . . . . . . . . . . . . . . XDATA    ADC  
ADC_Read16 . . . . . . . . . . . . . . . CODE     ADC  
ADC_Read32 . . . . . . . . . . . . . . . CODE     ADC  
ADC_Read8. . . . . . . . . . . . . . . . CODE     ADC  
ADC_ReadGCOR . . . . . . . . . . . . . . CODE     ADC  
ADC_SOC_Read . . . . . . . . . . . . . . CODE     ADC_SOC  
ADC_Start. . . . . . . . . . . . . . . . CODE     ADC  MAIN  
ADC_StartConvert . . . . . . . . . . . . CODE     ADC  
ADC_started. . . . . . . . . . . . . . . XDATA    ADC  
ADC_STATUS_InterruptDisable. . . . . . . CODE     ADC_STATUS  
ADC_STATUS_InterruptEnable . . . . . . . CODE     ADC_STATUS  
ADC_STATUS_Read. . . . . . . . . . . . . CODE     ADC_STATUS  INTERRUPTIONS  
ADC_STATUS_ReadMask. . . . . . . . . . . CODE     ADC_STATUS  
ADC_Stop . . . . . . . . . . . . . . . . CODE     ADC  
ADC_stopConversion . . . . . . . . . . . XDATA    ADC  
ADC_StopConvert. . . . . . . . . . . . . CODE     ADC  
ADC_theACLK_GetDividerRegister . . . . . CODE     ADC_THEACLK  
ADC_theACLK_GetModeRegister. . . . . . . CODE     ADC_THEACLK  
ADC_theACLK_GetPhaseRegister . . . . . . CODE     ADC_THEACLK  
ADC_theACLK_GetSourceRegister. . . . . . CODE     ADC_THEACLK  
ADC_theACLK_Start. . . . . . . . . . . . CODE     ADC_THEACLK  
ADC_theACLK_Stop . . . . . . . . . . . . CODE     ADC_THEACLK  
ADC_theACLK_StopBlock. . . . . . . . . . CODE     ADC_THEACLK  
analog_read_end. . . . . . . . . . . . . CODE     INTERRUPTIONS  
B. . . . . . . . . . . . . . . . . . . . DATA     COMMAND_PROCESSING  
Bootloadable_Load. . . . . . . . . . . . CODE     BOOTLOADABLE  COMMAND_PROCESSING  
c_mem. . . . . . . . . . . . . . . . . . XDATA    GLOBALS  COMMAND_PROCESSING  INTERRUPTIONS  MAIN  
calibration. . . . . . . . . . . . . . . CODE     INTERRUPTIONS  
calibration_flag . . . . . . . . . . . . XDATA    GLOBALS  COMMAND_PROCESSING  INTERRUPTIONS  MAIN  
CLOCK_UART_GetDividerRegister. . . . . . CODE     CLOCK_UART  
CLOCK_UART_GetModeRegister . . . . . . . CODE     CLOCK_UART  
CLOCK_UART_GetSourceRegister . . . . . . CODE     CLOCK_UART  
CLOCK_UART_Start . . . . . . . . . . . . CODE     CLOCK_UART  
CLOCK_UART_Stop. . . . . . . . . . . . . CODE     CLOCK_UART  
CLOCK_UART_StopBlock . . . . . . . . . . CODE     CLOCK_UART  
cmd_activate . . . . . . . . . . . . . . CODE     COMMAND_PROCESSING  
cmd_get_activate . . . . . . . . . . . . CODE     COMMAND_PROCESSING  
cmd_get_curr_and_meas. . . . . . . . . . CODE     COMMAND_PROCESSING  
cmd_get_currents . . . . . . . . . . . . CODE     COMMAND_PROCESSING  
LX51 LINKER/LOCATER V4.64.0.0                                                         01/12/2018  13:27:04  PAGE 144


cmd_get_inputs . . . . . . . . . . . . . CODE     COMMAND_PROCESSING  
cmd_get_measurements . . . . . . . . . . CODE     COMMAND_PROCESSING  
cmd_get_velocities . . . . . . . . . . . CODE     COMMAND_PROCESSING  
cmd_ping . . . . . . . . . . . . . . . . CODE     COMMAND_PROCESSING  
cmd_set_baudrate . . . . . . . . . . . . CODE     COMMAND_PROCESSING  
cmd_set_inputs . . . . . . . . . . . . . CODE     COMMAND_PROCESSING  
cmd_set_pos_stiff. . . . . . . . . . . . CODE     COMMAND_PROCESSING  
cmd_set_watchdog . . . . . . . . . . . . CODE     COMMAND_PROCESSING  
cmd_store_params . . . . . . . . . . . . CODE     COMMAND_PROCESSING  
commProcess. . . . . . . . . . . . . . . CODE     COMMAND_PROCESSING  INTERRUPTIONS  
COUNTER_ENC_ClearFIFO. . . . . . . . . . CODE     COUNTER_ENC  
COUNTER_ENC_Enable . . . . . . . . . . . CODE     COUNTER_ENC  
COUNTER_ENC_Init . . . . . . . . . . . . CODE     COUNTER_ENC  
COUNTER_ENC_initVar. . . . . . . . . . . XDATA    COUNTER_ENC  
COUNTER_ENC_ReadCapture. . . . . . . . . CODE     COUNTER_ENC  
COUNTER_ENC_ReadCompare. . . . . . . . . CODE     COUNTER_ENC  
COUNTER_ENC_ReadControlRegister. . . . . CODE     COUNTER_ENC  
COUNTER_ENC_ReadCounter. . . . . . . . . CODE     COUNTER_ENC  
COUNTER_ENC_ReadPeriod . . . . . . . . . CODE     COUNTER_ENC  
COUNTER_ENC_ReadStatusRegister . . . . . CODE     COUNTER_ENC  
COUNTER_ENC_Start. . . . . . . . . . . . CODE     COUNTER_ENC  MAIN  
COUNTER_ENC_Stop . . . . . . . . . . . . CODE     COUNTER_ENC  
cuff_flag_force. . . . . . . . . . . . . BIT      GLOBALS  COMMAND_PROCESSING  INTERRUPTIONS  MAIN  
cuff_flag_proprio. . . . . . . . . . . . BIT      GLOBALS  COMMAND_PROCESSING  INTERRUPTIONS  MAIN  
CY . . . . . . . . . . . . . . . . . . . DATA     COMMAND_PROCESSING  
cydelay_32k_ms . . . . . . . . . . . . . XDATA    CYLIB  
cydelay_freq_hz. . . . . . . . . . . . . XDATA    CYLIB  
cydelay_freq_khz . . . . . . . . . . . . XDATA    CYLIB  
cydelay_freq_mhz . . . . . . . . . . . . XDATA    CYLIB  CYBOOTASMKEIL  
CyDisableInts. . . . . . . . . . . . . . CODE     CYLIB  
CyDmacConfigure. . . . . . . . . . . . . CODE     CYDMAC  ?C_STARTUP  
CyDmacError. . . . . . . . . . . . . . . CODE     CYDMAC  
CyDmacErrorAddress . . . . . . . . . . . CODE     CYDMAC  
CyDmaChAlloc . . . . . . . . . . . . . . CODE     CYDMAC  
CyDmaTdAllocate. . . . . . . . . . . . . CODE     CYDMAC  MAIN  
CyDmaTdFreeCount . . . . . . . . . . . . CODE     CYDMAC  
CyEEPROM_ReadRelease . . . . . . . . . . CODE     CYFLASH  EEPROM  
CyEEPROM_ReadReserve . . . . . . . . . . CODE     CYFLASH  EEPROM  
CyEEPROM_Start . . . . . . . . . . . . . CODE     CYFLASH  EEPROM  
CyEEPROM_Stop. . . . . . . . . . . . . . CODE     CYFLASH  EEPROM  
CyEnterCriticalSection . . . . . . . . . CODE     CYBOOTASMKEIL  ADC  ADC_STATUS  COUNTER_ENC  CYDMAC  CYFLASH  CYLIB  C
                                                  YPM  CYSPC  EEPROM  FF_STATUS  MY_TIMER  SHIFTREG_ENC_1  SHIFTREG_ENC_
                                                  2  SHIFTREG_ENC_3  SHIFTREG_ENC_4  UART_RS485  
cyfitter_cfg . . . . . . . . . . . . . . CODE     CYFITTER_CFG  ?C_STARTUP  
CyFlash_Start. . . . . . . . . . . . . . CODE     CYFLASH  
CyFlash_Stop . . . . . . . . . . . . . . CODE     CYFLASH  
CyILO_Disable33K . . . . . . . . . . . . CODE     CYLIB  
CyILO_Enable33K. . . . . . . . . . . . . CODE     CYLIB  
CyILO_Start100K. . . . . . . . . . . . . CODE     CYLIB  CYPM  
CyILO_Start1K. . . . . . . . . . . . . . CODE     CYLIB  CYPM  
CyILO_Stop100K . . . . . . . . . . . . . CODE     CYLIB  
CyILO_Stop1K . . . . . . . . . . . . . . CODE     CYLIB  
CyIMO_DisableDoubler . . . . . . . . . . CODE     CYLIB  CYPM  
CyIMO_EnableDoubler. . . . . . . . . . . CODE     CYLIB  CYPM  
CyIMO_Stop . . . . . . . . . . . . . . . CODE     CYLIB  CYPM  
CyPLL_OUT_Stop . . . . . . . . . . . . . CODE     CYLIB  CYPM  
CyPmHibernate. . . . . . . . . . . . . . CODE     CYPM  
CyPmOppsSet. . . . . . . . . . . . . . . CODE     CYPM  
CyPmRestoreClocks. . . . . . . . . . . . CODE     CYPM  
CyPmSaveClocks . . . . . . . . . . . . . CODE     CYPM  
CyResetStatus. . . . . . . . . . . . . . XDATA    CYLIB  ?C_STARTUP  
CySetTemp. . . . . . . . . . . . . . . . CODE     CYFLASH  EEPROM  
CySoftwareReset. . . . . . . . . . . . . CODE     CYLIB  BOOTLOADABLE  
CySpcGetAlgorithm. . . . . . . . . . . . CODE     CYSPC  CYFLASH  
CySpcLock. . . . . . . . . . . . . . . . CODE     CYSPC  CYFLASH  EEPROM  
LX51 LINKER/LOCATER V4.64.0.0                                                         01/12/2018  13:27:04  PAGE 145


CySpcStart . . . . . . . . . . . . . . . CODE     CYSPC  CYFLASH  EEPROM  
CySpcStop. . . . . . . . . . . . . . . . CODE     CYSPC  
CySpcUnlock. . . . . . . . . . . . . . . CODE     CYSPC  CYFLASH  EEPROM  
CyVdHvAnalogDisable. . . . . . . . . . . CODE     CYLIB  CYPM  
CyVdHvAnalogEnable . . . . . . . . . . . CODE     CYLIB  CYPM  
CyVdLvAnalogDisable. . . . . . . . . . . CODE     CYLIB  CYPM  
CyVdLvDigitDisable . . . . . . . . . . . CODE     CYLIB  CYPM  
CyVdRealTimeStatus . . . . . . . . . . . CODE     CYLIB  
CyWdtClear . . . . . . . . . . . . . . . CODE     CYLIB  
CyXTAL_32KHZ_ReadStatus. . . . . . . . . CODE     CYLIB  
CyXTAL_32KHZ_Start . . . . . . . . . . . CODE     CYLIB  CYPM  
CyXTAL_32KHZ_Stop. . . . . . . . . . . . CODE     CYLIB  
CyXTAL_DisableErrStatus. . . . . . . . . CODE     CYLIB  
CyXTAL_DisableFaultRecovery. . . . . . . CODE     CYLIB  
CyXTAL_EnableErrStatus . . . . . . . . . CODE     CYLIB  
CyXTAL_EnableFaultRecovery . . . . . . . CODE     CYLIB  
CyXTAL_ReadStatus. . . . . . . . . . . . CODE     CYLIB  
CyXTAL_Stop. . . . . . . . . . . . . . . CODE     CYLIB  CYPM  
dev_pwm_limit. . . . . . . . . . . . . . XDATA    GLOBALS  COMMAND_PROCESSING  INTERRUPTIONS  MAIN  
dev_tension. . . . . . . . . . . . . . . XDATA    GLOBALS  COMMAND_PROCESSING  INTERRUPTIONS  
dieTemperature . . . . . . . . . . . . . XDATA    CYFLASH  EEPROM  
DMA_DmaHandle. . . . . . . . . . . . . . XDATA    DMA_DMA  
DMA_DmaRelease . . . . . . . . . . . . . CODE     DMA_DMA  
DPH. . . . . . . . . . . . . . . . . . . DATA     COMMAND_PROCESSING  
DPH1 . . . . . . . . . . . . . . . . . . DATA     COMMAND_PROCESSING  
DPL. . . . . . . . . . . . . . . . . . . DATA     COMMAND_PROCESSING  
DPL1 . . . . . . . . . . . . . . . . . . DATA     COMMAND_PROCESSING  
DPS. . . . . . . . . . . . . . . . . . . DATA     COMMAND_PROCESSING  
DPX. . . . . . . . . . . . . . . . . . . DATA     COMMAND_PROCESSING  
DPX1 . . . . . . . . . . . . . . . . . . DATA     COMMAND_PROCESSING  
drive_cuff . . . . . . . . . . . . . . . CODE     COMMAND_PROCESSING  INTERRUPTIONS  
EA . . . . . . . . . . . . . . . . . . . DATA     COMMAND_PROCESSING  
EEPROM_ADDR. . . . . . . . . . . . . . . XDATA    COMMAND_PROCESSING  
EEPROM_Enable. . . . . . . . . . . . . . CODE     EEPROM  
EEPROM_Query . . . . . . . . . . . . . . CODE     EEPROM  
EEPROM_Start . . . . . . . . . . . . . . CODE     EEPROM  MAIN  
EEPROM_Stop. . . . . . . . . . . . . . . CODE     EEPROM  
EEPROM_UpdateTemperature . . . . . . . . CODE     EEPROM  COMMAND_PROCESSING  
F0 . . . . . . . . . . . . . . . . . . . DATA     COMMAND_PROCESSING  
F1 . . . . . . . . . . . . . . . . . . . DATA     COMMAND_PROCESSING  
FF_STATUS_InterruptDisable . . . . . . . CODE     FF_STATUS  
FF_STATUS_InterruptEnable. . . . . . . . CODE     FF_STATUS  
FF_STATUS_Read . . . . . . . . . . . . . CODE     FF_STATUS  MAIN  
FF_STATUS_ReadMask . . . . . . . . . . . CODE     FF_STATUS  
FTDI_ENABLE_REG_Read . . . . . . . . . . CODE     FTDI_ENABLE_REG  
function_scheduler . . . . . . . . . . . CODE     INTERRUPTIONS  MAIN  
g_meas . . . . . . . . . . . . . . . . . XDATA    GLOBALS  COMMAND_PROCESSING  INTERRUPTIONS  MAIN  
g_measOld. . . . . . . . . . . . . . . . XDATA    GLOBALS  COMMAND_PROCESSING  INTERRUPTIONS  
g_mem. . . . . . . . . . . . . . . . . . XDATA    GLOBALS  COMMAND_PROCESSING  INTERRUPTIONS  MAIN  
g_ref. . . . . . . . . . . . . . . . . . XDATA    GLOBALS  COMMAND_PROCESSING  INTERRUPTIONS  MAIN  
g_refNew . . . . . . . . . . . . . . . . XDATA    GLOBALS  COMMAND_PROCESSING  INTERRUPTIONS  MAIN  
g_refOld . . . . . . . . . . . . . . . . XDATA    GLOBALS  COMMAND_PROCESSING  INTERRUPTIONS  
g_rx . . . . . . . . . . . . . . . . . . XDATA    GLOBALS  COMMAND_PROCESSING  INTERRUPTIONS  MAIN  
hitech_pwm_preload_values. . . . . . . . CONST    INTERRUPTIONS  
hitech_pwm_preload_values_6v . . . . . . CONST    INTERRUPTIONS  
IE . . . . . . . . . . . . . . . . . . . DATA     COMMAND_PROCESSING  
interrupt_flag . . . . . . . . . . . . . BIT      GLOBALS  COMMAND_PROCESSING  INTERRUPTIONS  MAIN  
interrupt_manager. . . . . . . . . . . . CODE     INTERRUPTIONS  COMMAND_PROCESSING  MAIN  
ISR_RS485_RX_ClearPending. . . . . . . . CODE     ISR_RS485_RX  
ISR_RS485_RX_Disable . . . . . . . . . . CODE     ISR_RS485_RX  INTERRUPTIONS  
ISR_RS485_RX_Enable. . . . . . . . . . . CODE     ISR_RS485_RX  INTERRUPTIONS  
ISR_RS485_RX_ExInterrupt . . . . . . . . CODE     INTERRUPTIONS  MAIN  
ISR_RS485_RX_GetPriority . . . . . . . . CODE     ISR_RS485_RX  
ISR_RS485_RX_GetState. . . . . . . . . . CODE     ISR_RS485_RX  
ISR_RS485_RX_GetVector . . . . . . . . . CODE     ISR_RS485_RX  
LX51 LINKER/LOCATER V4.64.0.0                                                         01/12/2018  13:27:04  PAGE 146


ISR_RS485_RX_Interrupt . . . . . . . . . CODE     ISR_RS485_RX  
ISR_RS485_RX_SetPending. . . . . . . . . CODE     ISR_RS485_RX  
ISR_RS485_RX_Start . . . . . . . . . . . CODE     ISR_RS485_RX  
ISR_RS485_RX_Stop. . . . . . . . . . . . CODE     ISR_RS485_RX  
ISR_WATCHDOG_ClearPending. . . . . . . . CODE     ISR_WATCHDOG  
ISR_WATCHDOG_Disable . . . . . . . . . . CODE     ISR_WATCHDOG  
ISR_WATCHDOG_Enable. . . . . . . . . . . CODE     ISR_WATCHDOG  
ISR_WATCHDOG_GetPriority . . . . . . . . CODE     ISR_WATCHDOG  
ISR_WATCHDOG_GetState. . . . . . . . . . CODE     ISR_WATCHDOG  
ISR_WATCHDOG_GetVector . . . . . . . . . CODE     ISR_WATCHDOG  
ISR_WATCHDOG_Handler . . . . . . . . . . CODE     INTERRUPTIONS  MAIN  
ISR_WATCHDOG_Interrupt . . . . . . . . . CODE     ISR_WATCHDOG  
ISR_WATCHDOG_SetPending. . . . . . . . . CODE     ISR_WATCHDOG  
ISR_WATCHDOG_Start . . . . . . . . . . . CODE     ISR_WATCHDOG  
ISR_WATCHDOG_Stop. . . . . . . . . . . . CODE     ISR_WATCHDOG  
main . . . . . . . . . . . . . . . . . . CODE     MAIN  ?C_INIT  
memInit. . . . . . . . . . . . . . . . . CODE     COMMAND_PROCESSING  
memRecall. . . . . . . . . . . . . . . . CODE     COMMAND_PROCESSING  MAIN  
memRestore . . . . . . . . . . . . . . . CODE     COMMAND_PROCESSING  
MOTOR_DIR_Read . . . . . . . . . . . . . CODE     MOTOR_DIR  
MOTOR_ON_OFF_Read. . . . . . . . . . . . CODE     MOTOR_ON_OFF  
MXAX . . . . . . . . . . . . . . . . . . DATA     COMMAND_PROCESSING  
MY_TIMER_ClearFIFO . . . . . . . . . . . CODE     MY_TIMER  
MY_TIMER_Enable. . . . . . . . . . . . . CODE     MY_TIMER  
MY_TIMER_Init. . . . . . . . . . . . . . CODE     MY_TIMER  
MY_TIMER_initVar . . . . . . . . . . . . XDATA    MY_TIMER  
MY_TIMER_ReadCapture . . . . . . . . . . CODE     MY_TIMER  
MY_TIMER_ReadControlRegister . . . . . . CODE     MY_TIMER  
MY_TIMER_ReadCounter . . . . . . . . . . CODE     MY_TIMER  COMMAND_PROCESSING  INTERRUPTIONS  
MY_TIMER_ReadPeriod. . . . . . . . . . . CODE     MY_TIMER  
MY_TIMER_ReadStatusRegister. . . . . . . CODE     MY_TIMER  
MY_TIMER_SoftwareCapture . . . . . . . . CODE     MY_TIMER  
MY_TIMER_Start . . . . . . . . . . . . . CODE     MY_TIMER  MAIN  
MY_TIMER_Stop. . . . . . . . . . . . . . CODE     MY_TIMER  
OV . . . . . . . . . . . . . . . . . . . DATA     COMMAND_PROCESSING  
P. . . . . . . . . . . . . . . . . . . . DATA     COMMAND_PROCESSING  
P2AX . . . . . . . . . . . . . . . . . . DATA     COMMAND_PROCESSING  
PACER_TIMER_Enable . . . . . . . . . . . CODE     PACER_TIMER  
PACER_TIMER_Init . . . . . . . . . . . . CODE     PACER_TIMER  
PACER_TIMER_initVar. . . . . . . . . . . XDATA    PACER_TIMER  
PACER_TIMER_ReadCapture. . . . . . . . . CODE     PACER_TIMER  
PACER_TIMER_ReadControlRegister. . . . . CODE     PACER_TIMER  
PACER_TIMER_ReadCounter. . . . . . . . . CODE     PACER_TIMER  
PACER_TIMER_ReadPeriod . . . . . . . . . CODE     PACER_TIMER  
PACER_TIMER_ReadStatusRegister . . . . . CODE     PACER_TIMER  
PACER_TIMER_SoftwareCapture. . . . . . . CODE     PACER_TIMER  
PACER_TIMER_Start. . . . . . . . . . . . CODE     PACER_TIMER  MAIN  
PACER_TIMER_Stop . . . . . . . . . . . . CODE     PACER_TIMER  
PSW. . . . . . . . . . . . . . . . . . . DATA     COMMAND_PROCESSING  
pwm_limit_search . . . . . . . . . . . . CODE     INTERRUPTIONS  
PWM_MOTORS_Enable. . . . . . . . . . . . CODE     PWM_MOTORS  
PWM_MOTORS_Init. . . . . . . . . . . . . CODE     PWM_MOTORS  
PWM_MOTORS_initVar . . . . . . . . . . . XDATA    PWM_MOTORS  
PWM_MOTORS_ReadCapture . . . . . . . . . CODE     PWM_MOTORS  
PWM_MOTORS_ReadCompare1. . . . . . . . . CODE     PWM_MOTORS  
PWM_MOTORS_ReadCompare2. . . . . . . . . CODE     PWM_MOTORS  
PWM_MOTORS_ReadControlRegister . . . . . CODE     PWM_MOTORS  
PWM_MOTORS_ReadCounter . . . . . . . . . CODE     PWM_MOTORS  
PWM_MOTORS_ReadPeriod. . . . . . . . . . CODE     PWM_MOTORS  
PWM_MOTORS_Start . . . . . . . . . . . . CODE     PWM_MOTORS  MAIN  
PWM_MOTORS_Stop. . . . . . . . . . . . . CODE     PWM_MOTORS  
pwm_preload_values . . . . . . . . . . . CONST    INTERRUPTIONS  
pwm_sign . . . . . . . . . . . . . . . . XDATA    GLOBALS  INTERRUPTIONS  
RESET_FF_Read. . . . . . . . . . . . . . CODE     RESET_FF  
reset_last_value_flag. . . . . . . . . . BIT      GLOBALS  COMMAND_PROCESSING  INTERRUPTIONS  MAIN  
LX51 LINKER/LOCATER V4.64.0.0                                                         01/12/2018  13:27:04  PAGE 147


RS0. . . . . . . . . . . . . . . . . . . DATA     COMMAND_PROCESSING  
RS1. . . . . . . . . . . . . . . . . . . DATA     COMMAND_PROCESSING  
RS485_CTS_Read . . . . . . . . . . . . . CODE     RS485_CTS  
setZeros . . . . . . . . . . . . . . . . CODE     COMMAND_PROCESSING  
SFRPRT0DR. . . . . . . . . . . . . . . . DATA     COMMAND_PROCESSING  
SFRPRT0PS. . . . . . . . . . . . . . . . DATA     COMMAND_PROCESSING  
SFRPRT0SEL . . . . . . . . . . . . . . . DATA     COMMAND_PROCESSING  
SFRPRT12DR . . . . . . . . . . . . . . . DATA     COMMAND_PROCESSING  
SFRPRT12PS . . . . . . . . . . . . . . . DATA     COMMAND_PROCESSING  
SFRPRT12SEL. . . . . . . . . . . . . . . DATA     COMMAND_PROCESSING  
SFRPRT15DR . . . . . . . . . . . . . . . DATA     COMMAND_PROCESSING  
SFRPRT15PS . . . . . . . . . . . . . . . DATA     COMMAND_PROCESSING  
SFRPRT15SEL. . . . . . . . . . . . . . . DATA     COMMAND_PROCESSING  
SFRPRT1DR. . . . . . . . . . . . . . . . DATA     COMMAND_PROCESSING  
SFRPRT1PS. . . . . . . . . . . . . . . . DATA     COMMAND_PROCESSING  
SFRPRT1SEL . . . . . . . . . . . . . . . DATA     COMMAND_PROCESSING  
SFRPRT2DR. . . . . . . . . . . . . . . . DATA     COMMAND_PROCESSING  
SFRPRT2PS. . . . . . . . . . . . . . . . DATA     COMMAND_PROCESSING  
SFRPRT2SEL . . . . . . . . . . . . . . . DATA     COMMAND_PROCESSING  
SFRPRT3DR. . . . . . . . . . . . . . . . DATA     COMMAND_PROCESSING  
SFRPRT3PS. . . . . . . . . . . . . . . . DATA     COMMAND_PROCESSING  
SFRPRT3SEL . . . . . . . . . . . . . . . DATA     COMMAND_PROCESSING  
SFRPRT4DR. . . . . . . . . . . . . . . . DATA     COMMAND_PROCESSING  
SFRPRT4PS. . . . . . . . . . . . . . . . DATA     COMMAND_PROCESSING  
SFRPRT4SEL . . . . . . . . . . . . . . . DATA     COMMAND_PROCESSING  
SFRPRT5DR. . . . . . . . . . . . . . . . DATA     COMMAND_PROCESSING  
SFRPRT5PS. . . . . . . . . . . . . . . . DATA     COMMAND_PROCESSING  
SFRPRT5SEL . . . . . . . . . . . . . . . DATA     COMMAND_PROCESSING  
SFRPRT6DR. . . . . . . . . . . . . . . . DATA     COMMAND_PROCESSING  
SFRPRT6PS. . . . . . . . . . . . . . . . DATA     COMMAND_PROCESSING  
SFRPRT6SEL . . . . . . . . . . . . . . . DATA     COMMAND_PROCESSING  
SHIFTREG_ENC_1_DisableInt. . . . . . . . CODE     SHIFTREG_ENC_1  
SHIFTREG_ENC_1_Enable. . . . . . . . . . CODE     SHIFTREG_ENC_1  
SHIFTREG_ENC_1_EnableInt . . . . . . . . CODE     SHIFTREG_ENC_1  
SHIFTREG_ENC_1_GetIntStatus. . . . . . . CODE     SHIFTREG_ENC_1  
SHIFTREG_ENC_1_Init. . . . . . . . . . . CODE     SHIFTREG_ENC_1  
SHIFTREG_ENC_1_initVar . . . . . . . . . XDATA    SHIFTREG_ENC_1  
SHIFTREG_ENC_1_ReadData. . . . . . . . . CODE     SHIFTREG_ENC_1  INTERRUPTIONS  
SHIFTREG_ENC_1_ReadRegValue. . . . . . . CODE     SHIFTREG_ENC_1  
SHIFTREG_ENC_1_Start . . . . . . . . . . CODE     SHIFTREG_ENC_1  MAIN  
SHIFTREG_ENC_1_Stop. . . . . . . . . . . CODE     SHIFTREG_ENC_1  
SHIFTREG_ENC_2_DisableInt. . . . . . . . CODE     SHIFTREG_ENC_2  
SHIFTREG_ENC_2_Enable. . . . . . . . . . CODE     SHIFTREG_ENC_2  
SHIFTREG_ENC_2_EnableInt . . . . . . . . CODE     SHIFTREG_ENC_2  
SHIFTREG_ENC_2_GetIntStatus. . . . . . . CODE     SHIFTREG_ENC_2  
SHIFTREG_ENC_2_Init. . . . . . . . . . . CODE     SHIFTREG_ENC_2  
SHIFTREG_ENC_2_initVar . . . . . . . . . XDATA    SHIFTREG_ENC_2  
SHIFTREG_ENC_2_ReadData. . . . . . . . . CODE     SHIFTREG_ENC_2  INTERRUPTIONS  
SHIFTREG_ENC_2_ReadRegValue. . . . . . . CODE     SHIFTREG_ENC_2  
SHIFTREG_ENC_2_Start . . . . . . . . . . CODE     SHIFTREG_ENC_2  MAIN  
SHIFTREG_ENC_2_Stop. . . . . . . . . . . CODE     SHIFTREG_ENC_2  
SHIFTREG_ENC_3_DisableInt. . . . . . . . CODE     SHIFTREG_ENC_3  
SHIFTREG_ENC_3_Enable. . . . . . . . . . CODE     SHIFTREG_ENC_3  
SHIFTREG_ENC_3_EnableInt . . . . . . . . CODE     SHIFTREG_ENC_3  
SHIFTREG_ENC_3_GetIntStatus. . . . . . . CODE     SHIFTREG_ENC_3  
SHIFTREG_ENC_3_Init. . . . . . . . . . . CODE     SHIFTREG_ENC_3  
SHIFTREG_ENC_3_initVar . . . . . . . . . XDATA    SHIFTREG_ENC_3  
SHIFTREG_ENC_3_ReadData. . . . . . . . . CODE     SHIFTREG_ENC_3  INTERRUPTIONS  
SHIFTREG_ENC_3_ReadRegValue. . . . . . . CODE     SHIFTREG_ENC_3  
SHIFTREG_ENC_3_Start . . . . . . . . . . CODE     SHIFTREG_ENC_3  MAIN  
SHIFTREG_ENC_3_Stop. . . . . . . . . . . CODE     SHIFTREG_ENC_3  
SHIFTREG_ENC_4_DisableInt. . . . . . . . CODE     SHIFTREG_ENC_4  
SHIFTREG_ENC_4_Enable. . . . . . . . . . CODE     SHIFTREG_ENC_4  
SHIFTREG_ENC_4_EnableInt . . . . . . . . CODE     SHIFTREG_ENC_4  
SHIFTREG_ENC_4_GetIntStatus. . . . . . . CODE     SHIFTREG_ENC_4  
LX51 LINKER/LOCATER V4.64.0.0                                                         01/12/2018  13:27:04  PAGE 148


SHIFTREG_ENC_4_Init. . . . . . . . . . . CODE     SHIFTREG_ENC_4  
SHIFTREG_ENC_4_initVar . . . . . . . . . XDATA    SHIFTREG_ENC_4  
SHIFTREG_ENC_4_ReadData. . . . . . . . . CODE     SHIFTREG_ENC_4  INTERRUPTIONS  
SHIFTREG_ENC_4_ReadRegValue. . . . . . . CODE     SHIFTREG_ENC_4  
SHIFTREG_ENC_4_Start . . . . . . . . . . CODE     SHIFTREG_ENC_4  
SHIFTREG_ENC_4_Stop. . . . . . . . . . . CODE     SHIFTREG_ENC_4  
slide_cuff . . . . . . . . . . . . . . . CODE     COMMAND_PROCESSING  INTERRUPTIONS  
SP . . . . . . . . . . . . . . . . . . . DATA     COMMAND_PROCESSING  
SpcLockState . . . . . . . . . . . . . . XDATA    CYSPC  
STARTUP1 . . . . . . . . . . . . . . . . CODE     ?C_STARTUP  
tension_valid. . . . . . . . . . . . . . BIT      GLOBALS  MAIN  
timer_value. . . . . . . . . . . . . . . XDATA    GLOBALS  COMMAND_PROCESSING  INTERRUPTIONS  
timer_value0 . . . . . . . . . . . . . . XDATA    GLOBALS  COMMAND_PROCESSING  INTERRUPTIONS  
UART_RS485_ClearRxBuffer . . . . . . . . CODE     UART_RS485  MAIN  
UART_RS485_ClearTxBuffer . . . . . . . . CODE     UART_RS485  COMMAND_PROCESSING  MAIN  
UART_RS485_Enable. . . . . . . . . . . . CODE     UART_RS485  
UART_RS485_errorStatus . . . . . . . . . XDATA    UART_RS485  UART_RS485_INT  
UART_RS485_GetByte . . . . . . . . . . . CODE     UART_RS485  
UART_RS485_GetChar . . . . . . . . . . . CODE     UART_RS485  INTERRUPTIONS  
UART_RS485_GetRxBufferSize . . . . . . . CODE     UART_RS485  INTERRUPTIONS  
UART_RS485_GetTxBufferSize . . . . . . . CODE     UART_RS485  
UART_RS485_Init. . . . . . . . . . . . . CODE     UART_RS485  MAIN  
UART_RS485_initVar . . . . . . . . . . . XDATA    UART_RS485  
UART_RS485_ReadControlRegister . . . . . CODE     UART_RS485  
UART_RS485_ReadRxData. . . . . . . . . . CODE     UART_RS485  
UART_RS485_ReadRxStatus. . . . . . . . . CODE     UART_RS485  MAIN  
UART_RS485_ReadTxStatus. . . . . . . . . CODE     UART_RS485  COMMAND_PROCESSING  
UART_RS485_rxBuffer. . . . . . . . . . . XDATA    UART_RS485  UART_RS485_INT  
UART_RS485_rxBufferLoopDetect. . . . . . XDATA    UART_RS485  UART_RS485_INT  
UART_RS485_rxBufferOverflow. . . . . . . XDATA    UART_RS485  UART_RS485_INT  
UART_RS485_rxBufferRead. . . . . . . . . XDATA    UART_RS485  UART_RS485_INT  
UART_RS485_rxBufferWrite . . . . . . . . XDATA    UART_RS485  UART_RS485_INT  
UART_RS485_RXISR . . . . . . . . . . . . CODE     UART_RS485_INT  UART_RS485  
UART_RS485_Start . . . . . . . . . . . . CODE     UART_RS485  MAIN  
UART_RS485_Stop. . . . . . . . . . . . . CODE     UART_RS485  MAIN  
WATCHDOG_COUNTER_Enable. . . . . . . . . CODE     WATCHDOG_COUNTER  
WATCHDOG_COUNTER_Init. . . . . . . . . . CODE     WATCHDOG_COUNTER  
WATCHDOG_COUNTER_initVar . . . . . . . . XDATA    WATCHDOG_COUNTER  
WATCHDOG_COUNTER_ReadCapture . . . . . . CODE     WATCHDOG_COUNTER  
WATCHDOG_COUNTER_ReadControlRegister . . CODE     WATCHDOG_COUNTER  
WATCHDOG_COUNTER_ReadCounter . . . . . . CODE     WATCHDOG_COUNTER  
WATCHDOG_COUNTER_ReadPeriod. . . . . . . CODE     WATCHDOG_COUNTER  
WATCHDOG_COUNTER_ReadStatusRegister. . . CODE     WATCHDOG_COUNTER  
WATCHDOG_COUNTER_Start . . . . . . . . . CODE     WATCHDOG_COUNTER  MAIN  
WATCHDOG_COUNTER_Stop. . . . . . . . . . CODE     WATCHDOG_COUNTER  
WATCHDOG_ENABLER_Read. . . . . . . . . . CODE     WATCHDOG_ENABLER  
watchdog_flag. . . . . . . . . . . . . . BIT      GLOBALS  INTERRUPTIONS  MAIN  
WATCHDOG_REFRESH_Read. . . . . . . . . . CODE     WATCHDOG_REFRESH  

Program Size: data=115.3 xdata=3586 const=3000 code=37583
LX51 RUN COMPLETE.  0 WARNING(S),  0 ERROR(S)
