LX51 LINKER/LOCATER V4.64.0.0                                                           02/02/2018  18:09:00  PAGE 1


LX51 LINKER/LOCATER V4.64.0.0, INVOKED BY:
C:\PROGRAM FILES (X86)\CYPRESS\PSOC CREATOR\4.1\PSOC CREATOR\IMPORT\KEIL\PK51\9.51\C51\BIN\LX51.EXE .\DP8051_Keil_951\Re
>> lease\command_processing.obj, .\DP8051_Keil_951\Release\globals.obj, .\DP8051_Keil_951\Release\main.obj, .\DP8051_Kei
>> l_951\Release\utils.obj, .\DP8051_Keil_951\Release\interruptions.obj, .\DP8051_Keil_951\Release\cyfitter_cfg.obj, .\D
>> P8051_Keil_951\Release\cuff_mod_firmware.lib, C:\Program Files (x86)\Cypress\PSoC Creator\4.1\PSoC Creator\psoc\conte
>> nt\cycomponentlibrary\CyComponentLibrary.cylib\DP8051\DP8051_Keil_951\Release\CyComponentLibrary.lib TO .\DP8051_Keil
>> _951\Release\cuff_mod_firmware.omf CODE RU RC (10) DW (16) WL (2) PR (.\DP8051_Keil_951\Release/cuff_mod_firmware.map
>> ) IX CL (XDATA (X:0X0000-X:0X1FFF)) CL (CODE (C:0X2600-C:0XFFBF)) CL (CONST (C:0X2600-C:0XFFBF))


CPU MODE:     8051 MODE
MEMORY MODEL: LARGE WITH FLOATING POINT ARITHMETIC


INPUT MODULES INCLUDED:
  .\DP8051_Keil_951\Release\command_processing.obj (COMMAND_PROCESSING)
         COMMENT TYPE 0: C51 V9.51
  .\DP8051_Keil_951\Release\globals.obj (GLOBALS)
         COMMENT TYPE 0: C51 V9.51
  .\DP8051_Keil_951\Release\main.obj (MAIN)
         COMMENT TYPE 0: C51 V9.51
  .\DP8051_Keil_951\Release\utils.obj (UTILS)
         COMMENT TYPE 0: C51 V9.51
  .\DP8051_Keil_951\Release\interruptions.obj (INTERRUPTIONS)
         COMMENT TYPE 0: C51 V9.51
  .\DP8051_Keil_951\Release\cyfitter_cfg.obj (CYFITTER_CFG)
         COMMENT TYPE 0: C51 V9.51
  .\DP8051_Keil_951\Release\cuff_mod_firmware.lib (UART_RS485)
         COMMENT TYPE 0: C51 V9.51
  .\DP8051_Keil_951\Release\cuff_mod_firmware.lib (PWM_MOTORS)
         COMMENT TYPE 0: C51 V9.51
  .\DP8051_Keil_951\Release\cuff_mod_firmware.lib (ISR_RS485_RX)
         COMMENT TYPE 0: C51 V9.51
  .\DP8051_Keil_951\Release\cuff_mod_firmware.lib (CLOCK_UART)
         COMMENT TYPE 0: C51 V9.51
  .\DP8051_Keil_951\Release\cuff_mod_firmware.lib (COUNTER_ENC)
         COMMENT TYPE 0: C51 V9.51
  .\DP8051_Keil_951\Release\cuff_mod_firmware.lib (SHIFTREG_ENC_1)
         COMMENT TYPE 0: C51 V9.51
  .\DP8051_Keil_951\Release\cuff_mod_firmware.lib (SHIFTREG_ENC_2)
         COMMENT TYPE 0: C51 V9.51
  .\DP8051_Keil_951\Release\cuff_mod_firmware.lib (SHIFTREG_ENC_3)
         COMMENT TYPE 0: C51 V9.51
  .\DP8051_Keil_951\Release\cuff_mod_firmware.lib (EEPROM)
         COMMENT TYPE 0: C51 V9.51
  .\DP8051_Keil_951\Release\cuff_mod_firmware.lib (SHIFTREG_ENC_4)
         COMMENT TYPE 0: C51 V9.51
  .\DP8051_Keil_951\Release\cuff_mod_firmware.lib (RS485_CTS)
         COMMENT TYPE 0: C51 V9.51
  .\DP8051_Keil_951\Release\cuff_mod_firmware.lib (MOTOR_ON_OFF)
         COMMENT TYPE 0: C51 V9.51
  .\DP8051_Keil_951\Release\cuff_mod_firmware.lib (BOOTLOADABLE)
         COMMENT TYPE 0: C51 V9.51
  .\DP8051_Keil_951\Release\cuff_mod_firmware.lib (MY_TIMER)
         COMMENT TYPE 0: C51 V9.51
  .\DP8051_Keil_951\Release\cuff_mod_firmware.lib (FTDI_ENABLE_REG)
         COMMENT TYPE 0: C51 V9.51
  .\DP8051_Keil_951\Release\cuff_mod_firmware.lib (PACER_TIMER)
         COMMENT TYPE 0: C51 V9.51
  .\DP8051_Keil_951\Release\cuff_mod_firmware.lib (FF_STATUS)
         COMMENT TYPE 0: C51 V9.51
  .\DP8051_Keil_951\Release\cuff_mod_firmware.lib (RESET_FF)
         COMMENT TYPE 0: C51 V9.51
  .\DP8051_Keil_951\Release\cuff_mod_firmware.lib (MOTOR_DIR)
         COMMENT TYPE 0: C51 V9.51
  .\DP8051_Keil_951\Release\cuff_mod_firmware.lib (ADC_STATUS)
LX51 LINKER/LOCATER V4.64.0.0                                                         02/02/2018  18:09:00  PAGE 2


         COMMENT TYPE 0: C51 V9.51
  .\DP8051_Keil_951\Release\cuff_mod_firmware.lib (ADC)
         COMMENT TYPE 0: C51 V9.51
  .\DP8051_Keil_951\Release\cuff_mod_firmware.lib (DMA_DMA)
         COMMENT TYPE 0: C51 V9.51
  .\DP8051_Keil_951\Release\cuff_mod_firmware.lib (ADC_SOC)
         COMMENT TYPE 0: C51 V9.51
  .\DP8051_Keil_951\Release\cuff_mod_firmware.lib (ISR_WATCHDOG)
         COMMENT TYPE 0: C51 V9.51
  .\DP8051_Keil_951\Release\cuff_mod_firmware.lib (WATCHDOG_COUNTER)
         COMMENT TYPE 0: C51 V9.51
  .\DP8051_Keil_951\Release\cuff_mod_firmware.lib (WATCHDOG_ENABLER)
         COMMENT TYPE 0: C51 V9.51
  .\DP8051_Keil_951\Release\cuff_mod_firmware.lib (WATCHDOG_REFRESH)
         COMMENT TYPE 0: C51 V9.51
  .\DP8051_Keil_951\Release\cuff_mod_firmware.lib (CYDMAC)
         COMMENT TYPE 0: C51 V9.51
  .\DP8051_Keil_951\Release\cuff_mod_firmware.lib (CYLIB)
         COMMENT TYPE 0: C51 V9.51
  .\DP8051_Keil_951\Release\cuff_mod_firmware.lib (CYBOOTASMKEIL)
         COMMENT TYPE 0: AX51 V3.07d
  .\DP8051_Keil_951\Release\cuff_mod_firmware.lib (CYMEM)
         COMMENT TYPE 0: AX51 V3.07d
  .\DP8051_Keil_951\Release\cuff_mod_firmware.lib (?C_STARTUP)
         COMMENT TYPE 0: AX51 V3.07d
  .\DP8051_Keil_951\Release\cuff_mod_firmware.lib (UART_RS485_INT)
         COMMENT TYPE 0: C51 V9.51
  .\DP8051_Keil_951\Release\cuff_mod_firmware.lib (ADC_INT)
         COMMENT TYPE 0: C51 V9.51
  .\DP8051_Keil_951\Release\cuff_mod_firmware.lib (ADC_AMUX)
         COMMENT TYPE 0: C51 V9.51
  .\DP8051_Keil_951\Release\cuff_mod_firmware.lib (ADC_EXT_CP_CLK)
         COMMENT TYPE 0: C51 V9.51
  .\DP8051_Keil_951\Release\cuff_mod_firmware.lib (ADC_THEACLK)
         COMMENT TYPE 0: C51 V9.51
  .\DP8051_Keil_951\Release\cuff_mod_firmware.lib (CYFLASH)
         COMMENT TYPE 0: C51 V9.51
  .\DP8051_Keil_951\Release\cuff_mod_firmware.lib (CYPM)
         COMMENT TYPE 0: C51 V9.51
  .\DP8051_Keil_951\Release\cuff_mod_firmware.lib (CYSPC)
         COMMENT TYPE 0: C51 V9.51
  C:\PROGRAM FILES (X86)\CYPRESS\PSOC CREATOR\4.1\PSOC CREATOR\IMPORT\KEIL\PK51\9.51\C51\LIB\C51FPL.LIB (?C?FPMUL)
         COMMENT TYPE 1: A51 / ASM51 Assembler
  C:\PROGRAM FILES (X86)\CYPRESS\PSOC CREATOR\4.1\PSOC CREATOR\IMPORT\KEIL\PK51\9.51\C51\LIB\C51FPL.LIB (?C?FPDIV)
         COMMENT TYPE 1: A51 / ASM51 Assembler
  C:\PROGRAM FILES (X86)\CYPRESS\PSOC CREATOR\4.1\PSOC CREATOR\IMPORT\KEIL\PK51\9.51\C51\LIB\C51FPL.LIB (?C?FPCMP)
         COMMENT TYPE 1: A51 / ASM51 Assembler
  C:\PROGRAM FILES (X86)\CYPRESS\PSOC CREATOR\4.1\PSOC CREATOR\IMPORT\KEIL\PK51\9.51\C51\LIB\C51FPL.LIB (?C?FCAST)
         COMMENT TYPE 1: A51 / ASM51 Assembler
  C:\PROGRAM FILES (X86)\CYPRESS\PSOC CREATOR\4.1\PSOC CREATOR\IMPORT\KEIL\PK51\9.51\C51\LIB\C51FPL.LIB (?C?CASTF)
         COMMENT TYPE 1: A51 / ASM51 Assembler
  C:\PROGRAM FILES (X86)\CYPRESS\PSOC CREATOR\4.1\PSOC CREATOR\IMPORT\KEIL\PK51\9.51\C51\LIB\C51FPL.LIB (PRINTF)
         COMMENT TYPE 1: A51 / ASM51 Assembler
  C:\PROGRAM FILES (X86)\CYPRESS\PSOC CREATOR\4.1\PSOC CREATOR\IMPORT\KEIL\PK51\9.51\C51\LIB\C51FPL.LIB (?C?FPGETOPN)
         COMMENT TYPE 1: A51 / ASM51 Assembler
  C:\PROGRAM FILES (X86)\CYPRESS\PSOC CREATOR\4.1\PSOC CREATOR\IMPORT\KEIL\PK51\9.51\C51\LIB\C51FPL.LIB (?C?FPROUND)
         COMMENT TYPE 1: A51 / ASM51 Assembler
  C:\PROGRAM FILES (X86)\CYPRESS\PSOC CREATOR\4.1\PSOC CREATOR\IMPORT\KEIL\PK51\9.51\C51\LIB\C51FPL.LIB (?C?FPCONVERT)
         COMMENT TYPE 1: A51 / ASM51 Assembler
  C:\PROGRAM FILES (X86)\CYPRESS\PSOC CREATOR\4.1\PSOC CREATOR\IMPORT\KEIL\PK51\9.51\C51\LIB\C51FPL.LIB (?C?FPADD)
         COMMENT TYPE 1: A51 / ASM51 Assembler
  C:\PROGRAM FILES (X86)\CYPRESS\PSOC CREATOR\4.1\PSOC CREATOR\IMPORT\KEIL\PK51\9.51\C51\LIB\C51FPL.LIB (?C?FTNPWR)
         COMMENT TYPE 1: A51 / ASM51 Assembler
  C:\PROGRAM FILES (X86)\CYPRESS\PSOC CREATOR\4.1\PSOC CREATOR\IMPORT\KEIL\PK51\9.51\C51\LIB\C51L.LIB (?C_INIT)
         COMMENT TYPE 1: A51 / ASM51 Assembler
LX51 LINKER/LOCATER V4.64.0.0                                                         02/02/2018  18:09:00  PAGE 3


  C:\PROGRAM FILES (X86)\CYPRESS\PSOC CREATOR\4.1\PSOC CREATOR\IMPORT\KEIL\PK51\9.51\C51\LIB\C51L.LIB (?C?CLDPTR)
         COMMENT TYPE 1: A51 / ASM51 Assembler
  C:\PROGRAM FILES (X86)\CYPRESS\PSOC CREATOR\4.1\PSOC CREATOR\IMPORT\KEIL\PK51\9.51\C51\LIB\C51L.LIB (?C?CLDOPTR)
         COMMENT TYPE 1: A51 / ASM51 Assembler
  C:\PROGRAM FILES (X86)\CYPRESS\PSOC CREATOR\4.1\PSOC CREATOR\IMPORT\KEIL\PK51\9.51\C51\LIB\C51L.LIB (?C?CSTPTR)
         COMMENT TYPE 1: A51 / ASM51 Assembler
  C:\PROGRAM FILES (X86)\CYPRESS\PSOC CREATOR\4.1\PSOC CREATOR\IMPORT\KEIL\PK51\9.51\C51\LIB\C51L.LIB (?C?IMUL)
         COMMENT TYPE 1: A51 / ASM51 Assembler
  C:\PROGRAM FILES (X86)\CYPRESS\PSOC CREATOR\4.1\PSOC CREATOR\IMPORT\KEIL\PK51\9.51\C51\LIB\C51L.LIB (?C?ISTPTR)
         COMMENT TYPE 1: A51 / ASM51 Assembler
  C:\PROGRAM FILES (X86)\CYPRESS\PSOC CREATOR\4.1\PSOC CREATOR\IMPORT\KEIL\PK51\9.51\C51\LIB\C51L.LIB (?C?LMUL)
         COMMENT TYPE 1: A51 / ASM51 Assembler
  C:\PROGRAM FILES (X86)\CYPRESS\PSOC CREATOR\4.1\PSOC CREATOR\IMPORT\KEIL\PK51\9.51\C51\LIB\C51L.LIB (?C?ULDIV)
         COMMENT TYPE 1: A51 / ASM51 Assembler
  C:\PROGRAM FILES (X86)\CYPRESS\PSOC CREATOR\4.1\PSOC CREATOR\IMPORT\KEIL\PK51\9.51\C51\LIB\C51L.LIB (?C?SLDIV)
         COMMENT TYPE 1: A51 / ASM51 Assembler
  C:\PROGRAM FILES (X86)\CYPRESS\PSOC CREATOR\4.1\PSOC CREATOR\IMPORT\KEIL\PK51\9.51\C51\LIB\C51L.LIB (?C?LNOT)
         COMMENT TYPE 1: A51 / ASM51 Assembler
  C:\PROGRAM FILES (X86)\CYPRESS\PSOC CREATOR\4.1\PSOC CREATOR\IMPORT\KEIL\PK51\9.51\C51\LIB\C51L.LIB (?C?LNEG)
         COMMENT TYPE 1: A51 / ASM51 Assembler
  C:\PROGRAM FILES (X86)\CYPRESS\PSOC CREATOR\4.1\PSOC CREATOR\IMPORT\KEIL\PK51\9.51\C51\LIB\C51L.LIB (?C?SLCMP)
         COMMENT TYPE 1: A51 / ASM51 Assembler
  C:\PROGRAM FILES (X86)\CYPRESS\PSOC CREATOR\4.1\PSOC CREATOR\IMPORT\KEIL\PK51\9.51\C51\LIB\C51L.LIB (?C?ULCMP)
         COMMENT TYPE 1: A51 / ASM51 Assembler
  C:\PROGRAM FILES (X86)\CYPRESS\PSOC CREATOR\4.1\PSOC CREATOR\IMPORT\KEIL\PK51\9.51\C51\LIB\C51L.LIB (?C?ULSHR)
         COMMENT TYPE 1: A51 / ASM51 Assembler
  C:\PROGRAM FILES (X86)\CYPRESS\PSOC CREATOR\4.1\PSOC CREATOR\IMPORT\KEIL\PK51\9.51\C51\LIB\C51L.LIB (?C?SLSHR)
         COMMENT TYPE 1: A51 / ASM51 Assembler
  C:\PROGRAM FILES (X86)\CYPRESS\PSOC CREATOR\4.1\PSOC CREATOR\IMPORT\KEIL\PK51\9.51\C51\LIB\C51L.LIB (?C?LSHL)
         COMMENT TYPE 1: A51 / ASM51 Assembler
  C:\PROGRAM FILES (X86)\CYPRESS\PSOC CREATOR\4.1\PSOC CREATOR\IMPORT\KEIL\PK51\9.51\C51\LIB\C51L.LIB (?C?LLDPTR)
         COMMENT TYPE 1: A51 / ASM51 Assembler
  C:\PROGRAM FILES (X86)\CYPRESS\PSOC CREATOR\4.1\PSOC CREATOR\IMPORT\KEIL\PK51\9.51\C51\LIB\C51L.LIB (?C?LSTPTR)
         COMMENT TYPE 1: A51 / ASM51 Assembler
  C:\PROGRAM FILES (X86)\CYPRESS\PSOC CREATOR\4.1\PSOC CREATOR\IMPORT\KEIL\PK51\9.51\C51\LIB\C51L.LIB (?C?LSTXDATA)
         COMMENT TYPE 1: A51 / ASM51 Assembler
  C:\PROGRAM FILES (X86)\CYPRESS\PSOC CREATOR\4.1\PSOC CREATOR\IMPORT\KEIL\PK51\9.51\C51\LIB\C51L.LIB (?C?PLDIXDATA)
         COMMENT TYPE 1: A51 / ASM51 Assembler
  C:\PROGRAM FILES (X86)\CYPRESS\PSOC CREATOR\4.1\PSOC CREATOR\IMPORT\KEIL\PK51\9.51\C51\LIB\C51L.LIB (?C?PSTXDATA)
         COMMENT TYPE 1: A51 / ASM51 Assembler
  C:\PROGRAM FILES (X86)\CYPRESS\PSOC CREATOR\4.1\PSOC CREATOR\IMPORT\KEIL\PK51\9.51\C51\LIB\C51L.LIB (?C?CCASE)
         COMMENT TYPE 1: A51 / ASM51 Assembler
  C:\PROGRAM FILES (X86)\CYPRESS\PSOC CREATOR\4.1\PSOC CREATOR\IMPORT\KEIL\PK51\9.51\C51\LIB\C51L.LIB (?C_XBP)
         COMMENT TYPE 1: A51 / ASM51 Assembler
  C:\PROGRAM FILES (X86)\CYPRESS\PSOC CREATOR\4.1\PSOC CREATOR\IMPORT\KEIL\PK51\9.51\C51\LIB\C51L.LIB (?C?ADDXBP)
         COMMENT TYPE 1: A51 / ASM51 Assembler
  C:\PROGRAM FILES (X86)\CYPRESS\PSOC CREATOR\4.1\PSOC CREATOR\IMPORT\KEIL\PK51\9.51\C51\LIB\C51L.LIB (?C?LIMUL)
         COMMENT TYPE 1: A51 / ASM51 Assembler
  C:\PROGRAM FILES (X86)\CYPRESS\PSOC CREATOR\4.1\PSOC CREATOR\IMPORT\KEIL\PK51\9.51\C51\LIB\C51L.LIB (PUTCHAR)
         COMMENT TYPE 1: A51 / ASM51 Assembler
  C:\PROGRAM FILES (X86)\CYPRESS\PSOC CREATOR\4.1\PSOC CREATOR\IMPORT\KEIL\PK51\9.51\C51\LIB\C51L.LIB (ABS)
         COMMENT TYPE 1: A51 / ASM51 Assembler
  C:\PROGRAM FILES (X86)\CYPRESS\PSOC CREATOR\4.1\PSOC CREATOR\IMPORT\KEIL\PK51\9.51\C51\LIB\C51L.LIB (STRCAT)
         COMMENT TYPE 1: C51 Compiler
  C:\PROGRAM FILES (X86)\CYPRESS\PSOC CREATOR\4.1\PSOC CREATOR\IMPORT\KEIL\PK51\9.51\C51\LIB\C51L.LIB (STRLEN)
         COMMENT TYPE 1: A51 / ASM51 Assembler
  C:\PROGRAM FILES (X86)\CYPRESS\PSOC CREATOR\4.1\PSOC CREATOR\IMPORT\KEIL\PK51\9.51\C51\LIB\C51L.LIB (?C?COPYAMD)
         COMMENT TYPE 1: A51 / ASM51 Assembler
  C:\PROGRAM FILES (X86)\CYPRESS\PSOC CREATOR\4.1\PSOC CREATOR\IMPORT\KEIL\PK51\9.51\C51\LIB\C51L.LIB (?C?STRCPYAMD)
         COMMENT TYPE 1: A51 / ASM51 Assembler
  C:\PROGRAM FILES (X86)\CYPRESS\PSOC CREATOR\4.1\PSOC CREATOR\IMPORT\KEIL\PK51\9.51\C51\LIB\C51L.LIB (?C?IILDX)
         COMMENT TYPE 1: A51 / ASM51 Assembler
  C:\PROGRAM FILES (X86)\CYPRESS\PSOC CREATOR\4.1\PSOC CREATOR\IMPORT\KEIL\PK51\9.51\C51\LIB\C51L.LIB (?C?ILDIX)
         COMMENT TYPE 1: A51 / ASM51 Assembler
  C:\PROGRAM FILES (X86)\CYPRESS\PSOC CREATOR\4.1\PSOC CREATOR\IMPORT\KEIL\PK51\9.51\C51\LIB\C51L.LIB (?C?LLDIDATA)
LX51 LINKER/LOCATER V4.64.0.0                                                         02/02/2018  18:09:00  PAGE 4


         COMMENT TYPE 1: A51 / ASM51 Assembler
  C:\PROGRAM FILES (X86)\CYPRESS\PSOC CREATOR\4.1\PSOC CREATOR\IMPORT\KEIL\PK51\9.51\C51\LIB\C51L.LIB (?C?LLDXDATA)
         COMMENT TYPE 1: A51 / ASM51 Assembler
  C:\PROGRAM FILES (X86)\CYPRESS\PSOC CREATOR\4.1\PSOC CREATOR\IMPORT\KEIL\PK51\9.51\C51\LIB\C51L.LIB (?C?LLDPDATA)
         COMMENT TYPE 1: A51 / ASM51 Assembler
  C:\PROGRAM FILES (X86)\CYPRESS\PSOC CREATOR\4.1\PSOC CREATOR\IMPORT\KEIL\PK51\9.51\C51\LIB\C51L.LIB (?C?LLDCODE)
         COMMENT TYPE 1: A51 / ASM51 Assembler
  C:\PROGRAM FILES (X86)\CYPRESS\PSOC CREATOR\4.1\PSOC CREATOR\IMPORT\KEIL\PK51\9.51\C51\LIB\C51L.LIB (?C?LSTIDATA)
         COMMENT TYPE 1: A51 / ASM51 Assembler
  C:\PROGRAM FILES (X86)\CYPRESS\PSOC CREATOR\4.1\PSOC CREATOR\IMPORT\KEIL\PK51\9.51\C51\LIB\C51L.LIB (?C?LSTPDATA)
         COMMENT TYPE 1: A51 / ASM51 Assembler


ACTIVE MEMORY CLASSES OF MODULE:  .\DP8051_Keil_951\Release\cuff_mod_firmware.omf (COMMAND_PROCESSING)

BASE        START       END         USED      MEMORY CLASS
==========================================================
X:000000H   X:000000H   X:001FFFH   000E6DH   XDATA
C:000000H   C:002600H   C:00FFBFH   009BB2H   CODE
C:000000H   C:002600H   C:00FFBFH   000BB8H   CONST
I:000000H   I:000000H   I:00007FH   00006BH   DATA
I:000020H.0 I:000020H.0 I:00002FH.7 000002H.6 BIT
I:000000H   I:000000H   I:0000FFH   000004H   IDATA


MEMORY MAP OF MODULE:  .\DP8051_Keil_951\Release\cuff_mod_firmware.omf (COMMAND_PROCESSING)


START     STOP      LENGTH    ALIGN  RELOC    MEMORY CLASS   SEGMENT NAME
=========================================================================

* * * * * * * * * * *   D A T A   M E M O R Y   * * * * * * * * * * * * *
000000H   000007H   000008H   ---    AT..     DATA           "REG BANK 0"
000008H   00000DH   000006H   BYTE   UNIT     DATA           ?DT?INTERRUPTIONS
00000EH   00000FH   000002H   BYTE   UNIT     DATA           ?C?LIB_DATA
000010H   000012H   000003H   BYTE   UNIT     IDATA          _IDATA_GROUP_
000013H.0 00001FH.7 00000DH.0 ---    ---      **GAP**
000020H.0 000021H.1 000001H.2 BIT    UNIT     BIT            _BIT_GROUP_
000021H.2 000022H.2 000001H.1 BIT    UNIT     BIT            ?BI?GLOBALS
000022H.3 000022H.5 000000H.3 BIT    UNIT     BIT            ?BI?INTERRUPTIONS
000022H.6 000022H   000000H.2 ---    ---      **GAP**
000023H   00007DH   00005BH   BYTE   UNIT     DATA           _DATA_GROUP_
00007EH   00007EH   000001H   BYTE   UNIT     IDATA          ?STACK

* * * * * * * * * * *   C O D E   M E M O R Y   * * * * * * * * * * * * *
002600H   002619H   00001AH   ---    OFFS..   CODE           ?CO?KEILSTART?3
00261AH   003E70H   001857H   BYTE   UNIT     CODE           ?PR?_GET_PARAM_LIST?COMMAND_PROCESSING
003E71H   0050AAH   00123AH   BYTE   UNIT     CODE           ?PR?_INFOPREPARE?COMMAND_PROCESSING
0050ABH   006057H   000FADH   BYTE   UNIT     CODE           ?CO?COMMAND_PROCESSING
006058H   006D93H   000D3CH   BYTE   UNIT     CODE           ?PR?_MOTOR_CONTROL?INTERRUPTIONS
006D94H   007849H   000AB6H   BYTE   UNIT     CODE           ?C?LIB_CODE
00784AH   007CF1H   0004A8H   BYTE   UNIT     CODE           ?PR?FORCE_AND_SLIDE_CUFF?COMMAND_PROCESSING
007CF2H   008174H   000483H   BYTE   UNIT     CODE           ?PR?PRINTF?PRINTF
008175H   0084B1H   00033DH   BYTE   UNIT     CODE           ?PR?SLIDE_CUFF?COMMAND_PROCESSING
0084B2H   0087E1H   000330H   BYTE   UNIT     CODE           ?PR?CMD_STORE_PARAMS?COMMAND_PROCESSING
0087E2H   008AD6H   0002F5H   BYTE   UNIT     CODE           ?PR?_ENCODER_READING?INTERRUPTIONS
008AD7H   008D42H   00026CH   BYTE   UNIT     CODE           ?PR?MAIN?MAIN
008D43H   008FA0H   00025EH   BYTE   UNIT     CODE           ?PR?PRETENSIONING_PROCESS?INTERRUPTIONS
008FA1H   0091F1H   000251H   BYTE   UNIT     CODE           ?PR?DRIVE_CUFF?COMMAND_PROCESSING
0091F2H   0093E5H   0001F4H   BYTE   UNIT     CODE           ?PR?MEMINIT?COMMAND_PROCESSING
0093E6H   009586H   0001A1H   BYTE   UNIT     CODE           ?PR?_ADC_GAINCOMPENSATION?ADC
009587H   009705H   00017FH   BYTE   UNIT     CODE           ?PR?CLOCKSETUP?CYFITTER_CFG
009706H   009870H   00016BH   BYTE   UNIT     CODE           ?PR?CMD_SET_POS_STIFF?COMMAND_PROCESSING
009871H   0099B2H   000142H   BYTE   UNIT     CODE           ?PR?CMD_SET_INPUTS?COMMAND_PROCESSING
0099B3H   009AE3H   000131H   BYTE   UNIT     CODE           ?PR?_ADC_EXT_CP_CLK_SETDIVIDERREGISTER?ADC_EXT_CP_CLK
LX51 LINKER/LOCATER V4.64.0.0                                                         02/02/2018  18:09:00  PAGE 5


009AE4H   009C13H   000130H   BYTE   UNIT     CODE           ?PR?_CLOCK_UART_SETDIVIDERREGISTER?CLOCK_UART
009C14H   009D42H   00012FH   BYTE   UNIT     CODE           ?PR?INTERRUPT_MANAGER?INTERRUPTIONS
009D43H   009E71H   00012FH   BYTE   UNIT     CODE           ?PR?_ADC_THEACLK_SETDIVIDERREGISTER?ADC_THEACLK
009E72H   009F9DH   00012CH   BYTE   UNIT     CODE           ?PR?COMMPROCESS?COMMAND_PROCESSING
009F9EH   00A0C4H   000127H   BYTE   UNIT     CODE           ?PR?PWM_LIMIT_SEARCH?INTERRUPTIONS
00A0C5H   00A1E1H   00011DH   BYTE   UNIT     CODE           ?C_C51STARTUP
00A1E2H   00A2F8H   000117H   BYTE   UNIT     CODE           ?PR?CYFITTER_CFG?CYFITTER_CFG
00A2F9H   00A3FAH   000102H   BYTE   UNIT     CODE           ?PR?ANALOG_READ_END?INTERRUPTIONS
00A3FBH   00A4E3H   0000E9H   BYTE   UNIT     CODE           ?PR?FUNCTION_SCHEDULER?INTERRUPTIONS
00A4E4H   00A5CCH   0000E9H   BYTE   UNIT     CODE           ?PR?CFG_DMA_INIT?CYFITTER_CFG
00A5CDH   00A6ABH   0000DFH   BYTE   UNIT     CODE           ?PR?_EEPROM_WRITE?EEPROM
00A6ACH   00A75DH   0000B2H   BYTE   UNIT     CODE           ?PR?_MEMSTORE?COMMAND_PROCESSING
00A75EH   00A80EH   0000B1H   BYTE   UNIT     CODE           ?PR?ADC_INIT?ADC
00A80FH   00A8BFH   0000B1H   BYTE   UNIT     CODE           ?PR?UART_RS485_RXISR?UART_RS485_INT
00A8C0H   00A96DH   0000AEH   BYTE   UNIT     CODE           ?PR?_ADC_INITCONFIG?ADC
00A96EH   00AA14H   0000A7H   BYTE   UNIT     CODE           ?C_INITSEG
00AA15H   00AAB7H   0000A3H   BYTE   UNIT     CODE           ?PR?_COMMWRITE?COMMAND_PROCESSING
00AAB8H   00AB44H   00008DH   BYTE   UNIT     CODE           ?PR?_COMMWRITE_OLD_ID?COMMAND_PROCESSING
00AB45H   00ABCCH   000088H   BYTE   UNIT     CODE           ?PR?ADC_ENABLE?ADC
00ABCDH   00AC54H   000088H   BYTE   UNIT     CODE           ?PR?_?CYDELAY?CYLIB
00AC55H   00ACDBH   000087H   BYTE   UNIT     CODE           ?PR?_CYDMATDSETCONFIGURATION?CYDMAC
00ACDCH   00AD5EH   000083H   BYTE   UNIT     CODE           ?PR?SETZEROS?COMMAND_PROCESSING
00AD5FH   00ADD7H   000079H   BYTE   UNIT     CODE           ?PR?_CYDMACHSETCONFIGURATION?CYDMAC
00ADD8H   00AE4FH   000078H   BYTE   UNIT     CODE           ?PR?_CYDMACHSETEXTENDEDADDRESS?CYDMAC
00AE50H   00AEC7H   000078H   BYTE   UNIT     CODE           ?PR?_CYDMATDSETADDRESS?CYDMAC
00AEC8H   00AF3CH   000075H   BYTE   UNIT     CODE           ?PR?_FILTER_I1?UTILS
00AF3DH   00AFB1H   000075H   BYTE   UNIT     CODE           ?PR?_FILTER_I2?UTILS
00AFB2H   00B024H   000073H   BYTE   UNIT     CODE           ?PR?_CYSPCLOADROW?CYSPC
00B025H   00B094H   000070H   BYTE   UNIT     CODE           ?PR?CMD_GET_CURR_AND_MEAS?COMMAND_PROCESSING
00B095H   00B0FFH   00006BH   BYTE   UNIT     CODE           ?PR?_CHECK_ENC_DATA?UTILS
00B100H   00B16AH   00006BH   BYTE   UNIT     CODE           ?PR?_STRCAT?STRCAT
00B16BH   00B1D0H   000066H   BYTE   UNIT     CODE           ?PR?CMD_GET_INPUTS?COMMAND_PROCESSING
00B1D1H   00B230H   000060H   BYTE   UNIT     CODE           ?PR?_CYSPCREADDATA?CYSPC
00B231H   00B28BH   00005BH   BYTE   UNIT     CODE           ?PR?UART_RS485_GETCHAR?UART_RS485
00B28CH   00B2E1H   000056H   BYTE   UNIT     CODE           ?PR?CYSETTEMPINT?CYFLASH
00B2E2H   00B335H   000054H   BYTE   UNIT     CODE           ?PR?_CYINTSETVECTOR?CYLIB
00B336H   00B389H   000054H   BYTE   UNIT     CODE           ?PR?_CYSPCWRITEROW?CYSPC
00B38AH   00B3D9H   000050H   BYTE   UNIT     CODE           ?PR?CMD_GET_MEASUREMENTS?COMMAND_PROCESSING
00B3DAH   00B429H   000050H   BYTE   UNIT     CODE           ?PR?CYFLASHGETSPCALGORITHM?CYFLASH
00B42AH   00B478H   00004FH   BYTE   UNIT     CODE           ?PR?UART_RS485_GETRXBUFFERSIZE?UART_RS485
00B479H   00B4C5H   00004DH   BYTE   UNIT     CODE           ?PR?MEMRECALL?COMMAND_PROCESSING
00B4C6H   00B510H   00004BH   BYTE   UNIT     CODE           ?PR?_CYDMACHENABLE?CYDMAC
00B511H   00B55AH   00004AH   BYTE   UNIT     CODE           ?PR?_DMA_DMAINITIALIZE?DMA_DMA
00B55BH   00B5A1H   000047H   BYTE   UNIT     CODE           ?PR?MEMRESTORE?COMMAND_PROCESSING
00B5A2H   00B5E7H   000046H   BYTE   UNIT     CODE           ?PR?CMD_GET_CURRENTS?COMMAND_PROCESSING
00B5E8H   00B62BH   000044H   BYTE   UNIT     CODE           ?C?LDIV
00B62CH   00B66EH   000043H   BYTE   UNIT     CODE           ?PR?CMD_ACTIVATE?COMMAND_PROCESSING
00B66FH   00B6AFH   000041H   BYTE   UNIT     CODE           ?PR?CMD_SET_WATCHDOG?COMMAND_PROCESSING
00B6B0H   00B6EFH   000040H   BYTE   UNIT     CODE           ?PR?_CYDMACHPRIORITY?CYDMAC
00B6F0H   00B72DH   00003EH   BYTE   UNIT     CODE           ?PR?CYDMATDALLOCATE?CYDMAC
00B72EH   00B76AH   00003DH   BYTE   UNIT     CODE           ?PR?_ADC_SETDSMREF0REG?ADC
00B76BH   00B7A6H   00003CH   BYTE   UNIT     CODE           ?PR?PACER_TIMER_INIT?PACER_TIMER
00B7A7H   00B7DFH   000039H   BYTE   UNIT     CODE           ?PR?CMD_GET_VELOCITIES?COMMAND_PROCESSING
00B7E0H   00B7FFH   000020H   BYTE   UNIT     CODE           ?PR?CMD_SET_BAUDRATE?COMMAND_PROCESSING
00B800H   00B83AH   00003BH   PAGE   UNIT     CODE           ?PR?CYDELAYCYCLES?CYBOOTASMKEIL
00B83BH   00B872H   000038H   BYTE   UNIT     CODE           ?PR?WATCHDOG_COUNTER_INIT?WATCHDOG_COUNTER
00B873H   00B8A8H   000036H   BYTE   UNIT     CODE           ?PR?CYDMACCONFIGURE?CYDMAC
00B8A9H   00B8DDH   000035H   BYTE   UNIT     CODE           ?PR?COUNTER_ENC_INIT?COUNTER_ENC
00B8DEH   00B911H   000034H   BYTE   UNIT     CODE           ?PR?_UART_RS485_PUTSTRING?UART_RS485
00B912H   00B945H   000034H   BYTE   UNIT     CODE           ?PR?_CYCONFIGCPY?CYMEM
00B946H   00B978H   000033H   BYTE   UNIT     CODE           ?PR?UART_RS485_INIT?UART_RS485
00B979H   00B9AAH   000032H   BYTE   UNIT     CODE           ?PR?_LCRCHECKSUM?UTILS
00B9ABH   00B9DBH   000031H   BYTE   UNIT     CODE           ?PR?_ADC_AMUX_UNSET?CYFITTER_CFG
00B9DCH   00BA0CH   000031H   BYTE   UNIT     CODE           ?PR?CYEEPROM_START?CYFLASH
00BA0DH   00BA3CH   000030H   BYTE   UNIT     CODE           ?PR?CMD_GET_ACTIVATE?COMMAND_PROCESSING
LX51 LINKER/LOCATER V4.64.0.0                                                         02/02/2018  18:09:00  PAGE 6


00BA3DH   00BA6CH   000030H   BYTE   UNIT     CODE           ?PR?_ADC_AMUX_SET?CYFITTER_CFG
00BA6DH   00BA9BH   00002FH   BYTE   UNIT     CODE           ?PR?UART_RS485_CLEARRXBUFFER?UART_RS485
00BA9CH   00BAC9H   00002EH   BYTE   UNIT     CODE           ?PR?_CYSPCGETTEMP?CYSPC
00BACAH   00BACAH   000001H   BYTE   UNIT     CODE           ?PR?ISR_RS485_RX_INTERRUPT?ISR_RS485_RX
00BACBH   00BACBH   000001H   BYTE   UNIT     CODE           ?PR?ISR_WATCHDOG_INTERRUPT?ISR_WATCHDOG
00BACCH   00BAF8H   00002DH   DWORD  UNIT     CODE           ?PR?CYDELAYUS?CYBOOTASMKEIL
00BAF9H   00BB24H   00002CH   BYTE   UNIT     CODE           ?PR?MY_TIMER_INIT?MY_TIMER
00BB25H   00BB4BH   000027H   BYTE   UNIT     CODE           ?PR?ANALOGSETDEFAULT?CYFITTER_CFG
00BB4CH   00BB72H   000027H   BYTE   UNIT     CODE           ?PR?PUTCHAR?PUTCHAR
00BB73H   00BB98H   000026H   BYTE   UNIT     CODE           ?PR?PWM_MOTORS_INIT?PWM_MOTORS
00BB99H   00BBBEH   000026H   BYTE   UNIT     CODE           ?PR?CYCONFIGCPYCODE?CYMEM
00BBBFH   00BBE0H   000022H   BYTE   UNIT     CODE           ?PR?UART_RS485_ENABLE?UART_RS485
00BBE1H   00BC02H   000022H   BYTE   UNIT     CODE           ?PR?UART_RS485_STOP?UART_RS485
00BC03H   00BC23H   000021H   BYTE   UNIT     CODE           ?PR?ADC_AMUX_START?ADC_AMUX
00BC24H   00BC42H   00001FH   BYTE   UNIT     CODE           ?PR?_ISR_RS485_RX_STARTEX?ISR_RS485_RX
00BC43H   00BC61H   00001FH   BYTE   UNIT     CODE           ?PR?_ISR_WATCHDOG_STARTEX?ISR_WATCHDOG
00BC62H   00BC80H   00001FH   BYTE   UNIT     CODE           ?PR?CYSPCLOCK?CYSPC
00BC81H   00BC9EH   00001EH   BYTE   UNIT     CODE           ?PR?_CYDMACHSETINITIALTD?CYDMAC
00BC9FH   00BCBAH   00001CH   BYTE   UNIT     CODE           ?PR?_WATCHDOG_COUNTER_WRITECOUNTER?WATCHDOG_COUNTER
00BCBBH   00BCD5H   00001BH   BYTE   UNIT     CODE           ?PR?CYSPCGETALGORITHM?CYSPC
00BCD6H   00BCEEH   000019H   BYTE   UNIT     CODE           ?PR?_INFOGET?COMMAND_PROCESSING
00BCEFH   00BD07H   000019H   BYTE   UNIT     CODE           ?PR?ADC_START?ADC
00BD08H   00BD20H   000019H   BYTE   UNIT     CODE           ?PR?_CYINTSETPRIORITY?CYLIB
00BD21H   00BD39H   000019H   BYTE   UNIT     CODE           ?PR?_ADC_AMUX_SELECT?ADC_AMUX
00BD3AH   00BD51H   000018H   BYTE   UNIT     CODE           ?PR?CMD_PING?COMMAND_PROCESSING
00BD52H   00BD69H   000018H   BYTE   UNIT     CODE           ?PR?CYEXITCRITICALSECTION?CYBOOTASMKEIL
00BD6AH   00BD81H   000018H   BYTE   UNIT     CODE           ?PR?CYSETTEMP?CYFLASH
00BD82H   00BD97H   000016H   BYTE   UNIT     CODE           ?PR?_SENDACKNOWLEDGMENT?COMMAND_PROCESSING
00BD98H   00BDADH   000016H   BYTE   UNIT     CODE           ?PR?PACER_TIMER_ENABLE?PACER_TIMER
00BDAEH   00BDC3H   000016H   BYTE   UNIT     CODE           ?PR?WATCHDOG_COUNTER_ENABLE?WATCHDOG_COUNTER
00BDC4H   00BDD8H   000015H   BYTE   UNIT     CODE           ?PR?CYENTERCRITICALSECTION?CYBOOTASMKEIL
00BDD9H   00BDEDH   000015H   BYTE   UNIT     CODE           ?PR?CYSPCSTART?CYSPC
00BDEEH   00BE02H   000015H   BYTE   UNIT     CODE           ?PR?_STRLEN?STRLEN
00BE03H   00BE16H   000014H   BYTE   UNIT     CODE           ?PR?UART_RS485_READRXSTATUS?UART_RS485
00BE17H   00BE29H   000013H   BYTE   UNIT     CODE           ?PR?UART_RS485_START?UART_RS485
00BE2AH   00BE3CH   000013H   BYTE   UNIT     CODE           ?PR?PWM_MOTORS_START?PWM_MOTORS
00BE3DH   00BE4FH   000013H   BYTE   UNIT     CODE           ?PR?COUNTER_ENC_START?COUNTER_ENC
00BE50H   00BE62H   000013H   BYTE   UNIT     CODE           ?PR?SHIFTREG_ENC_1_START?SHIFTREG_ENC_1
00BE63H   00BE75H   000013H   BYTE   UNIT     CODE           ?PR?SHIFTREG_ENC_2_START?SHIFTREG_ENC_2
00BE76H   00BE88H   000013H   BYTE   UNIT     CODE           ?PR?MY_TIMER_START?MY_TIMER
00BE89H   00BE9BH   000013H   BYTE   UNIT     CODE           ?PR?PACER_TIMER_START?PACER_TIMER
00BE9CH   00BEAEH   000013H   BYTE   UNIT     CODE           ?PR?WATCHDOG_COUNTER_START?WATCHDOG_COUNTER
00BEAFH   00BEC1H   000013H   BYTE   UNIT     CODE           ?PR?CYREAD24?CYMEM
00BEC2H   00BED3H   000012H   BYTE   UNIT     CODE           ?PR?UART_RS485_CLEARTXBUFFER?UART_RS485
00BED4H   00BEE5H   000012H   BYTE   UNIT     CODE           ?PR?CYWRITE24?CYMEM
00BEE6H   00BEF6H   000011H   BYTE   UNIT     CODE           ?PR?_SHIFTREG_ENC_1_SETINTMODE?SHIFTREG_ENC_1
00BEF7H   00BF07H   000011H   BYTE   UNIT     CODE           ?PR?_SHIFTREG_ENC_2_SETINTMODE?SHIFTREG_ENC_2
00BF08H   00BF16H   00000FH   BYTE   UNIT     CODE           ?PR?MY_TIMER_READCOUNTER?MY_TIMER
00BF17H   00BF25H   00000FH   BYTE   UNIT     CODE           ?PR?CYREAD16?CYMEM
00BF26H   00BF34H   00000FH   BYTE   UNIT     CODE           ?PR?CYWRITE16?CYMEM
00BF35H   00BF42H   00000EH   BYTE   UNIT     CODE           ?PR?_ISR_RS485_RX_SETVECTOR?ISR_RS485_RX
00BF43H   00BF50H   00000EH   BYTE   UNIT     CODE           ?PR?SHIFTREG_ENC_1_ENABLEINT?SHIFTREG_ENC_1
00BF51H   00BF5EH   00000EH   BYTE   UNIT     CODE           ?PR?SHIFTREG_ENC_2_ENABLEINT?SHIFTREG_ENC_2
00BF5FH   00BF6CH   00000EH   BYTE   UNIT     CODE           ?PR?_PACER_TIMER_WRITEPERIOD?PACER_TIMER
00BF6DH   00BF7AH   00000EH   BYTE   UNIT     CODE           ?PR?_PACER_TIMER_WRITECOUNTER?PACER_TIMER
00BF7BH   00BF88H   00000EH   BYTE   UNIT     CODE           ?PR?_ISR_WATCHDOG_SETVECTOR?ISR_WATCHDOG
00BF89H   00BF96H   00000EH   BYTE   UNIT     CODE           ?PR?_WATCHDOG_COUNTER_WRITEPERIOD?WATCHDOG_COUNTER
00BF97H   00BFA3H   00000DH   BYTE   UNIT     CODE           ?PR?_UART_RS485_PUTCHAR?UART_RS485
00BFA4H   00BFB0H   00000DH   BYTE   UNIT     CODE           ?PR?COUNTER_ENC_CLEARFIFO?COUNTER_ENC
00BFB1H   00BFBDH   00000DH   BYTE   UNIT     CODE           ?PR?MY_TIMER_CLEARFIFO?MY_TIMER
00BFBEH   00BFCAH   00000DH   BYTE   UNIT     CODE           ?PR?_ADC_EXT_CP_CLK_SETMODEREGISTER?ADC_EXT_CP_CLK
00BFCBH   00BFD7H   00000DH   BYTE   UNIT     CODE           ?PR?_ADC_THEACLK_SETMODEREGISTER?ADC_THEACLK
00BFD8H   00BFE3H   00000CH   BYTE   UNIT     CODE           ?PR?CYREAD8?CYMEM
00BFE4H   00BFEFH   00000CH   BYTE   UNIT     CODE           ?PR?CYWRITE8?CYMEM
00BFF0H   00BFFBH   00000CH   BYTE   UNIT     CODE           ?PR?CYSPCUNLOCK?CYSPC
LX51 LINKER/LOCATER V4.64.0.0                                                         02/02/2018  18:09:00  PAGE 7


00BFFCH   00C007H   00000CH   BYTE   UNIT     CODE           ?PR?_ABS?ABS
00C008H   00C012H   00000BH   BYTE   UNIT     CODE           ?PR?SHIFTREG_ENC_1_ENABLE?SHIFTREG_ENC_1
00C013H   00C01DH   00000BH   BYTE   UNIT     CODE           ?PR?SHIFTREG_ENC_2_ENABLE?SHIFTREG_ENC_2
00C01EH   00C027H   00000AH   BYTE   UNIT     CODE           ?PR?_ISR_RS485_RX_SETPRIORITY?ISR_RS485_RX
00C028H   00C031H   00000AH   BYTE   UNIT     CODE           ?PR?CLOCK_UART_GETDIVIDERREGISTER?CLOCK_UART
00C032H   00C03BH   00000AH   BYTE   UNIT     CODE           ?PR?SHIFTREG_ENC_1_READDATA?SHIFTREG_ENC_1
00C03CH   00C045H   00000AH   BYTE   UNIT     CODE           ?PR?SHIFTREG_ENC_2_READDATA?SHIFTREG_ENC_2
00C046H   00C04FH   00000AH   BYTE   UNIT     CODE           ?PR?SHIFTREG_ENC_3_READDATA?SHIFTREG_ENC_3
00C050H   00C059H   00000AH   BYTE   UNIT     CODE           ?PR?SHIFTREG_ENC_4_READDATA?SHIFTREG_ENC_4
00C05AH   00C063H   00000AH   BYTE   UNIT     CODE           ?PR?BOOTLOADABLE_LOAD?BOOTLOADABLE
00C064H   00C06DH   00000AH   BYTE   UNIT     CODE           ?PR?_MY_TIMER_WRITEPERIOD?MY_TIMER
00C06EH   00C077H   00000AH   BYTE   UNIT     CODE           ?PR?MY_TIMER_READCAPTURE?MY_TIMER
00C078H   00C081H   00000AH   BYTE   UNIT     CODE           ?PR?_MY_TIMER_WRITECOUNTER?MY_TIMER
00C082H   00C08BH   00000AH   BYTE   UNIT     CODE           ?PR?_ISR_WATCHDOG_SETPRIORITY?ISR_WATCHDOG
00C08CH   00C095H   00000AH   BYTE   UNIT     CODE           ?PR?ADC_EXT_CP_CLK_GETDIVIDERREGISTER?ADC_EXT_CP_CLK
00C096H   00C09FH   00000AH   BYTE   UNIT     CODE           ?PR?ADC_THEACLK_GETDIVIDERREGISTER?ADC_THEACLK
00C0A0H   00C0A7H   000008H   BYTE   UNIT     CODE           ?PR?PWM_MOTORS_ENABLE?PWM_MOTORS
00C0A8H   00C0AFH   000008H   BYTE   UNIT     CODE           ?PR?CLOCK_UART_GETSOURCEREGISTER?CLOCK_UART
00C0B0H   00C0B7H   000008H   BYTE   UNIT     CODE           ?PR?COUNTER_ENC_ENABLE?COUNTER_ENC
00C0B8H   00C0BFH   000008H   BYTE   UNIT     CODE           ?PR?MY_TIMER_ENABLE?MY_TIMER
00C0C0H   00C0C7H   000008H   BYTE   UNIT     CODE           ?PR?CYSOFTWARERESET?CYLIB
00C0C8H   00C0CFH   000008H   BYTE   UNIT     CODE           ?PR?ADC_EXT_CP_CLK_GETSOURCEREGISTER?ADC_EXT_CP_CLK
00C0D0H   00C0D7H   000008H   BYTE   UNIT     CODE           ?PR?ADC_THEACLK_GETSOURCEREGISTER?ADC_THEACLK
00C0D8H   00C0DEH   000007H   BYTE   UNIT     CODE           ?PR?ISR_RS485_RX_ENABLE?ISR_RS485_RX
00C0DFH   00C0E5H   000007H   BYTE   UNIT     CODE           ?PR?ISR_RS485_RX_DISABLE?ISR_RS485_RX
00C0E6H   00C0ECH   000007H   BYTE   UNIT     CODE           ?PR?EEPROM_ENABLE?EEPROM
00C0EDH   00C0F3H   000007H   BYTE   UNIT     CODE           ?PR?ISR_WATCHDOG_ENABLE?ISR_WATCHDOG
00C0F4H   00C0FAH   000007H   BYTE   UNIT     CODE           ?PR?ISR_WATCHDOG_DISABLE?ISR_WATCHDOG
00C0FBH   00C100H   000006H   BYTE   UNIT     CODE           ?PR?UART_RS485_READTXSTATUS?UART_RS485
00C101H   00C106H   000006H   BYTE   UNIT     CODE           ?PR?_PWM_MOTORS_WRITECOUNTER?PWM_MOTORS
00C107H   00C10CH   000006H   BYTE   UNIT     CODE           ?PR?_PWM_MOTORS_WRITEPERIOD?PWM_MOTORS
00C10DH   00C112H   000006H   BYTE   UNIT     CODE           ?PR?_PWM_MOTORS_WRITECOMPARE1?PWM_MOTORS
00C113H   00C118H   000006H   BYTE   UNIT     CODE           ?PR?_PWM_MOTORS_WRITECOMPARE2?PWM_MOTORS
00C119H   00C11EH   000006H   BYTE   UNIT     CODE           ?PR?_COUNTER_ENC_SETINTERRUPTMODE?COUNTER_ENC
00C11FH   00C124H   000006H   BYTE   UNIT     CODE           ?PR?COUNTER_ENC_READSTATUSREGISTER?COUNTER_ENC
00C125H   00C12AH   000006H   BYTE   UNIT     CODE           ?PR?_COUNTER_ENC_WRITECOUNTER?COUNTER_ENC
00C12BH   00C130H   000006H   BYTE   UNIT     CODE           ?PR?COUNTER_ENC_READCAPTURE?COUNTER_ENC
00C131H   00C136H   000006H   BYTE   UNIT     CODE           ?PR?_COUNTER_ENC_WRITEPERIOD?COUNTER_ENC
00C137H   00C13CH   000006H   BYTE   UNIT     CODE           ?PR?_COUNTER_ENC_WRITECOMPARE?COUNTER_ENC
00C13DH   00C142H   000006H   BYTE   UNIT     CODE           ?PR?SHIFTREG_ENC_1_INIT?SHIFTREG_ENC_1
00C143H   00C148H   000006H   BYTE   UNIT     CODE           ?PR?SHIFTREG_ENC_2_INIT?SHIFTREG_ENC_2
00C149H   00C14EH   000006H   BYTE   UNIT     CODE           ?PR?_RS485_CTS_WRITE?RS485_CTS
00C14FH   00C154H   000006H   BYTE   UNIT     CODE           ?PR?_MOTOR_ON_OFF_WRITE?MOTOR_ON_OFF
00C155H   00C15AH   000006H   BYTE   UNIT     CODE           ?PR?_MY_TIMER_SETINTERRUPTMODE?MY_TIMER
00C15BH   00C160H   000006H   BYTE   UNIT     CODE           ?PR?MY_TIMER_READSTATUSREGISTER?MY_TIMER
00C161H   00C166H   000006H   BYTE   UNIT     CODE           ?PR?_FTDI_ENABLE_REG_WRITE?FTDI_ENABLE_REG
00C167H   00C16CH   000006H   BYTE   UNIT     CODE           ?PR?_PACER_TIMER_SETINTERRUPTMODE?PACER_TIMER
00C16DH   00C172H   000006H   BYTE   UNIT     CODE           ?PR?FF_STATUS_READ?FF_STATUS
00C173H   00C178H   000006H   BYTE   UNIT     CODE           ?PR?_RESET_FF_WRITE?RESET_FF
00C179H   00C17EH   000006H   BYTE   UNIT     CODE           ?PR?_MOTOR_DIR_WRITE?MOTOR_DIR
00C17FH   00C184H   000006H   BYTE   UNIT     CODE           ?PR?ADC_STATUS_READ?ADC_STATUS
00C185H   00C18AH   000006H   BYTE   UNIT     CODE           ?PR?_ADC_SOC_WRITE?ADC_SOC
00C18BH   00C190H   000006H   BYTE   UNIT     CODE           ?PR?_WATCHDOG_COUNTER_SETINTERRUPTMODE?WATCHDOG_COUNTER
00C191H   00C196H   000006H   BYTE   UNIT     CODE           ?PR?_WATCHDOG_ENABLER_WRITE?WATCHDOG_ENABLER
00C197H   00C19CH   000006H   BYTE   UNIT     CODE           ?PR?_WATCHDOG_REFRESH_WRITE?WATCHDOG_REFRESH
00C19DH   00C1A0H   000004H   BYTE   UNIT     CODE           ?PR?EEPROM_START?EEPROM
00C1A1H   00C1A4H   000004H   BYTE   UNIT     CODE           ?PR?EEPROM_UPDATETEMPERATURE?EEPROM
00C1A5H   00C1A7H   000003H   BYTE   UNIT     CODE           ?PR?ISR_WATCHDOG_HANDLER?INTERRUPTIONS
00C1A8H   00C1AAH   000003H   BYTE   UNIT     CODE           ?PR?ISR_RS485_RX_EXINTERRUPT?INTERRUPTIONS
00C1ABH   00C1ADH   000003H   BYTE   UNIT     CODE           ?PR?_CYCLOCKSTARTUPERROR?CYFITTER_CFG
00C1AEH   00C1AEH   000001H   BYTE   UNIT     CODE           ?PR?ADC_ISR1?ADC_INT
00C1AFH   00C1AFH   000001H   BYTE   UNIT     CODE           ?PR?ADC_ISR2?ADC_INT
00C1B0H   00C1B0H   000001H   BYTE   UNIT     CODE           ?PR?ADC_ISR3?ADC_INT
00C1B1H   00C1B1H   000001H   BYTE   UNIT     CODE           ?PR?ADC_ISR4?ADC_INT
00C1B2H   00CD08H   000B57H   BYTE   UNIT     CONST          ?CO?CYFITTER_CFG
LX51 LINKER/LOCATER V4.64.0.0                                                         02/02/2018  18:09:00  PAGE 8


00CD09H   00CD69H   000061H   BYTE   UNIT     CONST          ?CO?INTERRUPTIONS

* * * * * * * * * * *  X D A T A   M E M O R Y  * * * * * * * * * * * * *
000000H   000B0AH   000B0BH   BYTE   UNIT     XDATA          _XDATA_GROUP_
000B0BH   000CF6H   0001ECH   BYTE   UNIT     XDATA          ?XD?GLOBALS
000CF7H   000D9EH   0000A8H   BYTE   UNIT     XDATA          ?XD?INTERRUPTIONS
000D9FH   000DE1H   000043H   BYTE   UNIT     XDATA          ?XD?CYPM
000DE2H   000E09H   000028H   BYTE   UNIT     XDATA          ?XD?UTILS
000E0AH   000E30H   000027H   BYTE   UNIT     XDATA          ?XD?UART_RS485
000E31H   000E40H   000010H   BYTE   UNIT     XDATA          ?XD?ADC
000E41H   000E4FH   00000FH   BYTE   UNIT     XDATA          ?XD?CYLIB
000E50H   000E55H   000006H   BYTE   UNIT     XDATA          ?XD?CYDMAC
000E56H   000E5AH   000005H   BYTE   UNIT     XDATA          ?XD?CYFLASH
000E5BH   000E5EH   000004H   BYTE   UNIT     XDATA          ?XD?CYFITTER_CFG
000E5FH   000E60H   000002H   BYTE   UNIT     XDATA          ?XD?COMMAND_PROCESSING
000E61H   000E61H   000001H   BYTE   UNIT     XDATA          ?XD?PWM_MOTORS
000E62H   000E62H   000001H   BYTE   UNIT     XDATA          ?XD?COUNTER_ENC
000E63H   000E63H   000001H   BYTE   UNIT     XDATA          ?XD?SHIFTREG_ENC_1
000E64H   000E64H   000001H   BYTE   UNIT     XDATA          ?XD?SHIFTREG_ENC_2
000E65H   000E65H   000001H   BYTE   UNIT     XDATA          ?XD?SHIFTREG_ENC_3
000E66H   000E66H   000001H   BYTE   UNIT     XDATA          ?XD?SHIFTREG_ENC_4
000E67H   000E67H   000001H   BYTE   UNIT     XDATA          ?XD?MY_TIMER
000E68H   000E68H   000001H   BYTE   UNIT     XDATA          ?XD?PACER_TIMER
000E69H   000E69H   000001H   BYTE   UNIT     XDATA          ?XD?DMA_DMA
000E6AH   000E6AH   000001H   BYTE   UNIT     XDATA          ?XD?WATCHDOG_COUNTER
000E6BH   000E6BH   000001H   BYTE   UNIT     XDATA          ?XD?ADC_AMUX
000E6CH   000E6CH   000001H   BYTE   UNIT     XDATA          ?XD?CYSPC

* * * * * * * * *   R E M O V E D     S E G M E N T S   * * * * * * * *
   *DEL*:           00007AH   BYTE   UNIT     CODE           ?PR?_FILTER_VEL_1?UTILS
   *DEL*:           00007AH   BYTE   UNIT     CODE           ?PR?_FILTER_VEL_2?UTILS
   *DEL*:           00007AH   BYTE   UNIT     CODE           ?PR?_FILTER_VEL_3?UTILS
   *DEL*:           00001AH   BYTE   UNIT     CODE           ?PR?_SETANALOGROUTINGPUMPS?CYFITTER_CFG
   *DEL*:           000003H   BYTE   UNIT     CODE           ?PR?UART_RS485_READCONTROLREGISTER?UART_RS485
   *DEL*:           000006H   BYTE   UNIT     CODE           ?PR?_UART_RS485_WRITECONTROLREGISTER?UART_RS485
   *DEL*:           000001H   BYTE   UNIT     XDATA          ?XD?_UART_RS485_WRITECONTROLREGISTER?UART_RS485
   *DEL*:           000006H   BYTE   UNIT     CODE           ?PR?_UART_RS485_SETRXINTERRUPTMODE?UART_RS485
   *DEL*:           00004AH   BYTE   UNIT     CODE           ?PR?UART_RS485_READRXDATA?UART_RS485
   *DEL*:           00001FH   BYTE   UNIT     CODE           ?PR?UART_RS485_GETBYTE?UART_RS485
   *DEL*:           000006H   BYTE   UNIT     CODE           ?PR?_UART_RS485_SETRXADDRESSMODE?UART_RS485
   *DEL*:           000001H   BYTE   UNIT     XDATA          ?XD?_UART_RS485_SETRXADDRESSMODE?UART_RS485
   *DEL*:           000006H   BYTE   UNIT     CODE           ?PR?_UART_RS485_SETRXADDRESS1?UART_RS485
   *DEL*:           000006H   BYTE   UNIT     CODE           ?PR?_UART_RS485_SETRXADDRESS2?UART_RS485
   *DEL*:           000006H   BYTE   UNIT     CODE           ?PR?_UART_RS485_SETTXINTERRUPTMODE?UART_RS485
   *DEL*:           00000CH   BYTE   UNIT     CODE           ?PR?_UART_RS485_WRITETXDATA?UART_RS485
   *DEL*:           000032H   BYTE   UNIT     CODE           ?PR?_UART_RS485_PUTARRAY?UART_RS485
   *DEL*:           000003H   BYTE   UNIT     XDATA          ?XD?_UART_RS485_PUTARRAY?UART_RS485
   *DEL*:           000014H   BYTE   UNIT     CODE           ?PR?_UART_RS485_PUTCRLF?UART_RS485
   *DEL*:           000017H   BYTE   UNIT     CODE           ?PR?UART_RS485_GETTXBUFFERSIZE?UART_RS485
   *DEL*:           000059H   BYTE   UNIT     CODE           ?PR?_UART_RS485_SENDBREAK?UART_RS485
   *DEL*:           000001H   BYTE   UNIT     XDATA          ?XD?_UART_RS485_SENDBREAK?UART_RS485
   *DEL*:           000006H   BYTE   UNIT     CODE           ?PR?_UART_RS485_SETTXADDRESSMODE?UART_RS485
   *DEL*:           000001H   BYTE   UNIT     XDATA          ?XD?_UART_RS485_SETTXADDRESSMODE?UART_RS485
   *DEL*:           000008H   BYTE   UNIT     CODE           ?PR?PWM_MOTORS_STOP?PWM_MOTORS
   *DEL*:           00000BH   BYTE   UNIT     CODE           ?PR?PWM_MOTORS_READCOUNTER?PWM_MOTORS
   *DEL*:           000006H   BYTE   UNIT     CODE           ?PR?PWM_MOTORS_READCONTROLREGISTER?PWM_MOTORS
   *DEL*:           000006H   BYTE   UNIT     CODE           ?PR?_PWM_MOTORS_WRITECONTROLREGISTER?PWM_MOTORS
   *DEL*:           000006H   BYTE   UNIT     CODE           ?PR?PWM_MOTORS_READCAPTURE?PWM_MOTORS
   *DEL*:           000006H   BYTE   UNIT     CODE           ?PR?PWM_MOTORS_READCOMPARE1?PWM_MOTORS
   *DEL*:           000006H   BYTE   UNIT     CODE           ?PR?PWM_MOTORS_READCOMPARE2?PWM_MOTORS
   *DEL*:           000006H   BYTE   UNIT     CODE           ?PR?PWM_MOTORS_READPERIOD?PWM_MOTORS
   *DEL*:           000013H   BYTE   UNIT     CODE           ?PR?ISR_RS485_RX_START?ISR_RS485_RX
   *DEL*:           000004H   BYTE   UNIT     CODE           ?PR?ISR_RS485_RX_STOP?ISR_RS485_RX
   *DEL*:           00000AH   BYTE   UNIT     CODE           ?PR?ISR_RS485_RX_GETVECTOR?ISR_RS485_RX
   *DEL*:           00000BH   BYTE   UNIT     CODE           ?PR?ISR_RS485_RX_GETPRIORITY?ISR_RS485_RX
LX51 LINKER/LOCATER V4.64.0.0                                                         02/02/2018  18:09:00  PAGE 9


   *DEL*:           00000EH   BYTE   UNIT     CODE           ?PR?ISR_RS485_RX_GETSTATE?ISR_RS485_RX
   *DEL*:           000007H   BYTE   UNIT     CODE           ?PR?ISR_RS485_RX_SETPENDING?ISR_RS485_RX
   *DEL*:           000007H   BYTE   UNIT     CODE           ?PR?ISR_RS485_RX_CLEARPENDING?ISR_RS485_RX
   *DEL*:           00000FH   BYTE   UNIT     CODE           ?PR?CLOCK_UART_START?CLOCK_UART
   *DEL*:           00000FH   BYTE   UNIT     CODE           ?PR?CLOCK_UART_STOP?CLOCK_UART
   *DEL*:           00006DH   BYTE   UNIT     CODE           ?PR?CLOCK_UART_STOPBLOCK?CLOCK_UART
   *DEL*:           000002H   BYTE   UNIT     XDATA          ?XD?CLOCK_UART_STOPBLOCK?CLOCK_UART
   *DEL*:           000013H   BYTE   UNIT     CODE           ?PR?_CLOCK_UART_STANDBYPOWER?CLOCK_UART
   *DEL*:           00000DH   BYTE   UNIT     CODE           ?PR?_CLOCK_UART_SETMODEREGISTER?CLOCK_UART
   *DEL*:           00000EH   BYTE   UNIT     CODE           ?PR?_CLOCK_UART_CLEARMODEREGISTER?CLOCK_UART
   *DEL*:           000008H   BYTE   UNIT     CODE           ?PR?CLOCK_UART_GETMODEREGISTER?CLOCK_UART
   *DEL*:           000062H   BYTE   UNIT     CODE           ?PR?_CLOCK_UART_SETSOURCEREGISTER?CLOCK_UART
   *DEL*:           000003H   BYTE   UNIT     XDATA          ?XD?_CLOCK_UART_SETSOURCEREGISTER?CLOCK_UART
   *DEL*:           000008H   BYTE   UNIT     CODE           ?PR?COUNTER_ENC_STOP?COUNTER_ENC
   *DEL*:           000006H   BYTE   UNIT     CODE           ?PR?COUNTER_ENC_READCONTROLREGISTER?COUNTER_ENC
   *DEL*:           000006H   BYTE   UNIT     CODE           ?PR?_COUNTER_ENC_WRITECONTROLREGISTER?COUNTER_ENC
   *DEL*:           00000BH   BYTE   UNIT     CODE           ?PR?COUNTER_ENC_READCOUNTER?COUNTER_ENC
   *DEL*:           000006H   BYTE   UNIT     CODE           ?PR?COUNTER_ENC_READPERIOD?COUNTER_ENC
   *DEL*:           000006H   BYTE   UNIT     CODE           ?PR?COUNTER_ENC_READCOMPARE?COUNTER_ENC
   *DEL*:           00000BH   BYTE   UNIT     CODE           ?PR?SHIFTREG_ENC_1_STOP?SHIFTREG_ENC_1
   *DEL*:           00000EH   BYTE   UNIT     CODE           ?PR?SHIFTREG_ENC_1_DISABLEINT?SHIFTREG_ENC_1
   *DEL*:           000036H   BYTE   UNIT     CODE           ?PR?_SHIFTREG_ENC_1_GETFIFOSTATUS?SHIFTREG_ENC_1
   *DEL*:           000008H   BYTE   UNIT     CODE           ?PR?SHIFTREG_ENC_1_GETINTSTATUS?SHIFTREG_ENC_1
   *DEL*:           00000AH   BYTE   UNIT     CODE           ?PR?_SHIFTREG_ENC_1_WRITEREGVALUE?SHIFTREG_ENC_1
   *DEL*:           000053H   BYTE   UNIT     CODE           ?PR?SHIFTREG_ENC_1_READREGVALUE?SHIFTREG_ENC_1
   *DEL*:           000004H   BYTE   UNIT     XDATA          ?XD?SHIFTREG_ENC_1_READREGVALUE?SHIFTREG_ENC_1
   *DEL*:           00000BH   BYTE   UNIT     CODE           ?PR?SHIFTREG_ENC_2_STOP?SHIFTREG_ENC_2
   *DEL*:           00000EH   BYTE   UNIT     CODE           ?PR?SHIFTREG_ENC_2_DISABLEINT?SHIFTREG_ENC_2
   *DEL*:           000036H   BYTE   UNIT     CODE           ?PR?_SHIFTREG_ENC_2_GETFIFOSTATUS?SHIFTREG_ENC_2
   *DEL*:           000008H   BYTE   UNIT     CODE           ?PR?SHIFTREG_ENC_2_GETINTSTATUS?SHIFTREG_ENC_2
   *DEL*:           00000AH   BYTE   UNIT     CODE           ?PR?_SHIFTREG_ENC_2_WRITEREGVALUE?SHIFTREG_ENC_2
   *DEL*:           000053H   BYTE   UNIT     CODE           ?PR?SHIFTREG_ENC_2_READREGVALUE?SHIFTREG_ENC_2
   *DEL*:           000004H   BYTE   UNIT     XDATA          ?XD?SHIFTREG_ENC_2_READREGVALUE?SHIFTREG_ENC_2
   *DEL*:           000013H   BYTE   UNIT     CODE           ?PR?SHIFTREG_ENC_3_START?SHIFTREG_ENC_3
   *DEL*:           00000BH   BYTE   UNIT     CODE           ?PR?SHIFTREG_ENC_3_ENABLE?SHIFTREG_ENC_3
   *DEL*:           000006H   BYTE   UNIT     CODE           ?PR?SHIFTREG_ENC_3_INIT?SHIFTREG_ENC_3
   *DEL*:           00000BH   BYTE   UNIT     CODE           ?PR?SHIFTREG_ENC_3_STOP?SHIFTREG_ENC_3
   *DEL*:           00000EH   BYTE   UNIT     CODE           ?PR?SHIFTREG_ENC_3_ENABLEINT?SHIFTREG_ENC_3
   *DEL*:           00000EH   BYTE   UNIT     CODE           ?PR?SHIFTREG_ENC_3_DISABLEINT?SHIFTREG_ENC_3
   *DEL*:           000036H   BYTE   UNIT     CODE           ?PR?_SHIFTREG_ENC_3_GETFIFOSTATUS?SHIFTREG_ENC_3
   *DEL*:           000011H   BYTE   UNIT     CODE           ?PR?_SHIFTREG_ENC_3_SETINTMODE?SHIFTREG_ENC_3
   *DEL*:           000008H   BYTE   UNIT     CODE           ?PR?SHIFTREG_ENC_3_GETINTSTATUS?SHIFTREG_ENC_3
   *DEL*:           00000AH   BYTE   UNIT     CODE           ?PR?_SHIFTREG_ENC_3_WRITEREGVALUE?SHIFTREG_ENC_3
   *DEL*:           000053H   BYTE   UNIT     CODE           ?PR?SHIFTREG_ENC_3_READREGVALUE?SHIFTREG_ENC_3
   *DEL*:           000004H   BYTE   UNIT     XDATA          ?XD?SHIFTREG_ENC_3_READREGVALUE?SHIFTREG_ENC_3
   *DEL*:           000004H   BYTE   UNIT     CODE           ?PR?EEPROM_STOP?EEPROM
   *DEL*:           000124H   BYTE   UNIT     CODE           ?PR?_EEPROM_WRITEBYTE?EEPROM
   *DEL*:           000008H   BYTE   UNIT     XDATA          ?XD?_EEPROM_WRITEBYTE?EEPROM
   *DEL*:           00003AH   BYTE   UNIT     CODE           ?PR?_EEPROM_READBYTE?EEPROM
   *DEL*:           000004H   BYTE   UNIT     XDATA          ?XD?_EEPROM_READBYTE?EEPROM
   *DEL*:           00006FH   BYTE   UNIT     CODE           ?PR?_EEPROM_ERASESECTOR?EEPROM
   *DEL*:           000002H   BYTE   UNIT     XDATA          ?XD?_EEPROM_ERASESECTOR?EEPROM
   *DEL*:           0000B9H   BYTE   UNIT     CODE           ?PR?_EEPROM_STARTWRITE?EEPROM
   *DEL*:           000005H   BYTE   UNIT     XDATA          ?XD?_EEPROM_STARTWRITE?EEPROM
   *DEL*:           000046H   BYTE   UNIT     CODE           ?PR?_EEPROM_STARTERASE?EEPROM
   *DEL*:           000002H   BYTE   UNIT     XDATA          ?XD?_EEPROM_STARTERASE?EEPROM
   *DEL*:           00003BH   BYTE   UNIT     CODE           ?PR?EEPROM_QUERY?EEPROM
   *DEL*:           000001H   BYTE   UNIT     XDATA          ?XD?EEPROM_QUERY?EEPROM
   *DEL*:           0000E5H   BYTE   UNIT     CODE           ?PR?_EEPROM_BYTEWRITEPOS?EEPROM
   *DEL*:           000004H   BYTE   UNIT     XDATA          ?XD?_EEPROM_BYTEWRITEPOS?EEPROM
   *DEL*:           000013H   BYTE   UNIT     CODE           ?PR?SHIFTREG_ENC_4_START?SHIFTREG_ENC_4
   *DEL*:           00000BH   BYTE   UNIT     CODE           ?PR?SHIFTREG_ENC_4_ENABLE?SHIFTREG_ENC_4
   *DEL*:           000006H   BYTE   UNIT     CODE           ?PR?SHIFTREG_ENC_4_INIT?SHIFTREG_ENC_4
   *DEL*:           00000BH   BYTE   UNIT     CODE           ?PR?SHIFTREG_ENC_4_STOP?SHIFTREG_ENC_4
   *DEL*:           00000EH   BYTE   UNIT     CODE           ?PR?SHIFTREG_ENC_4_ENABLEINT?SHIFTREG_ENC_4
LX51 LINKER/LOCATER V4.64.0.0                                                         02/02/2018  18:09:00  PAGE 10


   *DEL*:           00000EH   BYTE   UNIT     CODE           ?PR?SHIFTREG_ENC_4_DISABLEINT?SHIFTREG_ENC_4
   *DEL*:           000036H   BYTE   UNIT     CODE           ?PR?_SHIFTREG_ENC_4_GETFIFOSTATUS?SHIFTREG_ENC_4
   *DEL*:           000011H   BYTE   UNIT     CODE           ?PR?_SHIFTREG_ENC_4_SETINTMODE?SHIFTREG_ENC_4
   *DEL*:           000008H   BYTE   UNIT     CODE           ?PR?SHIFTREG_ENC_4_GETINTSTATUS?SHIFTREG_ENC_4
   *DEL*:           00000AH   BYTE   UNIT     CODE           ?PR?_SHIFTREG_ENC_4_WRITEREGVALUE?SHIFTREG_ENC_4
   *DEL*:           000053H   BYTE   UNIT     CODE           ?PR?SHIFTREG_ENC_4_READREGVALUE?SHIFTREG_ENC_4
   *DEL*:           000004H   BYTE   UNIT     XDATA          ?XD?SHIFTREG_ENC_4_READREGVALUE?SHIFTREG_ENC_4
   *DEL*:           000006H   BYTE   UNIT     CODE           ?PR?RS485_CTS_READ?RS485_CTS
   *DEL*:           000006H   BYTE   UNIT     CODE           ?PR?MOTOR_ON_OFF_READ?MOTOR_ON_OFF
   *DEL*:           0000FBH   BYTE   UNIT     CODE           ?PR?_BOOTLOADABLE_SETFLASHBYTE?BOOTLOADABLE
   *DEL*:           000110H   BYTE   UNIT     XDATA          ?XD?_BOOTLOADABLE_SETFLASHBYTE?BOOTLOADABLE
   *DEL*:           000008H   BYTE   UNIT     CODE           ?PR?MY_TIMER_STOP?MY_TIMER
   *DEL*:           000006H   BYTE   UNIT     CODE           ?PR?MY_TIMER_SOFTWARECAPTURE?MY_TIMER
   *DEL*:           000006H   BYTE   UNIT     CODE           ?PR?MY_TIMER_READCONTROLREGISTER?MY_TIMER
   *DEL*:           000006H   BYTE   UNIT     CODE           ?PR?_MY_TIMER_WRITECONTROLREGISTER?MY_TIMER
   *DEL*:           00000AH   BYTE   UNIT     CODE           ?PR?MY_TIMER_READPERIOD?MY_TIMER
   *DEL*:           000006H   BYTE   UNIT     CODE           ?PR?FTDI_ENABLE_REG_READ?FTDI_ENABLE_REG
   *DEL*:           000016H   BYTE   UNIT     CODE           ?PR?PACER_TIMER_STOP?PACER_TIMER
   *DEL*:           00000AH   BYTE   UNIT     CODE           ?PR?PACER_TIMER_SOFTWARECAPTURE?PACER_TIMER
   *DEL*:           000006H   BYTE   UNIT     CODE           ?PR?PACER_TIMER_READSTATUSREGISTER?PACER_TIMER
   *DEL*:           000006H   BYTE   UNIT     CODE           ?PR?PACER_TIMER_READCONTROLREGISTER?PACER_TIMER
   *DEL*:           000006H   BYTE   UNIT     CODE           ?PR?_PACER_TIMER_WRITECONTROLREGISTER?PACER_TIMER
   *DEL*:           00000AH   BYTE   UNIT     CODE           ?PR?PACER_TIMER_READPERIOD?PACER_TIMER
   *DEL*:           00000AH   BYTE   UNIT     CODE           ?PR?PACER_TIMER_READCAPTURE?PACER_TIMER
   *DEL*:           000013H   BYTE   UNIT     CODE           ?PR?PACER_TIMER_READCOUNTER?PACER_TIMER
   *DEL*:           00000EH   BYTE   UNIT     CODE           ?PR?FF_STATUS_INTERRUPTENABLE?FF_STATUS
   *DEL*:           00000EH   BYTE   UNIT     CODE           ?PR?FF_STATUS_INTERRUPTDISABLE?FF_STATUS
   *DEL*:           000009H   BYTE   UNIT     CODE           ?PR?_FF_STATUS_WRITEMASK?FF_STATUS
   *DEL*:           000006H   BYTE   UNIT     CODE           ?PR?FF_STATUS_READMASK?FF_STATUS
   *DEL*:           000006H   BYTE   UNIT     CODE           ?PR?RESET_FF_READ?RESET_FF
   *DEL*:           000006H   BYTE   UNIT     CODE           ?PR?MOTOR_DIR_READ?MOTOR_DIR
   *DEL*:           00000EH   BYTE   UNIT     CODE           ?PR?ADC_STATUS_INTERRUPTENABLE?ADC_STATUS
   *DEL*:           00000EH   BYTE   UNIT     CODE           ?PR?ADC_STATUS_INTERRUPTDISABLE?ADC_STATUS
   *DEL*:           000009H   BYTE   UNIT     CODE           ?PR?_ADC_STATUS_WRITEMASK?ADC_STATUS
   *DEL*:           000006H   BYTE   UNIT     CODE           ?PR?ADC_STATUS_READMASK?ADC_STATUS
   *DEL*:           000088H   BYTE   UNIT     CODE           ?PR?ADC_STOP?ADC
   *DEL*:           000001H   BYTE   UNIT     XDATA          ?XD?ADC_STOP?ADC
   *DEL*:           000012H   BYTE   UNIT     CODE           ?PR?_ADC_SETBUFFERGAIN?ADC
   *DEL*:           00000EH   BYTE   UNIT     CODE           ?PR?_ADC_SETCOHERENCY?ADC
   *DEL*:           0000F2H   BYTE   UNIT     CODE           ?PR?_ADC_SETGCOR?ADC
   *DEL*:           00000BH   BYTE   UNIT     XDATA          ?XD?_ADC_SETGCOR?ADC
   *DEL*:           000039H   BYTE   UNIT     CODE           ?PR?ADC_READGCOR?ADC
   *DEL*:           000001H   BYTE   UNIT     XDATA          ?XD?ADC_READGCOR?ADC
   *DEL*:           000008H   BYTE   UNIT     CODE           ?PR?ADC_STARTCONVERT?ADC
   *DEL*:           000008H   BYTE   UNIT     CODE           ?PR?ADC_STOPCONVERT?ADC
   *DEL*:           00001FH   BYTE   UNIT     CODE           ?PR?_ADC_ISENDCONVERSION?ADC
   *DEL*:           00002CH   BYTE   UNIT     CODE           ?PR?ADC_GETRESULT8?ADC
   *DEL*:           000060H   BYTE   UNIT     CODE           ?PR?ADC_GETRESULT16?ADC
   *DEL*:           000003H   BYTE   UNIT     XDATA          ?XD?ADC_GETRESULT16?ADC
   *DEL*:           0001B4H   BYTE   UNIT     CODE           ?PR?ADC_GETRESULT32?ADC
   *DEL*:           000007H   BYTE   UNIT     XDATA          ?XD?ADC_GETRESULT32?ADC
   *DEL*:           000007H   BYTE   UNIT     CODE           ?PR?_ADC_SETOFFSET?ADC
   *DEL*:           000007H   BYTE   UNIT     CODE           ?PR?_ADC_SETGAIN?ADC
   *DEL*:           00005FH   BYTE   UNIT     CODE           ?PR?_ADC_COUNTSTO_MVOLTS?ADC
   *DEL*:           000004H   BYTE   UNIT     XDATA          ?XD?_ADC_COUNTSTO_MVOLTS?ADC
   *DEL*:           00006DH   BYTE   UNIT     CODE           ?PR?_ADC_COUNTSTO_VOLTS?ADC
   *DEL*:           000004H   BYTE   UNIT     XDATA          ?XD?_ADC_COUNTSTO_VOLTS?ADC
   *DEL*:           000137H   BYTE   UNIT     CODE           ?PR?_ADC_COUNTSTO_UVOLTS?ADC
   *DEL*:           00000DH   BYTE   UNIT     XDATA          ?XD?_ADC_COUNTSTO_UVOLTS?ADC
   *DEL*:           000072H   BYTE   UNIT     CODE           ?PR?_ADC_SELECTCONFIGURATION?ADC
   *DEL*:           000002H   BYTE   UNIT     XDATA          ?XD?_ADC_SELECTCONFIGURATION?ADC
   *DEL*:           000016H   BYTE   UNIT     CODE           ?PR?ADC_READ8?ADC
   *DEL*:           000016H   BYTE   UNIT     CODE           ?PR?ADC_READ16?ADC
   *DEL*:           000016H   BYTE   UNIT     CODE           ?PR?ADC_READ32?ADC
   *DEL*:           000009H   BYTE   UNIT     CODE           ?PR?DMA_DMARELEASE?DMA_DMA
LX51 LINKER/LOCATER V4.64.0.0                                                         02/02/2018  18:09:00  PAGE 11


   *DEL*:           000006H   BYTE   UNIT     CODE           ?PR?ADC_SOC_READ?ADC_SOC
   *DEL*:           000013H   BYTE   UNIT     CODE           ?PR?ISR_WATCHDOG_START?ISR_WATCHDOG
   *DEL*:           000004H   BYTE   UNIT     CODE           ?PR?ISR_WATCHDOG_STOP?ISR_WATCHDOG
   *DEL*:           00000AH   BYTE   UNIT     CODE           ?PR?ISR_WATCHDOG_GETVECTOR?ISR_WATCHDOG
   *DEL*:           00000BH   BYTE   UNIT     CODE           ?PR?ISR_WATCHDOG_GETPRIORITY?ISR_WATCHDOG
   *DEL*:           00000EH   BYTE   UNIT     CODE           ?PR?ISR_WATCHDOG_GETSTATE?ISR_WATCHDOG
   *DEL*:           000007H   BYTE   UNIT     CODE           ?PR?ISR_WATCHDOG_SETPENDING?ISR_WATCHDOG
   *DEL*:           000007H   BYTE   UNIT     CODE           ?PR?ISR_WATCHDOG_CLEARPENDING?ISR_WATCHDOG
   *DEL*:           000016H   BYTE   UNIT     CODE           ?PR?WATCHDOG_COUNTER_STOP?WATCHDOG_COUNTER
   *DEL*:           000006H   BYTE   UNIT     CODE           ?PR?WATCHDOG_COUNTER_READSTATUSREGISTER?WATCHDOG_COUNTER
   *DEL*:           000006H   BYTE   UNIT     CODE           ?PR?WATCHDOG_COUNTER_READCONTROLREGISTER?WATCHDOG_COUNTER
   *DEL*:           000006H   BYTE   UNIT     CODE           ?PR?_WATCHDOG_COUNTER_WRITECONTROLREGISTER?WATCHDOG_COUNTE
                                                             -R
   *DEL*:           000013H   BYTE   UNIT     CODE           ?PR?WATCHDOG_COUNTER_READCOUNTER?WATCHDOG_COUNTER
   *DEL*:           00000AH   BYTE   UNIT     CODE           ?PR?WATCHDOG_COUNTER_READCAPTURE?WATCHDOG_COUNTER
   *DEL*:           00000AH   BYTE   UNIT     CODE           ?PR?WATCHDOG_COUNTER_READPERIOD?WATCHDOG_COUNTER
   *DEL*:           000006H   BYTE   UNIT     CODE           ?PR?WATCHDOG_ENABLER_READ?WATCHDOG_ENABLER
   *DEL*:           000006H   BYTE   UNIT     CODE           ?PR?WATCHDOG_REFRESH_READ?WATCHDOG_REFRESH
   *DEL*:           000012H   BYTE   UNIT     CODE           ?PR?CYDMACERROR?CYDMAC
   *DEL*:           000010H   BYTE   UNIT     CODE           ?PR?_CYDMACCLEARERROR?CYDMAC
   *DEL*:           00000AH   BYTE   UNIT     CODE           ?PR?CYDMACERRORADDRESS?CYDMAC
   *DEL*:           0000BEH   BYTE   UNIT     CODE           ?PR?CYDMACHALLOC?CYDMAC
   *DEL*:           000006H   BYTE   UNIT     XDATA          ?XD?CYDMACHALLOC?CYDMAC
   *DEL*:           000064H   BYTE   UNIT     CODE           ?PR?_CYDMACHFREE?CYDMAC
   *DEL*:           000003H   BYTE   UNIT     XDATA          ?XD?_CYDMACHFREE?CYDMAC
   *DEL*:           000033H   BYTE   UNIT     CODE           ?PR?_CYDMACHDISABLE?CYDMAC
   *DEL*:           000033H   BYTE   UNIT     CODE           ?PR?_CYDMACLEARPENDINGDRQ?CYDMAC
   *DEL*:           000025H   BYTE   UNIT     CODE           ?PR?_CYDMACHSETREQUEST?CYDMAC
   *DEL*:           000024H   BYTE   UNIT     CODE           ?PR?_CYDMACHGETREQUEST?CYDMAC
   *DEL*:           000072H   BYTE   UNIT     CODE           ?PR?_CYDMACHSTATUS?CYDMAC
   *DEL*:           000007H   BYTE   UNIT     XDATA          ?XD?_CYDMACHSTATUS?CYDMAC
   *DEL*:           00003EH   BYTE   UNIT     CODE           ?PR?_CYDMATDFREE?CYDMAC
   *DEL*:           000002H   BYTE   UNIT     XDATA          ?XD?_CYDMATDFREE?CYDMAC
   *DEL*:           000009H   BYTE   UNIT     CODE           ?PR?CYDMATDFREECOUNT?CYDMAC
   *DEL*:           0000C9H   BYTE   UNIT     CODE           ?PR?_CYDMATDGETCONFIGURATION?CYDMAC
   *DEL*:           00000DH   BYTE   UNIT     XDATA          ?XD?_CYDMATDGETCONFIGURATION?CYDMAC
   *DEL*:           0000A6H   BYTE   UNIT     CODE           ?PR?_CYDMATDGETADDRESS?CYDMAC
   *DEL*:           00000AH   BYTE   UNIT     XDATA          ?XD?_CYDMATDGETADDRESS?CYDMAC
   *DEL*:           000038H   BYTE   UNIT     CODE           ?PR?_CYDMACHROUNDROBIN?CYDMAC
   *DEL*:           00006EH   BYTE   UNIT     CODE           ?PR?_CYPLL_OUT_START?CYLIB
   *DEL*:           000004H   BYTE   UNIT     XDATA          ?XD?_CYPLL_OUT_START?CYLIB
   *DEL*:           000008H   BYTE   UNIT     CODE           ?PR?CYPLL_OUT_STOP?CYLIB
   *DEL*:           000036H   BYTE   UNIT     CODE           ?PR?_CYPLL_OUT_SETPQ?CYLIB
   *DEL*:           000010H   BYTE   UNIT     CODE           ?PR?_CYPLL_OUT_SETSOURCE?CYLIB
   *DEL*:           000053H   BYTE   UNIT     CODE           ?PR?_CYIMO_START?CYLIB
   *DEL*:           000003H   BYTE   UNIT     XDATA          ?XD?_CYIMO_START?CYLIB
   *DEL*:           00000FH   BYTE   UNIT     CODE           ?PR?CYIMO_STOP?CYLIB
   *DEL*:           000027H   BYTE   UNIT     CODE           ?PR?CYUSB_POWERONCHECK?CYLIB
   *DEL*:           0000B6H   BYTE   UNIT     CODE           ?PR?_CYIMO_SETTRIMVALUE?CYLIB
   *DEL*:           000001H   BYTE   UNIT     XDATA          ?XD?_CYIMO_SETTRIMVALUE?CYLIB
   *DEL*:           000118H   BYTE   UNIT     CODE           ?PR?_CYIMO_SETFREQ?CYLIB
   *DEL*:           000003H   BYTE   UNIT     XDATA          ?XD?_CYIMO_SETFREQ?CYLIB
   *DEL*:           00002FH   BYTE   UNIT     CODE           ?PR?_CYIMO_SETSOURCE?CYLIB
   *DEL*:           000008H   BYTE   UNIT     CODE           ?PR?CYIMO_ENABLEDOUBLER?CYLIB
   *DEL*:           000008H   BYTE   UNIT     CODE           ?PR?CYIMO_DISABLEDOUBLER?CYLIB
   *DEL*:           00000DH   BYTE   UNIT     CODE           ?PR?_CYMASTERCLK_SETSOURCE?CYLIB
   *DEL*:           000006H   BYTE   UNIT     CODE           ?PR?_CYMASTERCLK_SETDIVIDER?CYLIB
   *DEL*:           000023H   BYTE   UNIT     CODE           ?PR?_CYBUSCLK_INTERNAL_SETDIVIDER?CYLIB
   *DEL*:           00007AH   BYTE   UNIT     CODE           ?PR?_CYBUSCLK_SETDIVIDER?CYLIB
   *DEL*:           000002H   BYTE   UNIT     XDATA          ?XD?_CYBUSCLK_SETDIVIDER?CYLIB
   *DEL*:           00000EH   BYTE   UNIT     CODE           ?PR?_CYCPUCLK_SETDIVIDER?CYLIB
   *DEL*:           00000DH   BYTE   UNIT     CODE           ?PR?_CYUSBCLK_SETSOURCE?CYLIB
   *DEL*:           000008H   BYTE   UNIT     CODE           ?PR?CYILO_START1K?CYLIB
   *DEL*:           000008H   BYTE   UNIT     CODE           ?PR?CYILO_STOP1K?CYLIB
   *DEL*:           000008H   BYTE   UNIT     CODE           ?PR?CYILO_START100K?CYLIB
LX51 LINKER/LOCATER V4.64.0.0                                                         02/02/2018  18:09:00  PAGE 12


   *DEL*:           000008H   BYTE   UNIT     CODE           ?PR?CYILO_STOP100K?CYLIB
   *DEL*:           000008H   BYTE   UNIT     CODE           ?PR?CYILO_ENABLE33K?CYLIB
   *DEL*:           000008H   BYTE   UNIT     CODE           ?PR?CYILO_DISABLE33K?CYLIB
   *DEL*:           000011H   BYTE   UNIT     CODE           ?PR?_CYILO_SETSOURCE?CYLIB
   *DEL*:           000029H   BYTE   UNIT     CODE           ?PR?_CYILO_SETPOWERMODE?CYLIB
   *DEL*:           00005EH   BYTE   UNIT     CODE           ?PR?CYXTAL_32KHZ_START?CYLIB
   *DEL*:           000002H   BYTE   UNIT     XDATA          ?XD?CYXTAL_32KHZ_START?CYLIB
   *DEL*:           000020H   BYTE   UNIT     CODE           ?PR?CYXTAL_32KHZ_STOP?CYLIB
   *DEL*:           000008H   BYTE   UNIT     CODE           ?PR?CYXTAL_32KHZ_READSTATUS?CYLIB
   *DEL*:           000066H   BYTE   UNIT     CODE           ?PR?_CYXTAL_32KHZ_SETPOWERMODE?CYLIB
   *DEL*:           000001H   BYTE   UNIT     XDATA          ?XD?_CYXTAL_32KHZ_SETPOWERMODE?CYLIB
   *DEL*:           0000A0H   BYTE   UNIT     CODE           ?PR?_CYXTAL_START?CYLIB
   *DEL*:           000006H   BYTE   UNIT     XDATA          ?XD?_CYXTAL_START?CYLIB
   *DEL*:           000008H   BYTE   UNIT     CODE           ?PR?CYXTAL_STOP?CYLIB
   *DEL*:           000008H   BYTE   UNIT     CODE           ?PR?CYXTAL_ENABLEERRSTATUS?CYLIB
   *DEL*:           000008H   BYTE   UNIT     CODE           ?PR?CYXTAL_DISABLEERRSTATUS?CYLIB
   *DEL*:           00000FH   BYTE   UNIT     CODE           ?PR?CYXTAL_READSTATUS?CYLIB
   *DEL*:           000008H   BYTE   UNIT     CODE           ?PR?CYXTAL_ENABLEFAULTRECOVERY?CYLIB
   *DEL*:           000008H   BYTE   UNIT     CODE           ?PR?CYXTAL_DISABLEFAULTRECOVERY?CYLIB
   *DEL*:           00000DH   BYTE   UNIT     CODE           ?PR?_CYXTAL_SETSTARTUP?CYLIB
   *DEL*:           00000DH   BYTE   UNIT     CODE           ?PR?_CYXTAL_SETFBVOLTAGE?CYLIB
   *DEL*:           00000EH   BYTE   UNIT     CODE           ?PR?_CYXTAL_SETWDVOLTAGE?CYLIB
   *DEL*:           000015H   BYTE   UNIT     CODE           ?PR?_?CYHALT?CYLIB
   *DEL*:           0000B8H   BYTE   UNIT     CODE           ?PR?_?CYDELAYFREQ?CYLIB
   *DEL*:           000026H   BYTE   UNIT     CODE           ?PR?_CYWDTSTART?CYLIB
   *DEL*:           000007H   BYTE   UNIT     CODE           ?PR?CYWDTCLEAR?CYLIB
   *DEL*:           000084H   BYTE   UNIT     CODE           ?PR?_CYVDLVDIGITENABLE?CYLIB
   *DEL*:           000007H   BYTE   UNIT     XDATA          ?XD?_CYVDLVDIGITENABLE?CYLIB
   *DEL*:           000083H   BYTE   UNIT     CODE           ?PR?_CYVDLVANALOGENABLE?CYLIB
   *DEL*:           000007H   BYTE   UNIT     XDATA          ?XD?_CYVDLVANALOGENABLE?CYLIB
   *DEL*:           00001DH   BYTE   UNIT     CODE           ?PR?CYVDLVDIGITDISABLE?CYLIB
   *DEL*:           000018H   BYTE   UNIT     CODE           ?PR?CYVDLVANALOGDISABLE?CYLIB
   *DEL*:           000056H   BYTE   UNIT     CODE           ?PR?CYVDHVANALOGENABLE?CYLIB
   *DEL*:           000005H   BYTE   UNIT     XDATA          ?XD?CYVDHVANALOGENABLE?CYLIB
   *DEL*:           000011H   BYTE   UNIT     CODE           ?PR?CYVDHVANALOGDISABLE?CYLIB
   *DEL*:           000039H   BYTE   UNIT     CODE           ?PR?_CYVDSTICKYSTATUS?CYLIB
   *DEL*:           000002H   BYTE   UNIT     XDATA          ?XD?_CYVDSTICKYSTATUS?CYLIB
   *DEL*:           000018H   BYTE   UNIT     CODE           ?PR?CYVDREALTIMESTATUS?CYLIB
   *DEL*:           000001H   BYTE   UNIT     XDATA          ?XD?CYVDREALTIMESTATUS?CYLIB
   *DEL*:           0000D0H   BYTE   UNIT     CODE           ?PR?CYDISABLEINTS?CYLIB
   *DEL*:           000005H   BYTE   UNIT     XDATA          ?XD?CYDISABLEINTS?CYLIB
   *DEL*:           000067H   BYTE   UNIT     CODE           ?PR?_CYENABLEINTS?CYLIB
   *DEL*:           000004H   BYTE   UNIT     XDATA          ?XD?_CYENABLEINTS?CYLIB
   *DEL*:           000018H   BYTE   UNIT     CODE           ?PR?_CYINTGETVECTOR?CYLIB
   *DEL*:           000014H   BYTE   UNIT     CODE           ?PR?_CYINTGETPRIORITY?CYLIB
   *DEL*:           000036H   BYTE   UNIT     CODE           ?PR?_CYINTGETSTATE?CYLIB
   *DEL*:           000248H   BYTE   UNIT     CODE           ?PR?_CYGETUNIQUEID?CYLIB
   *DEL*:           000003H   BYTE   UNIT     XDATA          ?XD?_CYGETUNIQUEID?CYLIB
   *DEL*:           000004H   BYTE   UNIT     CODE           ?PR?_CyDelay?CYBOOTASMKEIL
   *DEL*:           000019H   BYTE   UNIT     CODE           ?PR?CYMEMZERO?CYMEM
   *DEL*:           00002DH   BYTE   UNIT     CODE           ?PR?CFG_WRITE_BYTES?CYMEM
   *DEL*:           00002EH   BYTE   UNIT     CODE           ?PR?CY_WRITE_BYTES_CODE?CYMEM
   *DEL*:           000015H   BYTE   UNIT     CODE           ?PR?CYREAD32?CYMEM
   *DEL*:           000015H   BYTE   UNIT     CODE           ?PR?CYWRITE32?CYMEM
   *DEL*:           000021H   BYTE   UNIT     CODE           ?PR?_ADC_AMUX_FASTSELECT?ADC_AMUX
   *DEL*:           000001H   BYTE   UNIT     XDATA          ?XD?_ADC_AMUX_FASTSELECT?ADC_AMUX
   *DEL*:           00000FH   BYTE   UNIT     CODE           ?PR?ADC_EXT_CP_CLK_START?ADC_EXT_CP_CLK
   *DEL*:           00000FH   BYTE   UNIT     CODE           ?PR?ADC_EXT_CP_CLK_STOP?ADC_EXT_CP_CLK
   *DEL*:           00006EH   BYTE   UNIT     CODE           ?PR?ADC_EXT_CP_CLK_STOPBLOCK?ADC_EXT_CP_CLK
   *DEL*:           000002H   BYTE   UNIT     XDATA          ?XD?ADC_EXT_CP_CLK_STOPBLOCK?ADC_EXT_CP_CLK
   *DEL*:           000013H   BYTE   UNIT     CODE           ?PR?_ADC_EXT_CP_CLK_STANDBYPOWER?ADC_EXT_CP_CLK
   *DEL*:           00000EH   BYTE   UNIT     CODE           ?PR?_ADC_EXT_CP_CLK_CLEARMODEREGISTER?ADC_EXT_CP_CLK
   *DEL*:           000008H   BYTE   UNIT     CODE           ?PR?ADC_EXT_CP_CLK_GETMODEREGISTER?ADC_EXT_CP_CLK
   *DEL*:           000062H   BYTE   UNIT     CODE           ?PR?_ADC_EXT_CP_CLK_SETSOURCEREGISTER?ADC_EXT_CP_CLK
   *DEL*:           000003H   BYTE   UNIT     XDATA          ?XD?_ADC_EXT_CP_CLK_SETSOURCEREGISTER?ADC_EXT_CP_CLK
LX51 LINKER/LOCATER V4.64.0.0                                                         02/02/2018  18:09:00  PAGE 13


   *DEL*:           00000FH   BYTE   UNIT     CODE           ?PR?ADC_THEACLK_START?ADC_THEACLK
   *DEL*:           00000FH   BYTE   UNIT     CODE           ?PR?ADC_THEACLK_STOP?ADC_THEACLK
   *DEL*:           00006CH   BYTE   UNIT     CODE           ?PR?ADC_THEACLK_STOPBLOCK?ADC_THEACLK
   *DEL*:           000002H   BYTE   UNIT     XDATA          ?XD?ADC_THEACLK_STOPBLOCK?ADC_THEACLK
   *DEL*:           000013H   BYTE   UNIT     CODE           ?PR?_ADC_THEACLK_STANDBYPOWER?ADC_THEACLK
   *DEL*:           00000EH   BYTE   UNIT     CODE           ?PR?_ADC_THEACLK_CLEARMODEREGISTER?ADC_THEACLK
   *DEL*:           000008H   BYTE   UNIT     CODE           ?PR?ADC_THEACLK_GETMODEREGISTER?ADC_THEACLK
   *DEL*:           000062H   BYTE   UNIT     CODE           ?PR?_ADC_THEACLK_SETSOURCEREGISTER?ADC_THEACLK
   *DEL*:           000003H   BYTE   UNIT     XDATA          ?XD?_ADC_THEACLK_SETSOURCEREGISTER?ADC_THEACLK
   *DEL*:           000008H   BYTE   UNIT     CODE           ?PR?_ADC_THEACLK_SETPHASEREGISTER?ADC_THEACLK
   *DEL*:           000008H   BYTE   UNIT     CODE           ?PR?ADC_THEACLK_GETPHASEREGISTER?ADC_THEACLK
   *DEL*:           000031H   BYTE   UNIT     CODE           ?PR?CYFLASH_START?CYFLASH
   *DEL*:           000015H   BYTE   UNIT     CODE           ?PR?CYFLASH_STOP?CYFLASH
   *DEL*:           00007DH   BYTE   UNIT     CODE           ?PR?_CYSETFLASHEEBUFFER?CYFLASH
   *DEL*:           000004H   BYTE   UNIT     XDATA          ?XD?_CYSETFLASHEEBUFFER?CYFLASH
   *DEL*:           000034H   BYTE   UNIT     CODE           ?PR?_CYWRITEROWDATA?CYFLASH
   *DEL*:           000003H   BYTE   UNIT     XDATA          ?XD?_CYWRITEROWDATA?CYFLASH
   *DEL*:           000190H   BYTE   UNIT     CODE           ?PR?_CYWRITEROWFULL?CYFLASH
   *DEL*:           000009H   BYTE   UNIT     XDATA          ?XD?_CYWRITEROWFULL?CYFLASH
   *DEL*:           000044H   BYTE   UNIT     CODE           ?PR?_CYFLASH_SETWAITCYCLES?CYFLASH
   *DEL*:           000001H   BYTE   UNIT     XDATA          ?XD?_CYFLASH_SETWAITCYCLES?CYFLASH
   *DEL*:           000015H   BYTE   UNIT     CODE           ?PR?CYEEPROM_STOP?CYFLASH
   *DEL*:           000010H   BYTE   UNIT     CODE           ?PR?CYEEPROM_READRESERVE?CYFLASH
   *DEL*:           000008H   BYTE   UNIT     CODE           ?PR?CYEEPROM_READRELEASE?CYFLASH
   *DEL*:           0001A9H   BYTE   UNIT     CODE           ?PR?CYPMSAVECLOCKS?CYPM
   *DEL*:           00024CH   BYTE   UNIT     CODE           ?PR?CYPMRESTORECLOCKS?CYPM
   *DEL*:           000003H   BYTE   UNIT     XDATA          ?XD?CYPMRESTORECLOCKS?CYPM
   *DEL*:           0000E0H   BYTE   UNIT     CODE           ?PR?_CYPMALTACT?CYPM
   *DEL*:           000004H   BYTE   UNIT     XDATA          ?XD?_CYPMALTACT?CYPM
   *DEL*:           000160H   BYTE   UNIT     CODE           ?PR?_CYPMSLEEP?CYPM
   *DEL*:           000004H   BYTE   UNIT     XDATA          ?XD?_CYPMSLEEP?CYPM
   *DEL*:           000008H   BYTE   UNIT     CODE           ?PR?CYPMHIBERNATE?CYPM
   *DEL*:           0000D6H   BYTE   UNIT     CODE           ?PR?_CYPMHIBERNATEEX?CYPM
   *DEL*:           000003H   BYTE   UNIT     XDATA          ?XD?_CYPMHIBERNATEEX?CYPM
   *DEL*:           000039H   BYTE   UNIT     CODE           ?PR?_CYPMREADSTATUS?CYPM
   *DEL*:           000002H   BYTE   UNIT     XDATA          ?XD?_CYPMREADSTATUS?CYPM
   *DEL*:           000076H   BYTE   UNIT     CODE           ?PR?CYPMHIBSAVESET?CYPM
   *DEL*:           000040H   BYTE   UNIT     CODE           ?PR?CYPMHIBRESTORE?CYPM
   *DEL*:           000049H   BYTE   UNIT     CODE           ?PR?_CYPMCTWSETINTERVAL?CYPM
   *DEL*:           000001H   BYTE   UNIT     XDATA          ?XD?_CYPMCTWSETINTERVAL?CYPM
   *DEL*:           000017H   BYTE   UNIT     CODE           ?PR?CYPMOPPSSET?CYPM
   *DEL*:           00004DH   BYTE   UNIT     CODE           ?PR?_CYPMFTWSETINTERVAL?CYPM
   *DEL*:           000001H   BYTE   UNIT     XDATA          ?XD?_CYPMFTWSETINTERVAL?CYPM
   *DEL*:           00018CH   BYTE   UNIT     CODE           ?PR?CYPMHIBSLPSAVESET?CYPM
   *DEL*:           00010DH   BYTE   UNIT     CODE           ?PR?CYPMHIBSLPRESTORE?CYPM
   *DEL*:           000082H   BYTE   UNIT     CODE           ?PR?CYPMHVILVISAVEDISABLE?CYPM
   *DEL*:           000033H   BYTE   UNIT     CODE           ?PR?CYPMHVILVIRESTORE?CYPM
   *DEL*:           00000EH   BYTE   UNIT     CONST          ?CO?CYPM
   *DEL*:           000015H   BYTE   UNIT     CODE           ?PR?CYSPCSTOP?CYSPC
   *DEL*:           0000A7H   BYTE   UNIT     CODE           ?PR?_CYSPCLOADMULTIBYTE?CYSPC
   *DEL*:           000007H   BYTE   UNIT     XDATA          ?XD?_CYSPCLOADMULTIBYTE?CYSPC
   *DEL*:           000143H   BYTE   UNIT     CODE           ?PR?_CYSPCLOADROWFULL?CYSPC
   *DEL*:           00000FH   BYTE   UNIT     XDATA          ?XD?_CYSPCLOADROWFULL?CYSPC
   *DEL*:           000030H   BYTE   UNIT     CODE           ?PR?_CYSPCERASESECTOR?CYSPC



OVERLAY MAP OF MODULE:   .\DP8051_Keil_951\Release\cuff_mod_firmware.omf (COMMAND_PROCESSING)


FUNCTION/MODULE                                BIT_GROUP   DATA_GROUP   IDATA_GROUP  XDATA_GROUP
--> CALLED FUNCTION/MODULE                    START  STOP  START  STOP  START  STOP  START  STOP
================================================================================================
ISR_WATCHDOG_HANDLER/INTERRUPTIONS            ----- -----  ----- -----  ----- -----  ----- -----

LX51 LINKER/LOCATER V4.64.0.0                                                         02/02/2018  18:09:00  PAGE 14


*** NEW ROOT ********************************

ISR_RS485_RX_EXINTERRUPT/INTERRUPTIONS        ----- -----  ----- -----  ----- -----  ----- -----

*** NEW ROOT ********************************

ISR_RS485_RX_INTERRUPT/ISR_RS485_RX           ----- -----  ----- -----  ----- -----  ----- -----

*** NEW ROOT ********************************

ISR_WATCHDOG_INTERRUPT/ISR_WATCHDOG           ----- -----  ----- -----  ----- -----  ----- -----

*** NEW ROOT ********************************

?C_C51STARTUP                                 ----- -----  ----- -----  ----- -----  ----- -----
  +--> ?CO?KEILSTART?3
  +--> CYFITTER_CFG/CYFITTER_CFG
  +--> CYDMACCONFIGURE/CYDMAC
  +--> MAIN/MAIN
  +--> ?C_INITSEG

?CO?KEILSTART?3                               ----- -----  ----- -----  ----- -----  ----- -----

CYFITTER_CFG/CYFITTER_CFG                     ----- -----  ----- -----  ----- -----  ----- -----
  +--> CYREAD8/CYMEM
  +--> CYWRITE8/CYMEM
  +--> CFG_DMA_INIT/CYFITTER_CFG
  +--> ?CO?CYFITTER_CFG
  +--> CYCONFIGCPYCODE/CYMEM
  +--> _CYCONFIGCPY/CYMEM
  +--> CLOCKSETUP/CYFITTER_CFG
  +--> ANALOGSETDEFAULT/CYFITTER_CFG

CYREAD8/CYMEM                                 ----- -----  ----- -----  ----- -----  ----- -----

CYWRITE8/CYMEM                                ----- -----  ----- -----  ----- -----  ----- -----

CFG_DMA_INIT/CYFITTER_CFG                     ----- -----  ----- -----  ----- -----  ----- -----
  +--> CYWRITE16/CYMEM
  +--> ?CO?CYFITTER_CFG
  +--> _CYCONFIGCPY/CYMEM

CYWRITE16/CYMEM                               ----- -----  ----- -----  ----- -----  ----- -----

?CO?CYFITTER_CFG                              ----- -----  ----- -----  ----- -----  ----- -----

_CYCONFIGCPY/CYMEM                            ----- -----  ----- -----  ----- -----  0000H 0007H

CYCONFIGCPYCODE/CYMEM                         ----- -----  ----- -----  ----- -----  ----- -----

CLOCKSETUP/CYFITTER_CFG                       ----- -----  ----- -----  ----- -----  0000H 0004H
  +--> CYWRITE16/CYMEM
  +--> ?CO?CYFITTER_CFG
  +--> CYCONFIGCPYCODE/CYMEM
  +--> CYREAD8/CYMEM
  +--> CYDELAYCYCLES/CYBOOTASMKEIL
  +--> _CYCLOCKSTARTUPERROR/CYFITTER_CFG

CYDELAYCYCLES/CYBOOTASMKEIL                   ----- -----  ----- -----  ----- -----  ----- -----

_CYCLOCKSTARTUPERROR/CYFITTER_CFG             ----- -----  ----- -----  ----- -----  ----- -----

ANALOGSETDEFAULT/CYFITTER_CFG                 ----- -----  ----- -----  ----- -----  ----- -----
  +--> CYREAD8/CYMEM

LX51 LINKER/LOCATER V4.64.0.0                                                         02/02/2018  18:09:00  PAGE 15


CYDMACCONFIGURE/CYDMAC                        ----- -----  ----- -----  ----- -----  ----- -----

MAIN/MAIN                                     ----- -----  ----- -----  ----- -----  0000H 0002H
  +--> EEPROM_START/EEPROM
  +--> MEMRECALL/COMMAND_PROCESSING
  +--> _?CYDELAY/CYLIB
  +--> _FTDI_ENABLE_REG_WRITE/FTDI_ENABLE_REG
  +--> UART_RS485_STOP/UART_RS485
  +--> UART_RS485_START/UART_RS485
  +--> UART_RS485_INIT/UART_RS485
  +--> UART_RS485_CLEARRXBUFFER/UART_RS485
  +--> UART_RS485_CLEARTXBUFFER/UART_RS485
  +--> _ISR_RS485_RX_STARTEX/ISR_RS485_RX
  +--> WATCHDOG_COUNTER_START/WATCHDOG_COUNTER
  +--> _ISR_WATCHDOG_STARTEX/ISR_WATCHDOG
  +--> PWM_MOTORS_START/PWM_MOTORS
  +--> _PWM_MOTORS_WRITECOMPARE1/PWM_MOTORS
  +--> _PWM_MOTORS_WRITECOMPARE2/PWM_MOTORS
  +--> _MOTOR_DIR_WRITE/MOTOR_DIR
  +--> _MOTOR_ON_OFF_WRITE/MOTOR_ON_OFF
  +--> COUNTER_ENC_START/COUNTER_ENC
  +--> SHIFTREG_ENC_1_START/SHIFTREG_ENC_1
  +--> SHIFTREG_ENC_2_START/SHIFTREG_ENC_2
  +--> ADC_START/ADC
  +--> _ADC_SOC_WRITE/ADC_SOC
  +--> _DMA_DMAINITIALIZE/DMA_DMA
  +--> CYDMATDALLOCATE/CYDMAC
  +--> _CYDMATDSETCONFIGURATION/CYDMAC
  +--> _CYDMATDSETADDRESS/CYDMAC
  +--> _CYDMACHSETINITIALTD/CYDMAC
  +--> _CYDMACHENABLE/CYDMAC
  +--> _RS485_CTS_WRITE/RS485_CTS
  +--> MY_TIMER_START/MY_TIMER
  +--> PACER_TIMER_START/PACER_TIMER
  +--> _MEMSTORE/COMMAND_PROCESSING
  +--> _SENDACKNOWLEDGMENT/COMMAND_PROCESSING
  +--> _ENCODER_READING/INTERRUPTIONS
  +--> _WATCHDOG_ENABLER_WRITE/WATCHDOG_ENABLER
  +--> _RESET_FF_WRITE/RESET_FF
  +--> FUNCTION_SCHEDULER/INTERRUPTIONS
  +--> FF_STATUS_READ/FF_STATUS
  +--> _WATCHDOG_REFRESH_WRITE/WATCHDOG_REFRESH
  +--> INTERRUPT_MANAGER/INTERRUPTIONS
  +--> UART_RS485_READRXSTATUS/UART_RS485

EEPROM_START/EEPROM                           ----- -----  ----- -----  ----- -----  ----- -----
  +--> EEPROM_ENABLE/EEPROM

EEPROM_ENABLE/EEPROM                          ----- -----  ----- -----  ----- -----  ----- -----
  +--> CYSETTEMP/CYFLASH
  +--> CYEEPROM_START/CYFLASH

CYSETTEMP/CYFLASH                             ----- -----  ----- -----  ----- -----  0032H 0032H
  +--> CYFLASHGETSPCALGORITHM/CYFLASH
  +--> CYSETTEMPINT/CYFLASH

CYFLASHGETSPCALGORITHM/CYFLASH                ----- -----  ----- -----  ----- -----  0033H 0033H
  +--> CYSPCSTART/CYSPC
  +--> CYSPCLOCK/CYSPC
  +--> CYSPCGETALGORITHM/CYSPC
  +--> CYDELAYUS/CYBOOTASMKEIL
  +--> CYSPCUNLOCK/CYSPC

CYSPCSTART/CYSPC                              ----- -----  ----- -----  ----- -----  ----- -----
  +--> CYENTERCRITICALSECTION/CYBOOTASMKEIL
LX51 LINKER/LOCATER V4.64.0.0                                                         02/02/2018  18:09:00  PAGE 16


  +--> CYEXITCRITICALSECTION/CYBOOTASMKEIL

CYENTERCRITICALSECTION/CYBOOTASMKEIL          ----- -----  ----- -----  ----- -----  ----- -----

CYEXITCRITICALSECTION/CYBOOTASMKEIL           ----- -----  ----- -----  ----- -----  ----- -----

CYSPCLOCK/CYSPC                               ----- -----  ----- -----  ----- -----  0037H 0037H
  +--> CYENTERCRITICALSECTION/CYBOOTASMKEIL
  +--> CYEXITCRITICALSECTION/CYBOOTASMKEIL

CYSPCGETALGORITHM/CYSPC                       ----- -----  ----- -----  ----- -----  ----- -----

CYDELAYUS/CYBOOTASMKEIL                       ----- -----  ----- -----  ----- -----  ----- -----
  +--> CYDELAYCYCLES/CYBOOTASMKEIL

CYSPCUNLOCK/CYSPC                             ----- -----  ----- -----  ----- -----  ----- -----
  +--> CYENTERCRITICALSECTION/CYBOOTASMKEIL
  +--> CYEXITCRITICALSECTION/CYBOOTASMKEIL

CYSETTEMPINT/CYFLASH                          ----- -----  ----- -----  ----- -----  0033H 0033H
  +--> CYSPCSTART/CYSPC
  +--> CYSPCLOCK/CYSPC
  +--> _CYSPCGETTEMP/CYSPC
  +--> _CYSPCREADDATA/CYSPC
  +--> CYDELAYUS/CYBOOTASMKEIL
  +--> CYSPCUNLOCK/CYSPC

_CYSPCGETTEMP/CYSPC                           ----- -----  ----- -----  ----- -----  ----- -----

_CYSPCREADDATA/CYSPC                          ----- -----  ----- -----  ----- -----  0034H 0038H
  +--> CYDELAYUS/CYBOOTASMKEIL

CYEEPROM_START/CYFLASH                        ----- -----  ----- -----  ----- -----  ----- -----
  +--> CYENTERCRITICALSECTION/CYBOOTASMKEIL
  +--> CYEXITCRITICALSECTION/CYBOOTASMKEIL

MEMRECALL/COMMAND_PROCESSING                  ----- -----  ----- -----  ----- -----  ----- -----
  +--> MEMRESTORE/COMMAND_PROCESSING

MEMRESTORE/COMMAND_PROCESSING                 ----- -----  ----- -----  ----- -----  ----- -----
  +--> MEMINIT/COMMAND_PROCESSING
  +--> _MEMSTORE/COMMAND_PROCESSING

MEMINIT/COMMAND_PROCESSING                    ----- -----  0067H 0067H  ----- -----  ----- -----
  +--> _MEMSTORE/COMMAND_PROCESSING

_MEMSTORE/COMMAND_PROCESSING                  ----- -----  ----- -----  ----- -----  002BH 0031H
  +--> _PWM_MOTORS_WRITECOMPARE1/PWM_MOTORS
  +--> _PWM_MOTORS_WRITECOMPARE2/PWM_MOTORS
  +--> EEPROM_UPDATETEMPERATURE/EEPROM
  +--> _EEPROM_WRITE/EEPROM

_PWM_MOTORS_WRITECOMPARE1/PWM_MOTORS          ----- -----  ----- -----  ----- -----  ----- -----

_PWM_MOTORS_WRITECOMPARE2/PWM_MOTORS          ----- -----  ----- -----  ----- -----  ----- -----

EEPROM_UPDATETEMPERATURE/EEPROM               ----- -----  ----- -----  ----- -----  ----- -----
  +--> CYSETTEMP/CYFLASH

_EEPROM_WRITE/EEPROM                          ----- -----  ----- -----  ----- -----  0032H 0036H
  +--> CYSPCSTART/CYSPC
  +--> CYSPCLOCK/CYSPC
  +--> _CYSPCLOADROW/CYSPC
  +--> _CYSPCWRITEROW/CYSPC
  +--> CYSPCUNLOCK/CYSPC
LX51 LINKER/LOCATER V4.64.0.0                                                         02/02/2018  18:09:00  PAGE 17



_CYSPCLOADROW/CYSPC                           ----- -----  ----- -----  ----- -----  0037H 003DH

_CYSPCWRITEROW/CYSPC                          ----- -----  ----- -----  ----- -----  0037H 003BH

_?CYDELAY/CYLIB                               ----- -----  ----- -----  ----- -----  ----- -----
  +--> CYDELAYCYCLES/CYBOOTASMKEIL

_FTDI_ENABLE_REG_WRITE/FTDI_ENABLE_REG        ----- -----  ----- -----  ----- -----  ----- -----

UART_RS485_STOP/UART_RS485                    ----- -----  ----- -----  ----- -----  ----- -----
  +--> CYENTERCRITICALSECTION/CYBOOTASMKEIL
  +--> CYEXITCRITICALSECTION/CYBOOTASMKEIL

UART_RS485_START/UART_RS485                   ----- -----  ----- -----  ----- -----  ----- -----
  +--> UART_RS485_INIT/UART_RS485
  +--> UART_RS485_ENABLE/UART_RS485

UART_RS485_INIT/UART_RS485                    ----- -----  ----- -----  ----- -----  ----- -----
  +--> _CYINTSETVECTOR/CYLIB
  +--> _CYINTSETPRIORITY/CYLIB

_CYINTSETVECTOR/CYLIB                         ----- -----  ----- -----  ----- -----  0003H 0007H
  +--> CYREAD16/CYMEM
  +--> CYWRITE16/CYMEM

CYREAD16/CYMEM                                ----- -----  ----- -----  ----- -----  ----- -----

_CYINTSETPRIORITY/CYLIB                       ----- -----  ----- -----  ----- -----  ----- -----

UART_RS485_ENABLE/UART_RS485                  ----- -----  ----- -----  ----- -----  ----- -----
  +--> CYENTERCRITICALSECTION/CYBOOTASMKEIL
  +--> CYEXITCRITICALSECTION/CYBOOTASMKEIL

UART_RS485_CLEARRXBUFFER/UART_RS485           ----- -----  ----- -----  ----- -----  ----- -----
  +--> CYENTERCRITICALSECTION/CYBOOTASMKEIL
  +--> CYEXITCRITICALSECTION/CYBOOTASMKEIL

UART_RS485_CLEARTXBUFFER/UART_RS485           ----- -----  ----- -----  ----- -----  ----- -----
  +--> CYENTERCRITICALSECTION/CYBOOTASMKEIL
  +--> CYEXITCRITICALSECTION/CYBOOTASMKEIL

_ISR_RS485_RX_STARTEX/ISR_RS485_RX            ----- -----  ----- -----  ----- -----  0003H 0004H
  +--> ISR_RS485_RX_DISABLE/ISR_RS485_RX
  +--> _ISR_RS485_RX_SETVECTOR/ISR_RS485_RX
  +--> _ISR_RS485_RX_SETPRIORITY/ISR_RS485_RX
  +--> ISR_RS485_RX_ENABLE/ISR_RS485_RX

ISR_RS485_RX_DISABLE/ISR_RS485_RX             ----- -----  ----- -----  ----- -----  ----- -----

_ISR_RS485_RX_SETVECTOR/ISR_RS485_RX          ----- -----  ----- -----  ----- -----  ----- -----
  +--> CYWRITE16/CYMEM

_ISR_RS485_RX_SETPRIORITY/ISR_RS485_RX        ----- -----  ----- -----  ----- -----  ----- -----

ISR_RS485_RX_ENABLE/ISR_RS485_RX              ----- -----  ----- -----  ----- -----  ----- -----

WATCHDOG_COUNTER_START/WATCHDOG_COUNTER       ----- -----  ----- -----  ----- -----  ----- -----
  +--> WATCHDOG_COUNTER_INIT/WATCHDOG_COUNTER
  +--> WATCHDOG_COUNTER_ENABLE/WATCHDOG_COUNTER

WATCHDOG_COUNTER_INIT/WATCHDOG_COUNTER        ----- -----  ----- -----  ----- -----  ----- -----
  +--> _WATCHDOG_COUNTER_WRITEPERIOD/WATCHDOG_COUNTER
  +--> _WATCHDOG_COUNTER_WRITECOUNTER/WATCHDOG_COUNTER
  +--> _WATCHDOG_COUNTER_SETINTERRUPTMODE/WATCHDOG_COUNTER
LX51 LINKER/LOCATER V4.64.0.0                                                         02/02/2018  18:09:00  PAGE 18



_WATCHDOG_COUNTER_WRITEPERIOD/WATCHDOG_C+     ----- -----  ----- -----  ----- -----  ----- -----
... OUNTER
  +--> CYWRITE16/CYMEM

_WATCHDOG_COUNTER_WRITECOUNTER/WATCHDOG_+     ----- -----  ----- -----  ----- -----  ----- -----
... COUNTER
  +--> CYWRITE16/CYMEM

_WATCHDOG_COUNTER_SETINTERRUPTMODE/WATCH+     ----- -----  ----- -----  ----- -----  ----- -----
... DOG_COUNTER

WATCHDOG_COUNTER_ENABLE/WATCHDOG_COUNTER      ----- -----  ----- -----  ----- -----  ----- -----

_ISR_WATCHDOG_STARTEX/ISR_WATCHDOG            ----- -----  ----- -----  ----- -----  0003H 0004H
  +--> ISR_WATCHDOG_DISABLE/ISR_WATCHDOG
  +--> _ISR_WATCHDOG_SETVECTOR/ISR_WATCHDOG
  +--> _ISR_WATCHDOG_SETPRIORITY/ISR_WATCHDOG
  +--> ISR_WATCHDOG_ENABLE/ISR_WATCHDOG

ISR_WATCHDOG_DISABLE/ISR_WATCHDOG             ----- -----  ----- -----  ----- -----  ----- -----

_ISR_WATCHDOG_SETVECTOR/ISR_WATCHDOG          ----- -----  ----- -----  ----- -----  ----- -----
  +--> CYWRITE16/CYMEM

_ISR_WATCHDOG_SETPRIORITY/ISR_WATCHDOG        ----- -----  ----- -----  ----- -----  ----- -----

ISR_WATCHDOG_ENABLE/ISR_WATCHDOG              ----- -----  ----- -----  ----- -----  ----- -----

PWM_MOTORS_START/PWM_MOTORS                   ----- -----  ----- -----  ----- -----  ----- -----
  +--> PWM_MOTORS_INIT/PWM_MOTORS
  +--> PWM_MOTORS_ENABLE/PWM_MOTORS

PWM_MOTORS_INIT/PWM_MOTORS                    ----- -----  ----- -----  ----- -----  ----- -----
  +--> _PWM_MOTORS_WRITECOUNTER/PWM_MOTORS
  +--> _PWM_MOTORS_WRITEPERIOD/PWM_MOTORS
  +--> _PWM_MOTORS_WRITECOMPARE1/PWM_MOTORS
  +--> _PWM_MOTORS_WRITECOMPARE2/PWM_MOTORS

_PWM_MOTORS_WRITECOUNTER/PWM_MOTORS           ----- -----  ----- -----  ----- -----  ----- -----

_PWM_MOTORS_WRITEPERIOD/PWM_MOTORS            ----- -----  ----- -----  ----- -----  ----- -----

PWM_MOTORS_ENABLE/PWM_MOTORS                  ----- -----  ----- -----  ----- -----  ----- -----

_MOTOR_DIR_WRITE/MOTOR_DIR                    ----- -----  ----- -----  ----- -----  ----- -----

_MOTOR_ON_OFF_WRITE/MOTOR_ON_OFF              ----- -----  ----- -----  ----- -----  ----- -----

COUNTER_ENC_START/COUNTER_ENC                 ----- -----  ----- -----  ----- -----  ----- -----
  +--> COUNTER_ENC_INIT/COUNTER_ENC
  +--> COUNTER_ENC_ENABLE/COUNTER_ENC

COUNTER_ENC_INIT/COUNTER_ENC                  ----- -----  ----- -----  ----- -----  ----- -----
  +--> COUNTER_ENC_CLEARFIFO/COUNTER_ENC
  +--> _COUNTER_ENC_WRITEPERIOD/COUNTER_ENC
  +--> _COUNTER_ENC_WRITECOUNTER/COUNTER_ENC
  +--> _COUNTER_ENC_SETINTERRUPTMODE/COUNTER_ENC
  +--> COUNTER_ENC_READSTATUSREGISTER/COUNTER_ENC
  +--> _COUNTER_ENC_WRITECOMPARE/COUNTER_ENC
  +--> CYENTERCRITICALSECTION/CYBOOTASMKEIL
  +--> CYEXITCRITICALSECTION/CYBOOTASMKEIL

COUNTER_ENC_CLEARFIFO/COUNTER_ENC             ----- -----  ----- -----  ----- -----  ----- -----
  +--> COUNTER_ENC_READSTATUSREGISTER/COUNTER_ENC
LX51 LINKER/LOCATER V4.64.0.0                                                         02/02/2018  18:09:00  PAGE 19


  +--> COUNTER_ENC_READCAPTURE/COUNTER_ENC

COUNTER_ENC_READSTATUSREGISTER/COUNTER_E+     ----- -----  ----- -----  ----- -----  ----- -----
... NC

COUNTER_ENC_READCAPTURE/COUNTER_ENC           ----- -----  ----- -----  ----- -----  ----- -----

_COUNTER_ENC_WRITEPERIOD/COUNTER_ENC          ----- -----  ----- -----  ----- -----  ----- -----

_COUNTER_ENC_WRITECOUNTER/COUNTER_ENC         ----- -----  ----- -----  ----- -----  ----- -----

_COUNTER_ENC_SETINTERRUPTMODE/COUNTER_EN+     ----- -----  ----- -----  ----- -----  ----- -----
... C

_COUNTER_ENC_WRITECOMPARE/COUNTER_ENC         ----- -----  ----- -----  ----- -----  ----- -----

COUNTER_ENC_ENABLE/COUNTER_ENC                ----- -----  ----- -----  ----- -----  ----- -----

SHIFTREG_ENC_1_START/SHIFTREG_ENC_1           ----- -----  ----- -----  ----- -----  ----- -----
  +--> SHIFTREG_ENC_1_INIT/SHIFTREG_ENC_1
  +--> SHIFTREG_ENC_1_ENABLE/SHIFTREG_ENC_1

SHIFTREG_ENC_1_INIT/SHIFTREG_ENC_1            ----- -----  ----- -----  ----- -----  ----- -----
  +--> _SHIFTREG_ENC_1_SETINTMODE/SHIFTREG_ENC_1

_SHIFTREG_ENC_1_SETINTMODE/SHIFTREG_ENC_+     ----- -----  ----- -----  ----- -----  ----- -----
... 1

SHIFTREG_ENC_1_ENABLE/SHIFTREG_ENC_1          ----- -----  ----- -----  ----- -----  ----- -----
  +--> SHIFTREG_ENC_1_ENABLEINT/SHIFTREG_ENC_1

SHIFTREG_ENC_1_ENABLEINT/SHIFTREG_ENC_1       ----- -----  ----- -----  ----- -----  ----- -----
  +--> CYENTERCRITICALSECTION/CYBOOTASMKEIL
  +--> CYEXITCRITICALSECTION/CYBOOTASMKEIL

SHIFTREG_ENC_2_START/SHIFTREG_ENC_2           ----- -----  ----- -----  ----- -----  ----- -----
  +--> SHIFTREG_ENC_2_INIT/SHIFTREG_ENC_2
  +--> SHIFTREG_ENC_2_ENABLE/SHIFTREG_ENC_2

SHIFTREG_ENC_2_INIT/SHIFTREG_ENC_2            ----- -----  ----- -----  ----- -----  ----- -----
  +--> _SHIFTREG_ENC_2_SETINTMODE/SHIFTREG_ENC_2

_SHIFTREG_ENC_2_SETINTMODE/SHIFTREG_ENC_+     ----- -----  ----- -----  ----- -----  ----- -----
... 2

SHIFTREG_ENC_2_ENABLE/SHIFTREG_ENC_2          ----- -----  ----- -----  ----- -----  ----- -----
  +--> SHIFTREG_ENC_2_ENABLEINT/SHIFTREG_ENC_2

SHIFTREG_ENC_2_ENABLEINT/SHIFTREG_ENC_2       ----- -----  ----- -----  ----- -----  ----- -----
  +--> CYENTERCRITICALSECTION/CYBOOTASMKEIL
  +--> CYEXITCRITICALSECTION/CYBOOTASMKEIL

ADC_START/ADC                                 ----- -----  ----- -----  ----- -----  ----- -----
  +--> ADC_INIT/ADC
  +--> ADC_ENABLE/ADC

ADC_INIT/ADC                                  ----- -----  ----- -----  ----- -----  ----- -----
  +--> _ADC_EXT_CP_CLK_SETMODEREGISTER/ADC_EXT_CP_CLK
  +--> _ADC_THEACLK_SETMODEREGISTER/ADC_THEACLK
  +--> _CYINTSETPRIORITY/CYLIB
  +--> _ADC_GAINCOMPENSATION/ADC
  +--> CYWRITE16/CYMEM
  +--> _ADC_INITCONFIG/ADC

_ADC_EXT_CP_CLK_SETMODEREGISTER/ADC_EXT_+     ----- -----  ----- -----  ----- -----  ----- -----
LX51 LINKER/LOCATER V4.64.0.0                                                         02/02/2018  18:09:00  PAGE 20


... CP_CLK

_ADC_THEACLK_SETMODEREGISTER/ADC_THEACLK      ----- -----  ----- -----  ----- -----  ----- -----

_ADC_GAINCOMPENSATION/ADC                     ----- -----  ----- -----  ----- -----  0003H 000AH
  +--> CYREAD8/CYMEM

_ADC_INITCONFIG/ADC                           ----- -----  ----- -----  ----- -----  ----- -----
  +--> _ADC_SETDSMREF0REG/ADC
  +--> _ADC_AMUX_SELECT/ADC_AMUX
  +--> _ADC_EXT_CP_CLK_SETDIVIDERREGISTER/ADC_EXT_CP_CLK
  +--> _ADC_THEACLK_SETDIVIDERREGISTER/ADC_THEACLK
  +--> _CYINTSETVECTOR/CYLIB

_ADC_SETDSMREF0REG/ADC                        ----- -----  ----- -----  ----- -----  0003H 0004H
  +--> CYENTERCRITICALSECTION/CYBOOTASMKEIL
  +--> CYDELAYUS/CYBOOTASMKEIL
  +--> CYEXITCRITICALSECTION/CYBOOTASMKEIL

_ADC_AMUX_SELECT/ADC_AMUX                     ----- -----  ----- -----  ----- -----  0003H 0003H
  +--> ADC_AMUX_START/ADC_AMUX
  +--> _ADC_AMUX_SET/CYFITTER_CFG

ADC_AMUX_START/ADC_AMUX                       ----- -----  ----- -----  ----- -----  0004H 0004H
  +--> _ADC_AMUX_UNSET/CYFITTER_CFG

_ADC_AMUX_UNSET/CYFITTER_CFG                  ----- -----  ----- -----  ----- -----  ----- -----
  +--> ?CO?CYFITTER_CFG

_ADC_AMUX_SET/CYFITTER_CFG                    ----- -----  ----- -----  ----- -----  ----- -----
  +--> ?CO?CYFITTER_CFG

_ADC_EXT_CP_CLK_SETDIVIDERREGISTER/ADC_E+     ----- -----  ----- -----  ----- -----  0003H 0009H
... XT_CP_CLK
  +--> ADC_EXT_CP_CLK_GETSOURCEREGISTER/ADC_EXT_CP_CLK
  +--> ADC_EXT_CP_CLK_GETDIVIDERREGISTER/ADC_EXT_CP_CLK
  +--> CYWRITE16/CYMEM

ADC_EXT_CP_CLK_GETSOURCEREGISTER/ADC_EXT+     ----- -----  ----- -----  ----- -----  ----- -----
... _CP_CLK

ADC_EXT_CP_CLK_GETDIVIDERREGISTER/ADC_EX+     ----- -----  ----- -----  ----- -----  ----- -----
... T_CP_CLK
  +--> CYREAD16/CYMEM

_ADC_THEACLK_SETDIVIDERREGISTER/ADC_THEA+     ----- -----  ----- -----  ----- -----  0003H 0009H
... CLK
  +--> ADC_THEACLK_GETSOURCEREGISTER/ADC_THEACLK
  +--> ADC_THEACLK_GETDIVIDERREGISTER/ADC_THEACLK
  +--> CYWRITE16/CYMEM

ADC_THEACLK_GETSOURCEREGISTER/ADC_THEACL+     ----- -----  ----- -----  ----- -----  ----- -----
... K

ADC_THEACLK_GETDIVIDERREGISTER/ADC_THEAC+     ----- -----  ----- -----  ----- -----  ----- -----
... LK
  +--> CYREAD16/CYMEM

ADC_ENABLE/ADC                                ----- -----  ----- -----  ----- -----  0003H 0004H
  +--> CYENTERCRITICALSECTION/CYBOOTASMKEIL
  +--> CYDELAYUS/CYBOOTASMKEIL
  +--> CYEXITCRITICALSECTION/CYBOOTASMKEIL

_ADC_SOC_WRITE/ADC_SOC                        ----- -----  ----- -----  ----- -----  ----- -----

LX51 LINKER/LOCATER V4.64.0.0                                                         02/02/2018  18:09:00  PAGE 21


_DMA_DMAINITIALIZE/DMA_DMA                    ----- -----  ----- -----  ----- -----  0003H 0008H
  +--> _CYDMACHSETCONFIGURATION/CYDMAC
  +--> _CYDMACHSETEXTENDEDADDRESS/CYDMAC
  +--> _CYDMACHPRIORITY/CYDMAC

_CYDMACHSETCONFIGURATION/CYDMAC               ----- -----  ----- -----  ----- -----  0009H 000EH

_CYDMACHSETEXTENDEDADDRESS/CYDMAC             ----- -----  ----- -----  ----- -----  0009H 0010H
  +--> CYWRITE16/CYMEM

_CYDMACHPRIORITY/CYDMAC                       ----- -----  ----- -----  ----- -----  ----- -----

CYDMATDALLOCATE/CYDMAC                        ----- -----  ----- -----  ----- -----  0003H 0003H
  +--> CYENTERCRITICALSECTION/CYBOOTASMKEIL
  +--> CYEXITCRITICALSECTION/CYBOOTASMKEIL

_CYDMATDSETCONFIGURATION/CYDMAC               ----- -----  ----- -----  ----- -----  0003H 000AH
  +--> CYWRITE16/CYMEM

_CYDMATDSETADDRESS/CYDMAC                     ----- -----  ----- -----  ----- -----  0003H 000AH
  +--> CYWRITE16/CYMEM

_CYDMACHSETINITIALTD/CYDMAC                   ----- -----  ----- -----  ----- -----  ----- -----

_CYDMACHENABLE/CYDMAC                         ----- -----  ----- -----  ----- -----  ----- -----

_RS485_CTS_WRITE/RS485_CTS                    ----- -----  ----- -----  ----- -----  ----- -----

MY_TIMER_START/MY_TIMER                       ----- -----  ----- -----  ----- -----  ----- -----
  +--> MY_TIMER_INIT/MY_TIMER
  +--> MY_TIMER_ENABLE/MY_TIMER

MY_TIMER_INIT/MY_TIMER                        ----- -----  ----- -----  ----- -----  ----- -----
  +--> _MY_TIMER_WRITEPERIOD/MY_TIMER
  +--> _MY_TIMER_WRITECOUNTER/MY_TIMER
  +--> CYENTERCRITICALSECTION/CYBOOTASMKEIL
  +--> CYEXITCRITICALSECTION/CYBOOTASMKEIL
  +--> MY_TIMER_CLEARFIFO/MY_TIMER
  +--> _MY_TIMER_SETINTERRUPTMODE/MY_TIMER

_MY_TIMER_WRITEPERIOD/MY_TIMER                ----- -----  ----- -----  ----- -----  ----- -----
  +--> CYWRITE24/CYMEM

CYWRITE24/CYMEM                               ----- -----  ----- -----  ----- -----  ----- -----

_MY_TIMER_WRITECOUNTER/MY_TIMER               ----- -----  ----- -----  ----- -----  ----- -----
  +--> CYWRITE24/CYMEM

MY_TIMER_CLEARFIFO/MY_TIMER                   ----- -----  ----- -----  ----- -----  ----- -----
  +--> MY_TIMER_READSTATUSREGISTER/MY_TIMER
  +--> MY_TIMER_READCAPTURE/MY_TIMER

MY_TIMER_READSTATUSREGISTER/MY_TIMER          ----- -----  ----- -----  ----- -----  ----- -----

MY_TIMER_READCAPTURE/MY_TIMER                 ----- -----  ----- -----  ----- -----  ----- -----
  +--> CYREAD24/CYMEM

CYREAD24/CYMEM                                ----- -----  ----- -----  ----- -----  ----- -----

_MY_TIMER_SETINTERRUPTMODE/MY_TIMER           ----- -----  ----- -----  ----- -----  ----- -----

MY_TIMER_ENABLE/MY_TIMER                      ----- -----  ----- -----  ----- -----  ----- -----

PACER_TIMER_START/PACER_TIMER                 ----- -----  ----- -----  ----- -----  ----- -----
  +--> PACER_TIMER_INIT/PACER_TIMER
LX51 LINKER/LOCATER V4.64.0.0                                                         02/02/2018  18:09:00  PAGE 22


  +--> PACER_TIMER_ENABLE/PACER_TIMER

PACER_TIMER_INIT/PACER_TIMER                  ----- -----  ----- -----  ----- -----  ----- -----
  +--> _PACER_TIMER_WRITEPERIOD/PACER_TIMER
  +--> _PACER_TIMER_WRITECOUNTER/PACER_TIMER
  +--> _PACER_TIMER_SETINTERRUPTMODE/PACER_TIMER

_PACER_TIMER_WRITEPERIOD/PACER_TIMER          ----- -----  ----- -----  ----- -----  ----- -----
  +--> CYWRITE16/CYMEM

_PACER_TIMER_WRITECOUNTER/PACER_TIMER         ----- -----  ----- -----  ----- -----  ----- -----
  +--> CYWRITE16/CYMEM

_PACER_TIMER_SETINTERRUPTMODE/PACER_TIME+     ----- -----  ----- -----  ----- -----  ----- -----
... R

PACER_TIMER_ENABLE/PACER_TIMER                ----- -----  ----- -----  ----- -----  ----- -----

_SENDACKNOWLEDGMENT/COMMAND_PROCESSING        ----- -----  006BH 006CH  ----- -----  ----- -----
  +--> _COMMWRITE/COMMAND_PROCESSING

_COMMWRITE/COMMAND_PROCESSING                 ----- -----  007CH 007DH  ----- -----  0B02H 0B07H
  +--> _UART_RS485_PUTCHAR/UART_RS485
  +--> UART_RS485_READTXSTATUS/UART_RS485
  +--> _RS485_CTS_WRITE/RS485_CTS

_UART_RS485_PUTCHAR/UART_RS485                ----- -----  ----- -----  ----- -----  ----- -----

UART_RS485_READTXSTATUS/UART_RS485            ----- -----  ----- -----  ----- -----  ----- -----

_ENCODER_READING/INTERRUPTIONS                ----- -----  0023H 0023H  ----- -----  0003H 000FH
  +--> SHIFTREG_ENC_1_READDATA/SHIFTREG_ENC_1
  +--> SHIFTREG_ENC_2_READDATA/SHIFTREG_ENC_2
  +--> SHIFTREG_ENC_3_READDATA/SHIFTREG_ENC_3
  +--> SHIFTREG_ENC_4_READDATA/SHIFTREG_ENC_4
  +--> _CHECK_ENC_DATA/UTILS
  +--> _ABS/ABS

SHIFTREG_ENC_1_READDATA/SHIFTREG_ENC_1        ----- -----  ----- -----  ----- -----  ----- -----
  +--> CYREAD24/CYMEM

SHIFTREG_ENC_2_READDATA/SHIFTREG_ENC_2        ----- -----  ----- -----  ----- -----  ----- -----
  +--> CYREAD24/CYMEM

SHIFTREG_ENC_3_READDATA/SHIFTREG_ENC_3        ----- -----  ----- -----  ----- -----  ----- -----
  +--> CYREAD24/CYMEM

SHIFTREG_ENC_4_READDATA/SHIFTREG_ENC_4        ----- -----  ----- -----  ----- -----  ----- -----
  +--> CYREAD24/CYMEM

_CHECK_ENC_DATA/UTILS                         ----- -----  0024H 0024H  0010H 0012H  ----- -----

_ABS/ABS                                      ----- -----  ----- -----  ----- -----  ----- -----

_WATCHDOG_ENABLER_WRITE/WATCHDOG_ENABLER      ----- -----  ----- -----  ----- -----  ----- -----

_RESET_FF_WRITE/RESET_FF                      ----- -----  ----- -----  ----- -----  ----- -----

FUNCTION_SCHEDULER/INTERRUPTIONS              ----- -----  ----- -----  ----- -----  ----- -----
  +--> MY_TIMER_READCOUNTER/MY_TIMER
  +--> _ADC_SOC_WRITE/ADC_SOC
  +--> INTERRUPT_MANAGER/INTERRUPTIONS
  +--> _ENCODER_READING/INTERRUPTIONS
  +--> _MOTOR_CONTROL/INTERRUPTIONS
  +--> ANALOG_READ_END/INTERRUPTIONS
LX51 LINKER/LOCATER V4.64.0.0                                                         02/02/2018  18:09:00  PAGE 23


  +--> PRETENSIONING_PROCESS/INTERRUPTIONS
  +--> DRIVE_CUFF/COMMAND_PROCESSING
  +--> SLIDE_CUFF/COMMAND_PROCESSING
  +--> FORCE_AND_SLIDE_CUFF/COMMAND_PROCESSING
  +--> _MY_TIMER_WRITECOUNTER/MY_TIMER

MY_TIMER_READCOUNTER/MY_TIMER                 ----- -----  ----- -----  ----- -----  ----- -----
  +--> CYREAD24/CYMEM

INTERRUPT_MANAGER/INTERRUPTIONS               20H.0 20H.0  0064H 0065H  ----- -----  ----- -----
  +--> UART_RS485_GETRXBUFFERSIZE/UART_RS485
  +--> UART_RS485_GETCHAR/UART_RS485
  +--> _INFOGET/COMMAND_PROCESSING
  +--> COMMPROCESS/COMMAND_PROCESSING
  +--> _RS485_CTS_WRITE/RS485_CTS

UART_RS485_GETRXBUFFERSIZE/UART_RS485         ----- -----  ----- -----  ----- -----  ----- -----

UART_RS485_GETCHAR/UART_RS485                 ----- -----  ----- -----  ----- -----  ----- -----

_INFOGET/COMMAND_PROCESSING                   ----- -----  ----- -----  ----- -----  002BH 0606H
  +--> _INFOPREPARE/COMMAND_PROCESSING
  +--> _UART_RS485_PUTSTRING/UART_RS485

_INFOPREPARE/COMMAND_PROCESSING               ----- -----  0067H 0068H  ----- -----  0607H 063BH
  +--> ?CO?COMMAND_PROCESSING
  +--> _STRCAT/STRCAT
  +--> PRINTF/PRINTF

?CO?COMMAND_PROCESSING                        ----- -----  ----- -----  ----- -----  ----- -----

_STRCAT/STRCAT                                ----- -----  ----- -----  ----- -----  0B02H 0B0AH

PRINTF/PRINTF                                 20H.1 21H.1  0069H 006DH  ----- -----  063CH 066BH
  +--> PUTCHAR/PUTCHAR

PUTCHAR/PUTCHAR                               ----- -----  ----- -----  ----- -----  ----- -----

_UART_RS485_PUTSTRING/UART_RS485              ----- -----  ----- -----  ----- -----  0607H 0609H
  +--> _UART_RS485_PUTCHAR/UART_RS485

COMMPROCESS/COMMAND_PROCESSING                ----- -----  0066H 0066H  ----- -----  ----- -----
  +--> _LCRCHECKSUM/UTILS
  +--> CMD_GET_MEASUREMENTS/COMMAND_PROCESSING
  +--> CMD_GET_INPUTS/COMMAND_PROCESSING
  +--> CMD_GET_CURRENTS/COMMAND_PROCESSING
  +--> CMD_GET_CURR_AND_MEAS/COMMAND_PROCESSING
  +--> CMD_SET_INPUTS/COMMAND_PROCESSING
  +--> CMD_SET_POS_STIFF/COMMAND_PROCESSING
  +--> CMD_GET_VELOCITIES/COMMAND_PROCESSING
  +--> CMD_ACTIVATE/COMMAND_PROCESSING
  +--> CMD_SET_WATCHDOG/COMMAND_PROCESSING
  +--> CMD_GET_ACTIVATE/COMMAND_PROCESSING
  +--> CMD_SET_BAUDRATE/COMMAND_PROCESSING
  +--> _INFOGET/COMMAND_PROCESSING
  +--> SETZEROS/COMMAND_PROCESSING
  +--> _GET_PARAM_LIST/COMMAND_PROCESSING
  +--> CMD_PING/COMMAND_PROCESSING
  +--> CMD_STORE_PARAMS/COMMAND_PROCESSING
  +--> _MEMSTORE/COMMAND_PROCESSING
  +--> _SENDACKNOWLEDGMENT/COMMAND_PROCESSING
  +--> MEMRESTORE/COMMAND_PROCESSING
  +--> MEMINIT/COMMAND_PROCESSING
  +--> _?CYDELAY/CYLIB
  +--> _FTDI_ENABLE_REG_WRITE/FTDI_ENABLE_REG
LX51 LINKER/LOCATER V4.64.0.0                                                         02/02/2018  18:09:00  PAGE 24


  +--> BOOTLOADABLE_LOAD/BOOTLOADABLE

_LCRCHECKSUM/UTILS                            ----- -----  007CH 007DH  ----- -----  0B02H 0B04H

CMD_GET_MEASUREMENTS/COMMAND_PROCESSING       ----- -----  0067H 0067H  ----- -----  002BH 0030H

CMD_GET_INPUTS/COMMAND_PROCESSING             ----- -----  ----- -----  ----- -----  002BH 0030H
  +--> _LCRCHECKSUM/UTILS
  +--> _COMMWRITE/COMMAND_PROCESSING

CMD_GET_CURRENTS/COMMAND_PROCESSING           ----- -----  ----- -----  ----- -----  002BH 0030H
  +--> _LCRCHECKSUM/UTILS
  +--> _COMMWRITE/COMMAND_PROCESSING

CMD_GET_CURR_AND_MEAS/COMMAND_PROCESSING      ----- -----  0067H 0067H  ----- -----  002BH 0030H

CMD_SET_INPUTS/COMMAND_PROCESSING             ----- -----  ----- -----  ----- -----  ----- -----

CMD_SET_POS_STIFF/COMMAND_PROCESSING          ----- -----  0067H 006EH  ----- -----  ----- -----

CMD_GET_VELOCITIES/COMMAND_PROCESSING         ----- -----  0067H 0067H  ----- -----  002BH 0030H

CMD_ACTIVATE/COMMAND_PROCESSING               ----- -----  ----- -----  ----- -----  ----- -----
  +--> _MOTOR_ON_OFF_WRITE/MOTOR_ON_OFF

CMD_SET_WATCHDOG/COMMAND_PROCESSING           ----- -----  ----- -----  ----- -----  ----- -----
  +--> _WATCHDOG_ENABLER_WRITE/WATCHDOG_ENABLER
  +--> _WATCHDOG_COUNTER_WRITEPERIOD/WATCHDOG_COUNTER

CMD_GET_ACTIVATE/COMMAND_PROCESSING           ----- -----  ----- -----  ----- -----  002BH 002DH
  +--> _LCRCHECKSUM/UTILS
  +--> _COMMWRITE/COMMAND_PROCESSING

CMD_SET_BAUDRATE/COMMAND_PROCESSING           ----- -----  ----- -----  ----- -----  ----- -----
  +--> _CLOCK_UART_SETDIVIDERREGISTER/CLOCK_UART

_CLOCK_UART_SETDIVIDERREGISTER/CLOCK_UAR+     ----- -----  ----- -----  ----- -----  002BH 0031H
... T
  +--> CLOCK_UART_GETSOURCEREGISTER/CLOCK_UART
  +--> CLOCK_UART_GETDIVIDERREGISTER/CLOCK_UART
  +--> CYWRITE16/CYMEM

CLOCK_UART_GETSOURCEREGISTER/CLOCK_UART       ----- -----  ----- -----  ----- -----  ----- -----

CLOCK_UART_GETDIVIDERREGISTER/CLOCK_UART      ----- -----  ----- -----  ----- -----  ----- -----
  +--> CYREAD16/CYMEM

SETZEROS/COMMAND_PROCESSING                   ----- -----  0067H 0067H  ----- -----  ----- -----
  +--> _SENDACKNOWLEDGMENT/COMMAND_PROCESSING

_GET_PARAM_LIST/COMMAND_PROCESSING            ----- -----  0067H 007BH  ----- -----  002BH 0B01H
  +--> ?CO?COMMAND_PROCESSING
  +--> _STRLEN/STRLEN
  +--> _STRCAT/STRCAT
  +--> _LCRCHECKSUM/UTILS
  +--> _COMMWRITE/COMMAND_PROCESSING
  +--> UART_RS485_CLEARTXBUFFER/UART_RS485

_STRLEN/STRLEN                                ----- -----  ----- -----  ----- -----  ----- -----

CMD_PING/COMMAND_PROCESSING                   ----- -----  ----- -----  ----- -----  002BH 002CH
  +--> _COMMWRITE/COMMAND_PROCESSING

CMD_STORE_PARAMS/COMMAND_PROCESSING           ----- -----  0067H 006AH  ----- -----  ----- -----
  +--> _MEMSTORE/COMMAND_PROCESSING
LX51 LINKER/LOCATER V4.64.0.0                                                         02/02/2018  18:09:00  PAGE 25


  +--> _COMMWRITE_OLD_ID/COMMAND_PROCESSING
  +--> _SENDACKNOWLEDGMENT/COMMAND_PROCESSING

_COMMWRITE_OLD_ID/COMMAND_PROCESSING          ----- -----  006BH 006CH  ----- -----  002BH 0030H
  +--> _UART_RS485_PUTCHAR/UART_RS485
  +--> UART_RS485_READTXSTATUS/UART_RS485
  +--> _RS485_CTS_WRITE/RS485_CTS

BOOTLOADABLE_LOAD/BOOTLOADABLE                ----- -----  ----- -----  ----- -----  ----- -----
  +--> CYSOFTWARERESET/CYLIB

CYSOFTWARERESET/CYLIB                         ----- -----  ----- -----  ----- -----  ----- -----

_MOTOR_CONTROL/INTERRUPTIONS                  ----- -----  0023H 0063H  ----- -----  ----- -----
  +--> INTERRUPT_MANAGER/INTERRUPTIONS
  +--> _ABS/ABS
  +--> _MOTOR_DIR_WRITE/MOTOR_DIR
  +--> _PWM_MOTORS_WRITECOMPARE1/PWM_MOTORS
  +--> _PWM_MOTORS_WRITECOMPARE2/PWM_MOTORS

ANALOG_READ_END/INTERRUPTIONS                 ----- -----  ----- -----  ----- -----  ----- -----
  +--> ADC_STATUS_READ/ADC_STATUS
  +--> INTERRUPT_MANAGER/INTERRUPTIONS
  +--> PWM_LIMIT_SEARCH/INTERRUPTIONS
  +--> _FILTER_I1/UTILS
  +--> _FILTER_I2/UTILS

ADC_STATUS_READ/ADC_STATUS                    ----- -----  ----- -----  ----- -----  ----- -----

PWM_LIMIT_SEARCH/INTERRUPTIONS                ----- -----  0023H 0027H  ----- -----  ----- -----
  +--> ?CO?INTERRUPTIONS

?CO?INTERRUPTIONS                             ----- -----  ----- -----  ----- -----  ----- -----

_FILTER_I1/UTILS                              ----- -----  ----- -----  ----- -----  ----- -----

_FILTER_I2/UTILS                              ----- -----  ----- -----  ----- -----  ----- -----

PRETENSIONING_PROCESS/INTERRUPTIONS           ----- -----  ----- -----  ----- -----  0003H 0007H

DRIVE_CUFF/COMMAND_PROCESSING                 ----- -----  ----- -----  ----- -----  0003H 001EH
  +--> _COMMWRITE/COMMAND_PROCESSING
  +--> MY_TIMER_READCOUNTER/MY_TIMER
  +--> INTERRUPT_MANAGER/INTERRUPTIONS

SLIDE_CUFF/COMMAND_PROCESSING                 ----- -----  ----- -----  ----- -----  0003H 0020H
  +--> _COMMWRITE/COMMAND_PROCESSING
  +--> MY_TIMER_READCOUNTER/MY_TIMER
  +--> INTERRUPT_MANAGER/INTERRUPTIONS

FORCE_AND_SLIDE_CUFF/COMMAND_PROCESSING       ----- -----  ----- -----  ----- -----  0003H 002AH
  +--> _COMMWRITE/COMMAND_PROCESSING
  +--> MY_TIMER_READCOUNTER/MY_TIMER
  +--> INTERRUPT_MANAGER/INTERRUPTIONS

FF_STATUS_READ/FF_STATUS                      ----- -----  ----- -----  ----- -----  ----- -----

_WATCHDOG_REFRESH_WRITE/WATCHDOG_REFRESH      ----- -----  ----- -----  ----- -----  ----- -----

UART_RS485_READRXSTATUS/UART_RS485            ----- -----  ----- -----  ----- -----  ----- -----

?C_INITSEG                                    ----- -----  ----- -----  ----- -----  ----- -----

*** NEW ROOT ********************************

LX51 LINKER/LOCATER V4.64.0.0                                                         02/02/2018  18:09:00  PAGE 26


UART_RS485_RXISR/UART_RS485_INT               ----- -----  ----- -----  ----- -----  ----- -----

*** NEW ROOT ********************************

ADC_ISR1/ADC_INT                              ----- -----  ----- -----  ----- -----  ----- -----

*** NEW ROOT ********************************

ADC_ISR2/ADC_INT                              ----- -----  ----- -----  ----- -----  ----- -----

*** NEW ROOT ********************************

ADC_ISR3/ADC_INT                              ----- -----  ----- -----  ----- -----  ----- -----

*** NEW ROOT ********************************

ADC_ISR4/ADC_INT                              ----- -----  ----- -----  ----- -----  ----- -----



PUBLIC SYMBOLS OF MODULE:  .\DP8051_Keil_951\Release\cuff_mod_firmware.omf (COMMAND_PROCESSING)


      VALUE       CLASS    TYPE      PUBLIC SYMBOL NAME
      =================================================
*DEL*:00000000H   XDATA    BYTE      ?_Bootloadable_SetFlashByte?BYTE
      02000B02H   XDATA    BYTE      ?_commWrite?BYTE
      0200002BH   XDATA    BYTE      ?_commWrite_old_id?BYTE
      02000000H   XDATA    BYTE      ?_cyconfigcpy?BYTE
      02000009H   XDATA    BYTE      ?_CyDmaChSetConfiguration?BYTE
*DEL*:00000000H   XDATA    BYTE      ?_CyDmaChStatus?BYTE
*DEL*:00000000H   XDATA    BYTE      ?_CyDmaTdGetAddress?BYTE
*DEL*:00000000H   XDATA    BYTE      ?_CyDmaTdGetConfiguration?BYTE
      02000003H   XDATA    BYTE      ?_CyDmaTdSetConfiguration?BYTE
*DEL*:00000000H   XDATA    BYTE      ?_CySpcLoadMultiByte?BYTE
      02000037H   XDATA    BYTE      ?_CySpcLoadRow?BYTE
*DEL*:00000000H   XDATA    BYTE      ?_CySpcLoadRowFull?BYTE
      02000037H   XDATA    BYTE      ?_CySpcWriteRow?BYTE
*DEL*:00000000H   XDATA    BYTE      ?_CyWriteRowFull?BYTE
      02000003H   XDATA    BYTE      ?_DMA_DmaInitialize?BYTE
      0200063CH   XDATA    ---       ?_PRINTF?BYTE
      0200063CH   XDATA    ---       ?_SPRINTF?BYTE
      02000B02H   XDATA    ---       ?_strcat?BYTE
      010075CAH   CODE     ---       ?C?ADDXBP
      01006FF1H   CODE     ---       ?C?CASTF
      010075A4H   CODE     ---       ?C?CCASE
      01007335H   CODE     ---       ?C?CLDOPTR
      0100731CH   CODE     ---       ?C?CLDPTR
      00000000H   NUMBER   ---       ?C?CODESEG
      010076D7H   CODE     ---       ?C?COPYAMD
      01007362H   CODE     ---       ?C?CSTPTR
      01006FBDH   CODE     ---       ?C?FCASTC
      01006FB8H   CODE     ---       ?C?FCASTI
      01006FB3H   CODE     ---       ?C?FCASTL
      010071BBH   CODE     ---       ?C?FPADD
      01006F3CH   CODE     ---       ?C?FPCMP
      01006F3AH   CODE     ---       ?C?FPCMP3
      010070AFH   CODE     ---       ?C?FPCONVERT
      01006E9DH   CODE     ---       ?C?FPDIV
      01007028H   CODE     ---       ?C?FPGETOPN2
      01006D94H   CODE     ---       ?C?FPMUL
      0100705DH   CODE     ---       ?C?FPNANRESULT
      01007067H   CODE     ---       ?C?FPOVERFLOW
      0100703FH   CODE     ---       ?C?FPRESULT
      01007053H   CODE     ---       ?C?FPRESULT2
LX51 LINKER/LOCATER V4.64.0.0                                                         02/02/2018  18:09:00  PAGE 27


      01007072H   CODE     ---       ?C?FPROUND
      010071B7H   CODE     ---       ?C?FPSUB
      01007064H   CODE     ---       ?C?FPUNDERFLOW
      010072DCH   CODE     ---       ?C?FTNPWR
      010077D2H   CODE     ---       ?C?IILDX
      010077E8H   CODE     ---       ?C?ILDIX
      01007374H   CODE     ---       ?C?IMUL
      01007386H   CODE     ---       ?C?ISTPTR
      010075EEH   CODE     ---       ?C?LIMUL
      01007822H   CODE     ---       ?C?LLDCODE
      010077FEH   CODE     ---       ?C?LLDIDATA
      01007816H   CODE     ---       ?C?LLDPDATA
      0100753EH   CODE     ---       ?C?LLDPTR
      0100780AH   CODE     ---       ?C?LLDXDATA
      010073A5H   CODE     ---       ?C?LMUL
      010074CFH   CODE     ---       ?C?LNEG
      010074C2H   CODE     ---       ?C?LNOT
      0100752BH   CODE     ---       ?C?LSHL
      01007832H   CODE     ---       ?C?LSTIDATA
      0100783EH   CODE     ---       ?C?LSTPDATA
      0100755EH   CODE     ---       ?C?LSTPTR
      01007578H   CODE     ---       ?C?LSTXDATA
      01007584H   CODE     ---       ?C?PLDIXDATA
      0100759BH   CODE     ---       ?C?PSTXDATA
      010074DDH   CODE     ---       ?C?SLCMP
      0100B5E8H   CODE     ---       ?C?SLDIV
      01007517H   CODE     ---       ?C?SLSHR
      010077B5H   CODE     ---       ?C?STRCPYAMD
      010074F3H   CODE     ---       ?C?ULCMP
      01007430H   CODE     ---       ?C?ULDIV
      01007504H   CODE     ---       ?C?ULSHR
      00000000H   NUMBER   ---       ?C?XDATASEG
      00000000H   NUMBER   ---       ?C?XPAGE1RST
      00000093H   DATA     BYTE      ?C?XPAGE1SFR
      0100A19DH   CODE     ---       ?C_START
      01002600H   CODE     NEAR LAB  ?C_STARTUP
      0000000EH   DATA     ---       ?C_XBP
      0100ABCDH   CODE     ---       _?CyDelay
*DEL*:00000000H   CODE     ---       _?CyDelayFreq
*DEL*:00000000H   CODE     ---       _?CyHalt
      0100BFFCH   CODE     ---       _ABS
*DEL*:00000000H   CODE     ---       _ADC_AMux_FastSelect
      0100BD21H   CODE     ---       _ADC_AMux_Select
      0100BA3DH   CODE     ---       _ADC_AMux_Set
      0100B9ABH   CODE     ---       _ADC_AMux_Unset
*DEL*:00000000H   CODE     ---       _ADC_CountsTo_mVolts
*DEL*:00000000H   CODE     ---       _ADC_CountsTo_uVolts
*DEL*:00000000H   CODE     ---       _ADC_CountsTo_Volts
*DEL*:00000000H   CODE     ---       _ADC_Ext_CP_Clk_ClearModeRegister
      010099B3H   CODE     ---       _ADC_Ext_CP_Clk_SetDividerRegister
      0100BFBEH   CODE     ---       _ADC_Ext_CP_Clk_SetModeRegister
*DEL*:00000000H   CODE     ---       _ADC_Ext_CP_Clk_SetSourceRegister
*DEL*:00000000H   CODE     ---       _ADC_Ext_CP_Clk_StandbyPower
*DEL*:00000000H   CODE     ---       _ADC_IsEndConversion
*DEL*:00000000H   CODE     ---       _ADC_SelectConfiguration
*DEL*:00000000H   CODE     ---       _ADC_SetBufferGain
*DEL*:00000000H   CODE     ---       _ADC_SetCoherency
*DEL*:00000000H   CODE     ---       _ADC_SetGain
*DEL*:00000000H   CODE     ---       _ADC_SetGCOR
*DEL*:00000000H   CODE     ---       _ADC_SetOffset
      0100C185H   CODE     ---       _ADC_SOC_Write
*DEL*:00000000H   CODE     ---       _ADC_STATUS_WriteMask
*DEL*:00000000H   CODE     ---       _ADC_theACLK_ClearModeRegister
      01009D43H   CODE     ---       _ADC_theACLK_SetDividerRegister
      0100BFCBH   CODE     ---       _ADC_theACLK_SetModeRegister
LX51 LINKER/LOCATER V4.64.0.0                                                         02/02/2018  18:09:00  PAGE 28


*DEL*:00000000H   CODE     ---       _ADC_theACLK_SetPhaseRegister
*DEL*:00000000H   CODE     ---       _ADC_theACLK_SetSourceRegister
*DEL*:00000000H   CODE     ---       _ADC_theACLK_StandbyPower
*DEL*:00000000H   CODE     ---       _Bootloadable_SetFlashByte
*DEL*:00000000H   CODE     NEAR LAB  _cfg_write_bytes
*DEL*:00000000H   CODE     NEAR LAB  _cfg_write_bytes_code
      0100B095H   CODE     ---       _check_enc_data
*DEL*:00000000H   CODE     ---       _CLOCK_UART_ClearModeRegister
      01009AE4H   CODE     ---       _CLOCK_UART_SetDividerRegister
*DEL*:00000000H   CODE     ---       _CLOCK_UART_SetModeRegister
*DEL*:00000000H   CODE     ---       _CLOCK_UART_SetSourceRegister
*DEL*:00000000H   CODE     ---       _CLOCK_UART_StandbyPower
      0100AA15H   CODE     ---       _commWrite
      0100AAB8H   CODE     ---       _commWrite_old_id
      0100C119H   CODE     ---       _COUNTER_ENC_SetInterruptMode
      0100C137H   CODE     ---       _COUNTER_ENC_WriteCompare
*DEL*:00000000H   CODE     ---       _COUNTER_ENC_WriteControlRegister
      0100C125H   CODE     ---       _COUNTER_ENC_WriteCounter
      0100C131H   CODE     ---       _COUNTER_ENC_WritePeriod
*DEL*:00000000H   CODE     ---       _CyBusClk_SetDivider
      0100B912H   CODE     NEAR LAB  _cyconfigcpy
      0100BB99H   CODE     NEAR LAB  _cyconfigcpycode
*DEL*:00000000H   CODE     ---       _CyCpuClk_SetDivider
*DEL*:00000000H   CODE     NEAR LAB  _CyDelay
      0100B800H   CODE     NEAR LAB  _CyDelayCycles
      0100BACCH   CODE     NEAR LAB  _CyDelayUs
*DEL*:00000000H   CODE     ---       _CyDmacClearError
*DEL*:00000000H   CODE     ---       _CyDmaChDisable
      0100B4C6H   CODE     ---       _CyDmaChEnable
*DEL*:00000000H   CODE     ---       _CyDmaChFree
*DEL*:00000000H   CODE     ---       _CyDmaChGetRequest
      0100B6B0H   CODE     ---       _CyDmaChPriority
*DEL*:00000000H   CODE     ---       _CyDmaChRoundRobin
      0100AD5FH   CODE     ---       _CyDmaChSetConfiguration
      0100ADD8H   CODE     ---       _CyDmaChSetExtendedAddress
      0100BC81H   CODE     ---       _CyDmaChSetInitialTd
*DEL*:00000000H   CODE     ---       _CyDmaChSetRequest
*DEL*:00000000H   CODE     ---       _CyDmaChStatus
*DEL*:00000000H   CODE     ---       _CyDmaClearPendingDrq
*DEL*:00000000H   CODE     ---       _CyDmaTdFree
*DEL*:00000000H   CODE     ---       _CyDmaTdGetAddress
*DEL*:00000000H   CODE     ---       _CyDmaTdGetConfiguration
      0100AE50H   CODE     ---       _CyDmaTdSetAddress
      0100AC55H   CODE     ---       _CyDmaTdSetConfiguration
*DEL*:00000000H   CODE     ---       _CyEnableInts
      0100BD52H   CODE     NEAR LAB  _CyExitCriticalSection
*DEL*:00000000H   CODE     ---       _CyFlash_SetWaitCycles
*DEL*:00000000H   CODE     ---       _CyGetUniqueId
*DEL*:00000000H   CODE     ---       _CyILO_SetPowerMode
*DEL*:00000000H   CODE     ---       _CyILO_SetSource
*DEL*:00000000H   CODE     ---       _CyIMO_SetFreq
*DEL*:00000000H   CODE     ---       _CyIMO_SetSource
*DEL*:00000000H   CODE     ---       _CyIMO_Start
*DEL*:00000000H   CODE     ---       _CyIntGetPriority
*DEL*:00000000H   CODE     ---       _CyIntGetState
*DEL*:00000000H   CODE     ---       _CyIntGetVector
      0100BD08H   CODE     ---       _CyIntSetPriority
      0100B2E2H   CODE     ---       _CyIntSetVector
*DEL*:00000000H   CODE     ---       _CyMasterClk_SetDivider
*DEL*:00000000H   CODE     ---       _CyMasterClk_SetSource
*DEL*:00000000H   CODE     NEAR LAB  _cymemzero
*DEL*:00000000H   CODE     ---       _CyPLL_OUT_SetPQ
*DEL*:00000000H   CODE     ---       _CyPLL_OUT_SetSource
*DEL*:00000000H   CODE     ---       _CyPLL_OUT_Start
*DEL*:00000000H   CODE     ---       _CyPmAltAct
LX51 LINKER/LOCATER V4.64.0.0                                                         02/02/2018  18:09:00  PAGE 29


*DEL*:00000000H   CODE     ---       _CyPmCtwSetInterval
*DEL*:00000000H   CODE     ---       _CyPmFtwSetInterval
*DEL*:00000000H   CODE     ---       _CyPmHibernateEx
*DEL*:00000000H   CODE     ---       _CyPmReadStatus
*DEL*:00000000H   CODE     ---       _CyPmSleep
      0100BF17H   CODE     NEAR LAB  _cyread16
      0100BF19H   CODE     NEAR LAB  _cyread16_nodpx
      0100BEAFH   CODE     NEAR LAB  _cyread24
      0100BEB1H   CODE     NEAR LAB  _cyread24_nodpx
*DEL*:00000000H   CODE     NEAR LAB  _cyread32
*DEL*:00000002H   CODE     NEAR LAB  _cyread32_nodpx
      0100BFD8H   CODE     NEAR LAB  _cyread8
      0100BFDAH   CODE     NEAR LAB  _cyread8_nodpx
*DEL*:00000000H   CODE     ---       _CySetFlashEEBuffer
*DEL*:00000000H   CODE     ---       _CySpcEraseSector
      0100BA9CH   CODE     ---       _CySpcGetTemp
*DEL*:00000000H   CODE     ---       _CySpcLoadMultiByte
      0100AFB2H   CODE     ---       _CySpcLoadRow
*DEL*:00000000H   CODE     ---       _CySpcLoadRowFull
      0100B1D1H   CODE     ---       _CySpcReadData
      0100B336H   CODE     ---       _CySpcWriteRow
*DEL*:00000000H   CODE     ---       _CyUsbClk_SetSource
*DEL*:00000000H   CODE     ---       _CyVdLvAnalogEnable
*DEL*:00000000H   CODE     ---       _CyVdLvDigitEnable
*DEL*:00000000H   CODE     ---       _CyVdStickyStatus
*DEL*:00000000H   CODE     ---       _CyWdtStart
      0100BF26H   CODE     NEAR LAB  _cywrite16
      0100BF28H   CODE     NEAR LAB  _cywrite16_nodpx
      0100BED4H   CODE     NEAR LAB  _cywrite24
      0100BED6H   CODE     NEAR LAB  _cywrite24_nodpx
*DEL*:00000000H   CODE     NEAR LAB  _cywrite32
*DEL*:00000002H   CODE     NEAR LAB  _cywrite32_nodpx
      0100BFE4H   CODE     NEAR LAB  _cywrite8
      0100BFE6H   CODE     NEAR LAB  _cywrite8_nodpx
*DEL*:00000000H   CODE     ---       _CyWriteRowData
*DEL*:00000000H   CODE     ---       _CyWriteRowFull
*DEL*:00000000H   CODE     ---       _CyXTAL_32KHZ_SetPowerMode
*DEL*:00000000H   CODE     ---       _CyXTAL_SetFbVoltage
*DEL*:00000000H   CODE     ---       _CyXTAL_SetStartup
*DEL*:00000000H   CODE     ---       _CyXTAL_SetWdVoltage
*DEL*:00000000H   CODE     ---       _CyXTAL_Start
      0100B511H   CODE     ---       _DMA_DmaInitialize
      01002604H   CODE     NEAR LAB  _dma_wait
*DEL*:00000000H   CODE     ---       _EEPROM_ByteWritePos
*DEL*:00000000H   CODE     ---       _EEPROM_EraseSector
*DEL*:00000000H   CODE     ---       _EEPROM_ReadByte
*DEL*:00000000H   CODE     ---       _EEPROM_StartErase
*DEL*:00000000H   CODE     ---       _EEPROM_StartWrite
      0100A5CDH   CODE     ---       _EEPROM_Write
*DEL*:00000000H   CODE     ---       _EEPROM_WriteByte
      010087E2H   CODE     ---       _encoder_reading
*DEL*:00000000H   CODE     ---       _FF_STATUS_WriteMask
      0100AEC8H   CODE     ---       _filter_i1
      0100AF3DH   CODE     ---       _filter_i2
*DEL*:00000000H   CODE     ---       _filter_vel_1
*DEL*:00000000H   CODE     ---       _filter_vel_2
*DEL*:00000000H   CODE     ---       _filter_vel_3
      0100C161H   CODE     ---       _FTDI_ENABLE_REG_Write
      0100261AH   CODE     ---       _get_param_list
      0100BCD6H   CODE     ---       _infoGet
      01003E71H   CODE     ---       _infoPrepare
      0100C01EH   CODE     ---       _ISR_RS485_RX_SetPriority
      0100BF35H   CODE     ---       _ISR_RS485_RX_SetVector
      0100BC24H   CODE     ---       _ISR_RS485_RX_StartEx
      0100C082H   CODE     ---       _ISR_WATCHDOG_SetPriority
LX51 LINKER/LOCATER V4.64.0.0                                                         02/02/2018  18:09:00  PAGE 30


      0100BF7BH   CODE     ---       _ISR_WATCHDOG_SetVector
      0100BC43H   CODE     ---       _ISR_WATCHDOG_StartEx
      0100B979H   CODE     ---       _LCRChecksum
      0100A6ACH   CODE     ---       _memStore
      01006058H   CODE     ---       _motor_control
      0100C179H   CODE     ---       _MOTOR_DIR_Write
      0100C14FH   CODE     ---       _MOTOR_ON_OFF_Write
      0100C155H   CODE     ---       _MY_TIMER_SetInterruptMode
*DEL*:00000000H   CODE     ---       _MY_TIMER_WriteControlRegister
      0100C078H   CODE     ---       _MY_TIMER_WriteCounter
      0100C064H   CODE     ---       _MY_TIMER_WritePeriod
      0100C167H   CODE     ---       _PACER_TIMER_SetInterruptMode
*DEL*:00000000H   CODE     ---       _PACER_TIMER_WriteControlRegister
      0100BF6DH   CODE     ---       _PACER_TIMER_WriteCounter
      0100BF5FH   CODE     ---       _PACER_TIMER_WritePeriod
      01007D5DH   CODE     ---       _PRINTF
      0100BB4CH   CODE     ---       _PUTCHAR
      0100C10DH   CODE     ---       _PWM_MOTORS_WriteCompare1
      0100C113H   CODE     ---       _PWM_MOTORS_WriteCompare2
*DEL*:00000000H   CODE     ---       _PWM_MOTORS_WriteControlRegister
      0100C101H   CODE     ---       _PWM_MOTORS_WriteCounter
      0100C107H   CODE     ---       _PWM_MOTORS_WritePeriod
      0100C173H   CODE     ---       _RESET_FF_Write
      0100C149H   CODE     ---       _RS485_CTS_Write
      0100BD82H   CODE     ---       _sendAcknowledgment
*DEL*:00000000H   CODE     ---       _SetAnalogRoutingPumps
*DEL*:00000000H   CODE     ---       _SHIFTREG_ENC_1_GetFIFOStatus
      0100BEE6H   CODE     ---       _SHIFTREG_ENC_1_SetIntMode
*DEL*:00000000H   CODE     ---       _SHIFTREG_ENC_1_WriteRegValue
*DEL*:00000000H   CODE     ---       _SHIFTREG_ENC_2_GetFIFOStatus
      0100BEF7H   CODE     ---       _SHIFTREG_ENC_2_SetIntMode
*DEL*:00000000H   CODE     ---       _SHIFTREG_ENC_2_WriteRegValue
*DEL*:00000000H   CODE     ---       _SHIFTREG_ENC_3_GetFIFOStatus
*DEL*:00000000H   CODE     ---       _SHIFTREG_ENC_3_SetIntMode
*DEL*:00000000H   CODE     ---       _SHIFTREG_ENC_3_WriteRegValue
*DEL*:00000000H   CODE     ---       _SHIFTREG_ENC_4_GetFIFOStatus
*DEL*:00000000H   CODE     ---       _SHIFTREG_ENC_4_SetIntMode
*DEL*:00000000H   CODE     ---       _SHIFTREG_ENC_4_WriteRegValue
      01007D57H   CODE     ---       _SPRINTF
      0100B100H   CODE     ---       _strcat
      0100BDEEH   CODE     ---       _STRLEN
*DEL*:00000000H   CODE     ---       _UART_RS485_PutArray
      0100BF97H   CODE     ---       _UART_RS485_PutChar
*DEL*:00000000H   CODE     ---       _UART_RS485_PutCRLF
      0100B8DEH   CODE     ---       _UART_RS485_PutString
*DEL*:00000000H   CODE     ---       _UART_RS485_SendBreak
*DEL*:00000000H   CODE     ---       _UART_RS485_SetRxAddress1
*DEL*:00000000H   CODE     ---       _UART_RS485_SetRxAddress2
*DEL*:00000000H   CODE     ---       _UART_RS485_SetRxAddressMode
*DEL*:00000000H   CODE     ---       _UART_RS485_SetRxInterruptMode
*DEL*:00000000H   CODE     ---       _UART_RS485_SetTxAddressMode
*DEL*:00000000H   CODE     ---       _UART_RS485_SetTxInterruptMode
*DEL*:00000000H   CODE     ---       _UART_RS485_WriteControlRegister
*DEL*:00000000H   CODE     ---       _UART_RS485_WriteTxData
      0100C18BH   CODE     ---       _WATCHDOG_COUNTER_SetInterruptMode
*DEL*:00000000H   CODE     ---       _WATCHDOG_COUNTER_WriteControlRegister
      0100BC9FH   CODE     ---       _WATCHDOG_COUNTER_WriteCounter
      0100BF89H   CODE     ---       _WATCHDOG_COUNTER_WritePeriod
      0100C191H   CODE     ---       _WATCHDOG_ENABLER_Write
      0100C197H   CODE     ---       _WATCHDOG_REFRESH_Write
*SFR* 000000D0H.6 DATA     BIT       AC
*SFR* 000000E0H   DATA     BYTE      ACC
      0100CCDBH   CONST    ---       ADC_AMux__addrTable
      0100CCDFH   CONST    ---       ADC_AMux__maskTable
      0100BC03H   CODE     ---       ADC_AMux_Start
LX51 LINKER/LOCATER V4.64.0.0                                                         02/02/2018  18:09:00  PAGE 31


      02000CD8H   XDATA    ---       ADC_buf
      02000E31H   XDATA    BYTE      ADC_Config
      02000E3CH   XDATA    BYTE      ADC_convDone
      02000E3DH   XDATA    LONG      ADC_CountsPerVolt
      0100AB45H   CODE     ---       ADC_Enable
      0100C08CH   CODE     ---       ADC_Ext_CP_Clk_GetDividerRegister
*DEL*:00000000H   CODE     ---       ADC_Ext_CP_Clk_GetModeRegister
      0100C0C8H   CODE     ---       ADC_Ext_CP_Clk_GetSourceRegister
*DEL*:00000000H   CODE     ---       ADC_Ext_CP_Clk_Start
*DEL*:00000000H   CODE     ---       ADC_Ext_CP_Clk_Stop
*DEL*:00000000H   CODE     ---       ADC_Ext_CP_Clk_StopBlock
*DEL*:00000000H   CODE     ---       ADC_GetResult16
*DEL*:00000000H   CODE     ---       ADC_GetResult32
*DEL*:00000000H   CODE     ---       ADC_GetResult8
      0100A75EH   CODE     ---       ADC_Init
      02000E32H   XDATA    BYTE      ADC_initVar
      0100C1AEH   CODE     ---       ADC_ISR1
      0100C1AFH   CODE     ---       ADC_ISR2
      0100C1B0H   CODE     ---       ADC_ISR3
      0100C1B1H   CODE     ---       ADC_ISR4
      02000E33H   XDATA    LONG      ADC_Offset
*DEL*:00000000H   CODE     ---       ADC_Read16
*DEL*:00000000H   CODE     ---       ADC_Read32
*DEL*:00000000H   CODE     ---       ADC_Read8
*DEL*:00000000H   CODE     ---       ADC_ReadGCOR
*DEL*:00000000H   CODE     ---       ADC_SOC_Read
      0100BCEFH   CODE     ---       ADC_Start
*DEL*:00000000H   CODE     ---       ADC_StartConvert
      02000E38H   XDATA    BYTE      ADC_started
*DEL*:00000000H   CODE     ---       ADC_STATUS_InterruptDisable
*DEL*:00000000H   CODE     ---       ADC_STATUS_InterruptEnable
      0100C17FH   CODE     ---       ADC_STATUS_Read
*DEL*:00000000H   CODE     ---       ADC_STATUS_ReadMask
*DEL*:00000000H   CODE     ---       ADC_Stop
      02000E37H   XDATA    BYTE      ADC_stopConversion
*DEL*:00000000H   CODE     ---       ADC_StopConvert
      0100C096H   CODE     ---       ADC_theACLK_GetDividerRegister
*DEL*:00000000H   CODE     ---       ADC_theACLK_GetModeRegister
*DEL*:00000000H   CODE     ---       ADC_theACLK_GetPhaseRegister
      0100C0D0H   CODE     ---       ADC_theACLK_GetSourceRegister
*DEL*:00000000H   CODE     ---       ADC_theACLK_Start
*DEL*:00000000H   CODE     ---       ADC_theACLK_Stop
*DEL*:00000000H   CODE     ---       ADC_theACLK_StopBlock
      0100A2F9H   CODE     ---       analog_read_end
*SFR* 000000F0H   DATA     BYTE      B
      0100C05AH   CODE     ---       Bootloadable_Load
      02000B0BH   XDATA    ---       c_mem
      02000C16H   XDATA    BYTE      calibration_flag
      0100C028H   CODE     ---       CLOCK_UART_GetDividerRegister
*DEL*:00000000H   CODE     ---       CLOCK_UART_GetModeRegister
      0100C0A8H   CODE     ---       CLOCK_UART_GetSourceRegister
*DEL*:00000000H   CODE     ---       CLOCK_UART_Start
*DEL*:00000000H   CODE     ---       CLOCK_UART_Stop
*DEL*:00000000H   CODE     ---       CLOCK_UART_StopBlock
      0100B62CH   CODE     ---       cmd_activate
      0100BA0DH   CODE     ---       cmd_get_activate
      0100B025H   CODE     ---       cmd_get_curr_and_meas
      0100B5A2H   CODE     ---       cmd_get_currents
      0100B16BH   CODE     ---       cmd_get_inputs
      0100B38AH   CODE     ---       cmd_get_measurements
      0100B7A7H   CODE     ---       cmd_get_velocities
      0100BD3AH   CODE     ---       cmd_ping
      0100B7E0H   CODE     ---       cmd_set_baudrate
      01009871H   CODE     ---       cmd_set_inputs
      01009706H   CODE     ---       cmd_set_pos_stiff
LX51 LINKER/LOCATER V4.64.0.0                                                         02/02/2018  18:09:00  PAGE 32


      0100B66FH   CODE     ---       cmd_set_watchdog
      010084B2H   CODE     ---       cmd_store_params
      01009E72H   CODE     ---       commProcess
      0100BFA4H   CODE     ---       COUNTER_ENC_ClearFIFO
      0100C0B0H   CODE     ---       COUNTER_ENC_Enable
      0100B8A9H   CODE     ---       COUNTER_ENC_Init
      02000E62H   XDATA    BYTE      COUNTER_ENC_initVar
      0100C12BH   CODE     ---       COUNTER_ENC_ReadCapture
*DEL*:00000000H   CODE     ---       COUNTER_ENC_ReadCompare
*DEL*:00000000H   CODE     ---       COUNTER_ENC_ReadControlRegister
*DEL*:00000000H   CODE     ---       COUNTER_ENC_ReadCounter
*DEL*:00000000H   CODE     ---       COUNTER_ENC_ReadPeriod
      0100C11FH   CODE     ---       COUNTER_ENC_ReadStatusRegister
      0100BE3DH   CODE     ---       COUNTER_ENC_Start
*DEL*:00000000H   CODE     ---       COUNTER_ENC_Stop
      00000021H.5 BIT      BIT       cuff_flag_force
      00000021H.2 BIT      BIT       cuff_flag_force_proprio
      00000021H.4 BIT      BIT       cuff_flag_proprio
*SFR* 000000D0H.7 DATA     BIT       CY
      02000E4CH   XDATA    DWORD     cydelay_32k_ms
      02000E47H   XDATA    DWORD     cydelay_freq_hz
      02000E42H   XDATA    DWORD     cydelay_freq_khz
      02000E46H   XDATA    BYTE      cydelay_freq_mhz
*DEL*:00000000H   CODE     ---       CyDisableInts
      0100B873H   CODE     ---       CyDmacConfigure
*DEL*:00000000H   CODE     ---       CyDmacError
*DEL*:00000000H   CODE     ---       CyDmacErrorAddress
*DEL*:00000000H   CODE     ---       CyDmaChAlloc
      0100B6F0H   CODE     ---       CyDmaTdAllocate
*DEL*:00000000H   CODE     ---       CyDmaTdFreeCount
*DEL*:00000000H   CODE     ---       CyEEPROM_ReadRelease
*DEL*:00000000H   CODE     ---       CyEEPROM_ReadReserve
      0100B9DCH   CODE     ---       CyEEPROM_Start
*DEL*:00000000H   CODE     ---       CyEEPROM_Stop
      0100BDC4H   CODE     NEAR LAB  CyEnterCriticalSection
      0100A1E2H   CODE     ---       cyfitter_cfg
*DEL*:00000000H   CODE     ---       CyFlash_Start
*DEL*:00000000H   CODE     ---       CyFlash_Stop
*DEL*:00000000H   CODE     ---       CyILO_Disable33K
*DEL*:00000000H   CODE     ---       CyILO_Enable33K
*DEL*:00000000H   CODE     ---       CyILO_Start100K
*DEL*:00000000H   CODE     ---       CyILO_Start1K
*DEL*:00000000H   CODE     ---       CyILO_Stop100K
*DEL*:00000000H   CODE     ---       CyILO_Stop1K
*DEL*:00000000H   CODE     ---       CyIMO_DisableDoubler
*DEL*:00000000H   CODE     ---       CyIMO_EnableDoubler
*DEL*:00000000H   CODE     ---       CyIMO_Stop
*DEL*:00000000H   CODE     ---       CyPLL_OUT_Stop
*DEL*:00000000H   CODE     ---       CyPmHibernate
*DEL*:00000000H   CODE     ---       CyPmOppsSet
*DEL*:00000000H   CODE     ---       CyPmRestoreClocks
*DEL*:00000000H   CODE     ---       CyPmSaveClocks
      02000E4BH   XDATA    BYTE      CyResetStatus
      0100BD6AH   CODE     ---       CySetTemp
      0100C0C0H   CODE     ---       CySoftwareReset
      0100BCBBH   CODE     ---       CySpcGetAlgorithm
      0100BC62H   CODE     ---       CySpcLock
      0100BDD9H   CODE     ---       CySpcStart
*DEL*:00000000H   CODE     ---       CySpcStop
      0100BFF0H   CODE     ---       CySpcUnlock
*DEL*:00000000H   CODE     ---       CyVdHvAnalogDisable
*DEL*:00000000H   CODE     ---       CyVdHvAnalogEnable
*DEL*:00000000H   CODE     ---       CyVdLvAnalogDisable
*DEL*:00000000H   CODE     ---       CyVdLvDigitDisable
*DEL*:00000000H   CODE     ---       CyVdRealTimeStatus
LX51 LINKER/LOCATER V4.64.0.0                                                         02/02/2018  18:09:00  PAGE 33


*DEL*:00000000H   CODE     ---       CyWdtClear
*DEL*:00000000H   CODE     ---       CyXTAL_32KHZ_ReadStatus
*DEL*:00000000H   CODE     ---       CyXTAL_32KHZ_Start
*DEL*:00000000H   CODE     ---       CyXTAL_32KHZ_Stop
*DEL*:00000000H   CODE     ---       CyXTAL_DisableErrStatus
*DEL*:00000000H   CODE     ---       CyXTAL_DisableFaultRecovery
*DEL*:00000000H   CODE     ---       CyXTAL_EnableErrStatus
*DEL*:00000000H   CODE     ---       CyXTAL_EnableFaultRecovery
*DEL*:00000000H   CODE     ---       CyXTAL_ReadStatus
*DEL*:00000000H   CODE     ---       CyXTAL_Stop
      02000CF6H   XDATA    BYTE      dev_pwm_limit
      02000C31H   XDATA    LONG      dev_tension
      02000E59H   XDATA    ---       dieTemperature
      02000E69H   XDATA    BYTE      DMA_DmaHandle
*DEL*:00000000H   CODE     ---       DMA_DmaRelease
*SFR* 00000083H   DATA     BYTE      DPH
*SFR* 00000085H   DATA     BYTE      DPH1
*SFR* 00000082H   DATA     BYTE      DPL
*SFR* 00000084H   DATA     BYTE      DPL1
*SFR* 00000086H   DATA     BYTE      DPS
*SFR* 00000093H   DATA     BYTE      DPX
*SFR* 00000095H   DATA     BYTE      DPX1
      01008FA1H   CODE     ---       drive_cuff
*SFR* 000000A8H.7 DATA     BIT       EA
      02000E5FH   XDATA    ---       EEPROM_ADDR
      0100C0E6H   CODE     ---       EEPROM_Enable
*DEL*:00000000H   CODE     ---       EEPROM_Query
      0100C19DH   CODE     ---       EEPROM_Start
*DEL*:00000000H   CODE     ---       EEPROM_Stop
      0100C1A1H   CODE     ---       EEPROM_UpdateTemperature
*SFR* 000000D0H.5 DATA     BIT       F0
*SFR* 000000D0H.1 DATA     BIT       F1
*DEL*:00000000H   CODE     ---       FF_STATUS_InterruptDisable
*DEL*:00000000H   CODE     ---       FF_STATUS_InterruptEnable
      0100C16DH   CODE     ---       FF_STATUS_Read
*DEL*:00000000H   CODE     ---       FF_STATUS_ReadMask
      0100784AH   CODE     ---       force_and_slide_cuff
*DEL*:00000000H   CODE     ---       FTDI_ENABLE_REG_Read
      0100A3FBH   CODE     ---       function_scheduler
      02000CE0H   XDATA    ---       g_meas
      02000C17H   XDATA    ---       g_measOld
      02000B95H   XDATA    ---       g_mem
      02000B8CH   XDATA    ---       g_ref
      02000CC3H   XDATA    ---       g_refNew
      02000C35H   XDATA    ---       g_refOld
      02000C3EH   XDATA    ---       g_rx
      0100CD26H   CONST    ---       hitech_pwm_preload_values
      0100CD4AH   CONST    ---       hitech_pwm_preload_values_6v
*SFR* 000000A8H   DATA     BYTE      IE
      00000022H.1 BIT      BIT       interrupt_flag
      01009C14H   CODE     ---       interrupt_manager
*DEL*:00000000H   CODE     ---       ISR_RS485_RX_ClearPending
      0100C0DFH   CODE     ---       ISR_RS485_RX_Disable
      0100C0D8H   CODE     ---       ISR_RS485_RX_Enable
      0100C1A8H   CODE     ---       ISR_RS485_RX_ExInterrupt
*DEL*:00000000H   CODE     ---       ISR_RS485_RX_GetPriority
*DEL*:00000000H   CODE     ---       ISR_RS485_RX_GetState
*DEL*:00000000H   CODE     ---       ISR_RS485_RX_GetVector
      0100BACAH   CODE     ---       ISR_RS485_RX_Interrupt
*DEL*:00000000H   CODE     ---       ISR_RS485_RX_SetPending
*DEL*:00000000H   CODE     ---       ISR_RS485_RX_Start
*DEL*:00000000H   CODE     ---       ISR_RS485_RX_Stop
*DEL*:00000000H   CODE     ---       ISR_WATCHDOG_ClearPending
      0100C0F4H   CODE     ---       ISR_WATCHDOG_Disable
      0100C0EDH   CODE     ---       ISR_WATCHDOG_Enable
LX51 LINKER/LOCATER V4.64.0.0                                                         02/02/2018  18:09:00  PAGE 34


*DEL*:00000000H   CODE     ---       ISR_WATCHDOG_GetPriority
*DEL*:00000000H   CODE     ---       ISR_WATCHDOG_GetState
*DEL*:00000000H   CODE     ---       ISR_WATCHDOG_GetVector
      0100C1A5H   CODE     ---       ISR_WATCHDOG_Handler
      0100BACBH   CODE     ---       ISR_WATCHDOG_Interrupt
*DEL*:00000000H   CODE     ---       ISR_WATCHDOG_SetPending
*DEL*:00000000H   CODE     ---       ISR_WATCHDOG_Start
*DEL*:00000000H   CODE     ---       ISR_WATCHDOG_Stop
      01008AD7H   CODE     ---       main
      010091F2H   CODE     ---       memInit
      0100B479H   CODE     ---       memRecall
      0100B55BH   CODE     ---       memRestore
*DEL*:00000000H   CODE     ---       MOTOR_DIR_Read
*DEL*:00000000H   CODE     ---       MOTOR_ON_OFF_Read
*SFR* 000000EAH   DATA     BYTE      MXAX
      0100BFB1H   CODE     ---       MY_TIMER_ClearFIFO
      0100C0B8H   CODE     ---       MY_TIMER_Enable
      0100BAF9H   CODE     ---       MY_TIMER_Init
      02000E67H   XDATA    BYTE      MY_TIMER_initVar
      0100C06EH   CODE     ---       MY_TIMER_ReadCapture
*DEL*:00000000H   CODE     ---       MY_TIMER_ReadControlRegister
      0100BF08H   CODE     ---       MY_TIMER_ReadCounter
*DEL*:00000000H   CODE     ---       MY_TIMER_ReadPeriod
      0100C15BH   CODE     ---       MY_TIMER_ReadStatusRegister
*DEL*:00000000H   CODE     ---       MY_TIMER_SoftwareCapture
      0100BE76H   CODE     ---       MY_TIMER_Start
*DEL*:00000000H   CODE     ---       MY_TIMER_Stop
*SFR* 000000D0H.2 DATA     BIT       OV
*SFR* 000000D0H   DATA     BIT       P
*SFR* 000000A0H   DATA     BYTE      P2AX
      0100BD98H   CODE     ---       PACER_TIMER_Enable
      0100B76BH   CODE     ---       PACER_TIMER_Init
      02000E68H   XDATA    BYTE      PACER_TIMER_initVar
*DEL*:00000000H   CODE     ---       PACER_TIMER_ReadCapture
*DEL*:00000000H   CODE     ---       PACER_TIMER_ReadControlRegister
*DEL*:00000000H   CODE     ---       PACER_TIMER_ReadCounter
*DEL*:00000000H   CODE     ---       PACER_TIMER_ReadPeriod
*DEL*:00000000H   CODE     ---       PACER_TIMER_ReadStatusRegister
*DEL*:00000000H   CODE     ---       PACER_TIMER_SoftwareCapture
      0100BE89H   CODE     ---       PACER_TIMER_Start
*DEL*:00000000H   CODE     ---       PACER_TIMER_Stop
      00000021H.7 BIT      BIT       pret_done
      02000CD0H   XDATA    ---       pret_offset_pos
      00000021H.3 BIT      BIT       pretensioning_flag
      01008D43H   CODE     ---       pretensioning_process
*SFR* 000000D0H   DATA     BYTE      PSW
      01009F9EH   CODE     ---       pwm_limit_search
      0100C0A0H   CODE     ---       PWM_MOTORS_Enable
      0100BB73H   CODE     ---       PWM_MOTORS_Init
      02000E61H   XDATA    BYTE      PWM_MOTORS_initVar
*DEL*:00000000H   CODE     ---       PWM_MOTORS_ReadCapture
*DEL*:00000000H   CODE     ---       PWM_MOTORS_ReadCompare1
*DEL*:00000000H   CODE     ---       PWM_MOTORS_ReadCompare2
*DEL*:00000000H   CODE     ---       PWM_MOTORS_ReadControlRegister
*DEL*:00000000H   CODE     ---       PWM_MOTORS_ReadCounter
*DEL*:00000000H   CODE     ---       PWM_MOTORS_ReadPeriod
      0100BE2AH   CODE     ---       PWM_MOTORS_Start
*DEL*:00000000H   CODE     ---       PWM_MOTORS_Stop
      0100CD09H   CONST    ---       pwm_preload_values
      02000CDEH   XDATA    ---       pwm_sign
*DEL*:00000000H   CODE     ---       RESET_FF_Read
      00000021H.6 BIT      BIT       reset_last_value_flag
*SFR* 000000D0H.3 DATA     BIT       RS0
*SFR* 000000D0H.4 DATA     BIT       RS1
*DEL*:00000000H   CODE     ---       RS485_CTS_Read
LX51 LINKER/LOCATER V4.64.0.0                                                         02/02/2018  18:09:00  PAGE 35


      0100ACDCH   CODE     ---       setZeros
*SFR* 00000080H   DATA     BYTE      SFRPRT0DR
*SFR* 00000089H   DATA     BYTE      SFRPRT0PS
*SFR* 0000008AH   DATA     BYTE      SFRPRT0SEL
*SFR* 000000E8H   DATA     BYTE      SFRPRT12DR
*SFR* 000000E9H   DATA     BYTE      SFRPRT12PS
*SFR* 000000F2H   DATA     BYTE      SFRPRT12SEL
*SFR* 000000F8H   DATA     BYTE      SFRPRT15DR
*SFR* 000000F9H   DATA     BYTE      SFRPRT15PS
*SFR* 000000FAH   DATA     BYTE      SFRPRT15SEL
*SFR* 00000090H   DATA     BYTE      SFRPRT1DR
*SFR* 00000091H   DATA     BYTE      SFRPRT1PS
*SFR* 000000A2H   DATA     BYTE      SFRPRT1SEL
*SFR* 00000098H   DATA     BYTE      SFRPRT2DR
*SFR* 00000099H   DATA     BYTE      SFRPRT2PS
*SFR* 0000009AH   DATA     BYTE      SFRPRT2SEL
*SFR* 000000B0H   DATA     BYTE      SFRPRT3DR
*SFR* 000000B1H   DATA     BYTE      SFRPRT3PS
*SFR* 000000B2H   DATA     BYTE      SFRPRT3SEL
*SFR* 000000C0H   DATA     BYTE      SFRPRT4DR
*SFR* 000000C1H   DATA     BYTE      SFRPRT4PS
*SFR* 000000C2H   DATA     BYTE      SFRPRT4SEL
*SFR* 000000C8H   DATA     BYTE      SFRPRT5DR
*SFR* 000000C9H   DATA     BYTE      SFRPRT5PS
*SFR* 000000CAH   DATA     BYTE      SFRPRT5SEL
*SFR* 000000D8H   DATA     BYTE      SFRPRT6DR
*SFR* 000000D9H   DATA     BYTE      SFRPRT6PS
*SFR* 000000DAH   DATA     BYTE      SFRPRT6SEL
*DEL*:00000000H   CODE     ---       SHIFTREG_ENC_1_DisableInt
      0100C008H   CODE     ---       SHIFTREG_ENC_1_Enable
      0100BF43H   CODE     ---       SHIFTREG_ENC_1_EnableInt
*DEL*:00000000H   CODE     ---       SHIFTREG_ENC_1_GetIntStatus
      0100C13DH   CODE     ---       SHIFTREG_ENC_1_Init
      02000E63H   XDATA    BYTE      SHIFTREG_ENC_1_initVar
      0100C032H   CODE     ---       SHIFTREG_ENC_1_ReadData
*DEL*:00000000H   CODE     ---       SHIFTREG_ENC_1_ReadRegValue
      0100BE50H   CODE     ---       SHIFTREG_ENC_1_Start
*DEL*:00000000H   CODE     ---       SHIFTREG_ENC_1_Stop
*DEL*:00000000H   CODE     ---       SHIFTREG_ENC_2_DisableInt
      0100C013H   CODE     ---       SHIFTREG_ENC_2_Enable
      0100BF51H   CODE     ---       SHIFTREG_ENC_2_EnableInt
*DEL*:00000000H   CODE     ---       SHIFTREG_ENC_2_GetIntStatus
      0100C143H   CODE     ---       SHIFTREG_ENC_2_Init
      02000E64H   XDATA    BYTE      SHIFTREG_ENC_2_initVar
      0100C03CH   CODE     ---       SHIFTREG_ENC_2_ReadData
*DEL*:00000000H   CODE     ---       SHIFTREG_ENC_2_ReadRegValue
      0100BE63H   CODE     ---       SHIFTREG_ENC_2_Start
*DEL*:00000000H   CODE     ---       SHIFTREG_ENC_2_Stop
*DEL*:00000000H   CODE     ---       SHIFTREG_ENC_3_DisableInt
*DEL*:00000000H   CODE     ---       SHIFTREG_ENC_3_Enable
*DEL*:00000000H   CODE     ---       SHIFTREG_ENC_3_EnableInt
*DEL*:00000000H   CODE     ---       SHIFTREG_ENC_3_GetIntStatus
*DEL*:00000000H   CODE     ---       SHIFTREG_ENC_3_Init
      02000E65H   XDATA    BYTE      SHIFTREG_ENC_3_initVar
      0100C046H   CODE     ---       SHIFTREG_ENC_3_ReadData
*DEL*:00000000H   CODE     ---       SHIFTREG_ENC_3_ReadRegValue
*DEL*:00000000H   CODE     ---       SHIFTREG_ENC_3_Start
*DEL*:00000000H   CODE     ---       SHIFTREG_ENC_3_Stop
*DEL*:00000000H   CODE     ---       SHIFTREG_ENC_4_DisableInt
*DEL*:00000000H   CODE     ---       SHIFTREG_ENC_4_Enable
*DEL*:00000000H   CODE     ---       SHIFTREG_ENC_4_EnableInt
*DEL*:00000000H   CODE     ---       SHIFTREG_ENC_4_GetIntStatus
*DEL*:00000000H   CODE     ---       SHIFTREG_ENC_4_Init
      02000E66H   XDATA    BYTE      SHIFTREG_ENC_4_initVar
      0100C050H   CODE     ---       SHIFTREG_ENC_4_ReadData
LX51 LINKER/LOCATER V4.64.0.0                                                         02/02/2018  18:09:00  PAGE 36


*DEL*:00000000H   CODE     ---       SHIFTREG_ENC_4_ReadRegValue
*DEL*:00000000H   CODE     ---       SHIFTREG_ENC_4_Start
*DEL*:00000000H   CODE     ---       SHIFTREG_ENC_4_Stop
      01008175H   CODE     ---       slide_cuff
*SFR* 00000081H   DATA     BYTE      SP
      02000E6CH   XDATA    BYTE      SpcLockState
      0100A0C5H   CODE     NEAR LAB  STARTUP1
      00000022H.2 BIT      BIT       tension_valid
      02000C2DH   XDATA    DWORD     timer_value
      02000CCCH   XDATA    DWORD     timer_value0
      0100BA6DH   CODE     ---       UART_RS485_ClearRxBuffer
      0100BEC2H   CODE     ---       UART_RS485_ClearTxBuffer
      0100BBBFH   CODE     ---       UART_RS485_Enable
      02000E30H   XDATA    BYTE      UART_RS485_errorStatus
*DEL*:00000000H   CODE     ---       UART_RS485_GetByte
      0100B231H   CODE     ---       UART_RS485_GetChar
      0100B42AH   CODE     ---       UART_RS485_GetRxBufferSize
*DEL*:00000000H   CODE     ---       UART_RS485_GetTxBufferSize
      0100B946H   CODE     ---       UART_RS485_Init
      02000E2EH   XDATA    BYTE      UART_RS485_initVar
*DEL*:00000000H   CODE     ---       UART_RS485_ReadControlRegister
*DEL*:00000000H   CODE     ---       UART_RS485_ReadRxData
      0100BE03H   CODE     ---       UART_RS485_ReadRxStatus
      0100C0FBH   CODE     ---       UART_RS485_ReadTxStatus
      02000E0DH   XDATA    ---       UART_RS485_rxBuffer
      02000E0BH   XDATA    BYTE      UART_RS485_rxBufferLoopDetect
      02000E2FH   XDATA    BYTE      UART_RS485_rxBufferOverflow
      02000E0CH   XDATA    BYTE      UART_RS485_rxBufferRead
      02000E2DH   XDATA    BYTE      UART_RS485_rxBufferWrite
      0100A80FH   CODE     ---       UART_RS485_RXISR
      0100BE17H   CODE     ---       UART_RS485_Start
      0100BBE1H   CODE     ---       UART_RS485_Stop
      0100BDAEH   CODE     ---       WATCHDOG_COUNTER_Enable
      0100B83BH   CODE     ---       WATCHDOG_COUNTER_Init
      02000E6AH   XDATA    BYTE      WATCHDOG_COUNTER_initVar
*DEL*:00000000H   CODE     ---       WATCHDOG_COUNTER_ReadCapture
*DEL*:00000000H   CODE     ---       WATCHDOG_COUNTER_ReadControlRegister
*DEL*:00000000H   CODE     ---       WATCHDOG_COUNTER_ReadCounter
*DEL*:00000000H   CODE     ---       WATCHDOG_COUNTER_ReadPeriod
*DEL*:00000000H   CODE     ---       WATCHDOG_COUNTER_ReadStatusRegister
      0100BE9CH   CODE     ---       WATCHDOG_COUNTER_Start
*DEL*:00000000H   CODE     ---       WATCHDOG_COUNTER_Stop
*DEL*:00000000H   CODE     ---       WATCHDOG_ENABLER_Read
      00000022H.0 BIT      BIT       watchdog_flag
*DEL*:00000000H   CODE     ---       WATCHDOG_REFRESH_Read



SYMBOL TABLE OF MODULE:  .\DP8051_Keil_951\Release\cuff_mod_firmware.omf (COMMAND_PROCESSING)

      VALUE       REP       CLASS    TYPE      SYMBOL NAME
      ====================================================
      ---         MODULE    ---      ---       COMMAND_PROCESSING
      02000E5FH   PUBLIC    XDATA    ---       EEPROM_ADDR
      0100B7E0H   PUBLIC    CODE     ---       cmd_set_baudrate
      010084B2H   PUBLIC    CODE     ---       cmd_store_params
      0100BD3AH   PUBLIC    CODE     ---       cmd_ping
      0100BA0DH   PUBLIC    CODE     ---       cmd_get_activate
      0100B66FH   PUBLIC    CODE     ---       cmd_set_watchdog
      0100B62CH   PUBLIC    CODE     ---       cmd_activate
      0100B7A7H   PUBLIC    CODE     ---       cmd_get_velocities
      01009706H   PUBLIC    CODE     ---       cmd_set_pos_stiff
      01009871H   PUBLIC    CODE     ---       cmd_set_inputs
      0100B025H   PUBLIC    CODE     ---       cmd_get_curr_and_meas
      0100B5A2H   PUBLIC    CODE     ---       cmd_get_currents
LX51 LINKER/LOCATER V4.64.0.0                                                         02/02/2018  18:09:00  PAGE 37


      0100B16BH   PUBLIC    CODE     ---       cmd_get_inputs
      0100B38AH   PUBLIC    CODE     ---       cmd_get_measurements
      010091F2H   PUBLIC    CODE     ---       memInit
      0100B55BH   PUBLIC    CODE     ---       memRestore
      0100B479H   PUBLIC    CODE     ---       memRecall
      0100A6ACH   PUBLIC    CODE     ---       _memStore
      0100BD82H   PUBLIC    CODE     ---       _sendAcknowledgment
      02000B02H   PUBLIC    XDATA    BYTE      ?_commWrite?BYTE
      0100AA15H   PUBLIC    CODE     ---       _commWrite
      0200002BH   PUBLIC    XDATA    BYTE      ?_commWrite_old_id?BYTE
      0100AAB8H   PUBLIC    CODE     ---       _commWrite_old_id
      01003E71H   PUBLIC    CODE     ---       _infoPrepare
      0100261AH   PUBLIC    CODE     ---       _get_param_list
      0100ACDCH   PUBLIC    CODE     ---       setZeros
      0100BCD6H   PUBLIC    CODE     ---       _infoGet
      0100784AH   PUBLIC    CODE     ---       force_and_slide_cuff
      01008175H   PUBLIC    CODE     ---       slide_cuff
      01008FA1H   PUBLIC    CODE     ---       drive_cuff
      01009E72H   PUBLIC    CODE     ---       commProcess
      000000CAH   SFRSYM    DATA     BYTE      SFRPRT5SEL
      000000DAH   SFRSYM    DATA     BYTE      SFRPRT6SEL
      000000D0H.6 SFRSYM    DATA     BIT       AC
      000000A8H.7 SFRSYM    DATA     BIT       EA
      000000A8H   SFRSYM    DATA     BYTE      IE
      00000085H   SFRSYM    DATA     BYTE      DPH1
      00000084H   SFRSYM    DATA     BYTE      DPL1
      000000D0H.7 SFRSYM    DATA     BIT       CY
      000000A0H   SFRSYM    DATA     BYTE      P2AX
      00000095H   SFRSYM    DATA     BYTE      DPX1
      00000081H   SFRSYM    DATA     BYTE      SP
      000000D0H.2 SFRSYM    DATA     BIT       OV
      00000080H   SFRSYM    DATA     BYTE      SFRPRT0DR
      00000090H   SFRSYM    DATA     BYTE      SFRPRT1DR
      000000F2H   SFRSYM    DATA     BYTE      SFRPRT12SEL
      00000098H   SFRSYM    DATA     BYTE      SFRPRT2DR
      000000B0H   SFRSYM    DATA     BYTE      SFRPRT3DR
      000000C0H   SFRSYM    DATA     BYTE      SFRPRT4DR
      000000FAH   SFRSYM    DATA     BYTE      SFRPRT15SEL
      000000C8H   SFRSYM    DATA     BYTE      SFRPRT5DR
      000000D8H   SFRSYM    DATA     BYTE      SFRPRT6DR
      00000089H   SFRSYM    DATA     BYTE      SFRPRT0PS
      00000091H   SFRSYM    DATA     BYTE      SFRPRT1PS
      00000099H   SFRSYM    DATA     BYTE      SFRPRT2PS
      000000B1H   SFRSYM    DATA     BYTE      SFRPRT3PS
      000000C1H   SFRSYM    DATA     BYTE      SFRPRT4PS
      000000C9H   SFRSYM    DATA     BYTE      SFRPRT5PS
      000000D9H   SFRSYM    DATA     BYTE      SFRPRT6PS
      000000EAH   SFRSYM    DATA     BYTE      MXAX
      000000F0H   SFRSYM    DATA     BYTE      B
      000000E0H   SFRSYM    DATA     BYTE      ACC
      000000D0H   SFRSYM    DATA     BIT       P
      000000D0H.3 SFRSYM    DATA     BIT       RS0
      000000D0H.4 SFRSYM    DATA     BIT       RS1
      00000083H   SFRSYM    DATA     BYTE      DPH
      000000E8H   SFRSYM    DATA     BYTE      SFRPRT12DR
      00000082H   SFRSYM    DATA     BYTE      DPL
      000000F8H   SFRSYM    DATA     BYTE      SFRPRT15DR
      00000086H   SFRSYM    DATA     BYTE      DPS
      000000E9H   SFRSYM    DATA     BYTE      SFRPRT12PS
      00000093H   SFRSYM    DATA     BYTE      DPX
      000000F9H   SFRSYM    DATA     BYTE      SFRPRT15PS
      000000D0H.5 SFRSYM    DATA     BIT       F0
      000000D0H.1 SFRSYM    DATA     BIT       F1
      0000008AH   SFRSYM    DATA     BYTE      SFRPRT0SEL
      000000D0H   SFRSYM    DATA     BYTE      PSW
LX51 LINKER/LOCATER V4.64.0.0                                                         02/02/2018  18:09:00  PAGE 38


      000000A2H   SFRSYM    DATA     BYTE      SFRPRT1SEL
      0000009AH   SFRSYM    DATA     BYTE      SFRPRT2SEL
      000000B2H   SFRSYM    DATA     BYTE      SFRPRT3SEL
      000000C2H   SFRSYM    DATA     BYTE      SFRPRT4SEL
      0100558BH   SYMBOL    CODE     ---       _?ix1000
      01005DDBH   SYMBOL    CODE     ---       _?ix1010
      01005CF8H   SYMBOL    CODE     ---       _?ix1001
      01005F01H   SYMBOL    CODE     ---       _?ix1020
      01005DF7H   SYMBOL    CODE     ---       _?ix1011
      01005D07H   SYMBOL    CODE     ---       _?ix1002
      01005F24H   SYMBOL    CODE     ---       _?ix1021
      01005E14H   SYMBOL    CODE     ---       _?ix1012
      01005D23H   SYMBOL    CODE     ---       _?ix1003
      01005F43H   SYMBOL    CODE     ---       _?ix1022
      01005E2FH   SYMBOL    CODE     ---       _?ix1013
      01005D3EH   SYMBOL    CODE     ---       _?ix1004
      01005F51H   SYMBOL    CODE     ---       _?ix1023
      01005E43H   SYMBOL    CODE     ---       _?ix1014
      01005D5AH   SYMBOL    CODE     ---       _?ix1005
      01005F73H   SYMBOL    CODE     ---       _?ix1024
      01005E63H   SYMBOL    CODE     ---       _?ix1015
      01005D75H   SYMBOL    CODE     ---       _?ix1006
      01005F94H   SYMBOL    CODE     ---       _?ix1025
      01005E87H   SYMBOL    CODE     ---       _?ix1016
      01005D9CH   SYMBOL    CODE     ---       _?ix1007
      01005FA9H   SYMBOL    CODE     ---       _?ix1026
      01005E9FH   SYMBOL    CODE     ---       _?ix1017
      01005DB1H   SYMBOL    CODE     ---       _?ix1008
      01005FDDH   SYMBOL    CODE     ---       _?ix1027
      01005EC4H   SYMBOL    CODE     ---       _?ix1018
      01005DCAH   SYMBOL    CODE     ---       _?ix1009
      01006018H   SYMBOL    CODE     ---       _?ix1028
      01005EDAH   SYMBOL    CODE     ---       _?ix1019
      01006042H   SYMBOL    CODE     ---       _?ix1029

      01009E72H   BLOCK     CODE     ---       LVL=0
      01009E72H   BLOCK     CODE     NEAR LAB  LVL=1
      00000066H   SYMBOL    DATA     BYTE      rx_cmd
      ---         BLOCKEND  ---      ---       LVL=1
      01009E72H   LINE      CODE     ---       #67
      01009E72H   LINE      CODE     ---       #71
      01009E78H   LINE      CODE     ---       #75
      01009EA3H   LINE      CODE     ---       #77
      01009EA9H   LINE      CODE     ---       #79
      01009EA9H   LINE      CODE     ---       #81
      01009EEEH   LINE      CODE     ---       #84
      01009EEEH   LINE      CODE     ---       #85
      01009EF1H   LINE      CODE     ---       #86
      01009EF2H   LINE      CODE     ---       #90
      01009EF2H   LINE      CODE     ---       #91
      01009EF5H   LINE      CODE     ---       #92
      01009EF6H   LINE      CODE     ---       #96
      01009EF6H   LINE      CODE     ---       #97
      01009EF9H   LINE      CODE     ---       #98
      01009EFAH   LINE      CODE     ---       #102
      01009EFAH   LINE      CODE     ---       #103
      01009EFDH   LINE      CODE     ---       #104
      01009EFEH   LINE      CODE     ---       #108
      01009EFEH   LINE      CODE     ---       #109
      01009F01H   LINE      CODE     ---       #110
      01009F02H   LINE      CODE     ---       #114
      01009F02H   LINE      CODE     ---       #115
      01009F05H   LINE      CODE     ---       #116
      01009F06H   LINE      CODE     ---       #120
      01009F06H   LINE      CODE     ---       #121
LX51 LINKER/LOCATER V4.64.0.0                                                         02/02/2018  18:09:00  PAGE 39


      01009F09H   LINE      CODE     ---       #122
      01009F0AH   LINE      CODE     ---       #125
      01009F0AH   LINE      CODE     ---       #126
      01009F0DH   LINE      CODE     ---       #127
      01009F0EH   LINE      CODE     ---       #131
      01009F0EH   LINE      CODE     ---       #132
      01009F11H   LINE      CODE     ---       #133
      01009F12H   LINE      CODE     ---       #137
      01009F12H   LINE      CODE     ---       #138
      01009F15H   LINE      CODE     ---       #139
      01009F16H   LINE      CODE     ---       #143
      01009F16H   LINE      CODE     ---       #144
      01009F19H   LINE      CODE     ---       #145
      01009F1AH   LINE      CODE     ---       #149
      01009F1AH   LINE      CODE     ---       #150
      01009F1CH   LINE      CODE     ---       #151
      01009F1EH   LINE      CODE     ---       #152
      01009F29H   LINE      CODE     ---       #153
      01009F2AH   LINE      CODE     ---       #157
      01009F2AH   LINE      CODE     ---       #158
      01009F2DH   LINE      CODE     ---       #159
      01009F2EH   LINE      CODE     ---       #163
      01009F2EH   LINE      CODE     ---       #164
      01009F39H   LINE      CODE     ---       #165
      01009F3AH   LINE      CODE     ---       #169
      01009F3AH   LINE      CODE     ---       #170
      01009F3DH   LINE      CODE     ---       #171
      01009F3EH   LINE      CODE     ---       #175
      01009F3EH   LINE      CODE     ---       #176
      01009F41H   LINE      CODE     ---       #177
      01009F42H   LINE      CODE     ---       #181
      01009F42H   LINE      CODE     ---       #182
      01009F4CH   LINE      CODE     ---       #183
      01009F51H   LINE      CODE     ---       #184
      01009F52H   LINE      CODE     ---       #185
      01009F57H   LINE      CODE     ---       #186
      01009F57H   LINE      CODE     ---       #187
      01009F58H   LINE      CODE     ---       #191
      01009F58H   LINE      CODE     ---       #192
      01009F5EH   LINE      CODE     ---       #193
      01009F63H   LINE      CODE     ---       #194
      01009F64H   LINE      CODE     ---       #195
      01009F69H   LINE      CODE     ---       #196
      01009F69H   LINE      CODE     ---       #197
      01009F6AH   LINE      CODE     ---       #201
      01009F6AH   LINE      CODE     ---       #202
      01009F70H   LINE      CODE     ---       #203
      01009F75H   LINE      CODE     ---       #204
      01009F76H   LINE      CODE     ---       #205
      01009F7BH   LINE      CODE     ---       #206
      01009F7BH   LINE      CODE     ---       #207
      01009F7CH   LINE      CODE     ---       #210
      01009F7CH   LINE      CODE     ---       #211
      01009F81H   LINE      CODE     ---       #212
      01009F8BH   LINE      CODE     ---       #213
      01009F90H   LINE      CODE     ---       #214
      01009F9AH   LINE      CODE     ---       #215
      01009F9DH   LINE      CODE     ---       #216
      01009F9DH   LINE      CODE     ---       #225
      01009F9DH   LINE      CODE     ---       #226
      01009F9DH   LINE      CODE     ---       #228
      01009F9DH   LINE      CODE     ---       #229
      ---         BLOCKEND  ---      ---       LVL=0

      01008FA1H   BLOCK     CODE     ---       LVL=0
LX51 LINKER/LOCATER V4.64.0.0                                                         02/02/2018  18:09:00  PAGE 40


      01008FA1H   BLOCK     CODE     NEAR LAB  LVL=1
      02000003H   SYMBOL    XDATA    ---       packet_data
      00000007H   SYMBOL    DATA     BYTE      packet_lenght
      00000006H   SYMBOL    DATA     INT       curr_diff
      02000013H   SYMBOL    XDATA    LONG      aux_val
      02000017H   SYMBOL    XDATA    DWORD     t_start
      0200001BH   SYMBOL    XDATA    DWORD     t_end
      ---         BLOCKEND  ---      ---       LVL=1
      01008FA1H   LINE      CODE     ---       #238
      01008FA1H   LINE      CODE     ---       #245
      01008FA3H   LINE      CODE     ---       #246
      01008FA9H   LINE      CODE     ---       #247
      01008FABH   LINE      CODE     ---       #248
      01008FBDH   LINE      CODE     ---       #250
      01008FC6H   LINE      CODE     ---       #251
      01008FCEH   LINE      CODE     ---       #252
      01008FD1H   LINE      CODE     ---       #253
      01008FD3H   LINE      CODE     ---       #254
      01008FD6H   LINE      CODE     ---       #255
      01008FD6H   LINE      CODE     ---       #256
      01008FDFH   LINE      CODE     ---       #257
      01009014H   LINE      CODE     ---       #258
      01009016H   LINE      CODE     ---       #259
      01009016H   LINE      CODE     ---       #260
      01009016H   LINE      CODE     ---       #261
      01009016H   LINE      CODE     ---       #263
      0100901CH   LINE      CODE     ---       #264
      01009024H   LINE      CODE     ---       #266
      01009037H   LINE      CODE     ---       #267
      0100903CH   LINE      CODE     ---       #269
      0100904FH   LINE      CODE     ---       #270
      01009054H   LINE      CODE     ---       #272
      01009063H   LINE      CODE     ---       #274
      0100909AH   LINE      CODE     ---       #275
      010090D8H   LINE      CODE     ---       #276
      0100910DH   LINE      CODE     ---       #281
      01009116H   LINE      CODE     ---       #282
      0100914AH   LINE      CODE     ---       #283
      01009180H   LINE      CODE     ---       #285
      010091B6H   LINE      CODE     ---       #286
      010091ECH   LINE      CODE     ---       #287
      010091ECH   LINE      CODE     ---       #288
      010091ECH   LINE      CODE     ---       #289
      010091EFH   LINE      CODE     ---       #290
      010091F1H   LINE      CODE     ---       #291
      ---         BLOCKEND  ---      ---       LVL=0

      01008175H   BLOCK     CODE     ---       LVL=0
      01008175H   BLOCK     CODE     NEAR LAB  LVL=1
      02000003H   SYMBOL    XDATA    ---       packet_data
      00000007H   SYMBOL    DATA     BYTE      packet_lenght
      02000013H   SYMBOL    XDATA    INT       SH_pos
      02000015H   SYMBOL    XDATA    LONG      aux_val
      02000019H   SYMBOL    XDATA    DWORD     t_start
      0200001DH   SYMBOL    XDATA    DWORD     t_end
      ---         BLOCKEND  ---      ---       LVL=1
      01008175H   LINE      CODE     ---       #293
      01008175H   LINE      CODE     ---       #300
      01008177H   LINE      CODE     ---       #301
      0100817DH   LINE      CODE     ---       #302
      0100817FH   LINE      CODE     ---       #303
      01008191H   LINE      CODE     ---       #305
      0100819AH   LINE      CODE     ---       #306
      010081A2H   LINE      CODE     ---       #307
      010081A5H   LINE      CODE     ---       #308
LX51 LINKER/LOCATER V4.64.0.0                                                         02/02/2018  18:09:00  PAGE 41


      010081A7H   LINE      CODE     ---       #309
      010081AAH   LINE      CODE     ---       #310
      010081AAH   LINE      CODE     ---       #311
      010081B3H   LINE      CODE     ---       #312
      010081E8H   LINE      CODE     ---       #313
      010081EAH   LINE      CODE     ---       #314
      010081EAH   LINE      CODE     ---       #315
      010081EAH   LINE      CODE     ---       #316
      010081EAH   LINE      CODE     ---       #318
      010081F0H   LINE      CODE     ---       #319
      01008200H   LINE      CODE     ---       #321
      01008227H   LINE      CODE     ---       #322
      01008282H   LINE      CODE     ---       #324
      01008288H   LINE      CODE     ---       #326
      010082BDH   LINE      CODE     ---       #327
      010082F2H   LINE      CODE     ---       #328
      010082F4H   LINE      CODE     ---       #329
      010082F4H   LINE      CODE     ---       #331
      01008332H   LINE      CODE     ---       #332
      01008370H   LINE      CODE     ---       #333
      01008370H   LINE      CODE     ---       #338
      01008379H   LINE      CODE     ---       #339
      010083ADH   LINE      CODE     ---       #340
      010083E3H   LINE      CODE     ---       #342
      01008419H   LINE      CODE     ---       #343
      0100844FH   LINE      CODE     ---       #344
      0100844FH   LINE      CODE     ---       #345
      010084AFH   LINE      CODE     ---       #346
      010084B1H   LINE      CODE     ---       #347
      010084B1H   LINE      CODE     ---       #348
      ---         BLOCKEND  ---      ---       LVL=0

      0100784AH   BLOCK     CODE     ---       LVL=0
      0100784AH   BLOCK     CODE     NEAR LAB  LVL=1
      02000003H   SYMBOL    XDATA    ---       packet_data
      00000007H   SYMBOL    DATA     BYTE      packet_lenght
      02000013H   SYMBOL    XDATA    INT       curr_diff
      02000015H   SYMBOL    XDATA    INT       SH_pos
      02000017H   SYMBOL    XDATA    LONG      aux_val
      0200001BH   SYMBOL    XDATA    DWORD     t_start
      0200001FH   SYMBOL    XDATA    DWORD     t_end
      02000023H   SYMBOL    XDATA    ---       ref_slide
      ---         BLOCKEND  ---      ---       LVL=1
      0100784AH   LINE      CODE     ---       #350
      0100784AH   LINE      CODE     ---       #359
      0100784CH   LINE      CODE     ---       #360
      01007852H   LINE      CODE     ---       #361
      01007854H   LINE      CODE     ---       #362
      01007866H   LINE      CODE     ---       #364
      0100786FH   LINE      CODE     ---       #365
      01007877H   LINE      CODE     ---       #366
      0100787AH   LINE      CODE     ---       #367
      0100787CH   LINE      CODE     ---       #368
      0100787FH   LINE      CODE     ---       #369
      0100787FH   LINE      CODE     ---       #370
      01007888H   LINE      CODE     ---       #371
      010078BDH   LINE      CODE     ---       #372
      010078BFH   LINE      CODE     ---       #373
      010078BFH   LINE      CODE     ---       #374
      010078BFH   LINE      CODE     ---       #375
      010078BFH   LINE      CODE     ---       #377
      010078C5H   LINE      CODE     ---       #378
      010078D5H   LINE      CODE     ---       #379
      010078E4H   LINE      CODE     ---       #382
      010078F8H   LINE      CODE     ---       #383
LX51 LINKER/LOCATER V4.64.0.0                                                         02/02/2018  18:09:00  PAGE 42


      01007900H   LINE      CODE     ---       #385
      0100791CH   LINE      CODE     ---       #386
      01007925H   LINE      CODE     ---       #388
      0100793AH   LINE      CODE     ---       #391
      01007969H   LINE      CODE     ---       #392
      0100799FH   LINE      CODE     ---       #394
      010079BCH   LINE      CODE     ---       #395
      010079D9H   LINE      CODE     ---       #398
      01007A14H   LINE      CODE     ---       #400
      01007A1DH   LINE      CODE     ---       #402
      01007A85H   LINE      CODE     ---       #403
      01007AE4H   LINE      CODE     ---       #404
      01007AE7H   LINE      CODE     ---       #405
      01007AE7H   LINE      CODE     ---       #407
      01007B50H   LINE      CODE     ---       #408
      01007BB0H   LINE      CODE     ---       #409
      01007BB0H   LINE      CODE     ---       #415
      01007BB9H   LINE      CODE     ---       #416
      01007BEDH   LINE      CODE     ---       #417
      01007C23H   LINE      CODE     ---       #419
      01007C59H   LINE      CODE     ---       #420
      01007C8FH   LINE      CODE     ---       #421
      01007C8FH   LINE      CODE     ---       #423
      01007CEFH   LINE      CODE     ---       #424
      01007CF1H   LINE      CODE     ---       #426
      01007CF1H   LINE      CODE     ---       #427
      ---         BLOCKEND  ---      ---       LVL=0

      0100BCD6H   BLOCK     CODE     ---       LVL=0
      00000006H   SYMBOL    DATA     WORD      info_type
      0100BCD6H   BLOCK     CODE     NEAR LAB  LVL=1
      0200002BH   SYMBOL    XDATA    ---       packet_string
      ---         BLOCKEND  ---      ---       LVL=1
      0100BCD6H   LINE      CODE     ---       #433
      0100BCD6H   LINE      CODE     ---       #438
      0100BCDCH   LINE      CODE     ---       #439
      0100BCDCH   LINE      CODE     ---       #440
      0100BCE5H   LINE      CODE     ---       #441
      0100BCEEH   LINE      CODE     ---       #442
      0100BCEEH   LINE      CODE     ---       #443
      0100BCEEH   LINE      CODE     ---       #444
      0100BCEEH   LINE      CODE     ---       #445
      0100BCEEH   LINE      CODE     ---       #446
      ---         BLOCKEND  ---      ---       LVL=0

      0100ACDCH   BLOCK     CODE     ---       LVL=0
      0100ACDCH   BLOCK     CODE     NEAR LAB  LVL=1
      00000067H   SYMBOL    DATA     BYTE      i
      ---         BLOCKEND  ---      ---       LVL=1
      0100ACDCH   LINE      CODE     ---       #452
      0100ACDCH   LINE      CODE     ---       #453
      0100ACDCH   LINE      CODE     ---       #456
      0100ACE6H   LINE      CODE     ---       #457
      0100AD10H   LINE      CODE     ---       #458
      0100AD46H   LINE      CODE     ---       #460
      0100AD53H   LINE      CODE     ---       #461
      0100AD57H   LINE      CODE     ---       #462
      0100AD59H   LINE      CODE     ---       #464
      0100AD5EH   LINE      CODE     ---       #465
      ---         BLOCKEND  ---      ---       LVL=0

      0100261AH   BLOCK     CODE     ---       LVL=0
      0200002BH   SYMBOL    XDATA    WORD      index
      01002622H   BLOCK     CODE     NEAR LAB  LVL=1
      0200002DH   SYMBOL    XDATA    ---       packet_data
LX51 LINKER/LOCATER V4.64.0.0                                                         02/02/2018  18:09:00  PAGE 43


      0200079AH   SYMBOL    XDATA    WORD      packet_lenght
      00000067H   SYMBOL    DATA     WORD      i
      0200079CH   SYMBOL    XDATA    BYTE      string_lenght
      0200079DH   SYMBOL    XDATA    LONG      aux_int
      020007A1H   SYMBOL    XDATA    ---       id_str
      020007B0H   SYMBOL    XDATA    ---       pos_pid_str
      020007CCH   SYMBOL    XDATA    ---       curr_pid_str
      020007E7H   SYMBOL    XDATA    ---       startup_str
      02000803H   SYMBOL    XDATA    ---       input_str
      0200081EH   SYMBOL    XDATA    ---       contr_str
      02000845H   SYMBOL    XDATA    ---       res_str
      0200085AH   SYMBOL    XDATA    ---       m_off_str
      02000873H   SYMBOL    XDATA    ---       mult_str
      02000884H   SYMBOL    XDATA    ---       pos_lim_flag_str
      020008A0H   SYMBOL    XDATA    ---       pos_lim_str
      020008BDH   SYMBOL    XDATA    ---       max_step_str
      020008D8H   SYMBOL    XDATA    ---       curr_limit_str
      020008ECH   SYMBOL    XDATA    ---       curr_prop_gain_str
      0200090CH   SYMBOL    XDATA    ---       curr_sat_str
      02000930H   SYMBOL    XDATA    ---       curr_dead_zone_str
      02000948H   SYMBOL    XDATA    ---       cuff_activ_force_str
      0200096DH   SYMBOL    XDATA    ---       pow_tension_str
      02000983H   SYMBOL    XDATA    ---       cuff_activ_proprio_str
      020009AAH   SYMBOL    XDATA    ---       max_slide_str
      020009CDH   SYMBOL    XDATA    ---       max_SH_pos_str
      020009ECH   SYMBOL    XDATA    ---       hand_ID_str
      020009FAH   SYMBOL    XDATA    ---       cuff_activ_force_proprio_str
      02000A1CH   SYMBOL    XDATA    ---       SH_rest_pos_str
      02000A3DH   SYMBOL    XDATA    ---       right_left_par_str
      02000A52H   SYMBOL    XDATA    ---       input_mode_menu
      02000A86H   SYMBOL    XDATA    ---       control_mode_menu
      02000AC1H   SYMBOL    XDATA    ---       yes_no_menu
      02000AEBH   SYMBOL    XDATA    ---       right_left_menu
      00000069H   SYMBOL    DATA     BYTE      id_str_len
      0000006AH   SYMBOL    DATA     BYTE      pos_pid_str_len
      0000006BH   SYMBOL    DATA     BYTE      curr_pid_str_len
      0000006CH   SYMBOL    DATA     BYTE      res_str_len
      0000006DH   SYMBOL    DATA     BYTE      m_off_str_len
      0000006EH   SYMBOL    DATA     BYTE      mult_str_len
      0000006FH   SYMBOL    DATA     BYTE      pos_lim_str_len
      00000070H   SYMBOL    DATA     BYTE      curr_limit_str_len
      00000071H   SYMBOL    DATA     BYTE      curr_prop_gain_str_len
      00000072H   SYMBOL    DATA     BYTE      curr_sat_str_len
      00000073H   SYMBOL    DATA     BYTE      curr_dead_zone_str_len
      00000074H   SYMBOL    DATA     BYTE      pow_tension_str_len
      00000075H   SYMBOL    DATA     BYTE      input_mode_menu_len
      00000076H   SYMBOL    DATA     BYTE      control_mode_menu_len
      00000077H   SYMBOL    DATA     BYTE      yes_no_menu_len
      00000078H   SYMBOL    DATA     BYTE      right_left_menu_len
      00000079H   SYMBOL    DATA     BYTE      max_slide_str_len
      0000007AH   SYMBOL    DATA     BYTE      max_SH_pos_str_len
      0000007BH   SYMBOL    DATA     BYTE      hand_ID_str_len
      02000B01H   SYMBOL    XDATA    BYTE      SH_rest_pos_str_len
      ---         BLOCKEND  ---      ---       LVL=1
      0100261AH   LINE      CODE     ---       #471
      01002622H   LINE      CODE     ---       #472
      01002622H   LINE      CODE     ---       #474
      01002635H   LINE      CODE     ---       #475
      0100263FH   LINE      CODE     ---       #484
      01002652H   LINE      CODE     ---       #485
      01002665H   LINE      CODE     ---       #486
      01002678H   LINE      CODE     ---       #487
      0100268BH   LINE      CODE     ---       #488
      0100269EH   LINE      CODE     ---       #489
      010026B1H   LINE      CODE     ---       #490
LX51 LINKER/LOCATER V4.64.0.0                                                         02/02/2018  18:09:00  PAGE 44


      010026C4H   LINE      CODE     ---       #491
      010026D7H   LINE      CODE     ---       #492
      010026EAH   LINE      CODE     ---       #493
      010026FDH   LINE      CODE     ---       #494
      01002710H   LINE      CODE     ---       #495
      01002723H   LINE      CODE     ---       #496
      01002736H   LINE      CODE     ---       #497
      01002749H   LINE      CODE     ---       #498
      0100275CH   LINE      CODE     ---       #499
      0100276FH   LINE      CODE     ---       #500
      01002782H   LINE      CODE     ---       #501
      01002795H   LINE      CODE     ---       #502
      010027A8H   LINE      CODE     ---       #503
      010027BBH   LINE      CODE     ---       #504
      010027CEH   LINE      CODE     ---       #505
      010027E1H   LINE      CODE     ---       #506
      010027F4H   LINE      CODE     ---       #507
      01002807H   LINE      CODE     ---       #508
      0100281AH   LINE      CODE     ---       #511
      0100282DH   LINE      CODE     ---       #512
      01002840H   LINE      CODE     ---       #513
      01002853H   LINE      CODE     ---       #514
      01002866H   LINE      CODE     ---       #517
      01002871H   LINE      CODE     ---       #518
      0100287CH   LINE      CODE     ---       #519
      01002887H   LINE      CODE     ---       #521
      01002892H   LINE      CODE     ---       #522
      0100289DH   LINE      CODE     ---       #523
      010028A8H   LINE      CODE     ---       #525
      010028B3H   LINE      CODE     ---       #526
      010028BEH   LINE      CODE     ---       #528
      010028C9H   LINE      CODE     ---       #529
      010028D4H   LINE      CODE     ---       #530
      010028DFH   LINE      CODE     ---       #531
      010028EAH   LINE      CODE     ---       #533
      010028F5H   LINE      CODE     ---       #534
      01002900H   LINE      CODE     ---       #535
      0100290BH   LINE      CODE     ---       #536
      01002916H   LINE      CODE     ---       #538
      01002921H   LINE      CODE     ---       #539
      0100292CH   LINE      CODE     ---       #540
      01002937H   LINE      CODE     ---       #541
      01002945H   LINE      CODE     ---       #543
      0100294BH   LINE      CODE     ---       #544
      0100294FH   LINE      CODE     ---       #546
      010029BBH   LINE      CODE     ---       #547
      010029BBH   LINE      CODE     ---       #550
      010029C1H   LINE      CODE     ---       #551
      010029C4H   LINE      CODE     ---       #552
      010029CCH   LINE      CODE     ---       #553
      010029D8H   LINE      CODE     ---       #554
      01002A04H   LINE      CODE     ---       #558
      01002A0AH   LINE      CODE     ---       #559
      01002A0EH   LINE      CODE     ---       #560
      01002A16H   LINE      CODE     ---       #561
      01002A38H   LINE      CODE     ---       #562
      01002A5AH   LINE      CODE     ---       #563
      01002A7CH   LINE      CODE     ---       #564
      01002A7EH   LINE      CODE     ---       #565
      01002A7EH   LINE      CODE     ---       #566
      01002AA0H   LINE      CODE     ---       #567
      01002AC2H   LINE      CODE     ---       #568
      01002AE4H   LINE      CODE     ---       #569
      01002AE4H   LINE      CODE     ---       #570
      01002AF0H   LINE      CODE     ---       #571
LX51 LINKER/LOCATER V4.64.0.0                                                         02/02/2018  18:09:00  PAGE 45


      01002B1CH   LINE      CODE     ---       #575
      01002B22H   LINE      CODE     ---       #576
      01002B26H   LINE      CODE     ---       #577
      01002B2EH   LINE      CODE     ---       #578
      01002B50H   LINE      CODE     ---       #579
      01002B72H   LINE      CODE     ---       #580
      01002B94H   LINE      CODE     ---       #581
      01002B96H   LINE      CODE     ---       #582
      01002B96H   LINE      CODE     ---       #583
      01002BB8H   LINE      CODE     ---       #584
      01002BDAH   LINE      CODE     ---       #585
      01002BFCH   LINE      CODE     ---       #586
      01002BFCH   LINE      CODE     ---       #587
      01002C08H   LINE      CODE     ---       #588
      01002C34H   LINE      CODE     ---       #592
      01002C39H   LINE      CODE     ---       #593
      01002C3CH   LINE      CODE     ---       #594
      01002C44H   LINE      CODE     ---       #595
      01002C49H   LINE      CODE     ---       #596
      01002C60H   LINE      CODE     ---       #597
      01002C66H   LINE      CODE     ---       #598
      01002C68H   LINE      CODE     ---       #599
      01002C68H   LINE      CODE     ---       #600
      01002C7FH   LINE      CODE     ---       #601
      01002C85H   LINE      CODE     ---       #602
      01002C85H   LINE      CODE     ---       #603
      01002C94H   LINE      CODE     ---       #604
      01002CC2H   LINE      CODE     ---       #606
      01002CD2H   LINE      CODE     ---       #610
      01002CD7H   LINE      CODE     ---       #611
      01002CDAH   LINE      CODE     ---       #612
      01002CE2H   LINE      CODE     ---       #613
      01002CEBH   LINE      CODE     ---       #614
      01002CEBH   LINE      CODE     ---       #615
      01002D02H   LINE      CODE     ---       #616
      01002D08H   LINE      CODE     ---       #617
      01002D0AH   LINE      CODE     ---       #618
      01002D0AH   LINE      CODE     ---       #619
      01002D21H   LINE      CODE     ---       #620
      01002D27H   LINE      CODE     ---       #621
      01002D27H   LINE      CODE     ---       #622
      01002D27H   LINE      CODE     ---       #623
      01002D36H   LINE      CODE     ---       #624
      01002D64H   LINE      CODE     ---       #626
      01002D74H   LINE      CODE     ---       #630
      01002D79H   LINE      CODE     ---       #631
      01002D7CH   LINE      CODE     ---       #632
      01002D84H   LINE      CODE     ---       #633
      01002D94H   LINE      CODE     ---       #634
      01002D94H   LINE      CODE     ---       #635
      01002DABH   LINE      CODE     ---       #636
      01002DB1H   LINE      CODE     ---       #637
      01002DB3H   LINE      CODE     ---       #638
      01002DB3H   LINE      CODE     ---       #639
      01002DCAH   LINE      CODE     ---       #640
      01002DD0H   LINE      CODE     ---       #641
      01002DD2H   LINE      CODE     ---       #642
      01002DD2H   LINE      CODE     ---       #643
      01002DE9H   LINE      CODE     ---       #644
      01002DEFH   LINE      CODE     ---       #645
      01002DF1H   LINE      CODE     ---       #646
      01002DF1H   LINE      CODE     ---       #647
      01002E08H   LINE      CODE     ---       #648
      01002E0EH   LINE      CODE     ---       #649
      01002E0EH   LINE      CODE     ---       #658
LX51 LINKER/LOCATER V4.64.0.0                                                         02/02/2018  18:09:00  PAGE 46


      01002E0EH   LINE      CODE     ---       #659
      01002E1DH   LINE      CODE     ---       #660
      01002E4BH   LINE      CODE     ---       #662
      01002E5BH   LINE      CODE     ---       #666
      01002E5FH   LINE      CODE     ---       #667
      01002E61H   LINE      CODE     ---       #668
      01002E71H   LINE      CODE     ---       #669
      01002E97H   LINE      CODE     ---       #670
      01002EA3H   LINE      CODE     ---       #671
      01002ECFH   LINE      CODE     ---       #692
      01002ED5H   LINE      CODE     ---       #693
      01002ED8H   LINE      CODE     ---       #694
      01002EE8H   LINE      CODE     ---       #695
      01002F41H   LINE      CODE     ---       #696
      01002F4DH   LINE      CODE     ---       #697
      01002F79H   LINE      CODE     ---       #701
      01002F7FH   LINE      CODE     ---       #702
      01002F83H   LINE      CODE     ---       #703
      01002F93H   LINE      CODE     ---       #704
      01002FE7H   LINE      CODE     ---       #705
      01002FFEH   LINE      CODE     ---       #706
      01003024H   LINE      CODE     ---       #710
      01003029H   LINE      CODE     ---       #711
      0100302CH   LINE      CODE     ---       #712
      01003034H   LINE      CODE     ---       #713
      01003039H   LINE      CODE     ---       #714
      01003050H   LINE      CODE     ---       #715
      01003056H   LINE      CODE     ---       #716
      01003058H   LINE      CODE     ---       #717
      01003058H   LINE      CODE     ---       #718
      0100306FH   LINE      CODE     ---       #719
      01003075H   LINE      CODE     ---       #720
      01003075H   LINE      CODE     ---       #721
      01003084H   LINE      CODE     ---       #722
      010030B2H   LINE      CODE     ---       #724
      010030C2H   LINE      CODE     ---       #728
      010030C8H   LINE      CODE     ---       #729
      010030CBH   LINE      CODE     ---       #730
      010030DEH   LINE      CODE     ---       #731
      0100313AH   LINE      CODE     ---       #732
      01003196H   LINE      CODE     ---       #733
      010031A1H   LINE      CODE     ---       #734
      010031ADH   LINE      CODE     ---       #735
      010031D9H   LINE      CODE     ---       #739
      010031DFH   LINE      CODE     ---       #740
      010031E3H   LINE      CODE     ---       #741
      010031F7H   LINE      CODE     ---       #742
      0100320BH   LINE      CODE     ---       #743
      01003222H   LINE      CODE     ---       #744
      01003248H   LINE      CODE     ---       #748
      0100324EH   LINE      CODE     ---       #749
      01003252H   LINE      CODE     ---       #750
      01003261H   LINE      CODE     ---       #751
      0100326DH   LINE      CODE     ---       #752
      01003299H   LINE      CODE     ---       #756
      0100329FH   LINE      CODE     ---       #757
      010032A3H   LINE      CODE     ---       #758
      010032B7H   LINE      CODE     ---       #759
      010032C3H   LINE      CODE     ---       #760
      010032EFH   LINE      CODE     ---       #764
      010032F5H   LINE      CODE     ---       #765
      010032F9H   LINE      CODE     ---       #766
      01003308H   LINE      CODE     ---       #767
      01003314H   LINE      CODE     ---       #768
      01003340H   LINE      CODE     ---       #772
LX51 LINKER/LOCATER V4.64.0.0                                                         02/02/2018  18:09:00  PAGE 47


      01003346H   LINE      CODE     ---       #773
      0100334AH   LINE      CODE     ---       #774
      01003359H   LINE      CODE     ---       #775
      01003365H   LINE      CODE     ---       #776
      01003391H   LINE      CODE     ---       #780
      01003396H   LINE      CODE     ---       #781
      01003399H   LINE      CODE     ---       #782
      010033A1H   LINE      CODE     ---       #783
      010033A6H   LINE      CODE     ---       #784
      010033BDH   LINE      CODE     ---       #785
      010033C3H   LINE      CODE     ---       #786
      010033C5H   LINE      CODE     ---       #787
      010033C5H   LINE      CODE     ---       #788
      010033DCH   LINE      CODE     ---       #789
      010033E2H   LINE      CODE     ---       #790
      010033E2H   LINE      CODE     ---       #791
      010033F1H   LINE      CODE     ---       #792
      0100341FH   LINE      CODE     ---       #794
      0100342FH   LINE      CODE     ---       #798
      01003434H   LINE      CODE     ---       #799
      01003438H   LINE      CODE     ---       #800
      01003447H   LINE      CODE     ---       #801
      01003453H   LINE      CODE     ---       #802
      0100347FH   LINE      CODE     ---       #806
      01003484H   LINE      CODE     ---       #807
      01003487H   LINE      CODE     ---       #808
      0100348FH   LINE      CODE     ---       #809
      01003494H   LINE      CODE     ---       #810
      010034ABH   LINE      CODE     ---       #811
      010034B1H   LINE      CODE     ---       #812
      010034B3H   LINE      CODE     ---       #813
      010034B3H   LINE      CODE     ---       #814
      010034CAH   LINE      CODE     ---       #815
      010034D0H   LINE      CODE     ---       #816
      010034D0H   LINE      CODE     ---       #817
      010034DFH   LINE      CODE     ---       #818
      0100350DH   LINE      CODE     ---       #820
      0100351DH   LINE      CODE     ---       #824
      01003523H   LINE      CODE     ---       #825
      01003527H   LINE      CODE     ---       #826
      0100353BH   LINE      CODE     ---       #827
      01003547H   LINE      CODE     ---       #828
      01003573H   LINE      CODE     ---       #832
      01003579H   LINE      CODE     ---       #833
      0100357DH   LINE      CODE     ---       #834
      01003591H   LINE      CODE     ---       #835
      0100359DH   LINE      CODE     ---       #836
      010035C9H   LINE      CODE     ---       #840
      010035CFH   LINE      CODE     ---       #841
      010035D2H   LINE      CODE     ---       #842
      010035DAH   LINE      CODE     ---       #843
      010035E6H   LINE      CODE     ---       #844
      01003612H   LINE      CODE     ---       #848
      01003617H   LINE      CODE     ---       #849
      0100361AH   LINE      CODE     ---       #850
      01003622H   LINE      CODE     ---       #851
      01003627H   LINE      CODE     ---       #852
      0100363EH   LINE      CODE     ---       #853
      01003644H   LINE      CODE     ---       #854
      01003646H   LINE      CODE     ---       #855
      01003646H   LINE      CODE     ---       #856
      0100365DH   LINE      CODE     ---       #857
      01003663H   LINE      CODE     ---       #858
      01003663H   LINE      CODE     ---       #859
      01003672H   LINE      CODE     ---       #860
LX51 LINKER/LOCATER V4.64.0.0                                                         02/02/2018  18:09:00  PAGE 48


      010036A0H   LINE      CODE     ---       #862
      010036B0H   LINE      CODE     ---       #867
      010036B6H   LINE      CODE     ---       #868
      010036BAH   LINE      CODE     ---       #869
      010036CEH   LINE      CODE     ---       #870
      010036DDH   LINE      CODE     ---       #871
      0100370BH   LINE      CODE     ---       #875
      01003710H   LINE      CODE     ---       #876
      01003713H   LINE      CODE     ---       #877
      0100371BH   LINE      CODE     ---       #878
      01003720H   LINE      CODE     ---       #879
      01003737H   LINE      CODE     ---       #880
      0100373DH   LINE      CODE     ---       #881
      0100373FH   LINE      CODE     ---       #882
      0100373FH   LINE      CODE     ---       #883
      01003756H   LINE      CODE     ---       #884
      0100375CH   LINE      CODE     ---       #885
      0100375CH   LINE      CODE     ---       #886
      0100376BH   LINE      CODE     ---       #887
      01003799H   LINE      CODE     ---       #889
      010037A9H   LINE      CODE     ---       #893
      010037B5H   LINE      CODE     ---       #894
      010037E1H   LINE      CODE     ---       #896
      010037EDH   LINE      CODE     ---       #897
      01003819H   LINE      CODE     ---       #899
      01003825H   LINE      CODE     ---       #900
      01003851H   LINE      CODE     ---       #902
      0100385DH   LINE      CODE     ---       #903
      01003889H   LINE      CODE     ---       #905
      010038ADH   LINE      CODE     ---       #906
      010038BBH   LINE      CODE     ---       #907
      010038BEH   LINE      CODE     ---       #908
      010038BFH   LINE      CODE     ---       #911
      010038BFH   LINE      CODE     ---       #912
      010038C7H   LINE      CODE     ---       #913
      010038C8H   LINE      CODE     ---       #916
      010038C8H   LINE      CODE     ---       #917
      010038D0H   LINE      CODE     ---       #918
      010038F1H   LINE      CODE     ---       #919
      01003912H   LINE      CODE     ---       #920
      01003933H   LINE      CODE     ---       #921
      01003934H   LINE      CODE     ---       #922
      01003934H   LINE      CODE     ---       #923
      01003955H   LINE      CODE     ---       #924
      01003976H   LINE      CODE     ---       #925
      01003997H   LINE      CODE     ---       #926
      01003997H   LINE      CODE     ---       #927
      01003998H   LINE      CODE     ---       #930
      01003998H   LINE      CODE     ---       #931
      010039A0H   LINE      CODE     ---       #932
      010039C1H   LINE      CODE     ---       #933
      010039E2H   LINE      CODE     ---       #934
      01003A03H   LINE      CODE     ---       #935
      01003A04H   LINE      CODE     ---       #936
      01003A04H   LINE      CODE     ---       #937
      01003A25H   LINE      CODE     ---       #938
      01003A46H   LINE      CODE     ---       #939
      01003A67H   LINE      CODE     ---       #940
      01003A67H   LINE      CODE     ---       #941
      01003A68H   LINE      CODE     ---       #944
      01003A68H   LINE      CODE     ---       #945
      01003A6EH   LINE      CODE     ---       #946
      01003A75H   LINE      CODE     ---       #948
      01003A7AH   LINE      CODE     ---       #949
      01003A7BH   LINE      CODE     ---       #952
LX51 LINKER/LOCATER V4.64.0.0                                                         02/02/2018  18:09:00  PAGE 49


      01003A7BH   LINE      CODE     ---       #953
      01003A83H   LINE      CODE     ---       #954
      01003A84H   LINE      CODE     ---       #957
      01003A84H   LINE      CODE     ---       #958
      01003A8CH   LINE      CODE     ---       #959
      01003A8DH   LINE      CODE     ---       #962
      01003A8DH   LINE      CODE     ---       #963
      01003AA0H   LINE      CODE     ---       #964
      01003AC6H   LINE      CODE     ---       #965
      01003AC6H   LINE      CODE     ---       #968
      01003AC6H   LINE      CODE     ---       #969
      01003AD9H   LINE      CODE     ---       #970
      01003B23H   LINE      CODE     ---       #971
      01003B55H   LINE      CODE     ---       #973
      01003B63H   LINE      CODE     ---       #974
      01003B6EH   LINE      CODE     ---       #975
      01003B70H   LINE      CODE     ---       #976
      01003B71H   LINE      CODE     ---       #979
      01003B71H   LINE      CODE     ---       #980
      01003B84H   LINE      CODE     ---       #981
      01003BD8H   LINE      CODE     ---       #982
      01003BD8H   LINE      CODE     ---       #985
      01003BD8H   LINE      CODE     ---       #986
      01003BE0H   LINE      CODE     ---       #987
      01003BE1H   LINE      CODE     ---       #990
      01003BE1H   LINE      CODE     ---       #991
      01003BF4H   LINE      CODE     ---       #992
      01003C3EH   LINE      CODE     ---       #993
      01003C8BH   LINE      CODE     ---       #995
      01003CBDH   LINE      CODE     ---       #996
      01003CFBH   LINE      CODE     ---       #997
      01003D06H   LINE      CODE     ---       #998
      01003D06H   LINE      CODE     ---       #1001
      01003D06H   LINE      CODE     ---       #1002
      01003D1AH   LINE      CODE     ---       #1003
      01003D33H   LINE      CODE     ---       #1004
      01003D47H   LINE      CODE     ---       #1006
      01003D5BH   LINE      CODE     ---       #1007
      01003D77H   LINE      CODE     ---       #1008
      01003D8BH   LINE      CODE     ---       #1009
      01003D8CH   LINE      CODE     ---       #1012
      01003D8CH   LINE      CODE     ---       #1013
      01003D9BH   LINE      CODE     ---       #1014
      01003D9CH   LINE      CODE     ---       #1017
      01003D9CH   LINE      CODE     ---       #1018
      01003DB0H   LINE      CODE     ---       #1019
      01003DB1H   LINE      CODE     ---       #1022
      01003DB1H   LINE      CODE     ---       #1023
      01003DC0H   LINE      CODE     ---       #1024
      01003DC1H   LINE      CODE     ---       #1027
      01003DC1H   LINE      CODE     ---       #1028
      01003DD0H   LINE      CODE     ---       #1029
      01003DD1H   LINE      CODE     ---       #1032
      01003DD1H   LINE      CODE     ---       #1033
      01003DD9H   LINE      CODE     ---       #1034
      01003DDEH   LINE      CODE     ---       #1035
      01003DE3H   LINE      CODE     ---       #1036
      01003DE7H   LINE      CODE     ---       #1037
      01003DE7H   LINE      CODE     ---       #1038
      01003DE8H   LINE      CODE     ---       #1041
      01003DE8H   LINE      CODE     ---       #1042
      01003DF7H   LINE      CODE     ---       #1043
      01003DF8H   LINE      CODE     ---       #1046
      01003DF8H   LINE      CODE     ---       #1047
      01003E00H   LINE      CODE     ---       #1048
LX51 LINKER/LOCATER V4.64.0.0                                                         02/02/2018  18:09:00  PAGE 50


      01003E02H   LINE      CODE     ---       #1049
      01003E07H   LINE      CODE     ---       #1050
      01003E0BH   LINE      CODE     ---       #1051
      01003E0BH   LINE      CODE     ---       #1052
      01003E0CH   LINE      CODE     ---       #1055
      01003E0CH   LINE      CODE     ---       #1056
      01003E20H   LINE      CODE     ---       #1057
      01003E21H   LINE      CODE     ---       #1060
      01003E21H   LINE      CODE     ---       #1061
      01003E35H   LINE      CODE     ---       #1062
      01003E36H   LINE      CODE     ---       #1064
      01003E36H   LINE      CODE     ---       #1065
      01003E3EH   LINE      CODE     ---       #1066
      01003E3FH   LINE      CODE     ---       #1068
      01003E3FH   LINE      CODE     ---       #1069
      01003E47H   LINE      CODE     ---       #1070
      01003E49H   LINE      CODE     ---       #1071
      01003E4EH   LINE      CODE     ---       #1072
      01003E52H   LINE      CODE     ---       #1073
      01003E52H   LINE      CODE     ---       #1074
      01003E53H   LINE      CODE     ---       #1076
      01003E53H   LINE      CODE     ---       #1077
      01003E67H   LINE      CODE     ---       #1078
      01003E68H   LINE      CODE     ---       #1080
      01003E68H   LINE      CODE     ---       #1081
      01003E70H   LINE      CODE     ---       #1082
      01003E70H   LINE      CODE     ---       #1083
      01003E70H   LINE      CODE     ---       #1084
      ---         BLOCKEND  ---      ---       LVL=0

      01003E71H   BLOCK     CODE     ---       LVL=0
      02000607H   SYMBOL    XDATA    ---       info_string
      01003E7CH   BLOCK     CODE     NEAR LAB  LVL=1
      00000067H   SYMBOL    DATA     INT       i
      0200060AH   SYMBOL    XDATA    ---       str
      ---         BLOCKEND  ---      ---       LVL=1
      01003E71H   LINE      CODE     ---       #1090
      01003E7CH   LINE      CODE     ---       #1091
      01003E7CH   LINE      CODE     ---       #1096
      01003E94H   LINE      CODE     ---       #1097
      01003EB0H   LINE      CODE     ---       #1098
      01003ECCH   LINE      CODE     ---       #1099
      01003EE8H   LINE      CODE     ---       #1100
      01003F04H   LINE      CODE     ---       #1102
      01003F20H   LINE      CODE     ---       #1103
      01003F44H   LINE      CODE     ---       #1104
      01003F60H   LINE      CODE     ---       #1105
      01003F7EH   LINE      CODE     ---       #1106
      01003F9AH   LINE      CODE     ---       #1107
      01003FC0H   LINE      CODE     ---       #1108
      01003FDCH   LINE      CODE     ---       #1109
      01004000H   LINE      CODE     ---       #1110
      0100401CH   LINE      CODE     ---       #1111
      01004038H   LINE      CODE     ---       #1113
      01004054H   LINE      CODE     ---       #1114
      01004070H   LINE      CODE     ---       #1116
      01004082H   LINE      CODE     ---       #1117
      010040D4H   LINE      CODE     ---       #1118
      010040F0H   LINE      CODE     ---       #1119
      010040FBH   LINE      CODE     ---       #1120
      01004117H   LINE      CODE     ---       #1122
      0100412EH   LINE      CODE     ---       #1124
      01004136H   LINE      CODE     ---       #1125
      0100414DH   LINE      CODE     ---       #1126
      0100414FH   LINE      CODE     ---       #1127
LX51 LINKER/LOCATER V4.64.0.0                                                         02/02/2018  18:09:00  PAGE 51


      01004166H   LINE      CODE     ---       #1128
      01004166H   LINE      CODE     ---       #1129
      01004182H   LINE      CODE     ---       #1132
      0100419EH   LINE      CODE     ---       #1133
      010041BAH   LINE      CODE     ---       #1134
      010041CFH   LINE      CODE     ---       #1136
      01004230H   LINE      CODE     ---       #1137
      0100424CH   LINE      CODE     ---       #1138
      01004268H   LINE      CODE     ---       #1139
      01004273H   LINE      CODE     ---       #1140
      0100429EH   LINE      CODE     ---       #1141
      010042BAH   LINE      CODE     ---       #1142
      010042D6H   LINE      CODE     ---       #1144
      01004301H   LINE      CODE     ---       #1145
      0100431DH   LINE      CODE     ---       #1146
      01004339H   LINE      CODE     ---       #1148
      01004364H   LINE      CODE     ---       #1149
      01004380H   LINE      CODE     ---       #1150
      0100439CH   LINE      CODE     ---       #1153
      010043B8H   LINE      CODE     ---       #1155
      010043D4H   LINE      CODE     ---       #1156
      010043DFH   LINE      CODE     ---       #1157
      01004418H   LINE      CODE     ---       #1158
      01004434H   LINE      CODE     ---       #1159
      0100446DH   LINE      CODE     ---       #1160
      01004489H   LINE      CODE     ---       #1161
      010044C2H   LINE      CODE     ---       #1162
      010044DEH   LINE      CODE     ---       #1163
      010044E1H   LINE      CODE     ---       #1164
      010044E1H   LINE      CODE     ---       #1165
      0100451AH   LINE      CODE     ---       #1166
      01004536H   LINE      CODE     ---       #1167
      0100456FH   LINE      CODE     ---       #1168
      0100458BH   LINE      CODE     ---       #1169
      010045C4H   LINE      CODE     ---       #1170
      010045E0H   LINE      CODE     ---       #1171
      010045E0H   LINE      CODE     ---       #1173
      010045FCH   LINE      CODE     ---       #1174
      01004607H   LINE      CODE     ---       #1175
      01004640H   LINE      CODE     ---       #1176
      0100465CH   LINE      CODE     ---       #1177
      01004695H   LINE      CODE     ---       #1178
      010046B1H   LINE      CODE     ---       #1179
      010046EAH   LINE      CODE     ---       #1180
      01004706H   LINE      CODE     ---       #1181
      01004709H   LINE      CODE     ---       #1182
      01004709H   LINE      CODE     ---       #1183
      01004742H   LINE      CODE     ---       #1184
      0100475EH   LINE      CODE     ---       #1185
      01004797H   LINE      CODE     ---       #1186
      010047B3H   LINE      CODE     ---       #1187
      010047ECH   LINE      CODE     ---       #1188
      01004808H   LINE      CODE     ---       #1189
      01004808H   LINE      CODE     ---       #1191
      01004824H   LINE      CODE     ---       #1193
      0100482BH   LINE      CODE     ---       #1194
      01004847H   LINE      CODE     ---       #1195
      01004849H   LINE      CODE     ---       #1196
      01004865H   LINE      CODE     ---       #1197
      01004865H   LINE      CODE     ---       #1199
      0100486FH   LINE      CODE     ---       #1200
      0100486FH   LINE      CODE     ---       #1201
      0100488BH   LINE      CODE     ---       #1202
      0100488DH   LINE      CODE     ---       #1203
      0100488DH   LINE      CODE     ---       #1204
LX51 LINKER/LOCATER V4.64.0.0                                                         02/02/2018  18:09:00  PAGE 52


      010048A9H   LINE      CODE     ---       #1205
      010048A9H   LINE      CODE     ---       #1206
      010048A9H   LINE      CODE     ---       #1208
      010048C5H   LINE      CODE     ---       #1209
      010048D6H   LINE      CODE     ---       #1210
      010048D6H   LINE      CODE     ---       #1211
      010048F2H   LINE      CODE     ---       #1212
      010048F4H   LINE      CODE     ---       #1213
      010048F4H   LINE      CODE     ---       #1214
      01004910H   LINE      CODE     ---       #1215
      01004912H   LINE      CODE     ---       #1216
      01004912H   LINE      CODE     ---       #1217
      0100492EH   LINE      CODE     ---       #1218
      01004930H   LINE      CODE     ---       #1219
      01004930H   LINE      CODE     ---       #1220
      0100494CH   LINE      CODE     ---       #1221
      0100494CH   LINE      CODE     ---       #1228
      0100494CH   LINE      CODE     ---       #1230
      01004968H   LINE      CODE     ---       #1231
      0100497AH   LINE      CODE     ---       #1232
      0100497AH   LINE      CODE     ---       #1234
      010049B6H   LINE      CODE     ---       #1235
      010049D2H   LINE      CODE     ---       #1236
      010049EEH   LINE      CODE     ---       #1237
      010049F9H   LINE      CODE     ---       #1240
      01004A15H   LINE      CODE     ---       #1241
      01004A2AH   LINE      CODE     ---       #1242
      01004A2AH   LINE      CODE     ---       #1244
      01004A89H   LINE      CODE     ---       #1245
      01004AA5H   LINE      CODE     ---       #1246
      01004AC1H   LINE      CODE     ---       #1247
      01004ACCH   LINE      CODE     ---       #1249
      01004AE8H   LINE      CODE     ---       #1250
      01004AFDH   LINE      CODE     ---       #1251
      01004AFDH   LINE      CODE     ---       #1253
      01004B4AH   LINE      CODE     ---       #1254
      01004B66H   LINE      CODE     ---       #1255
      01004B82H   LINE      CODE     ---       #1256
      01004B8DH   LINE      CODE     ---       #1258
      01004BA9H   LINE      CODE     ---       #1259
      01004BD4H   LINE      CODE     ---       #1260
      01004BF0H   LINE      CODE     ---       #1261
      01004C0CH   LINE      CODE     ---       #1263
      01004C28H   LINE      CODE     ---       #1264
      01004C4EH   LINE      CODE     ---       #1265
      01004C6AH   LINE      CODE     ---       #1266
      01004C86H   LINE      CODE     ---       #1268
      01004CA2H   LINE      CODE     ---       #1269
      01004CC8H   LINE      CODE     ---       #1270
      01004CE4H   LINE      CODE     ---       #1271
      01004D00H   LINE      CODE     ---       #1273
      01004D24H   LINE      CODE     ---       #1274
      01004D40H   LINE      CODE     ---       #1275
      01004D5CH   LINE      CODE     ---       #1277
      01004D71H   LINE      CODE     ---       #1279
      01004DD0H   LINE      CODE     ---       #1280
      01004DECH   LINE      CODE     ---       #1283
      01004E3CH   LINE      CODE     ---       #1284
      01004E58H   LINE      CODE     ---       #1285
      01004E63H   LINE      CODE     ---       #1287
      01004E9EH   LINE      CODE     ---       #1288
      01004EBAH   LINE      CODE     ---       #1289
      01004ED6H   LINE      CODE     ---       #1291
      01004EFCH   LINE      CODE     ---       #1292
      01004F18H   LINE      CODE     ---       #1293
LX51 LINKER/LOCATER V4.64.0.0                                                         02/02/2018  18:09:00  PAGE 53


      01004F34H   LINE      CODE     ---       #1295
      01004F3AH   LINE      CODE     ---       #1296
      01004F58H   LINE      CODE     ---       #1298
      01004F74H   LINE      CODE     ---       #1300
      01004F7AH   LINE      CODE     ---       #1301
      01004F98H   LINE      CODE     ---       #1303
      01004FB4H   LINE      CODE     ---       #1305
      01004FB7H   LINE      CODE     ---       #1306
      01004FD5H   LINE      CODE     ---       #1308
      01004FF1H   LINE      CODE     ---       #1310
      01004FF4H   LINE      CODE     ---       #1311
      01005012H   LINE      CODE     ---       #1313
      0100502EH   LINE      CODE     ---       #1315
      01005072H   LINE      CODE     ---       #1316
      0100508EH   LINE      CODE     ---       #1317
      010050AAH   LINE      CODE     ---       #1318
      ---         BLOCKEND  ---      ---       LVL=0

      0100AAB8H   BLOCK     CODE     ---       LVL=0
      0200002BH   SYMBOL    XDATA    ---       packet_data
      0200002EH   SYMBOL    XDATA    WORD      packet_lenght
      02000030H   SYMBOL    XDATA    BYTE      old_id
      0100AAC9H   BLOCK     CODE     NEAR LAB  LVL=1
      0000006BH   SYMBOL    DATA     WORD      index
      ---         BLOCKEND  ---      ---       LVL=1
      0100AAB8H   LINE      CODE     ---       #1324
      0100AAC9H   LINE      CODE     ---       #1325
      0100AAC9H   LINE      CODE     ---       #1329
      0100AACEH   LINE      CODE     ---       #1330
      0100AAD3H   LINE      CODE     ---       #1333
      0100AADBH   LINE      CODE     ---       #1338
      0100AAE5H   LINE      CODE     ---       #1340
      0100AAF9H   LINE      CODE     ---       #1341
      0100AB11H   LINE      CODE     ---       #1342
      0100AB1BH   LINE      CODE     ---       #1344
      0100AB20H   LINE      CODE     ---       #1346
      0100AB3AH   LINE      CODE     ---       #1348
      0100AB3FH   LINE      CODE     ---       #1349
      0100AB44H   LINE      CODE     ---       #1350
      ---         BLOCKEND  ---      ---       LVL=0

      0100AA15H   BLOCK     CODE     ---       LVL=0
      02000B02H   SYMBOL    XDATA    ---       packet_data
      02000B05H   SYMBOL    XDATA    WORD      packet_lenght
      02000B07H   SYMBOL    XDATA    BYTE      next
      0100AA26H   BLOCK     CODE     NEAR LAB  LVL=1
      0000007CH   SYMBOL    DATA     WORD      index
      ---         BLOCKEND  ---      ---       LVL=1
      0100AA15H   LINE      CODE     ---       #1352
      0100AA26H   LINE      CODE     ---       #1353
      0100AA26H   LINE      CODE     ---       #1357
      0100AA2BH   LINE      CODE     ---       #1358
      0100AA30H   LINE      CODE     ---       #1361
      0100AA36H   LINE      CODE     ---       #1364
      0100AA40H   LINE      CODE     ---       #1366
      0100AA48H   LINE      CODE     ---       #1369
      0100AA52H   LINE      CODE     ---       #1372
      0100AA66H   LINE      CODE     ---       #1373
      0100AA88H   LINE      CODE     ---       #1375
      0100AA8DH   LINE      CODE     ---       #1377
      0100AAA7H   LINE      CODE     ---       #1379
      0100AAADH   LINE      CODE     ---       #1380
      0100AAB2H   LINE      CODE     ---       #1381
      0100AAB7H   LINE      CODE     ---       #1382
      0100AAB7H   LINE      CODE     ---       #1383
LX51 LINKER/LOCATER V4.64.0.0                                                         02/02/2018  18:09:00  PAGE 54


      ---         BLOCKEND  ---      ---       LVL=0

      0100BD82H   BLOCK     CODE     ---       LVL=0
      00000007H   SYMBOL    DATA     BYTE      value
      0100BD82H   BLOCK     CODE     NEAR LAB  LVL=1
      0000006BH   SYMBOL    DATA     ---       packet_data
      ---         BLOCKEND  ---      ---       LVL=1
      0100BD82H   LINE      CODE     ---       #1389
      0100BD82H   LINE      CODE     ---       #1396
      0100BD84H   LINE      CODE     ---       #1399
      0100BD86H   LINE      CODE     ---       #1401
      0100BD97H   LINE      CODE     ---       #1402
      ---         BLOCKEND  ---      ---       LVL=0

      0100A6ACH   BLOCK     CODE     ---       LVL=0
      0200002BH   SYMBOL    XDATA    INT       displacement
      0100A6B4H   BLOCK     CODE     NEAR LAB  LVL=1
      00000007H   SYMBOL    DATA     BYTE      writeStatus
      0200002DH   SYMBOL    XDATA    INT       i
      0200002FH   SYMBOL    XDATA    INT       pages
      02000031H   SYMBOL    XDATA    BYTE      ret_val
      ---         BLOCKEND  ---      ---       LVL=1
      0100A6ACH   LINE      CODE     ---       #1412
      0100A6B4H   LINE      CODE     ---       #1417
      0100A6BAH   LINE      CODE     ---       #1419
      0100A6BFH   LINE      CODE     ---       #1420
      0100A6C4H   LINE      CODE     ---       #1423
      0100A6C7H   LINE      CODE     ---       #1425
      0100A6DAH   LINE      CODE     ---       #1427
      0100A6E3H   LINE      CODE     ---       #1429
      0100A706H   LINE      CODE     ---       #1430
      0100A72BH   LINE      CODE     ---       #1431
      0100A72EH   LINE      CODE     ---       #1432
      0100A733H   LINE      CODE     ---       #1433
      0100A735H   LINE      CODE     ---       #1434
      0100A735H   LINE      CODE     ---       #1435
      0100A745H   LINE      CODE     ---       #1437
      0100A758H   LINE      CODE     ---       #1439
      0100A75DH   LINE      CODE     ---       #1440
      ---         BLOCKEND  ---      ---       LVL=0

      0100B479H   BLOCK     CODE     ---       LVL=0
      0100B479H   BLOCK     CODE     NEAR LAB  LVL=1
      00000006H   SYMBOL    DATA     WORD      i
      ---         BLOCKEND  ---      ---       LVL=1
      0100B479H   LINE      CODE     ---       #1450
      0100B479H   LINE      CODE     ---       #1454
      0100B485H   LINE      CODE     ---       #1455
      0100B4A8H   LINE      CODE     ---       #1459
      0100B4AEH   LINE      CODE     ---       #1460
      0100B4B2H   LINE      CODE     ---       #1462
      0100B4C5H   LINE      CODE     ---       #1464
      ---         BLOCKEND  ---      ---       LVL=0

      0100B55BH   BLOCK     CODE     ---       LVL=0
      0100B55BH   BLOCK     CODE     NEAR LAB  LVL=1
      00000006H   SYMBOL    DATA     WORD      i
      ---         BLOCKEND  ---      ---       LVL=1
      0100B55BH   LINE      CODE     ---       #1474
      0100B55BH   LINE      CODE     ---       #1478
      0100B567H   LINE      CODE     ---       #1479
      0100B591H   LINE      CODE     ---       #1483
      0100B597H   LINE      CODE     ---       #1484
      0100B59BH   LINE      CODE     ---       #1486
      0100B5A1H   LINE      CODE     ---       #1488
LX51 LINKER/LOCATER V4.64.0.0                                                         02/02/2018  18:09:00  PAGE 55


      ---         BLOCKEND  ---      ---       LVL=0

      010091F2H   BLOCK     CODE     ---       LVL=0
      010091F2H   BLOCK     CODE     NEAR LAB  LVL=1
      00000067H   SYMBOL    DATA     BYTE      i
      ---         BLOCKEND  ---      ---       LVL=1
      010091F2H   LINE      CODE     ---       #1497
      010091F2H   LINE      CODE     ---       #1501
      010091F8H   LINE      CODE     ---       #1502
      01009203H   LINE      CODE     ---       #1503
      0100920EH   LINE      CODE     ---       #1504
      0100921BH   LINE      CODE     ---       #1505
      01009227H   LINE      CODE     ---       #1506
      01009232H   LINE      CODE     ---       #1507
      0100923DH   LINE      CODE     ---       #1509
      0100924BH   LINE      CODE     ---       #1510
      01009256H   LINE      CODE     ---       #1511
      01009261H   LINE      CODE     ---       #1512
      0100926EH   LINE      CODE     ---       #1513
      0100927AH   LINE      CODE     ---       #1514
      01009285H   LINE      CODE     ---       #1516
      0100928BH   LINE      CODE     ---       #1517
      0100928EH   LINE      CODE     ---       #1518
      01009292H   LINE      CODE     ---       #1519
      01009297H   LINE      CODE     ---       #1521
      0100929BH   LINE      CODE     ---       #1523
      010092A4H   LINE      CODE     ---       #1524
      010092BEH   LINE      CODE     ---       #1525
      010092D7H   LINE      CODE     ---       #1526
      010092DBH   LINE      CODE     ---       #1528
      010092E5H   LINE      CODE     ---       #1529
      010092E5H   LINE      CODE     ---       #1530
      010092FEH   LINE      CODE     ---       #1531
      0100930CH   LINE      CODE     ---       #1532
      01009334H   LINE      CODE     ---       #1533
      01009338H   LINE      CODE     ---       #1535
      01009346H   LINE      CODE     ---       #1536
      01009350H   LINE      CODE     ---       #1537
      01009357H   LINE      CODE     ---       #1538
      0100935CH   LINE      CODE     ---       #1539
      01009360H   LINE      CODE     ---       #1540
      01009364H   LINE      CODE     ---       #1541
      0100936CH   LINE      CODE     ---       #1542
      01009372H   LINE      CODE     ---       #1544
      0100937DH   LINE      CODE     ---       #1545
      01009388H   LINE      CODE     ---       #1547
      01009395H   LINE      CODE     ---       #1548
      010093A2H   LINE      CODE     ---       #1550
      010093A8H   LINE      CODE     ---       #1554
      010093AFH   LINE      CODE     ---       #1556
      010093B9H   LINE      CODE     ---       #1559
      010093BFH   LINE      CODE     ---       #1561
      010093CCH   LINE      CODE     ---       #1564
      010093E5H   LINE      CODE     ---       #1565
      ---         BLOCKEND  ---      ---       LVL=0

      0100B38AH   BLOCK     CODE     ---       LVL=0
      0100B38AH   BLOCK     CODE     NEAR LAB  LVL=1
      00000067H   SYMBOL    DATA     BYTE      index
      0200002BH   SYMBOL    XDATA    ---       packet_data
      ---         BLOCKEND  ---      ---       LVL=1
      0100B38AH   LINE      CODE     ---       #1574
      0100B38AH   LINE      CODE     ---       #1592
      0100B390H   LINE      CODE     ---       #1594
      0100B39AH   LINE      CODE     ---       #1595
LX51 LINKER/LOCATER V4.64.0.0                                                         02/02/2018  18:09:00  PAGE 56


      0100B3D9H   LINE      CODE     ---       #1608
      ---         BLOCKEND  ---      ---       LVL=0

      0100B16BH   BLOCK     CODE     ---       LVL=0
      0100B16BH   BLOCK     CODE     NEAR LAB  LVL=1
      0200002BH   SYMBOL    XDATA    ---       packet_data
      ---         BLOCKEND  ---      ---       LVL=1
      0100B16BH   LINE      CODE     ---       #1610
      0100B16BH   LINE      CODE     ---       #1618
      0100B171H   LINE      CODE     ---       #1620
      0100B190H   LINE      CODE     ---       #1621
      0100B1AFH   LINE      CODE     ---       #1625
      0100B1BFH   LINE      CODE     ---       #1627
      0100B1D0H   LINE      CODE     ---       #1629
      ---         BLOCKEND  ---      ---       LVL=0

      0100B5A2H   BLOCK     CODE     ---       LVL=0
      0100B5A2H   BLOCK     CODE     NEAR LAB  LVL=1
      0200002BH   SYMBOL    XDATA    ---       packet_data
      ---         BLOCKEND  ---      ---       LVL=1
      0100B5A2H   LINE      CODE     ---       #1631
      0100B5A2H   LINE      CODE     ---       #1639
      0100B5A8H   LINE      CODE     ---       #1641
      0100B5B7H   LINE      CODE     ---       #1642
      0100B5C6H   LINE      CODE     ---       #1646
      0100B5D6H   LINE      CODE     ---       #1648
      0100B5E7H   LINE      CODE     ---       #1649
      ---         BLOCKEND  ---      ---       LVL=0

      0100B025H   BLOCK     CODE     ---       LVL=0
      0100B025H   BLOCK     CODE     NEAR LAB  LVL=1
      00000067H   SYMBOL    DATA     BYTE      index
      0200002BH   SYMBOL    XDATA    ---       packet_data
      ---         BLOCKEND  ---      ---       LVL=1
      0100B025H   LINE      CODE     ---       #1651
      0100B025H   LINE      CODE     ---       #1668
      0100B02BH   LINE      CODE     ---       #1671
      0100B03AH   LINE      CODE     ---       #1672
      0100B049H   LINE      CODE     ---       #1675
      0100B053H   LINE      CODE     ---       #1676
      0100B094H   LINE      CODE     ---       #1688
      ---         BLOCKEND  ---      ---       LVL=0

      01009871H   BLOCK     CODE     ---       LVL=0
      01009871H   LINE      CODE     ---       #1690
      01009871H   LINE      CODE     ---       #1693
      01009885H   LINE      CODE     ---       #1694
      010098A2H   LINE      CODE     ---       #1696
      010098B6H   LINE      CODE     ---       #1697
      010098D3H   LINE      CODE     ---       #1700
      010098DCH   LINE      CODE     ---       #1702
      010098FCH   LINE      CODE     ---       #1703
      01009910H   LINE      CODE     ---       #1704
      01009932H   LINE      CODE     ---       #1705
      01009946H   LINE      CODE     ---       #1707
      01009968H   LINE      CODE     ---       #1708
      0100997CH   LINE      CODE     ---       #1709
      0100999EH   LINE      CODE     ---       #1710
      010099B2H   LINE      CODE     ---       #1711
      010099B2H   LINE      CODE     ---       #1712
      ---         BLOCKEND  ---      ---       LVL=0

      01009706H   BLOCK     CODE     ---       LVL=0
      01009706H   BLOCK     CODE     NEAR LAB  LVL=1
      00000067H   SYMBOL    DATA     LONG      pos
LX51 LINKER/LOCATER V4.64.0.0                                                         02/02/2018  18:09:00  PAGE 57


      0000006BH   SYMBOL    DATA     LONG      stiff
      ---         BLOCKEND  ---      ---       LVL=1
      01009706H   LINE      CODE     ---       #1714
      01009706H   LINE      CODE     ---       #1720
      0100971AH   LINE      CODE     ---       #1721
      0100972CH   LINE      CODE     ---       #1724
      01009745H   LINE      CODE     ---       #1727
      0100977AH   LINE      CODE     ---       #1728
      010097A4H   LINE      CODE     ---       #1730
      010097D5H   LINE      CODE     ---       #1731
      010097FCH   LINE      CODE     ---       #1736
      0100983BH   LINE      CODE     ---       #1739
      01009855H   LINE      CODE     ---       #1740
      01009870H   LINE      CODE     ---       #1741
      ---         BLOCKEND  ---      ---       LVL=0

      0100B7A7H   BLOCK     CODE     ---       LVL=0
      0100B7A7H   BLOCK     CODE     NEAR LAB  LVL=1
      00000067H   SYMBOL    DATA     BYTE      index
      0200002BH   SYMBOL    XDATA    ---       packet_data
      ---         BLOCKEND  ---      ---       LVL=1
      0100B7A7H   LINE      CODE     ---       #1743
      0100B7A7H   LINE      CODE     ---       #1761
      0100B7ADH   LINE      CODE     ---       #1763
      0100B7B7H   LINE      CODE     ---       #1764
      0100B7DFH   LINE      CODE     ---       #1776
      ---         BLOCKEND  ---      ---       LVL=0

      0100B62CH   BLOCK     CODE     ---       LVL=0
      0100B62CH   LINE      CODE     ---       #1778
      0100B62CH   LINE      CODE     ---       #1781
      0100B634H   LINE      CODE     ---       #1784
      0100B63EH   LINE      CODE     ---       #1785
      0100B63EH   LINE      CODE     ---       #1786
      0100B652H   LINE      CODE     ---       #1787
      0100B666H   LINE      CODE     ---       #1788
      0100B666H   LINE      CODE     ---       #1797
      0100B66EH   LINE      CODE     ---       #1799
      ---         BLOCKEND  ---      ---       LVL=0

      0100B66FH   BLOCK     CODE     ---       LVL=0
      0100B66FH   LINE      CODE     ---       #1801
      0100B66FH   LINE      CODE     ---       #1803
      0100B678H   LINE      CODE     ---       #1805
      0100B67DH   LINE      CODE     ---       #1806
      0100B682H   LINE      CODE     ---       #1807
      0100B683H   LINE      CODE     ---       #1808
      0100B683H   LINE      CODE     ---       #1810
      0100B68CH   LINE      CODE     ---       #1811
      0100B68FH   LINE      CODE     ---       #1816
      0100B6A7H   LINE      CODE     ---       #1817
      0100B6AAH   LINE      CODE     ---       #1818
      0100B6AFH   LINE      CODE     ---       #1819
      0100B6AFH   LINE      CODE     ---       #1820
      ---         BLOCKEND  ---      ---       LVL=0

      0100BA0DH   BLOCK     CODE     ---       LVL=0
      0100BA0DH   BLOCK     CODE     NEAR LAB  LVL=1
      0200002BH   SYMBOL    XDATA    ---       packet_data
      ---         BLOCKEND  ---      ---       LVL=1
      0100BA0DH   LINE      CODE     ---       #1822
      0100BA0DH   LINE      CODE     ---       #1827
      0100BA13H   LINE      CODE     ---       #1830
      0100BA1BH   LINE      CODE     ---       #1833
      0100BA2BH   LINE      CODE     ---       #1836
LX51 LINKER/LOCATER V4.64.0.0                                                         02/02/2018  18:09:00  PAGE 58


      0100BA3CH   LINE      CODE     ---       #1838
      ---         BLOCKEND  ---      ---       LVL=0

      0100BD3AH   BLOCK     CODE     ---       LVL=0
      0100BD3AH   BLOCK     CODE     NEAR LAB  LVL=1
      0200002BH   SYMBOL    XDATA    ---       packet_data
      ---         BLOCKEND  ---      ---       LVL=1
      0100BD3AH   LINE      CODE     ---       #1840
      0100BD3AH   LINE      CODE     ---       #1845
      0100BD3FH   LINE      CODE     ---       #1848
      0100BD41H   LINE      CODE     ---       #1851
      0100BD51H   LINE      CODE     ---       #1852
      ---         BLOCKEND  ---      ---       LVL=0

      010084B2H   BLOCK     CODE     ---       LVL=0
      010084B2H   BLOCK     CODE     NEAR LAB  LVL=1
      00000067H   SYMBOL    DATA     BYTE      packet_lenght
      00000068H   SYMBOL    DATA     ---       packet_data
      0000006AH   SYMBOL    DATA     BYTE      old_id
      ---         BLOCKEND  ---      ---       LVL=1
      010084B2H   LINE      CODE     ---       #1854
      010084B2H   LINE      CODE     ---       #1856
      010084B5H   LINE      CODE     ---       #1861
      010084BEH   LINE      CODE     ---       #1863
      010084DFH   LINE      CODE     ---       #1865
      0100850BH   LINE      CODE     ---       #1867
      01008537H   LINE      CODE     ---       #1868
      01008537H   LINE      CODE     ---       #1870
      01008558H   LINE      CODE     ---       #1872
      01008584H   LINE      CODE     ---       #1874
      010085B0H   LINE      CODE     ---       #1875
      010085B0H   LINE      CODE     ---       #1877
      010085D2H   LINE      CODE     ---       #1878
      01008629H   LINE      CODE     ---       #1880
      0100864BH   LINE      CODE     ---       #1881
      010086A2H   LINE      CODE     ---       #1884
      010086ABH   LINE      CODE     ---       #1885
      010086DFH   LINE      CODE     ---       #1886
      01008715H   LINE      CODE     ---       #1888
      0100874BH   LINE      CODE     ---       #1889
      01008781H   LINE      CODE     ---       #1890
      01008781H   LINE      CODE     ---       #1891
      01008781H   LINE      CODE     ---       #1894
      0100878EH   LINE      CODE     ---       #1895
      01008790H   LINE      CODE     ---       #1896
      01008799H   LINE      CODE     ---       #1897
      0100879CH   LINE      CODE     ---       #1898
      0100879FH   LINE      CODE     ---       #1899
      010087B3H   LINE      CODE     ---       #1900
      010087B4H   LINE      CODE     ---       #1901
      010087B4H   LINE      CODE     ---       #1902
      010087B7H   LINE      CODE     ---       #1903
      010087B9H   LINE      CODE     ---       #1904
      010087CCH   LINE      CODE     ---       #1905
      010087CCH   LINE      CODE     ---       #1906
      010087CDH   LINE      CODE     ---       #1907
      010087CDH   LINE      CODE     ---       #1908
      010087D6H   LINE      CODE     ---       #1909
      010087DBH   LINE      CODE     ---       #1910
      010087DCH   LINE      CODE     ---       #1911
      010087E1H   LINE      CODE     ---       #1912
      010087E1H   LINE      CODE     ---       #1913
      010087E1H   LINE      CODE     ---       #1914
      ---         BLOCKEND  ---      ---       LVL=0

LX51 LINKER/LOCATER V4.64.0.0                                                         02/02/2018  18:09:00  PAGE 59


      0100B7E0H   BLOCK     CODE     ---       LVL=0
      0100B7E0H   LINE      CODE     ---       #1916
      0100B7E0H   LINE      CODE     ---       #1919
      0100B7E8H   LINE      CODE     ---       #1921
      0100B7ECH   LINE      CODE     ---       #1922
      0100B7ECH   LINE      CODE     ---       #1923
      0100B7F5H   LINE      CODE     ---       #1924
      0100B7F6H   LINE      CODE     ---       #1925
      0100B7F6H   LINE      CODE     ---       #1926
      0100B7FFH   LINE      CODE     ---       #1927
      0100B7FFH   LINE      CODE     ---       #1928
      ---         BLOCKEND  ---      ---       LVL=0

      ---         MODULE    ---      ---       GLOBALS
      02000CF6H   PUBLIC    XDATA    BYTE      dev_pwm_limit
      00000022H.2 PUBLIC    BIT      BIT       tension_valid
      00000022H.1 PUBLIC    BIT      BIT       interrupt_flag
      02000CE0H   PUBLIC    XDATA    ---       g_meas
      02000CDEH   PUBLIC    XDATA    ---       pwm_sign
      02000CD8H   PUBLIC    XDATA    ---       ADC_buf
      02000CD0H   PUBLIC    XDATA    ---       pret_offset_pos
      02000CCCH   PUBLIC    XDATA    DWORD     timer_value0
      00000022H.0 PUBLIC    BIT      BIT       watchdog_flag
      00000021H.7 PUBLIC    BIT      BIT       pret_done
      00000021H.6 PUBLIC    BIT      BIT       reset_last_value_flag
      02000CC3H   PUBLIC    XDATA    ---       g_refNew
      02000C3EH   PUBLIC    XDATA    ---       g_rx
      02000C35H   PUBLIC    XDATA    ---       g_refOld
      02000C31H   PUBLIC    XDATA    LONG      dev_tension
      02000C2DH   PUBLIC    XDATA    DWORD     timer_value
      00000021H.5 PUBLIC    BIT      BIT       cuff_flag_force
      00000021H.4 PUBLIC    BIT      BIT       cuff_flag_proprio
      02000C17H   PUBLIC    XDATA    ---       g_measOld
      02000C16H   PUBLIC    XDATA    BYTE      calibration_flag
      00000021H.3 PUBLIC    BIT      BIT       pretensioning_flag
      02000B95H   PUBLIC    XDATA    ---       g_mem
      00000021H.2 PUBLIC    BIT      BIT       cuff_flag_force_proprio
      02000B8CH   PUBLIC    XDATA    ---       g_ref
      02000B0BH   PUBLIC    XDATA    ---       c_mem
      000000CAH   SFRSYM    DATA     BYTE      SFRPRT5SEL
      000000DAH   SFRSYM    DATA     BYTE      SFRPRT6SEL
      000000D0H.6 SFRSYM    DATA     BIT       AC
      000000A8H.7 SFRSYM    DATA     BIT       EA
      000000A8H   SFRSYM    DATA     BYTE      IE
      00000085H   SFRSYM    DATA     BYTE      DPH1
      00000084H   SFRSYM    DATA     BYTE      DPL1
      000000D0H.7 SFRSYM    DATA     BIT       CY
      000000A0H   SFRSYM    DATA     BYTE      P2AX
      00000095H   SFRSYM    DATA     BYTE      DPX1
      00000081H   SFRSYM    DATA     BYTE      SP
      000000D0H.2 SFRSYM    DATA     BIT       OV
      00000080H   SFRSYM    DATA     BYTE      SFRPRT0DR
      00000090H   SFRSYM    DATA     BYTE      SFRPRT1DR
      000000F2H   SFRSYM    DATA     BYTE      SFRPRT12SEL
      00000098H   SFRSYM    DATA     BYTE      SFRPRT2DR
      000000B0H   SFRSYM    DATA     BYTE      SFRPRT3DR
      000000C0H   SFRSYM    DATA     BYTE      SFRPRT4DR
      000000FAH   SFRSYM    DATA     BYTE      SFRPRT15SEL
      000000C8H   SFRSYM    DATA     BYTE      SFRPRT5DR
      000000D8H   SFRSYM    DATA     BYTE      SFRPRT6DR
      00000089H   SFRSYM    DATA     BYTE      SFRPRT0PS
      00000091H   SFRSYM    DATA     BYTE      SFRPRT1PS
      00000099H   SFRSYM    DATA     BYTE      SFRPRT2PS
      000000B1H   SFRSYM    DATA     BYTE      SFRPRT3PS
      000000C1H   SFRSYM    DATA     BYTE      SFRPRT4PS
LX51 LINKER/LOCATER V4.64.0.0                                                         02/02/2018  18:09:00  PAGE 60


      000000C9H   SFRSYM    DATA     BYTE      SFRPRT5PS
      000000D9H   SFRSYM    DATA     BYTE      SFRPRT6PS
      000000EAH   SFRSYM    DATA     BYTE      MXAX
      000000F0H   SFRSYM    DATA     BYTE      B
      000000E0H   SFRSYM    DATA     BYTE      ACC
      000000D0H   SFRSYM    DATA     BIT       P
      000000D0H.3 SFRSYM    DATA     BIT       RS0
      000000D0H.4 SFRSYM    DATA     BIT       RS1
      00000083H   SFRSYM    DATA     BYTE      DPH
      000000E8H   SFRSYM    DATA     BYTE      SFRPRT12DR
      00000082H   SFRSYM    DATA     BYTE      DPL
      000000F8H   SFRSYM    DATA     BYTE      SFRPRT15DR
      00000086H   SFRSYM    DATA     BYTE      DPS
      000000E9H   SFRSYM    DATA     BYTE      SFRPRT12PS
      00000093H   SFRSYM    DATA     BYTE      DPX
      000000F9H   SFRSYM    DATA     BYTE      SFRPRT15PS
      000000D0H.5 SFRSYM    DATA     BIT       F0
      000000D0H.1 SFRSYM    DATA     BIT       F1
      0000008AH   SFRSYM    DATA     BYTE      SFRPRT0SEL
      000000D0H   SFRSYM    DATA     BYTE      PSW
      000000A2H   SFRSYM    DATA     BYTE      SFRPRT1SEL
      0000009AH   SFRSYM    DATA     BYTE      SFRPRT2SEL
      000000B2H   SFRSYM    DATA     BYTE      SFRPRT3SEL
      000000C2H   SFRSYM    DATA     BYTE      SFRPRT4SEL

      ---         MODULE    ---      ---       MAIN
      01008AD7H   PUBLIC    CODE     ---       main
      000000CAH   SFRSYM    DATA     BYTE      SFRPRT5SEL
      000000DAH   SFRSYM    DATA     BYTE      SFRPRT6SEL
      000000D0H.6 SFRSYM    DATA     BIT       AC
      000000A8H.7 SFRSYM    DATA     BIT       EA
      000000A8H   SFRSYM    DATA     BYTE      IE
      00000085H   SFRSYM    DATA     BYTE      DPH1
      00000084H   SFRSYM    DATA     BYTE      DPL1
      000000D0H.7 SFRSYM    DATA     BIT       CY
      000000A0H   SFRSYM    DATA     BYTE      P2AX
      00000095H   SFRSYM    DATA     BYTE      DPX1
      00000081H   SFRSYM    DATA     BYTE      SP
      000000D0H.2 SFRSYM    DATA     BIT       OV
      00000080H   SFRSYM    DATA     BYTE      SFRPRT0DR
      00000090H   SFRSYM    DATA     BYTE      SFRPRT1DR
      000000F2H   SFRSYM    DATA     BYTE      SFRPRT12SEL
      00000098H   SFRSYM    DATA     BYTE      SFRPRT2DR
      000000B0H   SFRSYM    DATA     BYTE      SFRPRT3DR
      000000C0H   SFRSYM    DATA     BYTE      SFRPRT4DR
      000000FAH   SFRSYM    DATA     BYTE      SFRPRT15SEL
      000000C8H   SFRSYM    DATA     BYTE      SFRPRT5DR
      000000D8H   SFRSYM    DATA     BYTE      SFRPRT6DR
      00000089H   SFRSYM    DATA     BYTE      SFRPRT0PS
      00000091H   SFRSYM    DATA     BYTE      SFRPRT1PS
      00000099H   SFRSYM    DATA     BYTE      SFRPRT2PS
      000000B1H   SFRSYM    DATA     BYTE      SFRPRT3PS
      000000C1H   SFRSYM    DATA     BYTE      SFRPRT4PS
      000000C9H   SFRSYM    DATA     BYTE      SFRPRT5PS
      000000D9H   SFRSYM    DATA     BYTE      SFRPRT6PS
      000000EAH   SFRSYM    DATA     BYTE      MXAX
      000000F0H   SFRSYM    DATA     BYTE      B
      000000E0H   SFRSYM    DATA     BYTE      ACC
      000000D0H   SFRSYM    DATA     BIT       P
      000000D0H.3 SFRSYM    DATA     BIT       RS0
      000000D0H.4 SFRSYM    DATA     BIT       RS1
      00000083H   SFRSYM    DATA     BYTE      DPH
      000000E8H   SFRSYM    DATA     BYTE      SFRPRT12DR
      00000082H   SFRSYM    DATA     BYTE      DPL
      000000F8H   SFRSYM    DATA     BYTE      SFRPRT15DR
LX51 LINKER/LOCATER V4.64.0.0                                                         02/02/2018  18:09:00  PAGE 61


      00000086H   SFRSYM    DATA     BYTE      DPS
      000000E9H   SFRSYM    DATA     BYTE      SFRPRT12PS
      00000093H   SFRSYM    DATA     BYTE      DPX
      000000F9H   SFRSYM    DATA     BYTE      SFRPRT15PS
      000000D0H.5 SFRSYM    DATA     BIT       F0
      000000D0H.1 SFRSYM    DATA     BIT       F1
      0000008AH   SFRSYM    DATA     BYTE      SFRPRT0SEL
      000000D0H   SFRSYM    DATA     BYTE      PSW
      000000A2H   SFRSYM    DATA     BYTE      SFRPRT1SEL
      0000009AH   SFRSYM    DATA     BYTE      SFRPRT2SEL
      000000B2H   SFRSYM    DATA     BYTE      SFRPRT3SEL
      000000C2H   SFRSYM    DATA     BYTE      SFRPRT4SEL

      01008AD7H   BLOCK     CODE     ---       LVL=0
      01008AD7H   BLOCK     CODE     NEAR LAB  LVL=1
      02000000H   SYMBOL    XDATA    BYTE      i
      02000001H   SYMBOL    XDATA    BYTE      DMA_Chan
      02000002H   SYMBOL    XDATA    ---       DMA_TD
      ---         BLOCKEND  ---      ---       LVL=1
      01008AD7H   LINE      CODE     ---       #69
      01008AD7H   LINE      CODE     ---       #83
      01008ADAH   LINE      CODE     ---       #84
      01008ADDH   LINE      CODE     ---       #88
      01008AE6H   LINE      CODE     ---       #89
      01008AEBH   LINE      CODE     ---       #93
      01008AEEH   LINE      CODE     ---       #94
      01008AF1H   LINE      CODE     ---       #95
      01008AF4H   LINE      CODE     ---       #97
      01008AF7H   LINE      CODE     ---       #98
      01008AFAH   LINE      CODE     ---       #100
      01008B01H   LINE      CODE     ---       #104
      01008B04H   LINE      CODE     ---       #106
      01008B0BH   LINE      CODE     ---       #110
      01008B0EH   LINE      CODE     ---       #111
      01008B13H   LINE      CODE     ---       #112
      01008B18H   LINE      CODE     ---       #113
      01008B1DH   LINE      CODE     ---       #114
      01008B22H   LINE      CODE     ---       #119
      01008B25H   LINE      CODE     ---       #120
      01008B28H   LINE      CODE     ---       #121
      01008B2BH   LINE      CODE     ---       #131
      01008B2EH   LINE      CODE     ---       #132
      01008B33H   LINE      CODE     ---       #135
      01008B48H   LINE      CODE     ---       #136
      01008B50H   LINE      CODE     ---       #137
      01008B60H   LINE      CODE     ---       #138
      01008B77H   LINE      CODE     ---       #139
      01008B82H   LINE      CODE     ---       #141
      01008B8CH   LINE      CODE     ---       #143
      01008B91H   LINE      CODE     ---       #147
      01008B94H   LINE      CODE     ---       #148
      01008B97H   LINE      CODE     ---       #150
      01008B9FH   LINE      CODE     ---       #154
      01008BA8H   LINE      CODE     ---       #157
      01008BB8H   LINE      CODE     ---       #158
      01008BD0H   LINE      CODE     ---       #161
      01008BE0H   LINE      CODE     ---       #162
      01008BF7H   LINE      CODE     ---       #163
      01008C03H   LINE      CODE     ---       #164
      01008C05H   LINE      CODE     ---       #168
      01008C0DH   LINE      CODE     ---       #171
      01008C14H   LINE      CODE     ---       #172
      01008C18H   LINE      CODE     ---       #175
      01008C2DH   LINE      CODE     ---       #176
      01008C36H   LINE      CODE     ---       #177
LX51 LINKER/LOCATER V4.64.0.0                                                         02/02/2018  18:09:00  PAGE 62


      01008C3DH   LINE      CODE     ---       #179
      01008C42H   LINE      CODE     ---       #181
      01008C51H   LINE      CODE     ---       #182
      01008C56H   LINE      CODE     ---       #183
      01008C87H   LINE      CODE     ---       #184
      01008C8FH   LINE      CODE     ---       #186
      01008C98H   LINE      CODE     ---       #187
      01008C9FH   LINE      CODE     ---       #189
      01008CA4H   LINE      CODE     ---       #191
      01008CB7H   LINE      CODE     ---       #193
      01008CBFH   LINE      CODE     ---       #195
      01008CC4H   LINE      CODE     ---       #196
      01008CC6H   LINE      CODE     ---       #198
      01008CCEH   LINE      CODE     ---       #199
      01008CD6H   LINE      CODE     ---       #200
      01008CDEH   LINE      CODE     ---       #201
      01008CE3H   LINE      CODE     ---       #202
      01008CE5H   LINE      CODE     ---       #204
      01008CE7H   LINE      CODE     ---       #205
      01008CE9H   LINE      CODE     ---       #209
      01008CEFH   LINE      CODE     ---       #210
      01008CF6H   LINE      CODE     ---       #212
      01008CFBH   LINE      CODE     ---       #216
      01008CFBH   LINE      CODE     ---       #217
      01008CFBH   LINE      CODE     ---       #219
      01008D00H   LINE      CODE     ---       #222
      01008D03H   LINE      CODE     ---       #225
      01008D09H   LINE      CODE     ---       #227
      01008D0CH   LINE      CODE     ---       #229
      01008D11H   LINE      CODE     ---       #231
      01008D13H   LINE      CODE     ---       #232
      01008D15H   LINE      CODE     ---       #234
      01008D18H   LINE      CODE     ---       #235
      01008D1AH   LINE      CODE     ---       #237
      01008D1AH   LINE      CODE     ---       #238
      01008D1DH   LINE      CODE     ---       #240
      01008D22H   LINE      CODE     ---       #242
      01008D27H   LINE      CODE     ---       #243
      01008D27H   LINE      CODE     ---       #244
      01008D27H   LINE      CODE     ---       #245
      01008D29H   LINE      CODE     ---       #248
      01008D2EH   LINE      CODE     ---       #251
      01008D36H   LINE      CODE     ---       #253
      01008D3DH   LINE      CODE     ---       #254
      01008D40H   LINE      CODE     ---       #255
      01008D42H   LINE      CODE     ---       #256
      01008D42H   LINE      CODE     ---       #257
      ---         BLOCKEND  ---      ---       LVL=0

      ---         MODULE    ---      ---       UTILS
      0100B979H   PUBLIC    CODE     ---       _LCRChecksum
      0100B095H   PUBLIC    CODE     ---       _check_enc_data
      0100AF3DH   PUBLIC    CODE     ---       _filter_i2
      0100AEC8H   PUBLIC    CODE     ---       _filter_i1
      000000CAH   SFRSYM    DATA     BYTE      SFRPRT5SEL
      000000DAH   SFRSYM    DATA     BYTE      SFRPRT6SEL
      000000D0H.6 SFRSYM    DATA     BIT       AC
      000000A8H.7 SFRSYM    DATA     BIT       EA
      000000A8H   SFRSYM    DATA     BYTE      IE
      00000085H   SFRSYM    DATA     BYTE      DPH1
      00000084H   SFRSYM    DATA     BYTE      DPL1
      000000D0H.7 SFRSYM    DATA     BIT       CY
      000000A0H   SFRSYM    DATA     BYTE      P2AX
      00000095H   SFRSYM    DATA     BYTE      DPX1
      00000081H   SFRSYM    DATA     BYTE      SP
LX51 LINKER/LOCATER V4.64.0.0                                                         02/02/2018  18:09:00  PAGE 63


      000000D0H.2 SFRSYM    DATA     BIT       OV
      00000080H   SFRSYM    DATA     BYTE      SFRPRT0DR
      00000090H   SFRSYM    DATA     BYTE      SFRPRT1DR
      000000F2H   SFRSYM    DATA     BYTE      SFRPRT12SEL
      00000098H   SFRSYM    DATA     BYTE      SFRPRT2DR
      000000B0H   SFRSYM    DATA     BYTE      SFRPRT3DR
      000000C0H   SFRSYM    DATA     BYTE      SFRPRT4DR
      000000FAH   SFRSYM    DATA     BYTE      SFRPRT15SEL
      000000C8H   SFRSYM    DATA     BYTE      SFRPRT5DR
      000000D8H   SFRSYM    DATA     BYTE      SFRPRT6DR
      00000089H   SFRSYM    DATA     BYTE      SFRPRT0PS
      00000091H   SFRSYM    DATA     BYTE      SFRPRT1PS
      00000099H   SFRSYM    DATA     BYTE      SFRPRT2PS
      000000B1H   SFRSYM    DATA     BYTE      SFRPRT3PS
      000000C1H   SFRSYM    DATA     BYTE      SFRPRT4PS
      000000C9H   SFRSYM    DATA     BYTE      SFRPRT5PS
      000000D9H   SFRSYM    DATA     BYTE      SFRPRT6PS
      000000EAH   SFRSYM    DATA     BYTE      MXAX
      000000F0H   SFRSYM    DATA     BYTE      B
      000000E0H   SFRSYM    DATA     BYTE      ACC
      000000D0H   SFRSYM    DATA     BIT       P
      000000D0H.3 SFRSYM    DATA     BIT       RS0
      000000D0H.4 SFRSYM    DATA     BIT       RS1
      00000083H   SFRSYM    DATA     BYTE      DPH
      000000E8H   SFRSYM    DATA     BYTE      SFRPRT12DR
      00000082H   SFRSYM    DATA     BYTE      DPL
      000000F8H   SFRSYM    DATA     BYTE      SFRPRT15DR
      00000086H   SFRSYM    DATA     BYTE      DPS
      000000E9H   SFRSYM    DATA     BYTE      SFRPRT12PS
      00000093H   SFRSYM    DATA     BYTE      DPX
      000000F9H   SFRSYM    DATA     BYTE      SFRPRT15PS
      000000D0H.5 SFRSYM    DATA     BIT       F0
      000000D0H.1 SFRSYM    DATA     BIT       F1
      0000008AH   SFRSYM    DATA     BYTE      SFRPRT0SEL
      000000D0H   SFRSYM    DATA     BYTE      PSW
      000000A2H   SFRSYM    DATA     BYTE      SFRPRT1SEL
      0000009AH   SFRSYM    DATA     BYTE      SFRPRT2SEL
      000000B2H   SFRSYM    DATA     BYTE      SFRPRT3SEL
      000000C2H   SFRSYM    DATA     BYTE      SFRPRT4SEL

      0100AEC8H   BLOCK     CODE     ---       LVL=0
      00000004H   SYMBOL    DATA     LONG      new_value
      0100AEC8H   BLOCK     CODE     NEAR LAB  LVL=1
      02000DE2H   SYMBOL    XDATA    LONG      old_value
      02000DE6H   SYMBOL    XDATA    LONG      aux
      ---         BLOCKEND  ---      ---       LVL=1
      0100AEC8H   LINE      CODE     ---       #56
      0100AEC8H   LINE      CODE     ---       #60
      0100AF15H   LINE      CODE     ---       #62
      0100AF29H   LINE      CODE     ---       #64
      0100AF3CH   LINE      CODE     ---       #65
      ---         BLOCKEND  ---      ---       LVL=0

      0100AF3DH   BLOCK     CODE     ---       LVL=0
      00000004H   SYMBOL    DATA     LONG      new_value
      0100AF3DH   BLOCK     CODE     NEAR LAB  LVL=1
      02000DEAH   SYMBOL    XDATA    LONG      old_value
      02000DEEH   SYMBOL    XDATA    LONG      aux
      ---         BLOCKEND  ---      ---       LVL=1
      0100AF3DH   LINE      CODE     ---       #67
      0100AF3DH   LINE      CODE     ---       #71
      0100AF8AH   LINE      CODE     ---       #73
      0100AF9EH   LINE      CODE     ---       #75
      0100AFB1H   LINE      CODE     ---       #76
      ---         BLOCKEND  ---      ---       LVL=0
LX51 LINKER/LOCATER V4.64.0.0                                                         02/02/2018  18:09:00  PAGE 64


      00000004H   SYMBOL    DATA     LONG      new_value
      02000DF2H   SYMBOL    XDATA    LONG      old_value
      02000DF6H   SYMBOL    XDATA    LONG      aux
      00000004H   SYMBOL    DATA     LONG      new_value
      02000DFAH   SYMBOL    XDATA    LONG      old_value
      02000DFEH   SYMBOL    XDATA    LONG      aux
      00000004H   SYMBOL    DATA     LONG      new_value
      02000E02H   SYMBOL    XDATA    LONG      old_value
      02000E06H   SYMBOL    XDATA    LONG      aux

      0100B095H   BLOCK     CODE     ---       LVL=0
      00000001H   SYMBOL    DATA     ---       value
      0100B095H   BLOCK     CODE     NEAR LAB  LVL=1
      00000010H   SYMBOL    IDATA    ---       p
      00000024H   SYMBOL    DATA     BYTE      a
      ---         BLOCKEND  ---      ---       LVL=1
      0100B095H   LINE      CODE     ---       #122
      0100B095H   LINE      CODE     ---       #124
      0100B09FH   LINE      CODE     ---       #125
      0100B0A4H   LINE      CODE     ---       #127
      0100B0B8H   LINE      CODE     ---       #128
      0100B0CCH   LINE      CODE     ---       #129
      0100B0E0H   LINE      CODE     ---       #130
      0100B0EDH   LINE      CODE     ---       #132
      0100B0FFH   LINE      CODE     ---       #134
      ---         BLOCKEND  ---      ---       LVL=0

      0100B979H   BLOCK     CODE     ---       LVL=0
      02000B02H   SYMBOL    XDATA    ---       data_array
      00000005H   SYMBOL    DATA     BYTE      data_length
      0100B984H   BLOCK     CODE     NEAR LAB  LVL=1
      0000007CH   SYMBOL    DATA     BYTE      i
      0000007DH   SYMBOL    DATA     BYTE      checksum
      ---         BLOCKEND  ---      ---       LVL=1
      0100B979H   LINE      CODE     ---       #143
      0100B984H   LINE      CODE     ---       #146
      0100B987H   LINE      CODE     ---       #148
      0100B98FH   LINE      CODE     ---       #149
      0100B9A8H   LINE      CODE     ---       #151
      0100B9AAH   LINE      CODE     ---       #152
      ---         BLOCKEND  ---      ---       LVL=0

      ---         MODULE    ---      ---       INTERRUPTIONS
      0100CD4AH   PUBLIC    CONST    ---       hitech_pwm_preload_values_6v
      0100CD26H   PUBLIC    CONST    ---       hitech_pwm_preload_values
      0100CD09H   PUBLIC    CONST    ---       pwm_preload_values
      01008D43H   PUBLIC    CODE     ---       pretensioning_process
      01009F9EH   PUBLIC    CODE     ---       pwm_limit_search
      010087E2H   PUBLIC    CODE     ---       _encoder_reading
      0100A2F9H   PUBLIC    CODE     ---       analog_read_end
      01006058H   PUBLIC    CODE     ---       _motor_control
      0100A3FBH   PUBLIC    CODE     ---       function_scheduler
      01009C14H   PUBLIC    CODE     ---       interrupt_manager
      0100C1A8H   PUBLIC    CODE     ---       ISR_RS485_RX_ExInterrupt
      0100C1A5H   PUBLIC    CODE     ---       ISR_WATCHDOG_Handler
      000000CAH   SFRSYM    DATA     BYTE      SFRPRT5SEL
      000000DAH   SFRSYM    DATA     BYTE      SFRPRT6SEL
      000000D0H.6 SFRSYM    DATA     BIT       AC
      000000A8H.7 SFRSYM    DATA     BIT       EA
      000000A8H   SFRSYM    DATA     BYTE      IE
      00000085H   SFRSYM    DATA     BYTE      DPH1
      00000084H   SFRSYM    DATA     BYTE      DPL1
      000000D0H.7 SFRSYM    DATA     BIT       CY
      000000A0H   SFRSYM    DATA     BYTE      P2AX
      00000095H   SFRSYM    DATA     BYTE      DPX1
LX51 LINKER/LOCATER V4.64.0.0                                                         02/02/2018  18:09:00  PAGE 65


      00000081H   SFRSYM    DATA     BYTE      SP
      000000D0H.2 SFRSYM    DATA     BIT       OV
      00000080H   SFRSYM    DATA     BYTE      SFRPRT0DR
      00000090H   SFRSYM    DATA     BYTE      SFRPRT1DR
      000000F2H   SFRSYM    DATA     BYTE      SFRPRT12SEL
      00000098H   SFRSYM    DATA     BYTE      SFRPRT2DR
      000000B0H   SFRSYM    DATA     BYTE      SFRPRT3DR
      000000C0H   SFRSYM    DATA     BYTE      SFRPRT4DR
      000000FAH   SFRSYM    DATA     BYTE      SFRPRT15SEL
      000000C8H   SFRSYM    DATA     BYTE      SFRPRT5DR
      000000D8H   SFRSYM    DATA     BYTE      SFRPRT6DR
      00000089H   SFRSYM    DATA     BYTE      SFRPRT0PS
      00000091H   SFRSYM    DATA     BYTE      SFRPRT1PS
      00000099H   SFRSYM    DATA     BYTE      SFRPRT2PS
      000000B1H   SFRSYM    DATA     BYTE      SFRPRT3PS
      000000C1H   SFRSYM    DATA     BYTE      SFRPRT4PS
      000000C9H   SFRSYM    DATA     BYTE      SFRPRT5PS
      000000D9H   SFRSYM    DATA     BYTE      SFRPRT6PS
      000000EAH   SFRSYM    DATA     BYTE      MXAX
      000000F0H   SFRSYM    DATA     BYTE      B
      000000E0H   SFRSYM    DATA     BYTE      ACC
      000000D0H   SFRSYM    DATA     BIT       P
      000000D0H.3 SFRSYM    DATA     BIT       RS0
      000000D0H.4 SFRSYM    DATA     BIT       RS1
      00000083H   SFRSYM    DATA     BYTE      DPH
      000000E8H   SFRSYM    DATA     BYTE      SFRPRT12DR
      00000082H   SFRSYM    DATA     BYTE      DPL
      000000F8H   SFRSYM    DATA     BYTE      SFRPRT15DR
      00000086H   SFRSYM    DATA     BYTE      DPS
      000000E9H   SFRSYM    DATA     BYTE      SFRPRT12PS
      00000093H   SFRSYM    DATA     BYTE      DPX
      000000F9H   SFRSYM    DATA     BYTE      SFRPRT15PS
      000000D0H.5 SFRSYM    DATA     BIT       F0
      000000D0H.1 SFRSYM    DATA     BIT       F1
      0000008AH   SFRSYM    DATA     BYTE      SFRPRT0SEL
      000000D0H   SFRSYM    DATA     BYTE      PSW
      000000A2H   SFRSYM    DATA     BYTE      SFRPRT1SEL
      0000009AH   SFRSYM    DATA     BYTE      SFRPRT2SEL
      000000B2H   SFRSYM    DATA     BYTE      SFRPRT3SEL
      000000C2H   SFRSYM    DATA     BYTE      SFRPRT4SEL

      0100C1A5H   BLOCK     CODE     ---       LVL=0
      0100C1A5H   LINE      CODE     ---       #161
      0100C1A5H   LINE      CODE     ---       #165
      0100C1A7H   LINE      CODE     ---       #167
      ---         BLOCKEND  ---      ---       LVL=0

      0100C1A8H   BLOCK     CODE     ---       LVL=0
      0100C1A8H   LINE      CODE     ---       #173
      0100C1A8H   LINE      CODE     ---       #177
      0100C1AAH   LINE      CODE     ---       #179
      ---         BLOCKEND  ---      ---       LVL=0

      01009C14H   BLOCK     CODE     ---       LVL=0
      01009C14H   BLOCK     CODE     NEAR LAB  LVL=1
      00000008H   SYMBOL    DATA     BYTE      state
      00000009H   SYMBOL    DATA     BYTE      data_packet_index
      0000000AH   SYMBOL    DATA     BYTE      data_packet_length
      02000CF7H   SYMBOL    XDATA    ---       data_packet_buffer
      0000000BH   SYMBOL    DATA     ---       rx_queue
      00000064H   SYMBOL    DATA     BYTE      rx_data
      00000020H.0 SYMBOL    BIT      BIT       rx_data_type
      00000065H   SYMBOL    DATA     BYTE      package_count
      ---         BLOCKEND  ---      ---       LVL=1
      01009C14H   LINE      CODE     ---       #196
LX51 LINKER/LOCATER V4.64.0.0                                                         02/02/2018  18:09:00  PAGE 66


      01009C14H   LINE      CODE     ---       #212
      01009C17H   LINE      CODE     ---       #218
      01009C2AH   LINE      CODE     ---       #222
      01009C2FH   LINE      CODE     ---       #224
      01009C47H   LINE      CODE     ---       #226
      01009C47H   LINE      CODE     ---       #228
      01009C4AH   LINE      CODE     ---       #229
      01009C4DH   LINE      CODE     ---       #230
      01009C50H   LINE      CODE     ---       #233
      01009C5AH   LINE      CODE     ---       #234
      01009C5DH   LINE      CODE     ---       #235
      01009C5FH   LINE      CODE     ---       #236
      01009C61H   LINE      CODE     ---       #237
      01009C64H   LINE      CODE     ---       #238
      01009C66H   LINE      CODE     ---       #239
      01009C76H   LINE      CODE     ---       #242
      01009C7BH   LINE      CODE     ---       #243
      01009C7DH   LINE      CODE     ---       #246
      01009C7DH   LINE      CODE     ---       #249
      01009C90H   LINE      CODE     ---       #250
      01009C94H   LINE      CODE     ---       #252
      01009C96H   LINE      CODE     ---       #254
      01009C99H   LINE      CODE     ---       #255
      01009C9CH   LINE      CODE     ---       #256
      01009C9FH   LINE      CODE     ---       #259
      01009C9FH   LINE      CODE     ---       #262
      01009CA2H   LINE      CODE     ---       #264
      01009CA9H   LINE      CODE     ---       #265
      01009CACH   LINE      CODE     ---       #266
      01009CAEH   LINE      CODE     ---       #267
      01009CB8H   LINE      CODE     ---       #268
      01009CBBH   LINE      CODE     ---       #269
      01009CBDH   LINE      CODE     ---       #270
      01009CC0H   LINE      CODE     ---       #271
      01009CC3H   LINE      CODE     ---       #273
      01009CC6H   LINE      CODE     ---       #274
      01009CCCH   LINE      CODE     ---       #276
      01009CCFH   LINE      CODE     ---       #277
      01009CCFH   LINE      CODE     ---       #278
      01009CD2H   LINE      CODE     ---       #281
      01009CD2H   LINE      CODE     ---       #283
      01009CE0H   LINE      CODE     ---       #284
      01009CE2H   LINE      CODE     ---       #287
      01009CECH   LINE      CODE     ---       #289
      01009CEFH   LINE      CODE     ---       #291
      01009D02H   LINE      CODE     ---       #292
      01009D0BH   LINE      CODE     ---       #293
      01009D11H   LINE      CODE     ---       #294
      01009D14H   LINE      CODE     ---       #295
      01009D14H   LINE      CODE     ---       #297
      01009D17H   LINE      CODE     ---       #298
      01009D19H   LINE      CODE     ---       #299
      01009D1BH   LINE      CODE     ---       #300
      01009D1DH   LINE      CODE     ---       #302
      01009D1DH   LINE      CODE     ---       #303
      01009D20H   LINE      CODE     ---       #306
      01009D20H   LINE      CODE     ---       #307
      01009D29H   LINE      CODE     ---       #308
      01009D2BH   LINE      CODE     ---       #309
      01009D2DH   LINE      CODE     ---       #310
      01009D32H   LINE      CODE     ---       #311
      01009D37H   LINE      CODE     ---       #312
      01009D3AH   LINE      CODE     ---       #313
      01009D3CH   LINE      CODE     ---       #314
      01009D3CH   LINE      CODE     ---       #315
LX51 LINKER/LOCATER V4.64.0.0                                                         02/02/2018  18:09:00  PAGE 67


      01009D3FH   LINE      CODE     ---       #316
      01009D3FH   LINE      CODE     ---       #317
      01009D42H   LINE      CODE     ---       #318
      ---         BLOCKEND  ---      ---       LVL=0

      0100A3FBH   BLOCK     CODE     ---       LVL=0
      0100A3FBH   BLOCK     CODE     NEAR LAB  LVL=1
      02000D77H   SYMBOL    XDATA    WORD      counter_calibration
      ---         BLOCKEND  ---      ---       LVL=1
      0100A3FBH   LINE      CODE     ---       #328
      0100A3FBH   LINE      CODE     ---       #334
      0100A404H   LINE      CODE     ---       #336
      0100A409H   LINE      CODE     ---       #340
      0100A40CH   LINE      CODE     ---       #341
      0100A40EH   LINE      CODE     ---       #342
      0100A411H   LINE      CODE     ---       #343
      0100A411H   LINE      CODE     ---       #347
      0100A417H   LINE      CODE     ---       #351
      0100A41AH   LINE      CODE     ---       #352
      0100A41CH   LINE      CODE     ---       #353
      0100A41FH   LINE      CODE     ---       #354
      0100A41FH   LINE      CODE     ---       #356
      0100A426H   LINE      CODE     ---       #360
      0100A429H   LINE      CODE     ---       #361
      0100A42BH   LINE      CODE     ---       #362
      0100A42EH   LINE      CODE     ---       #363
      0100A42EH   LINE      CODE     ---       #376
      0100A433H   LINE      CODE     ---       #380
      0100A436H   LINE      CODE     ---       #381
      0100A438H   LINE      CODE     ---       #382
      0100A43BH   LINE      CODE     ---       #383
      0100A43BH   LINE      CODE     ---       #385
      0100A440H   LINE      CODE     ---       #389
      0100A443H   LINE      CODE     ---       #390
      0100A445H   LINE      CODE     ---       #391
      0100A448H   LINE      CODE     ---       #392
      0100A448H   LINE      CODE     ---       #396
      0100A44BH   LINE      CODE     ---       #416
      0100A44EH   LINE      CODE     ---       #417
      0100A45AH   LINE      CODE     ---       #418
      0100A45DH   LINE      CODE     ---       #419
      0100A464H   LINE      CODE     ---       #420
      0100A464H   LINE      CODE     ---       #421
      0100A472H   LINE      CODE     ---       #422
      0100A474H   LINE      CODE     ---       #423
      0100A477H   LINE      CODE     ---       #424
      0100A47AH   LINE      CODE     ---       #426
      0100A47DH   LINE      CODE     ---       #427
      0100A480H   LINE      CODE     ---       #429
      0100A483H   LINE      CODE     ---       #430
      0100A486H   LINE      CODE     ---       #431
      0100A486H   LINE      CODE     ---       #433
      0100A489H   LINE      CODE     ---       #434
      0100A48BH   LINE      CODE     ---       #435
      0100A48EH   LINE      CODE     ---       #436
      0100A48EH   LINE      CODE     ---       #442
      0100A4A1H   LINE      CODE     ---       #443
      0100A4B4H   LINE      CODE     ---       #446
      0100A4C7H   LINE      CODE     ---       #448
      0100A4CAH   LINE      CODE     ---       #449
      0100A4CCH   LINE      CODE     ---       #450
      0100A4CFH   LINE      CODE     ---       #451
      0100A4CFH   LINE      CODE     ---       #455
      0100A4D8H   LINE      CODE     ---       #456
      0100A4E3H   LINE      CODE     ---       #458
LX51 LINKER/LOCATER V4.64.0.0                                                         02/02/2018  18:09:00  PAGE 68


      ---         BLOCKEND  ---      ---       LVL=0

      01006058H   BLOCK     CODE     ---       LVL=0
      00000007H   SYMBOL    DATA     BYTE      idx
      01006058H   BLOCK     CODE     NEAR LAB  LVL=1
      00000023H   SYMBOL    DATA     BYTE      index
      00000024H   SYMBOL    DATA     LONG      curr_ref
      00000028H   SYMBOL    DATA     LONG      pwm_input
      0000002CH   SYMBOL    DATA     LONG      pos_error
      00000030H   SYMBOL    DATA     LONG      curr_error
      00000034H   SYMBOL    DATA     LONG      k_p
      00000038H   SYMBOL    DATA     LONG      k_i
      0000003CH   SYMBOL    DATA     LONG      k_d
      00000040H   SYMBOL    DATA     LONG      k_p_c
      00000044H   SYMBOL    DATA     LONG      k_i_c
      00000048H   SYMBOL    DATA     LONG      k_d_c
      0000004CH   SYMBOL    DATA     LONG      k_p_dl
      00000050H   SYMBOL    DATA     LONG      k_i_dl
      00000054H   SYMBOL    DATA     LONG      k_d_dl
      00000058H   SYMBOL    DATA     LONG      k_p_c_dl
      0000005CH   SYMBOL    DATA     LONG      k_i_c_dl
      00000060H   SYMBOL    DATA     LONG      k_d_c_dl
      00000022H.3 SYMBOL    BIT      BIT       dirM0
      00000022H.4 SYMBOL    BIT      BIT       dirM1
      02000D79H   SYMBOL    XDATA    ---       prev_curr
      02000D81H   SYMBOL    XDATA    ---       pos_error_sum
      02000D89H   SYMBOL    XDATA    ---       curr_error_sum
      ---         BLOCKEND  ---      ---       LVL=1
      01006058H   LINE      CODE     ---       #465
      01006058H   LINE      CODE     ---       #467
      0100605AH   LINE      CODE     ---       #471
      01006063H   LINE      CODE     ---       #477
      01006078H   LINE      CODE     ---       #478
      0100608BH   LINE      CODE     ---       #479
      0100609EH   LINE      CODE     ---       #481
      010060B1H   LINE      CODE     ---       #482
      010060C4H   LINE      CODE     ---       #483
      010060D7H   LINE      CODE     ---       #485
      010060EAH   LINE      CODE     ---       #486
      010060FDH   LINE      CODE     ---       #487
      01006110H   LINE      CODE     ---       #489
      01006123H   LINE      CODE     ---       #490
      01006136H   LINE      CODE     ---       #491
      01006149H   LINE      CODE     ---       #503
      01006153H   LINE      CODE     ---       #506
      01006170H   LINE      CODE     ---       #507
      01006170H   LINE      CODE     ---       #518
      010061B3H   LINE      CODE     ---       #520
      010061B6H   LINE      CODE     ---       #521
      010061B8H   LINE      CODE     ---       #522
      010061BBH   LINE      CODE     ---       #523
      010061BBH   LINE      CODE     ---       #526
      010061EEH   LINE      CODE     ---       #529
      01006216H   LINE      CODE     ---       #530
      01006232H   LINE      CODE     ---       #531
      01006232H   LINE      CODE     ---       #532
      0100625AH   LINE      CODE     ---       #533
      01006274H   LINE      CODE     ---       #534
      01006274H   LINE      CODE     ---       #536
      01006277H   LINE      CODE     ---       #537
      01006279H   LINE      CODE     ---       #538
      0100627CH   LINE      CODE     ---       #539
      0100627CH   LINE      CODE     ---       #541
      01006285H   LINE      CODE     ---       #543
      01006297H   LINE      CODE     ---       #545
LX51 LINKER/LOCATER V4.64.0.0                                                         02/02/2018  18:09:00  PAGE 69


      010062BAH   LINE      CODE     ---       #546
      010062E1H   LINE      CODE     ---       #548
      01006301H   LINE      CODE     ---       #549
      01006301H   LINE      CODE     ---       #551
      01006304H   LINE      CODE     ---       #552
      01006306H   LINE      CODE     ---       #553
      01006309H   LINE      CODE     ---       #554
      01006309H   LINE      CODE     ---       #557
      0100631CH   LINE      CODE     ---       #558
      0100635FH   LINE      CODE     ---       #561
      01006372H   LINE      CODE     ---       #562
      010063D5H   LINE      CODE     ---       #565
      010063D8H   LINE      CODE     ---       #566
      010063DAH   LINE      CODE     ---       #567
      010063DDH   LINE      CODE     ---       #568
      010063DDH   LINE      CODE     ---       #573
      010063E1H   LINE      CODE     ---       #574
      010063F3H   LINE      CODE     ---       #575
      010063F8H   LINE      CODE     ---       #578
      010063FAH   LINE      CODE     ---       #580
      010063FDH   LINE      CODE     ---       #581
      01006410H   LINE      CODE     ---       #582
      01006415H   LINE      CODE     ---       #585
      01006417H   LINE      CODE     ---       #587
      01006417H   LINE      CODE     ---       #589
      0100641AH   LINE      CODE     ---       #591
      0100641AH   LINE      CODE     ---       #601
      0100645DH   LINE      CODE     ---       #603
      01006490H   LINE      CODE     ---       #605
      01006493H   LINE      CODE     ---       #606
      01006495H   LINE      CODE     ---       #607
      01006498H   LINE      CODE     ---       #608
      01006498H   LINE      CODE     ---       #611
      010064C0H   LINE      CODE     ---       #612
      010064DCH   LINE      CODE     ---       #613
      010064DCH   LINE      CODE     ---       #614
      01006504H   LINE      CODE     ---       #615
      0100651EH   LINE      CODE     ---       #616
      0100651EH   LINE      CODE     ---       #619
      01006527H   LINE      CODE     ---       #621
      0100652AH   LINE      CODE     ---       #622
      0100652CH   LINE      CODE     ---       #623
      0100652FH   LINE      CODE     ---       #624
      0100652FH   LINE      CODE     ---       #627
      01006542H   LINE      CODE     ---       #628
      01006568H   LINE      CODE     ---       #631
      0100657BH   LINE      CODE     ---       #632
      010065B3H   LINE      CODE     ---       #635
      010065C6H   LINE      CODE     ---       #636
      01006629H   LINE      CODE     ---       #638
      0100662CH   LINE      CODE     ---       #639
      0100662EH   LINE      CODE     ---       #640
      01006631H   LINE      CODE     ---       #641
      01006631H   LINE      CODE     ---       #644
      0100664DH   LINE      CODE     ---       #645
      01006663H   LINE      CODE     ---       #646
      01006663H   LINE      CODE     ---       #647
      01006685H   LINE      CODE     ---       #648
      0100669FH   LINE      CODE     ---       #649
      0100669FH   LINE      CODE     ---       #651
      010066A2H   LINE      CODE     ---       #652
      010066A4H   LINE      CODE     ---       #653
      010066A7H   LINE      CODE     ---       #654
      010066A7H   LINE      CODE     ---       #657
      010066D7H   LINE      CODE     ---       #659
LX51 LINKER/LOCATER V4.64.0.0                                                         02/02/2018  18:09:00  PAGE 70


      0100670AH   LINE      CODE     ---       #661
      01006732H   LINE      CODE     ---       #662
      0100674EH   LINE      CODE     ---       #663
      0100674EH   LINE      CODE     ---       #664
      01006776H   LINE      CODE     ---       #665
      01006790H   LINE      CODE     ---       #666
      01006790H   LINE      CODE     ---       #668
      01006793H   LINE      CODE     ---       #669
      01006795H   LINE      CODE     ---       #670
      01006798H   LINE      CODE     ---       #671
      01006798H   LINE      CODE     ---       #675
      010067A1H   LINE      CODE     ---       #678
      010067B3H   LINE      CODE     ---       #679
      010067D9H   LINE      CODE     ---       #682
      010067ECH   LINE      CODE     ---       #683
      01006824H   LINE      CODE     ---       #686
      01006837H   LINE      CODE     ---       #687
      0100689BH   LINE      CODE     ---       #690
      010068C5H   LINE      CODE     ---       #692
      010068C8H   LINE      CODE     ---       #693
      010068CAH   LINE      CODE     ---       #694
      010068CDH   LINE      CODE     ---       #695
      010068CDH   LINE      CODE     ---       #697
      010068D1H   LINE      CODE     ---       #698
      010068E3H   LINE      CODE     ---       #699
      010068E8H   LINE      CODE     ---       #702
      010068EAH   LINE      CODE     ---       #704
      010068EDH   LINE      CODE     ---       #705
      01006900H   LINE      CODE     ---       #706
      01006905H   LINE      CODE     ---       #709
      01006907H   LINE      CODE     ---       #711
      01006907H   LINE      CODE     ---       #713
      0100690AH   LINE      CODE     ---       #715
      0100690AH   LINE      CODE     ---       #718
      0100693DH   LINE      CODE     ---       #721
      01006959H   LINE      CODE     ---       #722
      0100696DH   LINE      CODE     ---       #725
      01006998H   LINE      CODE     ---       #728
      010069CBH   LINE      CODE     ---       #731
      010069F3H   LINE      CODE     ---       #732
      01006A0FH   LINE      CODE     ---       #733
      01006A0FH   LINE      CODE     ---       #734
      01006A34H   LINE      CODE     ---       #735
      01006A4BH   LINE      CODE     ---       #736
      01006A4BH   LINE      CODE     ---       #739
      01006A54H   LINE      CODE     ---       #742
      01006A66H   LINE      CODE     ---       #743
      01006A92H   LINE      CODE     ---       #747
      01006AA5H   LINE      CODE     ---       #748
      01006AE2H   LINE      CODE     ---       #751
      01006AF5H   LINE      CODE     ---       #752
      01006B59H   LINE      CODE     ---       #755
      01006B6CH   LINE      CODE     ---       #756
      01006B75H   LINE      CODE     ---       #759
      01006B9FH   LINE      CODE     ---       #761
      01006BA3H   LINE      CODE     ---       #762
      01006BB5H   LINE      CODE     ---       #763
      01006BBAH   LINE      CODE     ---       #766
      01006BBCH   LINE      CODE     ---       #768
      01006BBFH   LINE      CODE     ---       #769
      01006BD2H   LINE      CODE     ---       #770
      01006BD6H   LINE      CODE     ---       #773
      01006BD8H   LINE      CODE     ---       #775
      01006BD8H   LINE      CODE     ---       #777
      01006BDAH   LINE      CODE     ---       #779
LX51 LINKER/LOCATER V4.64.0.0                                                         02/02/2018  18:09:00  PAGE 71


      01006BDAH   LINE      CODE     ---       #781
      01006C0DH   LINE      CODE     ---       #783
      01006C11H   LINE      CODE     ---       #784
      01006C23H   LINE      CODE     ---       #785
      01006C27H   LINE      CODE     ---       #788
      01006C29H   LINE      CODE     ---       #790
      01006C2BH   LINE      CODE     ---       #791
      01006C3EH   LINE      CODE     ---       #792
      01006C42H   LINE      CODE     ---       #795
      01006C44H   LINE      CODE     ---       #797
      01006C44H   LINE      CODE     ---       #799
      01006C44H   LINE      CODE     ---       #801
      01006C44H   LINE      CODE     ---       #802
      01006C44H   LINE      CODE     ---       #803
      01006C44H   LINE      CODE     ---       #805
      01006C47H   LINE      CODE     ---       #806
      01006C49H   LINE      CODE     ---       #807
      01006C4CH   LINE      CODE     ---       #808
      01006C4CH   LINE      CODE     ---       #811
      01006C60H   LINE      CODE     ---       #812
      01006C6AH   LINE      CODE     ---       #813
      01006C7FH   LINE      CODE     ---       #814
      01006C8AH   LINE      CODE     ---       #816
      01006C8DH   LINE      CODE     ---       #817
      01006C8FH   LINE      CODE     ---       #818
      01006C92H   LINE      CODE     ---       #819
      01006C92H   LINE      CODE     ---       #822
      01006C9AH   LINE      CODE     ---       #823
      01006CD1H   LINE      CODE     ---       #827
      01006CD4H   LINE      CODE     ---       #828
      01006CD7H   LINE      CODE     ---       #829
      01006CDEH   LINE      CODE     ---       #831
      01006CE3H   LINE      CODE     ---       #832
      01006CE5H   LINE      CODE     ---       #833
      01006CE5H   LINE      CODE     ---       #834
      01006CE8H   LINE      CODE     ---       #835
      01006CEFH   LINE      CODE     ---       #837
      01006CF4H   LINE      CODE     ---       #838
      01006CF4H   LINE      CODE     ---       #840
      01006CF7H   LINE      CODE     ---       #841
      01006CF9H   LINE      CODE     ---       #842
      01006CFCH   LINE      CODE     ---       #843
      01006CFCH   LINE      CODE     ---       #845
      01006D00H   LINE      CODE     ---       #846
      01006D3AH   LINE      CODE     ---       #847
      01006D44H   LINE      CODE     ---       #848
      01006D46H   LINE      CODE     ---       #849
      01006D46H   LINE      CODE     ---       #850
      01006D81H   LINE      CODE     ---       #851
      01006D8BH   LINE      CODE     ---       #852
      01006D8BH   LINE      CODE     ---       #854
      01006D8EH   LINE      CODE     ---       #855
      01006D90H   LINE      CODE     ---       #856
      01006D93H   LINE      CODE     ---       #857
      01006D93H   LINE      CODE     ---       #858
      ---         BLOCKEND  ---      ---       LVL=0

      0100A2F9H   BLOCK     CODE     ---       LVL=0
      0100A2F9H   LINE      CODE     ---       #864
      0100A2F9H   LINE      CODE     ---       #885
      0100A2FFH   LINE      CODE     ---       #886
      0100A302H   LINE      CODE     ---       #887
      0100A304H   LINE      CODE     ---       #888
      0100A307H   LINE      CODE     ---       #889
      0100A307H   LINE      CODE     ---       #890
LX51 LINKER/LOCATER V4.64.0.0                                                         02/02/2018  18:09:00  PAGE 72


      0100A309H   LINE      CODE     ---       #893
      0100A331H   LINE      CODE     ---       #895
      0100A334H   LINE      CODE     ---       #896
      0100A336H   LINE      CODE     ---       #897
      0100A339H   LINE      CODE     ---       #898
      0100A339H   LINE      CODE     ---       #902
      0100A355H   LINE      CODE     ---       #905
      0100A358H   LINE      CODE     ---       #909
      0100A35BH   LINE      CODE     ---       #910
      0100A35DH   LINE      CODE     ---       #911
      0100A360H   LINE      CODE     ---       #912
      0100A360H   LINE      CODE     ---       #915
      0100A39FH   LINE      CODE     ---       #919
      0100A3A2H   LINE      CODE     ---       #920
      0100A3A4H   LINE      CODE     ---       #921
      0100A3A7H   LINE      CODE     ---       #922
      0100A3A7H   LINE      CODE     ---       #923
      0100A3E6H   LINE      CODE     ---       #927
      0100A3E9H   LINE      CODE     ---       #928
      0100A3EBH   LINE      CODE     ---       #929
      0100A3EEH   LINE      CODE     ---       #930
      0100A3EEH   LINE      CODE     ---       #931
      0100A3EFH   LINE      CODE     ---       #932
      0100A3EFH   LINE      CODE     ---       #933
      0100A3F6H   LINE      CODE     ---       #934
      0100A3FAH   LINE      CODE     ---       #935
      0100A3FAH   LINE      CODE     ---       #936
      ---         BLOCKEND  ---      ---       LVL=0

      010087E2H   BLOCK     CODE     ---       LVL=0
      00000007H   SYMBOL    DATA     BYTE      idx
      02000003H   SYMBOL    XDATA    BYTE      flag
      010087E7H   BLOCK     CODE     NEAR LAB  LVL=1
      00000023H   SYMBOL    DATA     BYTE      index
      00000003H   SYMBOL    DATA     BYTE      jj
      02000004H   SYMBOL    XDATA    DWORD     data_encoder
      02000008H   SYMBOL    XDATA    LONG      value_encoder
      0200000CH   SYMBOL    XDATA    LONG      aux
      02000D91H   SYMBOL    XDATA    ---       last_value_encoder
      02000D99H   SYMBOL    XDATA    ---       error
      00000022H.5 SYMBOL    BIT      BIT       only_first_time
      ---         BLOCKEND  ---      ---       LVL=1
      010087E2H   LINE      CODE     ---       #942
      010087E7H   LINE      CODE     ---       #943
      010087E7H   LINE      CODE     ---       #944
      010087E9H   LINE      CODE     ---       #962
      010087F3H   LINE      CODE     ---       #965
      010087F6H   LINE      CODE     ---       #966
      010087FEH   LINE      CODE     ---       #967
      01008814H   LINE      CODE     ---       #968
      01008816H   LINE      CODE     ---       #969
      01008818H   LINE      CODE     ---       #970
      01008818H   LINE      CODE     ---       #973
      0100881CH   LINE      CODE     ---       #974
      0100882FH   LINE      CODE     ---       #975
      0100882FH   LINE      CODE     ---       #976
      01008834H   LINE      CODE     ---       #977
      01008847H   LINE      CODE     ---       #978
      01008847H   LINE      CODE     ---       #979
      0100884CH   LINE      CODE     ---       #980
      0100885FH   LINE      CODE     ---       #982
      01008870H   LINE      CODE     ---       #983
      01008870H   LINE      CODE     ---       #984
      01008870H   LINE      CODE     ---       #986
      0100887EH   LINE      CODE     ---       #987
LX51 LINKER/LOCATER V4.64.0.0                                                         02/02/2018  18:09:00  PAGE 73


      01008884H   LINE      CODE     ---       #988
      010088B1H   LINE      CODE     ---       #990
      010088FCH   LINE      CODE     ---       #993
      010088FFH   LINE      CODE     ---       #994
      0100891FH   LINE      CODE     ---       #996
      01008924H   LINE      CODE     ---       #997
      01008926H   LINE      CODE     ---       #998
      01008926H   LINE      CODE     ---       #1001
      0100895DH   LINE      CODE     ---       #1021
      01008977H   LINE      CODE     ---       #1022
      01008987H   LINE      CODE     ---       #1023
      01008987H   LINE      CODE     ---       #1024
      010089A3H   LINE      CODE     ---       #1025
      010089B3H   LINE      CODE     ---       #1026
      010089B3H   LINE      CODE     ---       #1027
      010089CDH   LINE      CODE     ---       #1028
      010089DBH   LINE      CODE     ---       #1029
      010089EFH   LINE      CODE     ---       #1032
      010089EFH   LINE      CODE     ---       #1033
      010089EFH   LINE      CODE     ---       #1034
      010089EFH   LINE      CODE     ---       #1036
      010089FCH   LINE      CODE     ---       #1038
      01008A1CH   LINE      CODE     ---       #1040
      01008A58H   LINE      CODE     ---       #1042
      01008A7EH   LINE      CODE     ---       #1043
      01008AB6H   LINE      CODE     ---       #1045
      01008AD6H   LINE      CODE     ---       #1046
      01008AD6H   LINE      CODE     ---       #1068
      ---         BLOCKEND  ---      ---       LVL=0

      01009F9EH   BLOCK     CODE     ---       LVL=0
      01009F9EH   BLOCK     CODE     NEAR LAB  LVL=1
      00000023H   SYMBOL    DATA     BYTE      index
      00000024H   SYMBOL    DATA     WORD      max_tension
      00000026H   SYMBOL    DATA     WORD      max_tension_6v_mod
      ---         BLOCKEND  ---      ---       LVL=1
      01009F9EH   LINE      CODE     ---       #1180
      01009F9EH   LINE      CODE     ---       #1183
      01009FA4H   LINE      CODE     ---       #1184
      01009FAAH   LINE      CODE     ---       #1186
      01009FB9H   LINE      CODE     ---       #1188
      01009FD3H   LINE      CODE     ---       #1189
      01009FD9H   LINE      CODE     ---       #1191
      01009FD9H   LINE      CODE     ---       #1192
      01009FF8H   LINE      CODE     ---       #1193
      01009FFFH   LINE      CODE     ---       #1194
      01009FFFH   LINE      CODE     ---       #1195
      0100A02DH   LINE      CODE     ---       #1196
      0100A036H   LINE      CODE     ---       #1197
      0100A036H   LINE      CODE     ---       #1198
      0100A036H   LINE      CODE     ---       #1199
      0100A037H   LINE      CODE     ---       #1200
      0100A037H   LINE      CODE     ---       #1202
      0100A052H   LINE      CODE     ---       #1203
      0100A058H   LINE      CODE     ---       #1204
      0100A058H   LINE      CODE     ---       #1205
      0100A077H   LINE      CODE     ---       #1206
      0100A07EH   LINE      CODE     ---       #1207
      0100A07EH   LINE      CODE     ---       #1208
      0100A0A1H   LINE      CODE     ---       #1209
      0100A0B0H   LINE      CODE     ---       #1210
      0100A0BAH   LINE      CODE     ---       #1212
      0100A0C4H   LINE      CODE     ---       #1213
      0100A0C4H   LINE      CODE     ---       #1214
      0100A0C4H   LINE      CODE     ---       #1215
LX51 LINKER/LOCATER V4.64.0.0                                                         02/02/2018  18:09:00  PAGE 74


      0100A0C4H   LINE      CODE     ---       #1216
      ---         BLOCKEND  ---      ---       LVL=0

      01008D43H   BLOCK     CODE     ---       LVL=0
      01008D43H   BLOCK     CODE     NEAR LAB  LVL=1
      02000D9BH   SYMBOL    XDATA    INT       epsilon
      02000D9DH   SYMBOL    XDATA    BYTE      phase
      02000D9EH   SYMBOL    XDATA    BYTE      phase_counter
      02000003H   SYMBOL    XDATA    LONG      aux
      02000007H   SYMBOL    XDATA    BYTE      i
      ---         BLOCKEND  ---      ---       LVL=1
      01008D43H   LINE      CODE     ---       #1222
      01008D43H   LINE      CODE     ---       #1228
      01008D48H   LINE      CODE     ---       #1230
      01008D58H   LINE      CODE     ---       #1231
      01008D58H   LINE      CODE     ---       #1232
      01008D8EH   LINE      CODE     ---       #1233
      01008DBBH   LINE      CODE     ---       #1235
      01008DEFH   LINE      CODE     ---       #1236
      01008E1BH   LINE      CODE     ---       #1238
      01008E3DH   LINE      CODE     ---       #1239
      01008E3FH   LINE      CODE     ---       #1240
      01008E4AH   LINE      CODE     ---       #1241
      01008E55H   LINE      CODE     ---       #1242
      01008E55H   LINE      CODE     ---       #1244
      01008E5BH   LINE      CODE     ---       #1246
      01008E9FH   LINE      CODE     ---       #1247
      01008EA5H   LINE      CODE     ---       #1248
      01008EA8H   LINE      CODE     ---       #1251
      01008EA8H   LINE      CODE     ---       #1252
      01008EA9H   LINE      CODE     ---       #1253
      01008EA9H   LINE      CODE     ---       #1255
      01008ECBH   LINE      CODE     ---       #1256
      01008EF7H   LINE      CODE     ---       #1258
      01008F19H   LINE      CODE     ---       #1259
      01008F46H   LINE      CODE     ---       #1261
      01008F4FH   LINE      CODE     ---       #1262
      01008F51H   LINE      CODE     ---       #1263
      01008F53H   LINE      CODE     ---       #1264
      01008F58H   LINE      CODE     ---       #1265
      01008F5AH   LINE      CODE     ---       #1266
      01008F68H   LINE      CODE     ---       #1267
      01008F92H   LINE      CODE     ---       #1274
      01008F9AH   LINE      CODE     ---       #1286
      01008F9AH   LINE      CODE     ---       #1288
      01008FA0H   LINE      CODE     ---       #1289
      01008FA0H   LINE      CODE     ---       #1290
      01008FA0H   LINE      CODE     ---       #1291
      01008FA0H   LINE      CODE     ---       #1292
      01008FA0H   LINE      CODE     ---       #1293
      ---         BLOCKEND  ---      ---       LVL=0

      ---         MODULE    ---      ---       CYFITTER_CFG
      0100CCDFH   PUBLIC    CONST    ---       ADC_AMux__maskTable
      0100CCDBH   PUBLIC    CONST    ---       ADC_AMux__addrTable
      0100A1E2H   PUBLIC    CODE     ---       cyfitter_cfg
      0100B9ABH   PUBLIC    CODE     ---       _ADC_AMux_Unset
      0100BA3DH   PUBLIC    CODE     ---       _ADC_AMux_Set
      000000CAH   SFRSYM    DATA     BYTE      SFRPRT5SEL
      000000DAH   SFRSYM    DATA     BYTE      SFRPRT6SEL
      000000D0H.6 SFRSYM    DATA     BIT       AC
      000000A8H.7 SFRSYM    DATA     BIT       EA
      000000A8H   SFRSYM    DATA     BYTE      IE
      00000085H   SFRSYM    DATA     BYTE      DPH1
      00000084H   SFRSYM    DATA     BYTE      DPL1
LX51 LINKER/LOCATER V4.64.0.0                                                         02/02/2018  18:09:00  PAGE 75


      000000D0H.7 SFRSYM    DATA     BIT       CY
      000000A0H   SFRSYM    DATA     BYTE      P2AX
      00000095H   SFRSYM    DATA     BYTE      DPX1
      00000081H   SFRSYM    DATA     BYTE      SP
      000000D0H.2 SFRSYM    DATA     BIT       OV
      00000080H   SFRSYM    DATA     BYTE      SFRPRT0DR
      00000090H   SFRSYM    DATA     BYTE      SFRPRT1DR
      000000F2H   SFRSYM    DATA     BYTE      SFRPRT12SEL
      00000098H   SFRSYM    DATA     BYTE      SFRPRT2DR
      000000B0H   SFRSYM    DATA     BYTE      SFRPRT3DR
      000000C0H   SFRSYM    DATA     BYTE      SFRPRT4DR
      000000FAH   SFRSYM    DATA     BYTE      SFRPRT15SEL
      000000C8H   SFRSYM    DATA     BYTE      SFRPRT5DR
      000000D8H   SFRSYM    DATA     BYTE      SFRPRT6DR
      00000089H   SFRSYM    DATA     BYTE      SFRPRT0PS
      00000091H   SFRSYM    DATA     BYTE      SFRPRT1PS
      00000099H   SFRSYM    DATA     BYTE      SFRPRT2PS
      000000B1H   SFRSYM    DATA     BYTE      SFRPRT3PS
      000000C1H   SFRSYM    DATA     BYTE      SFRPRT4PS
      000000C9H   SFRSYM    DATA     BYTE      SFRPRT5PS
      000000D9H   SFRSYM    DATA     BYTE      SFRPRT6PS
      000000EAH   SFRSYM    DATA     BYTE      MXAX
      000000F0H   SFRSYM    DATA     BYTE      B
      000000E0H   SFRSYM    DATA     BYTE      ACC
      000000D0H   SFRSYM    DATA     BIT       P
      000000D0H.3 SFRSYM    DATA     BIT       RS0
      000000D0H.4 SFRSYM    DATA     BIT       RS1
      00000083H   SFRSYM    DATA     BYTE      DPH
      000000E8H   SFRSYM    DATA     BYTE      SFRPRT12DR
      00000082H   SFRSYM    DATA     BYTE      DPL
      000000F8H   SFRSYM    DATA     BYTE      SFRPRT15DR
      00000086H   SFRSYM    DATA     BYTE      DPS
      000000E9H   SFRSYM    DATA     BYTE      SFRPRT12PS
      00000093H   SFRSYM    DATA     BYTE      DPX
      000000F9H   SFRSYM    DATA     BYTE      SFRPRT15PS
      000000D0H.5 SFRSYM    DATA     BIT       F0
      000000D0H.1 SFRSYM    DATA     BIT       F1
      0000008AH   SFRSYM    DATA     BYTE      SFRPRT0SEL
      000000D0H   SFRSYM    DATA     BYTE      PSW
      000000A2H   SFRSYM    DATA     BYTE      SFRPRT1SEL
      0000009AH   SFRSYM    DATA     BYTE      SFRPRT2SEL
      000000B2H   SFRSYM    DATA     BYTE      SFRPRT3SEL
      000000C2H   SFRSYM    DATA     BYTE      SFRPRT4SEL
      01009587H   SYMBOL    CODE     ---       ClockSetup
      0100C1ABH   SYMBOL    CODE     ---       _CyClockStartupError
      0100BB25H   SYMBOL    CODE     ---       AnalogSetDefault
      0100A4E4H   SYMBOL    CODE     ---       cfg_dma_init

      0100C1ABH   BLOCK     CODE     ---       LVL=0
      02000000H   SYMBOL    XDATA    BYTE      errorCode
      0100C1ABH   LINE      CODE     ---       #76
      0100C1ABH   LINE      CODE     ---       #77
      0100C1ABH   LINE      CODE     ---       #80
      0100C1ABH   LINE      CODE     ---       #101
      ---         BLOCKEND  ---      ---       LVL=0

      0100A4E4H   BLOCK     CODE     ---       LVL=0
      0100A4E4H   BLOCK     CODE     NEAR LAB  LVL=1
      0100C1B2H   SYMBOL    CONST    ---       BS_UDB_2_4_HV_ROUTING_VAL
      0100C232H   SYMBOL    CONST    ---       BS_UDBSWITCH_0_5_VAL
      0100C2B2H   SYMBOL    CONST    ---       BS_UDB_1_5_HV_ROUTING_VAL
      0100C332H   SYMBOL    CONST    ---       BS_UDBSWITCH_1_5_VAL
      0100C3B2H   SYMBOL    CONST    ---       BS_UDB_2_5_HV_ROUTING_VAL
      0100C432H   SYMBOL    CONST    ---       BS_DSI3_0_HV_ROUTING_VAL
      0100C4B2H   SYMBOL    CONST    ---       BS_DSISWITCH_1_1_VAL
LX51 LINKER/LOCATER V4.64.0.0                                                         02/02/2018  18:09:00  PAGE 76


      0100C532H   SYMBOL    CONST    ---       BS_DSI3_1_HV_ROUTING_VAL
      0100C5B2H   SYMBOL    CONST    ---       BS_DSISWITCH_1_2_VAL
      0100C632H   SYMBOL    CONST    ---       BS_DSI3_2_HV_ROUTING_VAL
      0100C6B2H   SYMBOL    CONST    ---       BS_DSISWITCH_1_3_VAL
      0100C732H   SYMBOL    CONST    ---       BS_DSI3_3_HV_ROUTING_VAL
      0100C7B2H   SYMBOL    CONST    ---       BS_DSISWITCH_1_4_VAL
      0100C832H   SYMBOL    CONST    ---       BS_DSI3_4_HV_ROUTING_VAL
      0100C8B2H   SYMBOL    CONST    ---       BS_DSISWITCH_1_5_VAL
      0100C932H   SYMBOL    CONST    ---       BS_DSI3_5_HV_ROUTING_VAL
      0100C9B2H   SYMBOL    CONST    ---       CH1_ADDR_DATA0
      0100C9BAH   SYMBOL    CONST    ---       CH2_ADDR_DATA0
      0100C9C2H   SYMBOL    CONST    ---       CH4_ADDR_DATA0
      0100C9CAH   SYMBOL    CONST    ---       CH5_ADDR_DATA0
      0100C9D2H   SYMBOL    CONST    ---       CH6_ADDR_DATA0
      0100C9DAH   SYMBOL    CONST    ---       DMA_TD_START_CMD
      02000E5BH   SYMBOL    XDATA    DWORD     DMA_ZERO_VAL
      0100C9DFH   SYMBOL    CONST    ---       CFG_TD_LIST0
      ---         BLOCKEND  ---      ---       LVL=1
      0100A4E4H   LINE      CODE     ---       #324
      0100A4E4H   LINE      CODE     ---       #325
      0100A4E4H   LINE      CODE     ---       #632
      0100A4EFH   LINE      CODE     ---       #633
      0100A4F5H   LINE      CODE     ---       #634
      0100A4FBH   LINE      CODE     ---       #635
      0100A500H   LINE      CODE     ---       #636
      0100A50CH   LINE      CODE     ---       #637
      0100A512H   LINE      CODE     ---       #638
      0100A516H   LINE      CODE     ---       #639
      0100A538H   LINE      CODE     ---       #640
      0100A545H   LINE      CODE     ---       #641
      0100A552H   LINE      CODE     ---       #642
      0100A55EH   LINE      CODE     ---       #643
      0100A564H   LINE      CODE     ---       #644
      0100A569H   LINE      CODE     ---       #645
      0100A56FH   LINE      CODE     ---       #646
      0100A575H   LINE      CODE     ---       #647
      0100A57BH   LINE      CODE     ---       #649
      0100A57BH   LINE      CODE     ---       #650
      0100A581H   LINE      CODE     ---       #651
      0100A581H   LINE      CODE     ---       #654
      0100A589H   LINE      CODE     ---       #655
      0100A591H   LINE      CODE     ---       #656
      0100A599H   LINE      CODE     ---       #657
      0100A5A1H   LINE      CODE     ---       #658
      0100A5A9H   LINE      CODE     ---       #659
      0100A5B1H   LINE      CODE     ---       #662
      0100A5CCH   LINE      CODE     ---       #664
      ---         BLOCKEND  ---      ---       LVL=0

      01009587H   BLOCK     CODE     ---       LVL=0
      01009587H   BLOCK     CODE     NEAR LAB  LVL=1
      0100CCD7H   SYMBOL    CONST    ---       BS_CYDEV_CLKDIST_ACFG0_CFG0_VAL
      02000000H   SYMBOL    XDATA    DWORD     timeout
      02000004H   SYMBOL    XDATA    BYTE      pllLock
      ---         BLOCKEND  ---      ---       LVL=1
      01009587H   LINE      CODE     ---       #682
      01009587H   LINE      CODE     ---       #683
      01009587H   LINE      CODE     ---       #693
      01009594H   LINE      CODE     ---       #694
      0100959AH   LINE      CODE     ---       #695
      010095A6H   LINE      CODE     ---       #696
      010095ACH   LINE      CODE     ---       #697
      010095B9H   LINE      CODE     ---       #698
      010095BFH   LINE      CODE     ---       #699
      010095CCH   LINE      CODE     ---       #700
LX51 LINKER/LOCATER V4.64.0.0                                                         02/02/2018  18:09:00  PAGE 77


      010095D2H   LINE      CODE     ---       #701
      010095DFH   LINE      CODE     ---       #702
      010095E5H   LINE      CODE     ---       #703
      010095F2H   LINE      CODE     ---       #704
      010095F8H   LINE      CODE     ---       #707
      01009609H   LINE      CODE     ---       #710
      0100960FH   LINE      CODE     ---       #713
      01009615H   LINE      CODE     ---       #714
      01009623H   LINE      CODE     ---       #717
      01009630H   LINE      CODE     ---       #718
      0100963DH   LINE      CODE     ---       #720
      01009642H   LINE      CODE     ---       #721
      01009667H   LINE      CODE     ---       #722
      01009667H   LINE      CODE     ---       #723
      01009678H   LINE      CODE     ---       #724
      01009682H   LINE      CODE     ---       #725
      010096AAH   LINE      CODE     ---       #727
      010096B8H   LINE      CODE     ---       #728
      010096B8H   LINE      CODE     ---       #729
      010096BDH   LINE      CODE     ---       #730
      010096BDH   LINE      CODE     ---       #733
      010096CAH   LINE      CODE     ---       #734
      010096D0H   LINE      CODE     ---       #735
      010096D5H   LINE      CODE     ---       #736
      010096DBH   LINE      CODE     ---       #737
      010096E0H   LINE      CODE     ---       #740
      010096E4H   LINE      CODE     ---       #741
      010096EAH   LINE      CODE     ---       #742
      010096F0H   LINE      CODE     ---       #744
      010096F7H   LINE      CODE     ---       #745
      010096FEH   LINE      CODE     ---       #746
      01009705H   LINE      CODE     ---       #747
      ---         BLOCKEND  ---      ---       LVL=0

      0100BB25H   BLOCK     CODE     ---       LVL=0
      0100BB25H   BLOCK     CODE     NEAR LAB  LVL=1
      00000007H   SYMBOL    DATA     BYTE      bg_xover_inl_trim
      ---         BLOCKEND  ---      ---       LVL=1
      0100BB25H   LINE      CODE     ---       #769
      0100BB25H   LINE      CODE     ---       #770
      0100BB25H   LINE      CODE     ---       #771
      0100BB2EH   LINE      CODE     ---       #772
      0100BB35H   LINE      CODE     ---       #773
      0100BB3BH   LINE      CODE     ---       #774
      0100BB41H   LINE      CODE     ---       #775
      0100BB45H   LINE      CODE     ---       #776
      0100BB4BH   LINE      CODE     ---       #777
      ---         BLOCKEND  ---      ---       LVL=0
      00000007H   SYMBOL    DATA     BYTE      enabled
      00000006H   SYMBOL    DATA     BYTE      regValue

      0100BA3DH   BLOCK     CODE     ---       LVL=0
      00000007H   SYMBOL    DATA     BYTE      channel
      0100BA3DH   LINE      CODE     ---       #840
      0100BA3DH   LINE      CODE     ---       #841
      0100BA3DH   LINE      CODE     ---       #842
      0100BA43H   LINE      CODE     ---       #843
      0100BA43H   LINE      CODE     ---       #844
      0100BA6CH   LINE      CODE     ---       #845
      0100BA6CH   LINE      CODE     ---       #846
      ---         BLOCKEND  ---      ---       LVL=0

      0100B9ABH   BLOCK     CODE     ---       LVL=0
      00000007H   SYMBOL    DATA     BYTE      channel
      0100B9ABH   LINE      CODE     ---       #862
LX51 LINKER/LOCATER V4.64.0.0                                                         02/02/2018  18:09:00  PAGE 78


      0100B9ABH   LINE      CODE     ---       #863
      0100B9ABH   LINE      CODE     ---       #864
      0100B9B1H   LINE      CODE     ---       #865
      0100B9B1H   LINE      CODE     ---       #866
      0100B9DBH   LINE      CODE     ---       #867
      0100B9DBH   LINE      CODE     ---       #868
      ---         BLOCKEND  ---      ---       LVL=0

      0100A1E2H   BLOCK     CODE     ---       LVL=0
      0100A1E2H   BLOCK     CODE     NEAR LAB  LVL=1
      0100CCE1H   SYMBOL    CONST    ---       BS_IOPINS0_7_VAL
      0100CCE9H   SYMBOL    CONST    ---       BS_IOPINS0_8_VAL
      0100CCF3H   SYMBOL    CONST    ---       BS_IOPINS0_1_VAL
      0100CCFDH   SYMBOL    CONST    ---       BS_IOPINS0_2_VAL
      0100CD05H   SYMBOL    CONST    ---       BS_PHUB_CFGMEM10_VAL
      ---         BLOCKEND  ---      ---       LVL=1
      0100A1E2H   LINE      CODE     ---       #889
      0100A1E2H   LINE      CODE     ---       #890
      0100A1E2H   LINE      CODE     ---       #912
      0100A1F8H   LINE      CODE     ---       #914
      0100A1F8H   LINE      CODE     ---       #915
      0100A1FBH   LINE      CODE     ---       #918
      0100A201H   LINE      CODE     ---       #919
      0100A212H   LINE      CODE     ---       #922
      0100A228H   LINE      CODE     ---       #923
      0100A23EH   LINE      CODE     ---       #926
      0100A245H   LINE      CODE     ---       #927
      0100A24CH   LINE      CODE     ---       #928
      0100A24CH   LINE      CODE     ---       #932
      0100A264H   LINE      CODE     ---       #933
      0100A275H   LINE      CODE     ---       #934
      0100A286H   LINE      CODE     ---       #935
      0100A297H   LINE      CODE     ---       #936
      0100A2A8H   LINE      CODE     ---       #937
      0100A2AEH   LINE      CODE     ---       #939
      0100A2B5H   LINE      CODE     ---       #940
      0100A2BEH   LINE      CODE     ---       #941
      0100A2BEH   LINE      CODE     ---       #942
      0100A2C4H   LINE      CODE     ---       #943
      0100A2C4H   LINE      CODE     ---       #947
      0100A2CAH   LINE      CODE     ---       #949
      0100A2CDH   LINE      CODE     ---       #952
      0100A2D0H   LINE      CODE     ---       #955
      0100A2F1H   LINE      CODE     ---       #956
      0100A2F8H   LINE      CODE     ---       #957
      ---         BLOCKEND  ---      ---       LVL=0

      ---         MODULE    ---      ---       UART_RS485
      02000E30H   PUBLIC    XDATA    BYTE      UART_RS485_errorStatus
      02000E2FH   PUBLIC    XDATA    BYTE      UART_RS485_rxBufferOverflow
      02000E2EH   PUBLIC    XDATA    BYTE      UART_RS485_initVar
      02000E2DH   PUBLIC    XDATA    BYTE      UART_RS485_rxBufferWrite
      02000E0DH   PUBLIC    XDATA    ---       UART_RS485_rxBuffer
      02000E0CH   PUBLIC    XDATA    BYTE      UART_RS485_rxBufferRead
      02000E0BH   PUBLIC    XDATA    BYTE      UART_RS485_rxBufferLoopDetect
      0100BEC2H   PUBLIC    CODE     ---       UART_RS485_ClearTxBuffer
      0100B8DEH   PUBLIC    CODE     ---       _UART_RS485_PutString
      0100BF97H   PUBLIC    CODE     ---       _UART_RS485_PutChar
      0100C0FBH   PUBLIC    CODE     ---       UART_RS485_ReadTxStatus
      0100BA6DH   PUBLIC    CODE     ---       UART_RS485_ClearRxBuffer
      0100B42AH   PUBLIC    CODE     ---       UART_RS485_GetRxBufferSize
      0100B231H   PUBLIC    CODE     ---       UART_RS485_GetChar
      0100BE03H   PUBLIC    CODE     ---       UART_RS485_ReadRxStatus
      0100BBE1H   PUBLIC    CODE     ---       UART_RS485_Stop
      0100BBBFH   PUBLIC    CODE     ---       UART_RS485_Enable
LX51 LINKER/LOCATER V4.64.0.0                                                         02/02/2018  18:09:00  PAGE 79


      0100B946H   PUBLIC    CODE     ---       UART_RS485_Init
      0100BE17H   PUBLIC    CODE     ---       UART_RS485_Start
      000000CAH   SFRSYM    DATA     BYTE      SFRPRT5SEL
      000000DAH   SFRSYM    DATA     BYTE      SFRPRT6SEL
      000000D0H.6 SFRSYM    DATA     BIT       AC
      000000A8H.7 SFRSYM    DATA     BIT       EA
      000000A8H   SFRSYM    DATA     BYTE      IE
      00000085H   SFRSYM    DATA     BYTE      DPH1
      00000084H   SFRSYM    DATA     BYTE      DPL1
      000000D0H.7 SFRSYM    DATA     BIT       CY
      000000A0H   SFRSYM    DATA     BYTE      P2AX
      00000095H   SFRSYM    DATA     BYTE      DPX1
      00000081H   SFRSYM    DATA     BYTE      SP
      000000D0H.2 SFRSYM    DATA     BIT       OV
      00000080H   SFRSYM    DATA     BYTE      SFRPRT0DR
      00000090H   SFRSYM    DATA     BYTE      SFRPRT1DR
      000000F2H   SFRSYM    DATA     BYTE      SFRPRT12SEL
      00000098H   SFRSYM    DATA     BYTE      SFRPRT2DR
      000000B0H   SFRSYM    DATA     BYTE      SFRPRT3DR
      000000C0H   SFRSYM    DATA     BYTE      SFRPRT4DR
      000000FAH   SFRSYM    DATA     BYTE      SFRPRT15SEL
      000000C8H   SFRSYM    DATA     BYTE      SFRPRT5DR
      000000D8H   SFRSYM    DATA     BYTE      SFRPRT6DR
      00000089H   SFRSYM    DATA     BYTE      SFRPRT0PS
      00000091H   SFRSYM    DATA     BYTE      SFRPRT1PS
      00000099H   SFRSYM    DATA     BYTE      SFRPRT2PS
      000000B1H   SFRSYM    DATA     BYTE      SFRPRT3PS
      000000C1H   SFRSYM    DATA     BYTE      SFRPRT4PS
      000000C9H   SFRSYM    DATA     BYTE      SFRPRT5PS
      000000D9H   SFRSYM    DATA     BYTE      SFRPRT6PS
      000000EAH   SFRSYM    DATA     BYTE      MXAX
      000000F0H   SFRSYM    DATA     BYTE      B
      000000E0H   SFRSYM    DATA     BYTE      ACC
      000000D0H   SFRSYM    DATA     BIT       P
      000000D0H.3 SFRSYM    DATA     BIT       RS0
      000000D0H.4 SFRSYM    DATA     BIT       RS1
      00000083H   SFRSYM    DATA     BYTE      DPH
      000000E8H   SFRSYM    DATA     BYTE      SFRPRT12DR
      00000082H   SFRSYM    DATA     BYTE      DPL
      000000F8H   SFRSYM    DATA     BYTE      SFRPRT15DR
      00000086H   SFRSYM    DATA     BYTE      DPS
      000000E9H   SFRSYM    DATA     BYTE      SFRPRT12PS
      00000093H   SFRSYM    DATA     BYTE      DPX
      000000F9H   SFRSYM    DATA     BYTE      SFRPRT15PS
      000000D0H.5 SFRSYM    DATA     BIT       F0
      000000D0H.1 SFRSYM    DATA     BIT       F1
      0000008AH   SFRSYM    DATA     BYTE      SFRPRT0SEL
      000000D0H   SFRSYM    DATA     BYTE      PSW
      000000A2H   SFRSYM    DATA     BYTE      SFRPRT1SEL
      0000009AH   SFRSYM    DATA     BYTE      SFRPRT2SEL
      000000B2H   SFRSYM    DATA     BYTE      SFRPRT3SEL
      000000C2H   SFRSYM    DATA     BYTE      SFRPRT4SEL

      0100BE17H   BLOCK     CODE     ---       LVL=0
      0100BE17H   LINE      CODE     ---       #76
      0100BE17H   LINE      CODE     ---       #77
      0100BE17H   LINE      CODE     ---       #79
      0100BE1DH   LINE      CODE     ---       #80
      0100BE1DH   LINE      CODE     ---       #81
      0100BE20H   LINE      CODE     ---       #82
      0100BE26H   LINE      CODE     ---       #83
      0100BE26H   LINE      CODE     ---       #85
      0100BE29H   LINE      CODE     ---       #86
      ---         BLOCKEND  ---      ---       LVL=0

LX51 LINKER/LOCATER V4.64.0.0                                                         02/02/2018  18:09:00  PAGE 80


      0100B946H   BLOCK     CODE     ---       LVL=0
      0100B946H   LINE      CODE     ---       #106
      0100B946H   LINE      CODE     ---       #107
      0100B946H   LINE      CODE     ---       #112
      0100B94FH   LINE      CODE     ---       #113
      0100B956H   LINE      CODE     ---       #114
      0100B95BH   LINE      CODE     ---       #124
      0100B961H   LINE      CODE     ---       #126
      0100B967H   LINE      CODE     ---       #138
      0100B96DH   LINE      CODE     ---       #139
      0100B973H   LINE      CODE     ---       #150
      0100B978H   LINE      CODE     ---       #160
      ---         BLOCKEND  ---      ---       LVL=0

      0100BBBFH   BLOCK     CODE     ---       LVL=0
      0100BBBFH   BLOCK     CODE     NEAR LAB  LVL=1
      00000007H   SYMBOL    DATA     BYTE      enableInterrupts
      ---         BLOCKEND  ---      ---       LVL=1
      0100BBBFH   LINE      CODE     ---       #183
      0100BBBFH   LINE      CODE     ---       #184
      0100BBBFH   LINE      CODE     ---       #186
      0100BBC2H   LINE      CODE     ---       #190
      0100BBC9H   LINE      CODE     ---       #193
      0100BBD0H   LINE      CODE     ---       #196
      0100BBD6H   LINE      CODE     ---       #211
      0100BBDDH   LINE      CODE     ---       #222
      0100BBE0H   LINE      CODE     ---       #223
      ---         BLOCKEND  ---      ---       LVL=0

      0100BBE1H   BLOCK     CODE     ---       LVL=0
      0100BBE1H   BLOCK     CODE     NEAR LAB  LVL=1
      00000007H   SYMBOL    DATA     BYTE      enableInterrupts
      ---         BLOCKEND  ---      ---       LVL=1
      0100BBE1H   LINE      CODE     ---       #240
      0100BBE1H   LINE      CODE     ---       #241
      0100BBE1H   LINE      CODE     ---       #243
      0100BBE4H   LINE      CODE     ---       #247
      0100BBEBH   LINE      CODE     ---       #262
      0100BBF2H   LINE      CODE     ---       #265
      0100BBF8H   LINE      CODE     ---       #270
      0100BBFFH   LINE      CODE     ---       #277
      0100BC02H   LINE      CODE     ---       #278
      ---         BLOCKEND  ---      ---       LVL=0
      00000007H   SYMBOL    DATA     BYTE      intSrc
      00000007H   SYMBOL    DATA     BYTE      rxData
      00000006H   SYMBOL    DATA     BYTE      locRxBufferRead
      00000005H   SYMBOL    DATA     BYTE      locRxBufferWrite

      0100BE03H   BLOCK     CODE     ---       LVL=0
      0100BE03H   BLOCK     CODE     NEAR LAB  LVL=1
      00000007H   SYMBOL    DATA     BYTE      status
      ---         BLOCKEND  ---      ---       LVL=1
      0100BE03H   LINE      CODE     ---       #485
      0100BE03H   LINE      CODE     ---       #486
      0100BE03H   LINE      CODE     ---       #489
      0100BE0AH   LINE      CODE     ---       #492
      0100BE10H   LINE      CODE     ---       #493
      0100BE10H   LINE      CODE     ---       #494
      0100BE14H   LINE      CODE     ---       #495
      0100BE16H   LINE      CODE     ---       #496
      0100BE16H   LINE      CODE     ---       #499
      0100BE16H   LINE      CODE     ---       #500
      ---         BLOCKEND  ---      ---       LVL=0

      0100B231H   BLOCK     CODE     ---       LVL=0
LX51 LINKER/LOCATER V4.64.0.0                                                         02/02/2018  18:09:00  PAGE 81


      0100B231H   BLOCK     CODE     NEAR LAB  LVL=1
      00000007H   SYMBOL    DATA     BYTE      rxData
      00000006H   SYMBOL    DATA     BYTE      rxStatus
      00000006H   SYMBOL    DATA     BYTE      locRxBufferRead
      00000005H   SYMBOL    DATA     BYTE      locRxBufferWrite
      ---         BLOCKEND  ---      ---       LVL=1
      0100B231H   LINE      CODE     ---       #532
      0100B231H   LINE      CODE     ---       #533
      0100B231H   LINE      CODE     ---       #534
      0100B233H   LINE      CODE     ---       #542
      0100B239H   LINE      CODE     ---       #544
      0100B23EH   LINE      CODE     ---       #545
      0100B243H   LINE      CODE     ---       #547
      0100B24DH   LINE      CODE     ---       #548
      0100B24DH   LINE      CODE     ---       #549
      0100B259H   LINE      CODE     ---       #550
      0100B25AH   LINE      CODE     ---       #551
      0100B260H   LINE      CODE     ---       #552
      0100B260H   LINE      CODE     ---       #553
      0100B262H   LINE      CODE     ---       #554
      0100B262H   LINE      CODE     ---       #556
      0100B267H   LINE      CODE     ---       #558
      0100B26DH   LINE      CODE     ---       #559
      0100B26DH   LINE      CODE     ---       #560
      0100B26FH   LINE      CODE     ---       #575
      0100B26FH   LINE      CODE     ---       #577
      0100B271H   LINE      CODE     ---       #579
      0100B276H   LINE      CODE     ---       #580
      0100B279H   LINE      CODE     ---       #581
      0100B279H   LINE      CODE     ---       #582
      0100B27EH   LINE      CODE     ---       #585
      0100B283H   LINE      CODE     ---       #586
      0100B283H   LINE      CODE     ---       #587
      0100B285H   LINE      CODE     ---       #588
      0100B285H   LINE      CODE     ---       #589
      0100B285H   LINE      CODE     ---       #590
      0100B285H   LINE      CODE     ---       #592
      0100B28BH   LINE      CODE     ---       #611
      0100B28BH   LINE      CODE     ---       #612
      ---         BLOCKEND  ---      ---       LVL=0
      00000002H   SYMBOL    DATA     WORD      locErrorStatus

      0100B42AH   BLOCK     CODE     ---       LVL=0
      0100B42AH   BLOCK     CODE     NEAR LAB  LVL=1
      00000007H   SYMBOL    DATA     BYTE      size
      ---         BLOCKEND  ---      ---       LVL=1
      0100B42AH   LINE      CODE     ---       #683
      0100B42AH   LINE      CODE     ---       #685
      0100B42AH   LINE      CODE     ---       #691
      0100B430H   LINE      CODE     ---       #693
      0100B43CH   LINE      CODE     ---       #694
      0100B43CH   LINE      CODE     ---       #695
      0100B442H   LINE      CODE     ---       #696
      0100B442H   LINE      CODE     ---       #697
      0100B444H   LINE      CODE     ---       #698
      0100B446H   LINE      CODE     ---       #700
      0100B446H   LINE      CODE     ---       #701
      0100B448H   LINE      CODE     ---       #702
      0100B448H   LINE      CODE     ---       #703
      0100B44AH   LINE      CODE     ---       #704
      0100B457H   LINE      CODE     ---       #705
      0100B457H   LINE      CODE     ---       #706
      0100B460H   LINE      CODE     ---       #707
      0100B462H   LINE      CODE     ---       #709
      0100B462H   LINE      CODE     ---       #710
LX51 LINKER/LOCATER V4.64.0.0                                                         02/02/2018  18:09:00  PAGE 82


      0100B472H   LINE      CODE     ---       #711
      0100B472H   LINE      CODE     ---       #713
      0100B478H   LINE      CODE     ---       #722
      0100B478H   LINE      CODE     ---       #723
      ---         BLOCKEND  ---      ---       LVL=0

      0100BA6DH   BLOCK     CODE     ---       LVL=0
      0100BA6DH   BLOCK     CODE     NEAR LAB  LVL=1
      00000007H   SYMBOL    DATA     BYTE      enableInterrupts
      ---         BLOCKEND  ---      ---       LVL=1
      0100BA6DH   LINE      CODE     ---       #757
      0100BA6DH   LINE      CODE     ---       #758
      0100BA6DH   LINE      CODE     ---       #762
      0100BA70H   LINE      CODE     ---       #763
      0100BA77H   LINE      CODE     ---       #764
      0100BA7BH   LINE      CODE     ---       #765
      0100BA7EH   LINE      CODE     ---       #770
      0100BA84H   LINE      CODE     ---       #772
      0100BA89H   LINE      CODE     ---       #773
      0100BA8DH   LINE      CODE     ---       #774
      0100BA91H   LINE      CODE     ---       #775
      0100BA95H   LINE      CODE     ---       #777
      0100BA9BH   LINE      CODE     ---       #781
      ---         BLOCKEND  ---      ---       LVL=0
      00000007H   SYMBOL    DATA     BYTE      address
      00000007H   SYMBOL    DATA     BYTE      address
      00000007H   SYMBOL    DATA     BYTE      intSrc
      00000007H   SYMBOL    DATA     BYTE      txDataByte

      0100C0FBH   BLOCK     CODE     ---       LVL=0
      0100C0FBH   LINE      CODE     ---       #1003
      0100C0FBH   LINE      CODE     ---       #1004
      0100C0FBH   LINE      CODE     ---       #1005
      0100C100H   LINE      CODE     ---       #1006
      ---         BLOCKEND  ---      ---       LVL=0

      0100BF97H   BLOCK     CODE     ---       LVL=0
      00000007H   SYMBOL    DATA     BYTE      txDataByte
      0100BF97H   LINE      CODE     ---       #1041
      0100BF97H   LINE      CODE     ---       #1042
      0100BF97H   LINE      CODE     ---       #1107
      0100BF9EH   LINE      CODE     ---       #1108
      0100BF9EH   LINE      CODE     ---       #1110
      0100BF9EH   LINE      CODE     ---       #1113
      0100BFA3H   LINE      CODE     ---       #1116
      ---         BLOCKEND  ---      ---       LVL=0

      0100B8DEH   BLOCK     CODE     ---       LVL=0
      02000607H   SYMBOL    XDATA    ---       string
      0100B8E9H   BLOCK     CODE     NEAR LAB  LVL=1
      00000004H   SYMBOL    DATA     WORD      bufIndex
      ---         BLOCKEND  ---      ---       LVL=1
      0100B8DEH   LINE      CODE     ---       #1145
      0100B8E9H   LINE      CODE     ---       #1146
      0100B8E9H   LINE      CODE     ---       #1147
      0100B8ECH   LINE      CODE     ---       #1150
      0100B8F2H   LINE      CODE     ---       #1151
      0100B8F2H   LINE      CODE     ---       #1153
      0100B907H   LINE      CODE     ---       #1154
      0100B907H   LINE      CODE     ---       #1155
      0100B90AH   LINE      CODE     ---       #1156
      0100B90FH   LINE      CODE     ---       #1157
      0100B911H   LINE      CODE     ---       #1158
      0100B911H   LINE      CODE     ---       #1159
      ---         BLOCKEND  ---      ---       LVL=0
LX51 LINKER/LOCATER V4.64.0.0                                                         02/02/2018  18:09:00  PAGE 83


      00000005H   SYMBOL    DATA     BYTE      byteCount
      00000006H   SYMBOL    DATA     BYTE      bufIndex
      00000007H   SYMBOL    DATA     BYTE      txDataByte
      00000007H   SYMBOL    DATA     BYTE      size

      0100BEC2H   BLOCK     CODE     ---       LVL=0
      0100BEC2H   BLOCK     CODE     NEAR LAB  LVL=1
      00000007H   SYMBOL    DATA     BYTE      enableInterrupts
      ---         BLOCKEND  ---      ---       LVL=1
      0100BEC2H   LINE      CODE     ---       #1354
      0100BEC2H   LINE      CODE     ---       #1355
      0100BEC2H   LINE      CODE     ---       #1358
      0100BEC5H   LINE      CODE     ---       #1360
      0100BECCH   LINE      CODE     ---       #1361
      0100BED0H   LINE      CODE     ---       #1362
      0100BED3H   LINE      CODE     ---       #1376
      ---         BLOCKEND  ---      ---       LVL=0
      00000007H   SYMBOL    DATA     BYTE      retMode
      02000E0AH   SYMBOL    XDATA    BYTE      txPeriod

      ---         MODULE    ---      ---       PWM_MOTORS
      02000E61H   PUBLIC    XDATA    BYTE      PWM_MOTORS_initVar
      0100C113H   PUBLIC    CODE     ---       _PWM_MOTORS_WriteCompare2
      0100C10DH   PUBLIC    CODE     ---       _PWM_MOTORS_WriteCompare1
      0100C107H   PUBLIC    CODE     ---       _PWM_MOTORS_WritePeriod
      0100C101H   PUBLIC    CODE     ---       _PWM_MOTORS_WriteCounter
      0100C0A0H   PUBLIC    CODE     ---       PWM_MOTORS_Enable
      0100BB73H   PUBLIC    CODE     ---       PWM_MOTORS_Init
      0100BE2AH   PUBLIC    CODE     ---       PWM_MOTORS_Start
      000000CAH   SFRSYM    DATA     BYTE      SFRPRT5SEL
      000000DAH   SFRSYM    DATA     BYTE      SFRPRT6SEL
      000000D0H.6 SFRSYM    DATA     BIT       AC
      000000A8H.7 SFRSYM    DATA     BIT       EA
      000000A8H   SFRSYM    DATA     BYTE      IE
      00000085H   SFRSYM    DATA     BYTE      DPH1
      00000084H   SFRSYM    DATA     BYTE      DPL1
      000000D0H.7 SFRSYM    DATA     BIT       CY
      000000A0H   SFRSYM    DATA     BYTE      P2AX
      00000095H   SFRSYM    DATA     BYTE      DPX1
      00000081H   SFRSYM    DATA     BYTE      SP
      000000D0H.2 SFRSYM    DATA     BIT       OV
      00000080H   SFRSYM    DATA     BYTE      SFRPRT0DR
      00000090H   SFRSYM    DATA     BYTE      SFRPRT1DR
      000000F2H   SFRSYM    DATA     BYTE      SFRPRT12SEL
      00000098H   SFRSYM    DATA     BYTE      SFRPRT2DR
      000000B0H   SFRSYM    DATA     BYTE      SFRPRT3DR
      000000C0H   SFRSYM    DATA     BYTE      SFRPRT4DR
      000000FAH   SFRSYM    DATA     BYTE      SFRPRT15SEL
      000000C8H   SFRSYM    DATA     BYTE      SFRPRT5DR
      000000D8H   SFRSYM    DATA     BYTE      SFRPRT6DR
      00000089H   SFRSYM    DATA     BYTE      SFRPRT0PS
      00000091H   SFRSYM    DATA     BYTE      SFRPRT1PS
      00000099H   SFRSYM    DATA     BYTE      SFRPRT2PS
      000000B1H   SFRSYM    DATA     BYTE      SFRPRT3PS
      000000C1H   SFRSYM    DATA     BYTE      SFRPRT4PS
      000000C9H   SFRSYM    DATA     BYTE      SFRPRT5PS
      000000D9H   SFRSYM    DATA     BYTE      SFRPRT6PS
      000000EAH   SFRSYM    DATA     BYTE      MXAX
      000000F0H   SFRSYM    DATA     BYTE      B
      000000E0H   SFRSYM    DATA     BYTE      ACC
      000000D0H   SFRSYM    DATA     BIT       P
      000000D0H.3 SFRSYM    DATA     BIT       RS0
      000000D0H.4 SFRSYM    DATA     BIT       RS1
      00000083H   SFRSYM    DATA     BYTE      DPH
      000000E8H   SFRSYM    DATA     BYTE      SFRPRT12DR
LX51 LINKER/LOCATER V4.64.0.0                                                         02/02/2018  18:09:00  PAGE 84


      00000082H   SFRSYM    DATA     BYTE      DPL
      000000F8H   SFRSYM    DATA     BYTE      SFRPRT15DR
      00000086H   SFRSYM    DATA     BYTE      DPS
      000000E9H   SFRSYM    DATA     BYTE      SFRPRT12PS
      00000093H   SFRSYM    DATA     BYTE      DPX
      000000F9H   SFRSYM    DATA     BYTE      SFRPRT15PS
      000000D0H.5 SFRSYM    DATA     BIT       F0
      000000D0H.1 SFRSYM    DATA     BIT       F1
      0000008AH   SFRSYM    DATA     BYTE      SFRPRT0SEL
      000000D0H   SFRSYM    DATA     BYTE      PSW
      000000A2H   SFRSYM    DATA     BYTE      SFRPRT1SEL
      0000009AH   SFRSYM    DATA     BYTE      SFRPRT2SEL
      000000B2H   SFRSYM    DATA     BYTE      SFRPRT3SEL
      000000C2H   SFRSYM    DATA     BYTE      SFRPRT4SEL

      0100BE2AH   BLOCK     CODE     ---       LVL=0
      0100BE2AH   LINE      CODE     ---       #55
      0100BE2AH   LINE      CODE     ---       #56
      0100BE2AH   LINE      CODE     ---       #58
      0100BE30H   LINE      CODE     ---       #59
      0100BE30H   LINE      CODE     ---       #60
      0100BE33H   LINE      CODE     ---       #61
      0100BE39H   LINE      CODE     ---       #62
      0100BE39H   LINE      CODE     ---       #63
      0100BE3CH   LINE      CODE     ---       #65
      ---         BLOCKEND  ---      ---       LVL=0

      0100BB73H   BLOCK     CODE     ---       LVL=0
      0100BB73H   BLOCK     CODE     NEAR LAB  LVL=1
      00000007H   SYMBOL    DATA     BYTE      ctrl
      ---         BLOCKEND  ---      ---       LVL=1
      0100BB73H   LINE      CODE     ---       #84
      0100BB73H   LINE      CODE     ---       #85
      0100BB73H   LINE      CODE     ---       #118
      0100BB7AH   LINE      CODE     ---       #120
      0100BB7DH   LINE      CODE     ---       #126
      0100BB84H   LINE      CODE     ---       #133
      0100BB89H   LINE      CODE     ---       #136
      0100BB8EH   LINE      CODE     ---       #141
      0100BB93H   LINE      CODE     ---       #142
      0100BB98H   LINE      CODE     ---       #179
      ---         BLOCKEND  ---      ---       LVL=0

      0100C0A0H   BLOCK     CODE     ---       LVL=0
      0100C0A0H   LINE      CODE     ---       #199
      0100C0A0H   LINE      CODE     ---       #200
      0100C0A0H   LINE      CODE     ---       #209
      0100C0A7H   LINE      CODE     ---       #211
      ---         BLOCKEND  ---      ---       LVL=0

      0100C101H   BLOCK     CODE     ---       LVL=0
      00000007H   SYMBOL    DATA     BYTE      counter
      0100C101H   LINE      CODE     ---       #403
      0100C101H   LINE      CODE     ---       #405
      0100C101H   LINE      CODE     ---       #406
      0100C106H   LINE      CODE     ---       #407
      ---         BLOCKEND  ---      ---       LVL=0

      0100C107H   BLOCK     CODE     ---       LVL=0
      00000007H   SYMBOL    DATA     BYTE      period
      0100C107H   LINE      CODE     ---       #482
      0100C107H   LINE      CODE     ---       #483
      0100C107H   LINE      CODE     ---       #487
      0100C10CH   LINE      CODE     ---       #489
      ---         BLOCKEND  ---      ---       LVL=0
LX51 LINKER/LOCATER V4.64.0.0                                                         02/02/2018  18:09:00  PAGE 85



      0100C10DH   BLOCK     CODE     ---       LVL=0
      00000007H   SYMBOL    DATA     BYTE      compare
      0100C10DH   LINE      CODE     ---       #555
      0100C10DH   LINE      CODE     ---       #557
      0100C10DH   LINE      CODE     ---       #561
      0100C112H   LINE      CODE     ---       #563
      ---         BLOCKEND  ---      ---       LVL=0

      0100C113H   BLOCK     CODE     ---       LVL=0
      00000007H   SYMBOL    DATA     BYTE      compare
      0100C113H   LINE      CODE     ---       #584
      0100C113H   LINE      CODE     ---       #586
      0100C113H   LINE      CODE     ---       #590
      0100C118H   LINE      CODE     ---       #592
      ---         BLOCKEND  ---      ---       LVL=0
      00000007H   SYMBOL    DATA     BYTE      result
      00000007H   SYMBOL    DATA     BYTE      control

      ---         MODULE    ---      ---       ISR_RS485_RX
      0100C0DFH   PUBLIC    CODE     ---       ISR_RS485_RX_Disable
      0100C0D8H   PUBLIC    CODE     ---       ISR_RS485_RX_Enable
      0100C01EH   PUBLIC    CODE     ---       _ISR_RS485_RX_SetPriority
      0100BF35H   PUBLIC    CODE     ---       _ISR_RS485_RX_SetVector
      0100BACAH   PUBLIC    CODE     ---       ISR_RS485_RX_Interrupt
      0100BC24H   PUBLIC    CODE     ---       _ISR_RS485_RX_StartEx
      000000CAH   SFRSYM    DATA     BYTE      SFRPRT5SEL
      000000DAH   SFRSYM    DATA     BYTE      SFRPRT6SEL
      000000D0H.6 SFRSYM    DATA     BIT       AC
      000000A8H.7 SFRSYM    DATA     BIT       EA
      000000A8H   SFRSYM    DATA     BYTE      IE
      00000085H   SFRSYM    DATA     BYTE      DPH1
      00000084H   SFRSYM    DATA     BYTE      DPL1
      000000D0H.7 SFRSYM    DATA     BIT       CY
      000000A0H   SFRSYM    DATA     BYTE      P2AX
      00000095H   SFRSYM    DATA     BYTE      DPX1
      00000081H   SFRSYM    DATA     BYTE      SP
      000000D0H.2 SFRSYM    DATA     BIT       OV
      00000080H   SFRSYM    DATA     BYTE      SFRPRT0DR
      00000090H   SFRSYM    DATA     BYTE      SFRPRT1DR
      000000F2H   SFRSYM    DATA     BYTE      SFRPRT12SEL
      00000098H   SFRSYM    DATA     BYTE      SFRPRT2DR
      000000B0H   SFRSYM    DATA     BYTE      SFRPRT3DR
      000000C0H   SFRSYM    DATA     BYTE      SFRPRT4DR
      000000FAH   SFRSYM    DATA     BYTE      SFRPRT15SEL
      000000C8H   SFRSYM    DATA     BYTE      SFRPRT5DR
      000000D8H   SFRSYM    DATA     BYTE      SFRPRT6DR
      00000089H   SFRSYM    DATA     BYTE      SFRPRT0PS
      00000091H   SFRSYM    DATA     BYTE      SFRPRT1PS
      00000099H   SFRSYM    DATA     BYTE      SFRPRT2PS
      000000B1H   SFRSYM    DATA     BYTE      SFRPRT3PS
      000000C1H   SFRSYM    DATA     BYTE      SFRPRT4PS
      000000C9H   SFRSYM    DATA     BYTE      SFRPRT5PS
      000000D9H   SFRSYM    DATA     BYTE      SFRPRT6PS
      000000EAH   SFRSYM    DATA     BYTE      MXAX
      000000F0H   SFRSYM    DATA     BYTE      B
      000000E0H   SFRSYM    DATA     BYTE      ACC
      000000D0H   SFRSYM    DATA     BIT       P
      000000D0H.3 SFRSYM    DATA     BIT       RS0
      000000D0H.4 SFRSYM    DATA     BIT       RS1
      00000083H   SFRSYM    DATA     BYTE      DPH
      000000E8H   SFRSYM    DATA     BYTE      SFRPRT12DR
      00000082H   SFRSYM    DATA     BYTE      DPL
      000000F8H   SFRSYM    DATA     BYTE      SFRPRT15DR
      00000086H   SFRSYM    DATA     BYTE      DPS
LX51 LINKER/LOCATER V4.64.0.0                                                         02/02/2018  18:09:00  PAGE 86


      000000E9H   SFRSYM    DATA     BYTE      SFRPRT12PS
      00000093H   SFRSYM    DATA     BYTE      DPX
      000000F9H   SFRSYM    DATA     BYTE      SFRPRT15PS
      000000D0H.5 SFRSYM    DATA     BIT       F0
      000000D0H.1 SFRSYM    DATA     BIT       F1
      0000008AH   SFRSYM    DATA     BYTE      SFRPRT0SEL
      000000D0H   SFRSYM    DATA     BYTE      PSW
      000000A2H   SFRSYM    DATA     BYTE      SFRPRT1SEL
      0000009AH   SFRSYM    DATA     BYTE      SFRPRT2SEL
      000000B2H   SFRSYM    DATA     BYTE      SFRPRT3SEL
      000000C2H   SFRSYM    DATA     BYTE      SFRPRT4SEL

      0100BC24H   BLOCK     CODE     ---       LVL=0
      02000003H   SYMBOL    XDATA    ---       address
      0100BC24H   LINE      CODE     ---       #94
      0100BC2CH   LINE      CODE     ---       #95
      0100BC2CH   LINE      CODE     ---       #97
      0100BC2FH   LINE      CODE     ---       #100
      0100BC3AH   LINE      CODE     ---       #103
      0100BC3FH   LINE      CODE     ---       #106
      0100BC42H   LINE      CODE     ---       #107
      ---         BLOCKEND  ---      ---       LVL=0

      0100BACAH   BLOCK     CODE     ---       LVL=0
      0100BACAH   LINE      CODE     ---       #151
      0100BACAH   LINE      CODE     ---       #168
      ---         BLOCKEND  ---      ---       LVL=0

      0100BF35H   BLOCK     CODE     ---       LVL=0
      00000006H   SYMBOL    DATA     ---       address
      0100BF35H   LINE      CODE     ---       #198
      0100BF35H   LINE      CODE     ---       #199
      0100BF35H   LINE      CODE     ---       #200
      0100BF42H   LINE      CODE     ---       #201
      ---         BLOCKEND  ---      ---       LVL=0

      0100C01EH   BLOCK     CODE     ---       LVL=0
      00000007H   SYMBOL    DATA     BYTE      priority
      0100C01EH   LINE      CODE     ---       #248
      0100C01EH   LINE      CODE     ---       #249
      0100C01EH   LINE      CODE     ---       #250
      0100C027H   LINE      CODE     ---       #251
      ---         BLOCKEND  ---      ---       LVL=0
      00000007H   SYMBOL    DATA     BYTE      priority

      0100C0D8H   BLOCK     CODE     ---       LVL=0
      0100C0D8H   LINE      CODE     ---       #297
      0100C0D8H   LINE      CODE     ---       #298
      0100C0D8H   LINE      CODE     ---       #300
      0100C0DEH   LINE      CODE     ---       #301
      ---         BLOCKEND  ---      ---       LVL=0

      0100C0DFH   BLOCK     CODE     ---       LVL=0
      0100C0DFH   LINE      CODE     ---       #339
      0100C0DFH   LINE      CODE     ---       #340
      0100C0DFH   LINE      CODE     ---       #342
      0100C0E5H   LINE      CODE     ---       #343
      ---         BLOCKEND  ---      ---       LVL=0

      ---         MODULE    ---      ---       CLOCK_UART
      0100C0A8H   PUBLIC    CODE     ---       CLOCK_UART_GetSourceRegister
      0100C028H   PUBLIC    CODE     ---       CLOCK_UART_GetDividerRegister
      01009AE4H   PUBLIC    CODE     ---       _CLOCK_UART_SetDividerRegister
      00000007H   SYMBOL    DATA     BYTE      state

LX51 LINKER/LOCATER V4.64.0.0                                                         02/02/2018  18:09:00  PAGE 87


      01009AE4H   BLOCK     CODE     ---       LVL=0
      0200002BH   SYMBOL    XDATA    WORD      clkDivider
      0200002DH   SYMBOL    XDATA    BYTE      restart
      01009AEFH   BLOCK     CODE     NEAR LAB  LVL=1
      0200002EH   SYMBOL    XDATA    BYTE      enabled
      0200002FH   SYMBOL    XDATA    BYTE      currSrc
      02000030H   SYMBOL    XDATA    WORD      oldDivider
      ---         BLOCKEND  ---      ---       LVL=1
      01009AE4H   LINE      CODE     ---       #193
      01009AEFH   LINE      CODE     ---       #195
      01009AEFH   LINE      CODE     ---       #198
      01009AF7H   LINE      CODE     ---       #199
      01009B02H   LINE      CODE     ---       #201
      01009B14H   LINE      CODE     ---       #202
      01009B14H   LINE      CODE     ---       #203
      01009B1EH   LINE      CODE     ---       #205
      01009B2FH   LINE      CODE     ---       #206
      01009B2FH   LINE      CODE     ---       #208
      01009B33H   LINE      CODE     ---       #209
      01009B33H   LINE      CODE     ---       #213
      01009B3CH   LINE      CODE     ---       #214
      01009B43H   LINE      CODE     ---       #215
      01009B44H   LINE      CODE     ---       #217
      01009B44H   LINE      CODE     ---       #220
      01009B4BH   LINE      CODE     ---       #221
      01009B5CH   LINE      CODE     ---       #222
      01009B5CH   LINE      CODE     ---       #223
      01009B5DH   LINE      CODE     ---       #225
      01009B5DH   LINE      CODE     ---       #227
      01009B63H   LINE      CODE     ---       #228
      01009B63H   LINE      CODE     ---       #229
      01009B68H   LINE      CODE     ---       #236
      01009B6DH   LINE      CODE     ---       #237
      01009B72H   LINE      CODE     ---       #240
      01009B79H   LINE      CODE     ---       #243
      01009B8BH   LINE      CODE     ---       #244
      01009B8BH   LINE      CODE     ---       #246
      01009B9CH   LINE      CODE     ---       #247
      01009BA2H   LINE      CODE     ---       #250
      01009BAAH   LINE      CODE     ---       #253
      01009BB1H   LINE      CODE     ---       #257
      01009BB6H   LINE      CODE     ---       #259
      01009BB6H   LINE      CODE     ---       #260
      01009BB6H   LINE      CODE     ---       #263
      01009BBEH   LINE      CODE     ---       #264
      01009BBEH   LINE      CODE     ---       #266
      01009BCFH   LINE      CODE     ---       #268
      01009BE2H   LINE      CODE     ---       #269
      01009BECH   LINE      CODE     ---       #270
      01009BEDH   LINE      CODE     ---       #272
      01009BEDH   LINE      CODE     ---       #274
      01009BFEH   LINE      CODE     ---       #275
      01009C13H   LINE      CODE     ---       #276
      01009C13H   LINE      CODE     ---       #277
      01009C13H   LINE      CODE     ---       #278
      01009C13H   LINE      CODE     ---       #279
      ---         BLOCKEND  ---      ---       LVL=0

      0100C028H   BLOCK     CODE     ---       LVL=0
      0100C028H   LINE      CODE     ---       #297
      0100C028H   LINE      CODE     ---       #298
      0100C028H   LINE      CODE     ---       #299
      0100C031H   LINE      CODE     ---       #300
      ---         BLOCKEND  ---      ---       LVL=0
      00000007H   SYMBOL    DATA     BYTE      modeBitMask
LX51 LINKER/LOCATER V4.64.0.0                                                         02/02/2018  18:09:00  PAGE 88


      00000007H   SYMBOL    DATA     BYTE      modeBitMask
      00000007H   SYMBOL    DATA     BYTE      oldSrc

      0100C0A8H   BLOCK     CODE     ---       LVL=0
      0100C0A8H   LINE      CODE     ---       #464
      0100C0A8H   LINE      CODE     ---       #465
      0100C0A8H   LINE      CODE     ---       #466
      0100C0AFH   LINE      CODE     ---       #467
      ---         BLOCKEND  ---      ---       LVL=0

      ---         MODULE    ---      ---       COUNTER_ENC
      02000E62H   PUBLIC    XDATA    BYTE      COUNTER_ENC_initVar
      0100BFA4H   PUBLIC    CODE     ---       COUNTER_ENC_ClearFIFO
      0100C137H   PUBLIC    CODE     ---       _COUNTER_ENC_WriteCompare
      0100C131H   PUBLIC    CODE     ---       _COUNTER_ENC_WritePeriod
      0100C12BH   PUBLIC    CODE     ---       COUNTER_ENC_ReadCapture
      0100C125H   PUBLIC    CODE     ---       _COUNTER_ENC_WriteCounter
      0100C11FH   PUBLIC    CODE     ---       COUNTER_ENC_ReadStatusRegister
      0100C119H   PUBLIC    CODE     ---       _COUNTER_ENC_SetInterruptMode
      0100BE3DH   PUBLIC    CODE     ---       COUNTER_ENC_Start
      0100C0B0H   PUBLIC    CODE     ---       COUNTER_ENC_Enable
      0100B8A9H   PUBLIC    CODE     ---       COUNTER_ENC_Init
      000000CAH   SFRSYM    DATA     BYTE      SFRPRT5SEL
      000000DAH   SFRSYM    DATA     BYTE      SFRPRT6SEL
      000000D0H.6 SFRSYM    DATA     BIT       AC
      000000A8H.7 SFRSYM    DATA     BIT       EA
      000000A8H   SFRSYM    DATA     BYTE      IE
      00000085H   SFRSYM    DATA     BYTE      DPH1
      00000084H   SFRSYM    DATA     BYTE      DPL1
      000000D0H.7 SFRSYM    DATA     BIT       CY
      000000A0H   SFRSYM    DATA     BYTE      P2AX
      00000095H   SFRSYM    DATA     BYTE      DPX1
      00000081H   SFRSYM    DATA     BYTE      SP
      000000D0H.2 SFRSYM    DATA     BIT       OV
      00000080H   SFRSYM    DATA     BYTE      SFRPRT0DR
      00000090H   SFRSYM    DATA     BYTE      SFRPRT1DR
      000000F2H   SFRSYM    DATA     BYTE      SFRPRT12SEL
      00000098H   SFRSYM    DATA     BYTE      SFRPRT2DR
      000000B0H   SFRSYM    DATA     BYTE      SFRPRT3DR
      000000C0H   SFRSYM    DATA     BYTE      SFRPRT4DR
      000000FAH   SFRSYM    DATA     BYTE      SFRPRT15SEL
      000000C8H   SFRSYM    DATA     BYTE      SFRPRT5DR
      000000D8H   SFRSYM    DATA     BYTE      SFRPRT6DR
      00000089H   SFRSYM    DATA     BYTE      SFRPRT0PS
      00000091H   SFRSYM    DATA     BYTE      SFRPRT1PS
      00000099H   SFRSYM    DATA     BYTE      SFRPRT2PS
      000000B1H   SFRSYM    DATA     BYTE      SFRPRT3PS
      000000C1H   SFRSYM    DATA     BYTE      SFRPRT4PS
      000000C9H   SFRSYM    DATA     BYTE      SFRPRT5PS
      000000D9H   SFRSYM    DATA     BYTE      SFRPRT6PS
      000000EAH   SFRSYM    DATA     BYTE      MXAX
      000000F0H   SFRSYM    DATA     BYTE      B
      000000E0H   SFRSYM    DATA     BYTE      ACC
      000000D0H   SFRSYM    DATA     BIT       P
      000000D0H.3 SFRSYM    DATA     BIT       RS0
      000000D0H.4 SFRSYM    DATA     BIT       RS1
      00000083H   SFRSYM    DATA     BYTE      DPH
      000000E8H   SFRSYM    DATA     BYTE      SFRPRT12DR
      00000082H   SFRSYM    DATA     BYTE      DPL
      000000F8H   SFRSYM    DATA     BYTE      SFRPRT15DR
      00000086H   SFRSYM    DATA     BYTE      DPS
      000000E9H   SFRSYM    DATA     BYTE      SFRPRT12PS
      00000093H   SFRSYM    DATA     BYTE      DPX
      000000F9H   SFRSYM    DATA     BYTE      SFRPRT15PS
      000000D0H.5 SFRSYM    DATA     BIT       F0
LX51 LINKER/LOCATER V4.64.0.0                                                         02/02/2018  18:09:00  PAGE 89


      000000D0H.1 SFRSYM    DATA     BIT       F1
      0000008AH   SFRSYM    DATA     BYTE      SFRPRT0SEL
      000000D0H   SFRSYM    DATA     BYTE      PSW
      000000A2H   SFRSYM    DATA     BYTE      SFRPRT1SEL
      0000009AH   SFRSYM    DATA     BYTE      SFRPRT2SEL
      000000B2H   SFRSYM    DATA     BYTE      SFRPRT3SEL
      000000C2H   SFRSYM    DATA     BYTE      SFRPRT4SEL

      0100B8A9H   BLOCK     CODE     ---       LVL=0
      0100B8A9H   BLOCK     CODE     NEAR LAB  LVL=1
      00000007H   SYMBOL    DATA     BYTE      ctrl
      00000007H   SYMBOL    DATA     BYTE      COUNTER_ENC_interruptState
      ---         BLOCKEND  ---      ---       LVL=1
      0100B8A9H   LINE      CODE     ---       #37
      0100B8A9H   LINE      CODE     ---       #38
      0100B8A9H   LINE      CODE     ---       #79
      0100B8B0H   LINE      CODE     ---       #80
      0100B8B1H   LINE      CODE     ---       #83
      0100B8B5H   LINE      CODE     ---       #88
      0100B8B6H   LINE      CODE     ---       #96
      0100B8B9H   LINE      CODE     ---       #100
      0100B8BEH   LINE      CODE     ---       #102
      0100B8C3H   LINE      CODE     ---       #104
      0100B8C8H   LINE      CODE     ---       #108
      0100B8CBH   LINE      CODE     ---       #110
      0100B8D0H   LINE      CODE     ---       #115
      0100B8D3H   LINE      CODE     ---       #117
      0100B8DAH   LINE      CODE     ---       #120
      0100B8DDH   LINE      CODE     ---       #123
      ---         BLOCKEND  ---      ---       LVL=0

      0100C0B0H   BLOCK     CODE     ---       LVL=0
      0100C0B0H   LINE      CODE     ---       #143
      0100C0B0H   LINE      CODE     ---       #144
      0100C0B0H   LINE      CODE     ---       #155
      0100C0B7H   LINE      CODE     ---       #158
      ---         BLOCKEND  ---      ---       LVL=0

      0100BE3DH   BLOCK     CODE     ---       LVL=0
      0100BE3DH   LINE      CODE     ---       #178
      0100BE3DH   LINE      CODE     ---       #179
      0100BE3DH   LINE      CODE     ---       #180
      0100BE43H   LINE      CODE     ---       #181
      0100BE43H   LINE      CODE     ---       #182
      0100BE46H   LINE      CODE     ---       #184
      0100BE4CH   LINE      CODE     ---       #185
      0100BE4CH   LINE      CODE     ---       #188
      0100BE4FH   LINE      CODE     ---       #189
      ---         BLOCKEND  ---      ---       LVL=0

      0100C119H   BLOCK     CODE     ---       LVL=0
      00000007H   SYMBOL    DATA     BYTE      interruptsMask
      0100C119H   LINE      CODE     ---       #237
      0100C119H   LINE      CODE     ---       #238
      0100C119H   LINE      CODE     ---       #239
      0100C11EH   LINE      CODE     ---       #240
      ---         BLOCKEND  ---      ---       LVL=0

      0100C11FH   BLOCK     CODE     ---       LVL=0
      0100C11FH   LINE      CODE     ---       #261
      0100C11FH   LINE      CODE     ---       #262
      0100C11FH   LINE      CODE     ---       #263
      0100C124H   LINE      CODE     ---       #264
      ---         BLOCKEND  ---      ---       LVL=0
      00000007H   SYMBOL    DATA     BYTE      control
LX51 LINKER/LOCATER V4.64.0.0                                                         02/02/2018  18:09:00  PAGE 90



      0100C125H   BLOCK     CODE     ---       LVL=0
      00000007H   SYMBOL    DATA     BYTE      counter
      0100C125H   LINE      CODE     ---       #326
      0100C125H   LINE      CODE     ---       #328
      0100C125H   LINE      CODE     ---       #337
      0100C12AH   LINE      CODE     ---       #339
      ---         BLOCKEND  ---      ---       LVL=0

      0100C12BH   BLOCK     CODE     ---       LVL=0
      0100C12BH   LINE      CODE     ---       #390
      0100C12BH   LINE      CODE     ---       #391
      0100C12BH   LINE      CODE     ---       #395
      0100C130H   LINE      CODE     ---       #397
      ---         BLOCKEND  ---      ---       LVL=0

      0100C131H   BLOCK     CODE     ---       LVL=0
      00000007H   SYMBOL    DATA     BYTE      period
      0100C131H   LINE      CODE     ---       #415
      0100C131H   LINE      CODE     ---       #416
      0100C131H   LINE      CODE     ---       #420
      0100C136H   LINE      CODE     ---       #422
      ---         BLOCKEND  ---      ---       LVL=0

      0100C137H   BLOCK     CODE     ---       LVL=0
      00000007H   SYMBOL    DATA     BYTE      compare
      0100C137H   LINE      CODE     ---       #465
      0100C137H   LINE      CODE     ---       #467
      0100C137H   LINE      CODE     ---       #471
      0100C13CH   LINE      CODE     ---       #473
      ---         BLOCKEND  ---      ---       LVL=0

      0100BFA4H   BLOCK     CODE     ---       LVL=0
      0100BFA4H   LINE      CODE     ---       #558
      0100BFA4H   LINE      CODE     ---       #559
      0100BFA4H   LINE      CODE     ---       #561
      0100BFABH   LINE      CODE     ---       #562
      0100BFABH   LINE      CODE     ---       #563
      0100BFAEH   LINE      CODE     ---       #564
      0100BFB0H   LINE      CODE     ---       #566
      ---         BLOCKEND  ---      ---       LVL=0

      ---         MODULE    ---      ---       SHIFTREG_ENC_1
      02000E63H   PUBLIC    XDATA    BYTE      SHIFTREG_ENC_1_initVar
      0100C032H   PUBLIC    CODE     ---       SHIFTREG_ENC_1_ReadData
      0100BEE6H   PUBLIC    CODE     ---       _SHIFTREG_ENC_1_SetIntMode
      0100BF43H   PUBLIC    CODE     ---       SHIFTREG_ENC_1_EnableInt
      0100C13DH   PUBLIC    CODE     ---       SHIFTREG_ENC_1_Init
      0100C008H   PUBLIC    CODE     ---       SHIFTREG_ENC_1_Enable
      0100BE50H   PUBLIC    CODE     ---       SHIFTREG_ENC_1_Start
      000000CAH   SFRSYM    DATA     BYTE      SFRPRT5SEL
      000000DAH   SFRSYM    DATA     BYTE      SFRPRT6SEL
      000000D0H.6 SFRSYM    DATA     BIT       AC
      000000A8H.7 SFRSYM    DATA     BIT       EA
      000000A8H   SFRSYM    DATA     BYTE      IE
      00000085H   SFRSYM    DATA     BYTE      DPH1
      00000084H   SFRSYM    DATA     BYTE      DPL1
      000000D0H.7 SFRSYM    DATA     BIT       CY
      000000A0H   SFRSYM    DATA     BYTE      P2AX
      00000095H   SFRSYM    DATA     BYTE      DPX1
      00000081H   SFRSYM    DATA     BYTE      SP
      000000D0H.2 SFRSYM    DATA     BIT       OV
      00000080H   SFRSYM    DATA     BYTE      SFRPRT0DR
      00000090H   SFRSYM    DATA     BYTE      SFRPRT1DR
      000000F2H   SFRSYM    DATA     BYTE      SFRPRT12SEL
LX51 LINKER/LOCATER V4.64.0.0                                                         02/02/2018  18:09:00  PAGE 91


      00000098H   SFRSYM    DATA     BYTE      SFRPRT2DR
      000000B0H   SFRSYM    DATA     BYTE      SFRPRT3DR
      000000C0H   SFRSYM    DATA     BYTE      SFRPRT4DR
      000000FAH   SFRSYM    DATA     BYTE      SFRPRT15SEL
      000000C8H   SFRSYM    DATA     BYTE      SFRPRT5DR
      000000D8H   SFRSYM    DATA     BYTE      SFRPRT6DR
      00000089H   SFRSYM    DATA     BYTE      SFRPRT0PS
      00000091H   SFRSYM    DATA     BYTE      SFRPRT1PS
      00000099H   SFRSYM    DATA     BYTE      SFRPRT2PS
      000000B1H   SFRSYM    DATA     BYTE      SFRPRT3PS
      000000C1H   SFRSYM    DATA     BYTE      SFRPRT4PS
      000000C9H   SFRSYM    DATA     BYTE      SFRPRT5PS
      000000D9H   SFRSYM    DATA     BYTE      SFRPRT6PS
      000000EAH   SFRSYM    DATA     BYTE      MXAX
      000000F0H   SFRSYM    DATA     BYTE      B
      000000E0H   SFRSYM    DATA     BYTE      ACC
      000000D0H   SFRSYM    DATA     BIT       P
      000000D0H.3 SFRSYM    DATA     BIT       RS0
      000000D0H.4 SFRSYM    DATA     BIT       RS1
      00000083H   SFRSYM    DATA     BYTE      DPH
      000000E8H   SFRSYM    DATA     BYTE      SFRPRT12DR
      00000082H   SFRSYM    DATA     BYTE      DPL
      000000F8H   SFRSYM    DATA     BYTE      SFRPRT15DR
      00000086H   SFRSYM    DATA     BYTE      DPS
      000000E9H   SFRSYM    DATA     BYTE      SFRPRT12PS
      00000093H   SFRSYM    DATA     BYTE      DPX
      000000F9H   SFRSYM    DATA     BYTE      SFRPRT15PS
      000000D0H.5 SFRSYM    DATA     BIT       F0
      000000D0H.1 SFRSYM    DATA     BIT       F1
      0000008AH   SFRSYM    DATA     BYTE      SFRPRT0SEL
      000000D0H   SFRSYM    DATA     BYTE      PSW
      000000A2H   SFRSYM    DATA     BYTE      SFRPRT1SEL
      0000009AH   SFRSYM    DATA     BYTE      SFRPRT2SEL
      000000B2H   SFRSYM    DATA     BYTE      SFRPRT3SEL
      000000C2H   SFRSYM    DATA     BYTE      SFRPRT4SEL

      0100BE50H   BLOCK     CODE     ---       LVL=0
      0100BE50H   LINE      CODE     ---       #43
      0100BE50H   LINE      CODE     ---       #44
      0100BE50H   LINE      CODE     ---       #45
      0100BE56H   LINE      CODE     ---       #46
      0100BE56H   LINE      CODE     ---       #47
      0100BE59H   LINE      CODE     ---       #48
      0100BE5FH   LINE      CODE     ---       #49
      0100BE5FH   LINE      CODE     ---       #51
      0100BE62H   LINE      CODE     ---       #52
      ---         BLOCKEND  ---      ---       LVL=0

      0100C008H   BLOCK     CODE     ---       LVL=0
      0100C008H   LINE      CODE     ---       #69
      0100C008H   LINE      CODE     ---       #70
      0100C008H   LINE      CODE     ---       #73
      0100C00FH   LINE      CODE     ---       #75
      0100C012H   LINE      CODE     ---       #76
      ---         BLOCKEND  ---      ---       LVL=0

      0100C13DH   BLOCK     CODE     ---       LVL=0
      0100C13DH   LINE      CODE     ---       #93
      0100C13DH   LINE      CODE     ---       #94
      0100C13DH   LINE      CODE     ---       #95
      0100C142H   LINE      CODE     ---       #96
      ---         BLOCKEND  ---      ---       LVL=0

      0100BF43H   BLOCK     CODE     ---       LVL=0
      0100BF43H   BLOCK     CODE     NEAR LAB  LVL=1
LX51 LINKER/LOCATER V4.64.0.0                                                         02/02/2018  18:09:00  PAGE 92


      00000007H   SYMBOL    DATA     BYTE      interruptState
      ---         BLOCKEND  ---      ---       LVL=1
      0100BF43H   LINE      CODE     ---       #135
      0100BF43H   LINE      CODE     ---       #136
      0100BF43H   LINE      CODE     ---       #139
      0100BF46H   LINE      CODE     ---       #140
      0100BF4DH   LINE      CODE     ---       #141
      0100BF50H   LINE      CODE     ---       #142
      ---         BLOCKEND  ---      ---       LVL=0
      00000007H   SYMBOL    DATA     BYTE      interruptState
      00000007H   SYMBOL    DATA     BYTE      fifoId
      00000005H   SYMBOL    DATA     BYTE      result

      0100BEE6H   BLOCK     CODE     ---       LVL=0
      00000007H   SYMBOL    DATA     BYTE      interruptSource
      0100BEE6H   LINE      CODE     ---       #261
      0100BEE6H   LINE      CODE     ---       #262
      0100BEE6H   LINE      CODE     ---       #263
      0100BEEDH   LINE      CODE     ---       #264
      0100BEF6H   LINE      CODE     ---       #265
      ---         BLOCKEND  ---      ---       LVL=0
      00000004H   SYMBOL    DATA     DWORD     shiftData

      0100C032H   BLOCK     CODE     ---       LVL=0
      0100C032H   LINE      CODE     ---       #366
      0100C032H   LINE      CODE     ---       #367
      0100C032H   LINE      CODE     ---       #368
      0100C03BH   LINE      CODE     ---       #369
      ---         BLOCKEND  ---      ---       LVL=0

      ---         MODULE    ---      ---       SHIFTREG_ENC_2
      02000E64H   PUBLIC    XDATA    BYTE      SHIFTREG_ENC_2_initVar
      0100C03CH   PUBLIC    CODE     ---       SHIFTREG_ENC_2_ReadData
      0100BEF7H   PUBLIC    CODE     ---       _SHIFTREG_ENC_2_SetIntMode
      0100BF51H   PUBLIC    CODE     ---       SHIFTREG_ENC_2_EnableInt
      0100C143H   PUBLIC    CODE     ---       SHIFTREG_ENC_2_Init
      0100C013H   PUBLIC    CODE     ---       SHIFTREG_ENC_2_Enable
      0100BE63H   PUBLIC    CODE     ---       SHIFTREG_ENC_2_Start
      000000CAH   SFRSYM    DATA     BYTE      SFRPRT5SEL
      000000DAH   SFRSYM    DATA     BYTE      SFRPRT6SEL
      000000D0H.6 SFRSYM    DATA     BIT       AC
      000000A8H.7 SFRSYM    DATA     BIT       EA
      000000A8H   SFRSYM    DATA     BYTE      IE
      00000085H   SFRSYM    DATA     BYTE      DPH1
      00000084H   SFRSYM    DATA     BYTE      DPL1
      000000D0H.7 SFRSYM    DATA     BIT       CY
      000000A0H   SFRSYM    DATA     BYTE      P2AX
      00000095H   SFRSYM    DATA     BYTE      DPX1
      00000081H   SFRSYM    DATA     BYTE      SP
      000000D0H.2 SFRSYM    DATA     BIT       OV
      00000080H   SFRSYM    DATA     BYTE      SFRPRT0DR
      00000090H   SFRSYM    DATA     BYTE      SFRPRT1DR
      000000F2H   SFRSYM    DATA     BYTE      SFRPRT12SEL
      00000098H   SFRSYM    DATA     BYTE      SFRPRT2DR
      000000B0H   SFRSYM    DATA     BYTE      SFRPRT3DR
      000000C0H   SFRSYM    DATA     BYTE      SFRPRT4DR
      000000FAH   SFRSYM    DATA     BYTE      SFRPRT15SEL
      000000C8H   SFRSYM    DATA     BYTE      SFRPRT5DR
      000000D8H   SFRSYM    DATA     BYTE      SFRPRT6DR
      00000089H   SFRSYM    DATA     BYTE      SFRPRT0PS
      00000091H   SFRSYM    DATA     BYTE      SFRPRT1PS
      00000099H   SFRSYM    DATA     BYTE      SFRPRT2PS
      000000B1H   SFRSYM    DATA     BYTE      SFRPRT3PS
      000000C1H   SFRSYM    DATA     BYTE      SFRPRT4PS
      000000C9H   SFRSYM    DATA     BYTE      SFRPRT5PS
LX51 LINKER/LOCATER V4.64.0.0                                                         02/02/2018  18:09:00  PAGE 93


      000000D9H   SFRSYM    DATA     BYTE      SFRPRT6PS
      000000EAH   SFRSYM    DATA     BYTE      MXAX
      000000F0H   SFRSYM    DATA     BYTE      B
      000000E0H   SFRSYM    DATA     BYTE      ACC
      000000D0H   SFRSYM    DATA     BIT       P
      000000D0H.3 SFRSYM    DATA     BIT       RS0
      000000D0H.4 SFRSYM    DATA     BIT       RS1
      00000083H   SFRSYM    DATA     BYTE      DPH
      000000E8H   SFRSYM    DATA     BYTE      SFRPRT12DR
      00000082H   SFRSYM    DATA     BYTE      DPL
      000000F8H   SFRSYM    DATA     BYTE      SFRPRT15DR
      00000086H   SFRSYM    DATA     BYTE      DPS
      000000E9H   SFRSYM    DATA     BYTE      SFRPRT12PS
      00000093H   SFRSYM    DATA     BYTE      DPX
      000000F9H   SFRSYM    DATA     BYTE      SFRPRT15PS
      000000D0H.5 SFRSYM    DATA     BIT       F0
      000000D0H.1 SFRSYM    DATA     BIT       F1
      0000008AH   SFRSYM    DATA     BYTE      SFRPRT0SEL
      000000D0H   SFRSYM    DATA     BYTE      PSW
      000000A2H   SFRSYM    DATA     BYTE      SFRPRT1SEL
      0000009AH   SFRSYM    DATA     BYTE      SFRPRT2SEL
      000000B2H   SFRSYM    DATA     BYTE      SFRPRT3SEL
      000000C2H   SFRSYM    DATA     BYTE      SFRPRT4SEL

      0100BE63H   BLOCK     CODE     ---       LVL=0
      0100BE63H   LINE      CODE     ---       #43
      0100BE63H   LINE      CODE     ---       #44
      0100BE63H   LINE      CODE     ---       #45
      0100BE69H   LINE      CODE     ---       #46
      0100BE69H   LINE      CODE     ---       #47
      0100BE6CH   LINE      CODE     ---       #48
      0100BE72H   LINE      CODE     ---       #49
      0100BE72H   LINE      CODE     ---       #51
      0100BE75H   LINE      CODE     ---       #52
      ---         BLOCKEND  ---      ---       LVL=0

      0100C013H   BLOCK     CODE     ---       LVL=0
      0100C013H   LINE      CODE     ---       #69
      0100C013H   LINE      CODE     ---       #70
      0100C013H   LINE      CODE     ---       #73
      0100C01AH   LINE      CODE     ---       #75
      0100C01DH   LINE      CODE     ---       #76
      ---         BLOCKEND  ---      ---       LVL=0

      0100C143H   BLOCK     CODE     ---       LVL=0
      0100C143H   LINE      CODE     ---       #93
      0100C143H   LINE      CODE     ---       #94
      0100C143H   LINE      CODE     ---       #95
      0100C148H   LINE      CODE     ---       #96
      ---         BLOCKEND  ---      ---       LVL=0

      0100BF51H   BLOCK     CODE     ---       LVL=0
      0100BF51H   BLOCK     CODE     NEAR LAB  LVL=1
      00000007H   SYMBOL    DATA     BYTE      interruptState
      ---         BLOCKEND  ---      ---       LVL=1
      0100BF51H   LINE      CODE     ---       #135
      0100BF51H   LINE      CODE     ---       #136
      0100BF51H   LINE      CODE     ---       #139
      0100BF54H   LINE      CODE     ---       #140
      0100BF5BH   LINE      CODE     ---       #141
      0100BF5EH   LINE      CODE     ---       #142
      ---         BLOCKEND  ---      ---       LVL=0
      00000007H   SYMBOL    DATA     BYTE      interruptState
      00000007H   SYMBOL    DATA     BYTE      fifoId
      00000005H   SYMBOL    DATA     BYTE      result
LX51 LINKER/LOCATER V4.64.0.0                                                         02/02/2018  18:09:00  PAGE 94



      0100BEF7H   BLOCK     CODE     ---       LVL=0
      00000007H   SYMBOL    DATA     BYTE      interruptSource
      0100BEF7H   LINE      CODE     ---       #261
      0100BEF7H   LINE      CODE     ---       #262
      0100BEF7H   LINE      CODE     ---       #263
      0100BEFEH   LINE      CODE     ---       #264
      0100BF07H   LINE      CODE     ---       #265
      ---         BLOCKEND  ---      ---       LVL=0
      00000004H   SYMBOL    DATA     DWORD     shiftData

      0100C03CH   BLOCK     CODE     ---       LVL=0
      0100C03CH   LINE      CODE     ---       #366
      0100C03CH   LINE      CODE     ---       #367
      0100C03CH   LINE      CODE     ---       #368
      0100C045H   LINE      CODE     ---       #369
      ---         BLOCKEND  ---      ---       LVL=0

      ---         MODULE    ---      ---       SHIFTREG_ENC_3
      02000E65H   PUBLIC    XDATA    BYTE      SHIFTREG_ENC_3_initVar
      0100C046H   PUBLIC    CODE     ---       SHIFTREG_ENC_3_ReadData
      000000CAH   SFRSYM    DATA     BYTE      SFRPRT5SEL
      000000DAH   SFRSYM    DATA     BYTE      SFRPRT6SEL
      000000D0H.6 SFRSYM    DATA     BIT       AC
      000000A8H.7 SFRSYM    DATA     BIT       EA
      000000A8H   SFRSYM    DATA     BYTE      IE
      00000085H   SFRSYM    DATA     BYTE      DPH1
      00000084H   SFRSYM    DATA     BYTE      DPL1
      000000D0H.7 SFRSYM    DATA     BIT       CY
      000000A0H   SFRSYM    DATA     BYTE      P2AX
      00000095H   SFRSYM    DATA     BYTE      DPX1
      00000081H   SFRSYM    DATA     BYTE      SP
      000000D0H.2 SFRSYM    DATA     BIT       OV
      00000080H   SFRSYM    DATA     BYTE      SFRPRT0DR
      00000090H   SFRSYM    DATA     BYTE      SFRPRT1DR
      000000F2H   SFRSYM    DATA     BYTE      SFRPRT12SEL
      00000098H   SFRSYM    DATA     BYTE      SFRPRT2DR
      000000B0H   SFRSYM    DATA     BYTE      SFRPRT3DR
      000000C0H   SFRSYM    DATA     BYTE      SFRPRT4DR
      000000FAH   SFRSYM    DATA     BYTE      SFRPRT15SEL
      000000C8H   SFRSYM    DATA     BYTE      SFRPRT5DR
      000000D8H   SFRSYM    DATA     BYTE      SFRPRT6DR
      00000089H   SFRSYM    DATA     BYTE      SFRPRT0PS
      00000091H   SFRSYM    DATA     BYTE      SFRPRT1PS
      00000099H   SFRSYM    DATA     BYTE      SFRPRT2PS
      000000B1H   SFRSYM    DATA     BYTE      SFRPRT3PS
      000000C1H   SFRSYM    DATA     BYTE      SFRPRT4PS
      000000C9H   SFRSYM    DATA     BYTE      SFRPRT5PS
      000000D9H   SFRSYM    DATA     BYTE      SFRPRT6PS
      000000EAH   SFRSYM    DATA     BYTE      MXAX
      000000F0H   SFRSYM    DATA     BYTE      B
      000000E0H   SFRSYM    DATA     BYTE      ACC
      000000D0H   SFRSYM    DATA     BIT       P
      000000D0H.3 SFRSYM    DATA     BIT       RS0
      000000D0H.4 SFRSYM    DATA     BIT       RS1
      00000083H   SFRSYM    DATA     BYTE      DPH
      000000E8H   SFRSYM    DATA     BYTE      SFRPRT12DR
      00000082H   SFRSYM    DATA     BYTE      DPL
      000000F8H   SFRSYM    DATA     BYTE      SFRPRT15DR
      00000086H   SFRSYM    DATA     BYTE      DPS
      000000E9H   SFRSYM    DATA     BYTE      SFRPRT12PS
      00000093H   SFRSYM    DATA     BYTE      DPX
      000000F9H   SFRSYM    DATA     BYTE      SFRPRT15PS
      000000D0H.5 SFRSYM    DATA     BIT       F0
      000000D0H.1 SFRSYM    DATA     BIT       F1
LX51 LINKER/LOCATER V4.64.0.0                                                         02/02/2018  18:09:00  PAGE 95


      0000008AH   SFRSYM    DATA     BYTE      SFRPRT0SEL
      000000D0H   SFRSYM    DATA     BYTE      PSW
      000000A2H   SFRSYM    DATA     BYTE      SFRPRT1SEL
      0000009AH   SFRSYM    DATA     BYTE      SFRPRT2SEL
      000000B2H   SFRSYM    DATA     BYTE      SFRPRT3SEL
      000000C2H   SFRSYM    DATA     BYTE      SFRPRT4SEL
      00000007H   SYMBOL    DATA     BYTE      interruptState
      00000007H   SYMBOL    DATA     BYTE      interruptState
      00000007H   SYMBOL    DATA     BYTE      fifoId
      00000005H   SYMBOL    DATA     BYTE      result
      00000007H   SYMBOL    DATA     BYTE      interruptSource
      00000004H   SYMBOL    DATA     DWORD     shiftData

      0100C046H   BLOCK     CODE     ---       LVL=0
      0100C046H   LINE      CODE     ---       #366
      0100C046H   LINE      CODE     ---       #367
      0100C046H   LINE      CODE     ---       #368
      0100C04FH   LINE      CODE     ---       #369
      ---         BLOCKEND  ---      ---       LVL=0

      ---         MODULE    ---      ---       EEPROM
      0100A5CDH   PUBLIC    CODE     ---       _EEPROM_Write
      0100C1A1H   PUBLIC    CODE     ---       EEPROM_UpdateTemperature
      0100C19DH   PUBLIC    CODE     ---       EEPROM_Start
      0100C0E6H   PUBLIC    CODE     ---       EEPROM_Enable
      000000CAH   SFRSYM    DATA     BYTE      SFRPRT5SEL
      000000DAH   SFRSYM    DATA     BYTE      SFRPRT6SEL
      000000D0H.6 SFRSYM    DATA     BIT       AC
      000000A8H.7 SFRSYM    DATA     BIT       EA
      000000A8H   SFRSYM    DATA     BYTE      IE
      00000085H   SFRSYM    DATA     BYTE      DPH1
      00000084H   SFRSYM    DATA     BYTE      DPL1
      000000D0H.7 SFRSYM    DATA     BIT       CY
      000000A0H   SFRSYM    DATA     BYTE      P2AX
      00000095H   SFRSYM    DATA     BYTE      DPX1
      00000081H   SFRSYM    DATA     BYTE      SP
      000000D0H.2 SFRSYM    DATA     BIT       OV
      00000080H   SFRSYM    DATA     BYTE      SFRPRT0DR
      00000090H   SFRSYM    DATA     BYTE      SFRPRT1DR
      000000F2H   SFRSYM    DATA     BYTE      SFRPRT12SEL
      00000098H   SFRSYM    DATA     BYTE      SFRPRT2DR
      000000B0H   SFRSYM    DATA     BYTE      SFRPRT3DR
      000000C0H   SFRSYM    DATA     BYTE      SFRPRT4DR
      000000FAH   SFRSYM    DATA     BYTE      SFRPRT15SEL
      000000C8H   SFRSYM    DATA     BYTE      SFRPRT5DR
      000000D8H   SFRSYM    DATA     BYTE      SFRPRT6DR
      00000089H   SFRSYM    DATA     BYTE      SFRPRT0PS
      00000091H   SFRSYM    DATA     BYTE      SFRPRT1PS
      00000099H   SFRSYM    DATA     BYTE      SFRPRT2PS
      000000B1H   SFRSYM    DATA     BYTE      SFRPRT3PS
      000000C1H   SFRSYM    DATA     BYTE      SFRPRT4PS
      000000C9H   SFRSYM    DATA     BYTE      SFRPRT5PS
      000000D9H   SFRSYM    DATA     BYTE      SFRPRT6PS
      000000EAH   SFRSYM    DATA     BYTE      MXAX
      000000F0H   SFRSYM    DATA     BYTE      B
      000000E0H   SFRSYM    DATA     BYTE      ACC
      000000D0H   SFRSYM    DATA     BIT       P
      000000D0H.3 SFRSYM    DATA     BIT       RS0
      000000D0H.4 SFRSYM    DATA     BIT       RS1
      00000083H   SFRSYM    DATA     BYTE      DPH
      000000E8H   SFRSYM    DATA     BYTE      SFRPRT12DR
      00000082H   SFRSYM    DATA     BYTE      DPL
      000000F8H   SFRSYM    DATA     BYTE      SFRPRT15DR
      00000086H   SFRSYM    DATA     BYTE      DPS
      000000E9H   SFRSYM    DATA     BYTE      SFRPRT12PS
LX51 LINKER/LOCATER V4.64.0.0                                                         02/02/2018  18:09:00  PAGE 96


      00000093H   SFRSYM    DATA     BYTE      DPX
      000000F9H   SFRSYM    DATA     BYTE      SFRPRT15PS
      000000D0H.5 SFRSYM    DATA     BIT       F0
      000000D0H.1 SFRSYM    DATA     BIT       F1
      0000008AH   SFRSYM    DATA     BYTE      SFRPRT0SEL
      000000D0H   SFRSYM    DATA     BYTE      PSW
      000000A2H   SFRSYM    DATA     BYTE      SFRPRT1SEL
      0000009AH   SFRSYM    DATA     BYTE      SFRPRT2SEL
      000000B2H   SFRSYM    DATA     BYTE      SFRPRT3SEL
      000000C2H   SFRSYM    DATA     BYTE      SFRPRT4SEL

      0100C0E6H   BLOCK     CODE     ---       LVL=0
      0100C0E6H   LINE      CODE     ---       #33
      0100C0E6H   LINE      CODE     ---       #34
      0100C0E6H   LINE      CODE     ---       #36
      0100C0E9H   LINE      CODE     ---       #39
      0100C0ECH   LINE      CODE     ---       #40
      ---         BLOCKEND  ---      ---       LVL=0

      0100C19DH   BLOCK     CODE     ---       LVL=0
      0100C19DH   LINE      CODE     ---       #57
      0100C19DH   LINE      CODE     ---       #58
      0100C19DH   LINE      CODE     ---       #59
      0100C1A0H   LINE      CODE     ---       #60
      ---         BLOCKEND  ---      ---       LVL=0

      0100C1A1H   BLOCK     CODE     ---       LVL=0
      0100C1A1H   LINE      CODE     ---       #247
      0100C1A1H   LINE      CODE     ---       #248
      0100C1A1H   LINE      CODE     ---       #249
      0100C1A4H   LINE      CODE     ---       #250
      ---         BLOCKEND  ---      ---       LVL=0

      0100A5CDH   BLOCK     CODE     ---       LVL=0
      02000032H   SYMBOL    XDATA    ---       rowData
      02000035H   SYMBOL    XDATA    BYTE      rowNumber
      0100A5DBH   BLOCK     CODE     NEAR LAB  LVL=1
      02000036H   SYMBOL    XDATA    BYTE      status
      ---         BLOCKEND  ---      ---       LVL=1
      0100A5CDH   LINE      CODE     ---       #345
      0100A5DBH   LINE      CODE     ---       #346
      0100A5DBH   LINE      CODE     ---       #349
      0100A5DEH   LINE      CODE     ---       #351
      0100A5EAH   LINE      CODE     ---       #352
      0100A5EAH   LINE      CODE     ---       #354
      0100A5F3H   LINE      CODE     ---       #355
      0100A5F3H   LINE      CODE     ---       #357
      0100A5F9H   LINE      CODE     ---       #360
      0100A617H   LINE      CODE     ---       #361
      0100A617H   LINE      CODE     ---       #362
      0100A61FH   LINE      CODE     ---       #363
      0100A61FH   LINE      CODE     ---       #365
      0100A61FH   LINE      CODE     ---       #368
      0100A635H   LINE      CODE     ---       #369
      0100A635H   LINE      CODE     ---       #370
      0100A639H   LINE      CODE     ---       #371
      0100A639H   LINE      CODE     ---       #374
      0100A63FH   LINE      CODE     ---       #375
      0100A63FH   LINE      CODE     ---       #376
      0100A65BH   LINE      CODE     ---       #378
      0100A65BH   LINE      CODE     ---       #380
      0100A661H   LINE      CODE     ---       #382
      0100A669H   LINE      CODE     ---       #383
      0100A669H   LINE      CODE     ---       #385
      0100A669H   LINE      CODE     ---       #388
LX51 LINKER/LOCATER V4.64.0.0                                                         02/02/2018  18:09:00  PAGE 97


      0100A67FH   LINE      CODE     ---       #389
      0100A67FH   LINE      CODE     ---       #390
      0100A683H   LINE      CODE     ---       #391
      0100A683H   LINE      CODE     ---       #392
      0100A685H   LINE      CODE     ---       #394
      0100A685H   LINE      CODE     ---       #395
      0100A68BH   LINE      CODE     ---       #396
      0100A68BH   LINE      CODE     ---       #397
      0100A68DH   LINE      CODE     ---       #399
      0100A68DH   LINE      CODE     ---       #400
      0100A693H   LINE      CODE     ---       #401
      0100A693H   LINE      CODE     ---       #402
      0100A693H   LINE      CODE     ---       #405
      0100A696H   LINE      CODE     ---       #406
      0100A698H   LINE      CODE     ---       #408
      0100A698H   LINE      CODE     ---       #409
      0100A69EH   LINE      CODE     ---       #410
      0100A69EH   LINE      CODE     ---       #411
      0100A6A0H   LINE      CODE     ---       #413
      0100A6A0H   LINE      CODE     ---       #414
      0100A6A6H   LINE      CODE     ---       #415
      0100A6A6H   LINE      CODE     ---       #417
      0100A6ABH   LINE      CODE     ---       #418
      ---         BLOCKEND  ---      ---       LVL=0

      ---         MODULE    ---      ---       SHIFTREG_ENC_4
      02000E66H   PUBLIC    XDATA    BYTE      SHIFTREG_ENC_4_initVar
      0100C050H   PUBLIC    CODE     ---       SHIFTREG_ENC_4_ReadData
      000000CAH   SFRSYM    DATA     BYTE      SFRPRT5SEL
      000000DAH   SFRSYM    DATA     BYTE      SFRPRT6SEL
      000000D0H.6 SFRSYM    DATA     BIT       AC
      000000A8H.7 SFRSYM    DATA     BIT       EA
      000000A8H   SFRSYM    DATA     BYTE      IE
      00000085H   SFRSYM    DATA     BYTE      DPH1
      00000084H   SFRSYM    DATA     BYTE      DPL1
      000000D0H.7 SFRSYM    DATA     BIT       CY
      000000A0H   SFRSYM    DATA     BYTE      P2AX
      00000095H   SFRSYM    DATA     BYTE      DPX1
      00000081H   SFRSYM    DATA     BYTE      SP
      000000D0H.2 SFRSYM    DATA     BIT       OV
      00000080H   SFRSYM    DATA     BYTE      SFRPRT0DR
      00000090H   SFRSYM    DATA     BYTE      SFRPRT1DR
      000000F2H   SFRSYM    DATA     BYTE      SFRPRT12SEL
      00000098H   SFRSYM    DATA     BYTE      SFRPRT2DR
      000000B0H   SFRSYM    DATA     BYTE      SFRPRT3DR
      000000C0H   SFRSYM    DATA     BYTE      SFRPRT4DR
      000000FAH   SFRSYM    DATA     BYTE      SFRPRT15SEL
      000000C8H   SFRSYM    DATA     BYTE      SFRPRT5DR
      000000D8H   SFRSYM    DATA     BYTE      SFRPRT6DR
      00000089H   SFRSYM    DATA     BYTE      SFRPRT0PS
      00000091H   SFRSYM    DATA     BYTE      SFRPRT1PS
      00000099H   SFRSYM    DATA     BYTE      SFRPRT2PS
      000000B1H   SFRSYM    DATA     BYTE      SFRPRT3PS
      000000C1H   SFRSYM    DATA     BYTE      SFRPRT4PS
      000000C9H   SFRSYM    DATA     BYTE      SFRPRT5PS
      000000D9H   SFRSYM    DATA     BYTE      SFRPRT6PS
      000000EAH   SFRSYM    DATA     BYTE      MXAX
      000000F0H   SFRSYM    DATA     BYTE      B
      000000E0H   SFRSYM    DATA     BYTE      ACC
      000000D0H   SFRSYM    DATA     BIT       P
      000000D0H.3 SFRSYM    DATA     BIT       RS0
      000000D0H.4 SFRSYM    DATA     BIT       RS1
      00000083H   SFRSYM    DATA     BYTE      DPH
      000000E8H   SFRSYM    DATA     BYTE      SFRPRT12DR
      00000082H   SFRSYM    DATA     BYTE      DPL
LX51 LINKER/LOCATER V4.64.0.0                                                         02/02/2018  18:09:00  PAGE 98


      000000F8H   SFRSYM    DATA     BYTE      SFRPRT15DR
      00000086H   SFRSYM    DATA     BYTE      DPS
      000000E9H   SFRSYM    DATA     BYTE      SFRPRT12PS
      00000093H   SFRSYM    DATA     BYTE      DPX
      000000F9H   SFRSYM    DATA     BYTE      SFRPRT15PS
      000000D0H.5 SFRSYM    DATA     BIT       F0
      000000D0H.1 SFRSYM    DATA     BIT       F1
      0000008AH   SFRSYM    DATA     BYTE      SFRPRT0SEL
      000000D0H   SFRSYM    DATA     BYTE      PSW
      000000A2H   SFRSYM    DATA     BYTE      SFRPRT1SEL
      0000009AH   SFRSYM    DATA     BYTE      SFRPRT2SEL
      000000B2H   SFRSYM    DATA     BYTE      SFRPRT3SEL
      000000C2H   SFRSYM    DATA     BYTE      SFRPRT4SEL
      00000007H   SYMBOL    DATA     BYTE      interruptState
      00000007H   SYMBOL    DATA     BYTE      interruptState
      00000007H   SYMBOL    DATA     BYTE      fifoId
      00000005H   SYMBOL    DATA     BYTE      result
      00000007H   SYMBOL    DATA     BYTE      interruptSource
      00000004H   SYMBOL    DATA     DWORD     shiftData

      0100C050H   BLOCK     CODE     ---       LVL=0
      0100C050H   LINE      CODE     ---       #366
      0100C050H   LINE      CODE     ---       #367
      0100C050H   LINE      CODE     ---       #368
      0100C059H   LINE      CODE     ---       #369
      ---         BLOCKEND  ---      ---       LVL=0

      ---         MODULE    ---      ---       RS485_CTS
      0100C149H   PUBLIC    CODE     ---       _RS485_CTS_Write

      0100C149H   BLOCK     CODE     ---       LVL=0
      00000007H   SYMBOL    DATA     BYTE      control
      0100C149H   LINE      CODE     ---       #37
      0100C149H   LINE      CODE     ---       #38
      0100C149H   LINE      CODE     ---       #39
      0100C14EH   LINE      CODE     ---       #40
      ---         BLOCKEND  ---      ---       LVL=0

      ---         MODULE    ---      ---       MOTOR_ON_OFF
      0100C14FH   PUBLIC    CODE     ---       _MOTOR_ON_OFF_Write

      0100C14FH   BLOCK     CODE     ---       LVL=0
      00000007H   SYMBOL    DATA     BYTE      control
      0100C14FH   LINE      CODE     ---       #37
      0100C14FH   LINE      CODE     ---       #38
      0100C14FH   LINE      CODE     ---       #39
      0100C154H   LINE      CODE     ---       #40
      ---         BLOCKEND  ---      ---       LVL=0

      ---         MODULE    ---      ---       BOOTLOADABLE
      0100C05AH   PUBLIC    CODE     ---       Bootloadable_Load
      000000CAH   SFRSYM    DATA     BYTE      SFRPRT5SEL
      000000DAH   SFRSYM    DATA     BYTE      SFRPRT6SEL
      000000D0H.6 SFRSYM    DATA     BIT       AC
      000000A8H.7 SFRSYM    DATA     BIT       EA
      000000A8H   SFRSYM    DATA     BYTE      IE
      00000085H   SFRSYM    DATA     BYTE      DPH1
      00000084H   SFRSYM    DATA     BYTE      DPL1
      000000D0H.7 SFRSYM    DATA     BIT       CY
      000000A0H   SFRSYM    DATA     BYTE      P2AX
      00000095H   SFRSYM    DATA     BYTE      DPX1
      00000081H   SFRSYM    DATA     BYTE      SP
      000000D0H.2 SFRSYM    DATA     BIT       OV
      00000080H   SFRSYM    DATA     BYTE      SFRPRT0DR
      00000090H   SFRSYM    DATA     BYTE      SFRPRT1DR
LX51 LINKER/LOCATER V4.64.0.0                                                         02/02/2018  18:09:00  PAGE 99


      000000F2H   SFRSYM    DATA     BYTE      SFRPRT12SEL
      00000098H   SFRSYM    DATA     BYTE      SFRPRT2DR
      000000B0H   SFRSYM    DATA     BYTE      SFRPRT3DR
      000000C0H   SFRSYM    DATA     BYTE      SFRPRT4DR
      000000FAH   SFRSYM    DATA     BYTE      SFRPRT15SEL
      000000C8H   SFRSYM    DATA     BYTE      SFRPRT5DR
      000000D8H   SFRSYM    DATA     BYTE      SFRPRT6DR
      00000089H   SFRSYM    DATA     BYTE      SFRPRT0PS
      00000091H   SFRSYM    DATA     BYTE      SFRPRT1PS
      00000099H   SFRSYM    DATA     BYTE      SFRPRT2PS
      000000B1H   SFRSYM    DATA     BYTE      SFRPRT3PS
      000000C1H   SFRSYM    DATA     BYTE      SFRPRT4PS
      000000C9H   SFRSYM    DATA     BYTE      SFRPRT5PS
      000000D9H   SFRSYM    DATA     BYTE      SFRPRT6PS
      000000EAH   SFRSYM    DATA     BYTE      MXAX
      000000F0H   SFRSYM    DATA     BYTE      B
      000000E0H   SFRSYM    DATA     BYTE      ACC
      000000D0H   SFRSYM    DATA     BIT       P
      000000D0H.3 SFRSYM    DATA     BIT       RS0
      000000D0H.4 SFRSYM    DATA     BIT       RS1
      00000083H   SFRSYM    DATA     BYTE      DPH
      000000E8H   SFRSYM    DATA     BYTE      SFRPRT12DR
      00000082H   SFRSYM    DATA     BYTE      DPL
      000000F8H   SFRSYM    DATA     BYTE      SFRPRT15DR
      00000086H   SFRSYM    DATA     BYTE      DPS
      000000E9H   SFRSYM    DATA     BYTE      SFRPRT12PS
      00000093H   SFRSYM    DATA     BYTE      DPX
      000000F9H   SFRSYM    DATA     BYTE      SFRPRT15PS
      000000D0H.5 SFRSYM    DATA     BIT       F0
      000000D0H.1 SFRSYM    DATA     BIT       F1
      0000008AH   SFRSYM    DATA     BYTE      SFRPRT0SEL
      000000D0H   SFRSYM    DATA     BYTE      PSW
      000000A2H   SFRSYM    DATA     BYTE      SFRPRT1SEL
      0000009AH   SFRSYM    DATA     BYTE      SFRPRT2SEL
      000000B2H   SFRSYM    DATA     BYTE      SFRPRT3SEL
      000000C2H   SFRSYM    DATA     BYTE      SFRPRT4SEL

      0100C05AH   BLOCK     CODE     ---       LVL=0
      0100C05AH   LINE      CODE     ---       #41
      0100C05AH   LINE      CODE     ---       #42
      0100C05AH   LINE      CODE     ---       #44
      0100C060H   LINE      CODE     ---       #46
      0100C063H   LINE      CODE     ---       #47
      ---         BLOCKEND  ---      ---       LVL=0
      00000002H   SYMBOL    DATA     WORD      idx

      ---         MODULE    ---      ---       MY_TIMER
      02000E67H   PUBLIC    XDATA    BYTE      MY_TIMER_initVar
      0100BFB1H   PUBLIC    CODE     ---       MY_TIMER_ClearFIFO
      0100BF08H   PUBLIC    CODE     ---       MY_TIMER_ReadCounter
      0100C078H   PUBLIC    CODE     ---       _MY_TIMER_WriteCounter
      0100C06EH   PUBLIC    CODE     ---       MY_TIMER_ReadCapture
      0100C064H   PUBLIC    CODE     ---       _MY_TIMER_WritePeriod
      0100C15BH   PUBLIC    CODE     ---       MY_TIMER_ReadStatusRegister
      0100C155H   PUBLIC    CODE     ---       _MY_TIMER_SetInterruptMode
      0100BE76H   PUBLIC    CODE     ---       MY_TIMER_Start
      0100C0B8H   PUBLIC    CODE     ---       MY_TIMER_Enable
      0100BAF9H   PUBLIC    CODE     ---       MY_TIMER_Init
      000000CAH   SFRSYM    DATA     BYTE      SFRPRT5SEL
      000000DAH   SFRSYM    DATA     BYTE      SFRPRT6SEL
      000000D0H.6 SFRSYM    DATA     BIT       AC
      000000A8H.7 SFRSYM    DATA     BIT       EA
      000000A8H   SFRSYM    DATA     BYTE      IE
      00000085H   SFRSYM    DATA     BYTE      DPH1
      00000084H   SFRSYM    DATA     BYTE      DPL1
LX51 LINKER/LOCATER V4.64.0.0                                                         02/02/2018  18:09:00  PAGE 100


      000000D0H.7 SFRSYM    DATA     BIT       CY
      000000A0H   SFRSYM    DATA     BYTE      P2AX
      00000095H   SFRSYM    DATA     BYTE      DPX1
      00000081H   SFRSYM    DATA     BYTE      SP
      000000D0H.2 SFRSYM    DATA     BIT       OV
      00000080H   SFRSYM    DATA     BYTE      SFRPRT0DR
      00000090H   SFRSYM    DATA     BYTE      SFRPRT1DR
      000000F2H   SFRSYM    DATA     BYTE      SFRPRT12SEL
      00000098H   SFRSYM    DATA     BYTE      SFRPRT2DR
      000000B0H   SFRSYM    DATA     BYTE      SFRPRT3DR
      000000C0H   SFRSYM    DATA     BYTE      SFRPRT4DR
      000000FAH   SFRSYM    DATA     BYTE      SFRPRT15SEL
      000000C8H   SFRSYM    DATA     BYTE      SFRPRT5DR
      000000D8H   SFRSYM    DATA     BYTE      SFRPRT6DR
      00000089H   SFRSYM    DATA     BYTE      SFRPRT0PS
      00000091H   SFRSYM    DATA     BYTE      SFRPRT1PS
      00000099H   SFRSYM    DATA     BYTE      SFRPRT2PS
      000000B1H   SFRSYM    DATA     BYTE      SFRPRT3PS
      000000C1H   SFRSYM    DATA     BYTE      SFRPRT4PS
      000000C9H   SFRSYM    DATA     BYTE      SFRPRT5PS
      000000D9H   SFRSYM    DATA     BYTE      SFRPRT6PS
      000000EAH   SFRSYM    DATA     BYTE      MXAX
      000000F0H   SFRSYM    DATA     BYTE      B
      000000E0H   SFRSYM    DATA     BYTE      ACC
      000000D0H   SFRSYM    DATA     BIT       P
      000000D0H.3 SFRSYM    DATA     BIT       RS0
      000000D0H.4 SFRSYM    DATA     BIT       RS1
      00000083H   SFRSYM    DATA     BYTE      DPH
      000000E8H   SFRSYM    DATA     BYTE      SFRPRT12DR
      00000082H   SFRSYM    DATA     BYTE      DPL
      000000F8H   SFRSYM    DATA     BYTE      SFRPRT15DR
      00000086H   SFRSYM    DATA     BYTE      DPS
      000000E9H   SFRSYM    DATA     BYTE      SFRPRT12PS
      00000093H   SFRSYM    DATA     BYTE      DPX
      000000F9H   SFRSYM    DATA     BYTE      SFRPRT15PS
      000000D0H.5 SFRSYM    DATA     BIT       F0
      000000D0H.1 SFRSYM    DATA     BIT       F1
      0000008AH   SFRSYM    DATA     BYTE      SFRPRT0SEL
      000000D0H   SFRSYM    DATA     BYTE      PSW
      000000A2H   SFRSYM    DATA     BYTE      SFRPRT1SEL
      0000009AH   SFRSYM    DATA     BYTE      SFRPRT2SEL
      000000B2H   SFRSYM    DATA     BYTE      SFRPRT3SEL
      000000C2H   SFRSYM    DATA     BYTE      SFRPRT4SEL

      0100BAF9H   BLOCK     CODE     ---       LVL=0
      0100BAF9H   BLOCK     CODE     NEAR LAB  LVL=1
      00000007H   SYMBOL    DATA     BYTE      MY_TIMER_interruptState
      ---         BLOCKEND  ---      ---       LVL=1
      0100BAF9H   LINE      CODE     ---       #43
      0100BAF9H   LINE      CODE     ---       #44
      0100BAF9H   LINE      CODE     ---       #118
      0100BB04H   LINE      CODE     ---       #119
      0100BB0FH   LINE      CODE     ---       #142
      0100BB12H   LINE      CODE     ---       #145
      0100BB19H   LINE      CODE     ---       #148
      0100BB1CH   LINE      CODE     ---       #159
      0100BB1FH   LINE      CODE     ---       #162
      0100BB24H   LINE      CODE     ---       #163
      ---         BLOCKEND  ---      ---       LVL=0

      0100C0B8H   BLOCK     CODE     ---       LVL=0
      0100C0B8H   LINE      CODE     ---       #180
      0100C0B8H   LINE      CODE     ---       #181
      0100C0B8H   LINE      CODE     ---       #190
      0100C0BFH   LINE      CODE     ---       #192
LX51 LINKER/LOCATER V4.64.0.0                                                         02/02/2018  18:09:00  PAGE 101


      ---         BLOCKEND  ---      ---       LVL=0

      0100BE76H   BLOCK     CODE     ---       LVL=0
      0100BE76H   LINE      CODE     ---       #215
      0100BE76H   LINE      CODE     ---       #216
      0100BE76H   LINE      CODE     ---       #217
      0100BE7CH   LINE      CODE     ---       #218
      0100BE7CH   LINE      CODE     ---       #219
      0100BE7FH   LINE      CODE     ---       #221
      0100BE85H   LINE      CODE     ---       #222
      0100BE85H   LINE      CODE     ---       #225
      0100BE88H   LINE      CODE     ---       #226
      ---         BLOCKEND  ---      ---       LVL=0

      0100C155H   BLOCK     CODE     ---       LVL=0
      00000007H   SYMBOL    DATA     BYTE      interruptMode
      0100C155H   LINE      CODE     ---       #279
      0100C155H   LINE      CODE     ---       #280
      0100C155H   LINE      CODE     ---       #281
      0100C15AH   LINE      CODE     ---       #282
      ---         BLOCKEND  ---      ---       LVL=0

      0100C15BH   BLOCK     CODE     ---       LVL=0
      0100C15BH   LINE      CODE     ---       #333
      0100C15BH   LINE      CODE     ---       #334
      0100C15BH   LINE      CODE     ---       #335
      0100C160H   LINE      CODE     ---       #336
      ---         BLOCKEND  ---      ---       LVL=0
      00000007H   SYMBOL    DATA     BYTE      control

      0100C064H   BLOCK     CODE     ---       LVL=0
      00000004H   SYMBOL    DATA     DWORD     period
      0100C064H   LINE      CODE     ---       #431
      0100C064H   LINE      CODE     ---       #432
      0100C064H   LINE      CODE     ---       #437
      0100C06DH   LINE      CODE     ---       #439
      ---         BLOCKEND  ---      ---       LVL=0

      0100C06EH   BLOCK     CODE     ---       LVL=0
      0100C06EH   LINE      CODE     ---       #456
      0100C06EH   LINE      CODE     ---       #457
      0100C06EH   LINE      CODE     ---       #461
      0100C077H   LINE      CODE     ---       #463
      ---         BLOCKEND  ---      ---       LVL=0

      0100C078H   BLOCK     CODE     ---       LVL=0
      00000004H   SYMBOL    DATA     DWORD     counter
      0100C078H   LINE      CODE     ---       #480
      0100C078H   LINE      CODE     ---       #481
      0100C078H   LINE      CODE     ---       #489
      0100C081H   LINE      CODE     ---       #491
      ---         BLOCKEND  ---      ---       LVL=0

      0100BF08H   BLOCK     CODE     ---       LVL=0
      0100BF08H   LINE      CODE     ---       #508
      0100BF08H   LINE      CODE     ---       #509
      0100BF08H   LINE      CODE     ---       #516
      0100BF0DH   LINE      CODE     ---       #523
      0100BF16H   LINE      CODE     ---       #525
      ---         BLOCKEND  ---      ---       LVL=0

      0100BFB1H   BLOCK     CODE     ---       LVL=0
      0100BFB1H   LINE      CODE     ---       #763
      0100BFB1H   LINE      CODE     ---       #764
      0100BFB1H   LINE      CODE     ---       #765
LX51 LINKER/LOCATER V4.64.0.0                                                         02/02/2018  18:09:00  PAGE 102


      0100BFB8H   LINE      CODE     ---       #766
      0100BFB8H   LINE      CODE     ---       #767
      0100BFBBH   LINE      CODE     ---       #768
      0100BFBDH   LINE      CODE     ---       #769
      ---         BLOCKEND  ---      ---       LVL=0

      ---         MODULE    ---      ---       FTDI_ENABLE_REG
      0100C161H   PUBLIC    CODE     ---       _FTDI_ENABLE_REG_Write

      0100C161H   BLOCK     CODE     ---       LVL=0
      00000007H   SYMBOL    DATA     BYTE      control
      0100C161H   LINE      CODE     ---       #37
      0100C161H   LINE      CODE     ---       #38
      0100C161H   LINE      CODE     ---       #39
      0100C166H   LINE      CODE     ---       #40
      ---         BLOCKEND  ---      ---       LVL=0

      ---         MODULE    ---      ---       PACER_TIMER
      02000E68H   PUBLIC    XDATA    BYTE      PACER_TIMER_initVar
      0100BF6DH   PUBLIC    CODE     ---       _PACER_TIMER_WriteCounter
      0100BF5FH   PUBLIC    CODE     ---       _PACER_TIMER_WritePeriod
      0100C167H   PUBLIC    CODE     ---       _PACER_TIMER_SetInterruptMode
      0100BE89H   PUBLIC    CODE     ---       PACER_TIMER_Start
      0100BD98H   PUBLIC    CODE     ---       PACER_TIMER_Enable
      0100B76BH   PUBLIC    CODE     ---       PACER_TIMER_Init
      000000CAH   SFRSYM    DATA     BYTE      SFRPRT5SEL
      000000DAH   SFRSYM    DATA     BYTE      SFRPRT6SEL
      000000D0H.6 SFRSYM    DATA     BIT       AC
      000000A8H.7 SFRSYM    DATA     BIT       EA
      000000A8H   SFRSYM    DATA     BYTE      IE
      00000085H   SFRSYM    DATA     BYTE      DPH1
      00000084H   SFRSYM    DATA     BYTE      DPL1
      000000D0H.7 SFRSYM    DATA     BIT       CY
      000000A0H   SFRSYM    DATA     BYTE      P2AX
      00000095H   SFRSYM    DATA     BYTE      DPX1
      00000081H   SFRSYM    DATA     BYTE      SP
      000000D0H.2 SFRSYM    DATA     BIT       OV
      00000080H   SFRSYM    DATA     BYTE      SFRPRT0DR
      00000090H   SFRSYM    DATA     BYTE      SFRPRT1DR
      000000F2H   SFRSYM    DATA     BYTE      SFRPRT12SEL
      00000098H   SFRSYM    DATA     BYTE      SFRPRT2DR
      000000B0H   SFRSYM    DATA     BYTE      SFRPRT3DR
      000000C0H   SFRSYM    DATA     BYTE      SFRPRT4DR
      000000FAH   SFRSYM    DATA     BYTE      SFRPRT15SEL
      000000C8H   SFRSYM    DATA     BYTE      SFRPRT5DR
      000000D8H   SFRSYM    DATA     BYTE      SFRPRT6DR
      00000089H   SFRSYM    DATA     BYTE      SFRPRT0PS
      00000091H   SFRSYM    DATA     BYTE      SFRPRT1PS
      00000099H   SFRSYM    DATA     BYTE      SFRPRT2PS
      000000B1H   SFRSYM    DATA     BYTE      SFRPRT3PS
      000000C1H   SFRSYM    DATA     BYTE      SFRPRT4PS
      000000C9H   SFRSYM    DATA     BYTE      SFRPRT5PS
      000000D9H   SFRSYM    DATA     BYTE      SFRPRT6PS
      000000EAH   SFRSYM    DATA     BYTE      MXAX
      000000F0H   SFRSYM    DATA     BYTE      B
      000000E0H   SFRSYM    DATA     BYTE      ACC
      000000D0H   SFRSYM    DATA     BIT       P
      000000D0H.3 SFRSYM    DATA     BIT       RS0
      000000D0H.4 SFRSYM    DATA     BIT       RS1
      00000083H   SFRSYM    DATA     BYTE      DPH
      000000E8H   SFRSYM    DATA     BYTE      SFRPRT12DR
      00000082H   SFRSYM    DATA     BYTE      DPL
      000000F8H   SFRSYM    DATA     BYTE      SFRPRT15DR
      00000086H   SFRSYM    DATA     BYTE      DPS
      000000E9H   SFRSYM    DATA     BYTE      SFRPRT12PS
LX51 LINKER/LOCATER V4.64.0.0                                                         02/02/2018  18:09:00  PAGE 103


      00000093H   SFRSYM    DATA     BYTE      DPX
      000000F9H   SFRSYM    DATA     BYTE      SFRPRT15PS
      000000D0H.5 SFRSYM    DATA     BIT       F0
      000000D0H.1 SFRSYM    DATA     BIT       F1
      0000008AH   SFRSYM    DATA     BYTE      SFRPRT0SEL
      000000D0H   SFRSYM    DATA     BYTE      PSW
      000000A2H   SFRSYM    DATA     BYTE      SFRPRT1SEL
      0000009AH   SFRSYM    DATA     BYTE      SFRPRT2SEL
      000000B2H   SFRSYM    DATA     BYTE      SFRPRT3SEL
      000000C2H   SFRSYM    DATA     BYTE      SFRPRT4SEL

      0100B76BH   BLOCK     CODE     ---       LVL=0
      0100B76BH   LINE      CODE     ---       #43
      0100B76BH   LINE      CODE     ---       #44
      0100B76BH   LINE      CODE     ---       #52
      0100B772H   LINE      CODE     ---       #60
      0100B779H   LINE      CODE     ---       #106
      0100B780H   LINE      CODE     ---       #107
      0100B784H   LINE      CODE     ---       #110
      0100B788H   LINE      CODE     ---       #111
      0100B78CH   LINE      CODE     ---       #114
      0100B793H   LINE      CODE     ---       #118
      0100B79AH   LINE      CODE     ---       #119
      0100B7A1H   LINE      CODE     ---       #162
      0100B7A6H   LINE      CODE     ---       #163
      ---         BLOCKEND  ---      ---       LVL=0

      0100BD98H   BLOCK     CODE     ---       LVL=0
      0100BD98H   LINE      CODE     ---       #180
      0100BD98H   LINE      CODE     ---       #181
      0100BD98H   LINE      CODE     ---       #184
      0100BD9FH   LINE      CODE     ---       #185
      0100BDA6H   LINE      CODE     ---       #190
      0100BDADH   LINE      CODE     ---       #192
      ---         BLOCKEND  ---      ---       LVL=0

      0100BE89H   BLOCK     CODE     ---       LVL=0
      0100BE89H   LINE      CODE     ---       #215
      0100BE89H   LINE      CODE     ---       #216
      0100BE89H   LINE      CODE     ---       #217
      0100BE8FH   LINE      CODE     ---       #218
      0100BE8FH   LINE      CODE     ---       #219
      0100BE92H   LINE      CODE     ---       #221
      0100BE98H   LINE      CODE     ---       #222
      0100BE98H   LINE      CODE     ---       #225
      0100BE9BH   LINE      CODE     ---       #226
      ---         BLOCKEND  ---      ---       LVL=0

      0100C167H   BLOCK     CODE     ---       LVL=0
      00000007H   SYMBOL    DATA     BYTE      interruptMode
      0100C167H   LINE      CODE     ---       #279
      0100C167H   LINE      CODE     ---       #280
      0100C167H   LINE      CODE     ---       #281
      0100C16CH   LINE      CODE     ---       #282
      ---         BLOCKEND  ---      ---       LVL=0
      00000007H   SYMBOL    DATA     BYTE      control

      0100BF5FH   BLOCK     CODE     ---       LVL=0
      00000006H   SYMBOL    DATA     WORD      period
      0100BF5FH   BLOCK     CODE     NEAR LAB  LVL=1
      00000006H   SYMBOL    DATA     WORD      period_temp
      ---         BLOCKEND  ---      ---       LVL=1
      0100BF5FH   LINE      CODE     ---       #431
      0100BF5FH   LINE      CODE     ---       #432
      0100BF5FH   LINE      CODE     ---       #434
LX51 LINKER/LOCATER V4.64.0.0                                                         02/02/2018  18:09:00  PAGE 104


      0100BF5FH   LINE      CODE     ---       #435
      0100BF6CH   LINE      CODE     ---       #439
      ---         BLOCKEND  ---      ---       LVL=0

      0100BF6DH   BLOCK     CODE     ---       LVL=0
      00000006H   SYMBOL    DATA     WORD      counter
      0100BF6DH   LINE      CODE     ---       #480
      0100BF6DH   LINE      CODE     ---       #481
      0100BF6DH   LINE      CODE     ---       #486
      0100BF7AH   LINE      CODE     ---       #491
      ---         BLOCKEND  ---      ---       LVL=0

      ---         MODULE    ---      ---       FF_STATUS
      0100C16DH   PUBLIC    CODE     ---       FF_STATUS_Read
      000000CAH   SFRSYM    DATA     BYTE      SFRPRT5SEL
      000000DAH   SFRSYM    DATA     BYTE      SFRPRT6SEL
      000000D0H.6 SFRSYM    DATA     BIT       AC
      000000A8H.7 SFRSYM    DATA     BIT       EA
      000000A8H   SFRSYM    DATA     BYTE      IE
      00000085H   SFRSYM    DATA     BYTE      DPH1
      00000084H   SFRSYM    DATA     BYTE      DPL1
      000000D0H.7 SFRSYM    DATA     BIT       CY
      000000A0H   SFRSYM    DATA     BYTE      P2AX
      00000095H   SFRSYM    DATA     BYTE      DPX1
      00000081H   SFRSYM    DATA     BYTE      SP
      000000D0H.2 SFRSYM    DATA     BIT       OV
      00000080H   SFRSYM    DATA     BYTE      SFRPRT0DR
      00000090H   SFRSYM    DATA     BYTE      SFRPRT1DR
      000000F2H   SFRSYM    DATA     BYTE      SFRPRT12SEL
      00000098H   SFRSYM    DATA     BYTE      SFRPRT2DR
      000000B0H   SFRSYM    DATA     BYTE      SFRPRT3DR
      000000C0H   SFRSYM    DATA     BYTE      SFRPRT4DR
      000000FAH   SFRSYM    DATA     BYTE      SFRPRT15SEL
      000000C8H   SFRSYM    DATA     BYTE      SFRPRT5DR
      000000D8H   SFRSYM    DATA     BYTE      SFRPRT6DR
      00000089H   SFRSYM    DATA     BYTE      SFRPRT0PS
      00000091H   SFRSYM    DATA     BYTE      SFRPRT1PS
      00000099H   SFRSYM    DATA     BYTE      SFRPRT2PS
      000000B1H   SFRSYM    DATA     BYTE      SFRPRT3PS
      000000C1H   SFRSYM    DATA     BYTE      SFRPRT4PS
      000000C9H   SFRSYM    DATA     BYTE      SFRPRT5PS
      000000D9H   SFRSYM    DATA     BYTE      SFRPRT6PS
      000000EAH   SFRSYM    DATA     BYTE      MXAX
      000000F0H   SFRSYM    DATA     BYTE      B
      000000E0H   SFRSYM    DATA     BYTE      ACC
      000000D0H   SFRSYM    DATA     BIT       P
      000000D0H.3 SFRSYM    DATA     BIT       RS0
      000000D0H.4 SFRSYM    DATA     BIT       RS1
      00000083H   SFRSYM    DATA     BYTE      DPH
      000000E8H   SFRSYM    DATA     BYTE      SFRPRT12DR
      00000082H   SFRSYM    DATA     BYTE      DPL
      000000F8H   SFRSYM    DATA     BYTE      SFRPRT15DR
      00000086H   SFRSYM    DATA     BYTE      DPS
      000000E9H   SFRSYM    DATA     BYTE      SFRPRT12PS
      00000093H   SFRSYM    DATA     BYTE      DPX
      000000F9H   SFRSYM    DATA     BYTE      SFRPRT15PS
      000000D0H.5 SFRSYM    DATA     BIT       F0
      000000D0H.1 SFRSYM    DATA     BIT       F1
      0000008AH   SFRSYM    DATA     BYTE      SFRPRT0SEL
      000000D0H   SFRSYM    DATA     BYTE      PSW
      000000A2H   SFRSYM    DATA     BYTE      SFRPRT1SEL
      0000009AH   SFRSYM    DATA     BYTE      SFRPRT2SEL
      000000B2H   SFRSYM    DATA     BYTE      SFRPRT3SEL
      000000C2H   SFRSYM    DATA     BYTE      SFRPRT4SEL

LX51 LINKER/LOCATER V4.64.0.0                                                         02/02/2018  18:09:00  PAGE 105


      0100C16DH   BLOCK     CODE     ---       LVL=0
      0100C16DH   LINE      CODE     ---       #37
      0100C16DH   LINE      CODE     ---       #38
      0100C16DH   LINE      CODE     ---       #39
      0100C172H   LINE      CODE     ---       #40
      ---         BLOCKEND  ---      ---       LVL=0
      00000007H   SYMBOL    DATA     BYTE      interruptState
      00000007H   SYMBOL    DATA     BYTE      interruptState
      00000007H   SYMBOL    DATA     BYTE      mask

      ---         MODULE    ---      ---       RESET_FF
      0100C173H   PUBLIC    CODE     ---       _RESET_FF_Write

      0100C173H   BLOCK     CODE     ---       LVL=0
      00000007H   SYMBOL    DATA     BYTE      control
      0100C173H   LINE      CODE     ---       #37
      0100C173H   LINE      CODE     ---       #38
      0100C173H   LINE      CODE     ---       #39
      0100C178H   LINE      CODE     ---       #40
      ---         BLOCKEND  ---      ---       LVL=0

      ---         MODULE    ---      ---       MOTOR_DIR
      0100C179H   PUBLIC    CODE     ---       _MOTOR_DIR_Write

      0100C179H   BLOCK     CODE     ---       LVL=0
      00000007H   SYMBOL    DATA     BYTE      control
      0100C179H   LINE      CODE     ---       #37
      0100C179H   LINE      CODE     ---       #38
      0100C179H   LINE      CODE     ---       #39
      0100C17EH   LINE      CODE     ---       #40
      ---         BLOCKEND  ---      ---       LVL=0

      ---         MODULE    ---      ---       ADC_STATUS
      0100C17FH   PUBLIC    CODE     ---       ADC_STATUS_Read
      000000CAH   SFRSYM    DATA     BYTE      SFRPRT5SEL
      000000DAH   SFRSYM    DATA     BYTE      SFRPRT6SEL
      000000D0H.6 SFRSYM    DATA     BIT       AC
      000000A8H.7 SFRSYM    DATA     BIT       EA
      000000A8H   SFRSYM    DATA     BYTE      IE
      00000085H   SFRSYM    DATA     BYTE      DPH1
      00000084H   SFRSYM    DATA     BYTE      DPL1
      000000D0H.7 SFRSYM    DATA     BIT       CY
      000000A0H   SFRSYM    DATA     BYTE      P2AX
      00000095H   SFRSYM    DATA     BYTE      DPX1
      00000081H   SFRSYM    DATA     BYTE      SP
      000000D0H.2 SFRSYM    DATA     BIT       OV
      00000080H   SFRSYM    DATA     BYTE      SFRPRT0DR
      00000090H   SFRSYM    DATA     BYTE      SFRPRT1DR
      000000F2H   SFRSYM    DATA     BYTE      SFRPRT12SEL
      00000098H   SFRSYM    DATA     BYTE      SFRPRT2DR
      000000B0H   SFRSYM    DATA     BYTE      SFRPRT3DR
      000000C0H   SFRSYM    DATA     BYTE      SFRPRT4DR
      000000FAH   SFRSYM    DATA     BYTE      SFRPRT15SEL
      000000C8H   SFRSYM    DATA     BYTE      SFRPRT5DR
      000000D8H   SFRSYM    DATA     BYTE      SFRPRT6DR
      00000089H   SFRSYM    DATA     BYTE      SFRPRT0PS
      00000091H   SFRSYM    DATA     BYTE      SFRPRT1PS
      00000099H   SFRSYM    DATA     BYTE      SFRPRT2PS
      000000B1H   SFRSYM    DATA     BYTE      SFRPRT3PS
      000000C1H   SFRSYM    DATA     BYTE      SFRPRT4PS
      000000C9H   SFRSYM    DATA     BYTE      SFRPRT5PS
      000000D9H   SFRSYM    DATA     BYTE      SFRPRT6PS
      000000EAH   SFRSYM    DATA     BYTE      MXAX
      000000F0H   SFRSYM    DATA     BYTE      B
      000000E0H   SFRSYM    DATA     BYTE      ACC
LX51 LINKER/LOCATER V4.64.0.0                                                         02/02/2018  18:09:00  PAGE 106


      000000D0H   SFRSYM    DATA     BIT       P
      000000D0H.3 SFRSYM    DATA     BIT       RS0
      000000D0H.4 SFRSYM    DATA     BIT       RS1
      00000083H   SFRSYM    DATA     BYTE      DPH
      000000E8H   SFRSYM    DATA     BYTE      SFRPRT12DR
      00000082H   SFRSYM    DATA     BYTE      DPL
      000000F8H   SFRSYM    DATA     BYTE      SFRPRT15DR
      00000086H   SFRSYM    DATA     BYTE      DPS
      000000E9H   SFRSYM    DATA     BYTE      SFRPRT12PS
      00000093H   SFRSYM    DATA     BYTE      DPX
      000000F9H   SFRSYM    DATA     BYTE      SFRPRT15PS
      000000D0H.5 SFRSYM    DATA     BIT       F0
      000000D0H.1 SFRSYM    DATA     BIT       F1
      0000008AH   SFRSYM    DATA     BYTE      SFRPRT0SEL
      000000D0H   SFRSYM    DATA     BYTE      PSW
      000000A2H   SFRSYM    DATA     BYTE      SFRPRT1SEL
      0000009AH   SFRSYM    DATA     BYTE      SFRPRT2SEL
      000000B2H   SFRSYM    DATA     BYTE      SFRPRT3SEL
      000000C2H   SFRSYM    DATA     BYTE      SFRPRT4SEL

      0100C17FH   BLOCK     CODE     ---       LVL=0
      0100C17FH   LINE      CODE     ---       #37
      0100C17FH   LINE      CODE     ---       #38
      0100C17FH   LINE      CODE     ---       #39
      0100C184H   LINE      CODE     ---       #40
      ---         BLOCKEND  ---      ---       LVL=0
      00000007H   SYMBOL    DATA     BYTE      interruptState
      00000007H   SYMBOL    DATA     BYTE      interruptState
      00000007H   SYMBOL    DATA     BYTE      mask

      ---         MODULE    ---      ---       ADC
      02000E3DH   PUBLIC    XDATA    LONG      ADC_CountsPerVolt
      02000E3CH   PUBLIC    XDATA    BYTE      ADC_convDone
      02000E38H   PUBLIC    XDATA    BYTE      ADC_started
      02000E37H   PUBLIC    XDATA    BYTE      ADC_stopConversion
      02000E33H   PUBLIC    XDATA    LONG      ADC_Offset
      02000E32H   PUBLIC    XDATA    BYTE      ADC_initVar
      02000E31H   PUBLIC    XDATA    BYTE      ADC_Config
      0100BCEFH   PUBLIC    CODE     ---       ADC_Start
      0100AB45H   PUBLIC    CODE     ---       ADC_Enable
      0100A75EH   PUBLIC    CODE     ---       ADC_Init
      000000CAH   SFRSYM    DATA     BYTE      SFRPRT5SEL
      000000DAH   SFRSYM    DATA     BYTE      SFRPRT6SEL
      000000D0H.6 SFRSYM    DATA     BIT       AC
      000000A8H.7 SFRSYM    DATA     BIT       EA
      000000A8H   SFRSYM    DATA     BYTE      IE
      00000085H   SFRSYM    DATA     BYTE      DPH1
      00000084H   SFRSYM    DATA     BYTE      DPL1
      000000D0H.7 SFRSYM    DATA     BIT       CY
      000000A0H   SFRSYM    DATA     BYTE      P2AX
      00000095H   SFRSYM    DATA     BYTE      DPX1
      00000081H   SFRSYM    DATA     BYTE      SP
      000000D0H.2 SFRSYM    DATA     BIT       OV
      00000080H   SFRSYM    DATA     BYTE      SFRPRT0DR
      00000090H   SFRSYM    DATA     BYTE      SFRPRT1DR
      000000F2H   SFRSYM    DATA     BYTE      SFRPRT12SEL
      00000098H   SFRSYM    DATA     BYTE      SFRPRT2DR
      000000B0H   SFRSYM    DATA     BYTE      SFRPRT3DR
      000000C0H   SFRSYM    DATA     BYTE      SFRPRT4DR
      000000FAH   SFRSYM    DATA     BYTE      SFRPRT15SEL
      000000C8H   SFRSYM    DATA     BYTE      SFRPRT5DR
      000000D8H   SFRSYM    DATA     BYTE      SFRPRT6DR
      00000089H   SFRSYM    DATA     BYTE      SFRPRT0PS
      00000091H   SFRSYM    DATA     BYTE      SFRPRT1PS
      00000099H   SFRSYM    DATA     BYTE      SFRPRT2PS
LX51 LINKER/LOCATER V4.64.0.0                                                         02/02/2018  18:09:00  PAGE 107


      000000B1H   SFRSYM    DATA     BYTE      SFRPRT3PS
      000000C1H   SFRSYM    DATA     BYTE      SFRPRT4PS
      000000C9H   SFRSYM    DATA     BYTE      SFRPRT5PS
      000000D9H   SFRSYM    DATA     BYTE      SFRPRT6PS
      000000EAH   SFRSYM    DATA     BYTE      MXAX
      000000F0H   SFRSYM    DATA     BYTE      B
      000000E0H   SFRSYM    DATA     BYTE      ACC
      000000D0H   SFRSYM    DATA     BIT       P
      000000D0H.3 SFRSYM    DATA     BIT       RS0
      000000D0H.4 SFRSYM    DATA     BIT       RS1
      00000083H   SFRSYM    DATA     BYTE      DPH
      000000E8H   SFRSYM    DATA     BYTE      SFRPRT12DR
      00000082H   SFRSYM    DATA     BYTE      DPL
      000000F8H   SFRSYM    DATA     BYTE      SFRPRT15DR
      00000086H   SFRSYM    DATA     BYTE      DPS
      000000E9H   SFRSYM    DATA     BYTE      SFRPRT12PS
      00000093H   SFRSYM    DATA     BYTE      DPX
      000000F9H   SFRSYM    DATA     BYTE      SFRPRT15PS
      000000D0H.5 SFRSYM    DATA     BIT       F0
      000000D0H.1 SFRSYM    DATA     BIT       F1
      0000008AH   SFRSYM    DATA     BYTE      SFRPRT0SEL
      000000D0H   SFRSYM    DATA     BYTE      PSW
      000000A2H   SFRSYM    DATA     BYTE      SFRPRT1SEL
      0000009AH   SFRSYM    DATA     BYTE      SFRPRT2SEL
      000000B2H   SFRSYM    DATA     BYTE      SFRPRT3SEL
      000000C2H   SFRSYM    DATA     BYTE      SFRPRT4SEL
      0100A8C0H   SYMBOL    CODE     ---       _ADC_InitConfig
      010093E6H   SYMBOL    CODE     ---       _ADC_GainCompensation
      0100B72EH   SYMBOL    CODE     ---       _ADC_SetDSMRef0Reg
      02000E39H   SYMBOL    XDATA    ---       ADC_gcor

      0100A75EH   BLOCK     CODE     ---       LVL=0
      0100A75EH   LINE      CODE     ---       #91
      0100A75EH   LINE      CODE     ---       #92
      0100A75EH   LINE      CODE     ---       #94
      0100A764H   LINE      CODE     ---       #95
      0100A769H   LINE      CODE     ---       #97
      0100A76EH   LINE      CODE     ---       #101
      0100A773H   LINE      CODE     ---       #106
      0100A77AH   LINE      CODE     ---       #110
      0100A780H   LINE      CODE     ---       #111
      0100A783H   LINE      CODE     ---       #112
      0100A787H   LINE      CODE     ---       #113
      0100A78EH   LINE      CODE     ---       #114
      0100A793H   LINE      CODE     ---       #116
      0100A797H   LINE      CODE     ---       #117
      0100A799H   LINE      CODE     ---       #119
      0100A79FH   LINE      CODE     ---       #120
      0100A7A2H   LINE      CODE     ---       #124
      0100A7A6H   LINE      CODE     ---       #126
      0100A7ACH   LINE      CODE     ---       #127
      0100A7AFH   LINE      CODE     ---       #128
      0100A7B4H   LINE      CODE     ---       #130
      0100A7BAH   LINE      CODE     ---       #133
      0100A7D1H   LINE      CODE     ---       #161
      0100A7E7H   LINE      CODE     ---       #162
      0100A806H   LINE      CODE     ---       #165
      0100A80EH   LINE      CODE     ---       #166
      ---         BLOCKEND  ---      ---       LVL=0

      0100AB45H   BLOCK     CODE     ---       LVL=0
      0100AB45H   BLOCK     CODE     NEAR LAB  LVL=1
      02000003H   SYMBOL    XDATA    BYTE      config
      02000004H   SYMBOL    XDATA    BYTE      enableInterrupts
      ---         BLOCKEND  ---      ---       LVL=1
LX51 LINKER/LOCATER V4.64.0.0                                                         02/02/2018  18:09:00  PAGE 108


      0100AB45H   LINE      CODE     ---       #184
      0100AB45H   LINE      CODE     ---       #185
      0100AB45H   LINE      CODE     ---       #188
      0100AB4DH   LINE      CODE     ---       #191
      0100AB55H   LINE      CODE     ---       #194
      0100AB5CH   LINE      CODE     ---       #195
      0100AB60H   LINE      CODE     ---       #198
      0100AB67H   LINE      CODE     ---       #199
      0100AB6BH   LINE      CODE     ---       #202
      0100AB72H   LINE      CODE     ---       #203
      0100AB77H   LINE      CODE     ---       #205
      0100AB7EH   LINE      CODE     ---       #265
      0100AB7EH   LINE      CODE     ---       #266
      0100AB7EH   LINE      CODE     ---       #268
      0100AB7EH   LINE      CODE     ---       #271
      0100AB85H   LINE      CODE     ---       #274
      0100AB8CH   LINE      CODE     ---       #275
      0100AB91H   LINE      CODE     ---       #278
      0100AB98H   LINE      CODE     ---       #281
      0100AB9EH   LINE      CODE     ---       #285
      0100ABA5H   LINE      CODE     ---       #286
      0100ABACH   LINE      CODE     ---       #290
      0100ABB3H   LINE      CODE     ---       #291
      0100ABBAH   LINE      CODE     ---       #295
      0100ABC0H   LINE      CODE     ---       #297
      0100ABC4H   LINE      CODE     ---       #300
      0100ABCCH   LINE      CODE     ---       #302
      ---         BLOCKEND  ---      ---       LVL=0

      0100BCEFH   BLOCK     CODE     ---       LVL=0
      0100BCEFH   LINE      CODE     ---       #329
      0100BCEFH   LINE      CODE     ---       #330
      0100BCEFH   LINE      CODE     ---       #331
      0100BCF5H   LINE      CODE     ---       #332
      0100BCF5H   LINE      CODE     ---       #333
      0100BCFBH   LINE      CODE     ---       #334
      0100BCFBH   LINE      CODE     ---       #335
      0100BCFEH   LINE      CODE     ---       #336
      0100BCFEH   LINE      CODE     ---       #337
      0100BD04H   LINE      CODE     ---       #338
      0100BD04H   LINE      CODE     ---       #341
      0100BD07H   LINE      CODE     ---       #342
      ---         BLOCKEND  ---      ---       LVL=0
      00000007H   SYMBOL    DATA     BYTE      gain
      00000006H   SYMBOL    DATA     BYTE      tmpReg
      00000007H   SYMBOL    DATA     BYTE      coherency
      00000006H   SYMBOL    DATA     BYTE      tmpReg
      00000004H   SYMBOL    DATA     WORD      gcorValue
      00000007H   SYMBOL    DATA     BYTE      retMode
      00000006H   SYMBOL    DATA     BYTE      status
      00000006H   SYMBOL    DATA     CHAR      result
      00000007H   SYMBOL    DATA     BYTE      coherency
      00000004H   SYMBOL    DATA     LONG      offset
      00000004H   SYMBOL    DATA     LONG      adcGain
      00000006H   SYMBOL    DATA     INT       mVolts
      00000004H   SYMBOL    DATA     FLOAT     Volts
      00000004H   SYMBOL    DATA     LONG      uVolts

      0100A8C0H   BLOCK     CODE     ---       LVL=0
      00000007H   SYMBOL    DATA     BYTE      config
      0100A8C0H   LINE      CODE     ---       #1242
      0100A8C0H   LINE      CODE     ---       #1243
      0100A8C0H   LINE      CODE     ---       #1244
      0100A8C5H   LINE      CODE     ---       #1246
      0100A8CDH   LINE      CODE     ---       #1247
LX51 LINKER/LOCATER V4.64.0.0                                                         02/02/2018  18:09:00  PAGE 109


      0100A8CDH   LINE      CODE     ---       #1249
      0100A8D3H   LINE      CODE     ---       #1250
      0100A8D9H   LINE      CODE     ---       #1251
      0100A8DDH   LINE      CODE     ---       #1252
      0100A8E0H   LINE      CODE     ---       #1253
      0100A8E2H   LINE      CODE     ---       #1254
      0100A8E6H   LINE      CODE     ---       #1255
      0100A8EBH   LINE      CODE     ---       #1256
      0100A8EDH   LINE      CODE     ---       #1257
      0100A8EFH   LINE      CODE     ---       #1258
      0100A8F4H   LINE      CODE     ---       #1260
      0100A8FAH   LINE      CODE     ---       #1261
      0100A8FEH   LINE      CODE     ---       #1262
      0100A902H   LINE      CODE     ---       #1263
      0100A905H   LINE      CODE     ---       #1264
      0100A90BH   LINE      CODE     ---       #1265
      0100A90FH   LINE      CODE     ---       #1266
      0100A913H   LINE      CODE     ---       #1267
      0100A918H   LINE      CODE     ---       #1268
      0100A91CH   LINE      CODE     ---       #1269
      0100A920H   LINE      CODE     ---       #1270
      0100A924H   LINE      CODE     ---       #1272
      0100A929H   LINE      CODE     ---       #1273
      0100A92FH   LINE      CODE     ---       #1274
      0100A932H   LINE      CODE     ---       #1276
      0100A937H   LINE      CODE     ---       #1277
      0100A939H   LINE      CODE     ---       #1278
      0100A93CH   LINE      CODE     ---       #1279
      0100A940H   LINE      CODE     ---       #1288
      0100A945H   LINE      CODE     ---       #1300
      0100A952H   LINE      CODE     ---       #1302
      0100A95BH   LINE      CODE     ---       #1306
      0100A964H   LINE      CODE     ---       #1311
      0100A96DH   LINE      CODE     ---       #1313
      0100A96DH   LINE      CODE     ---       #1526
      ---         BLOCKEND  ---      ---       LVL=0

      010093E6H   BLOCK     CODE     ---       LVL=0
      00000007H   SYMBOL    DATA     BYTE      inputRange
      02000004H   SYMBOL    XDATA    WORD      idealDecGain
      02000006H   SYMBOL    XDATA    WORD      idealOddDecGain
      02000008H   SYMBOL    XDATA    BYTE      resolution
      02000009H   SYMBOL    XDATA    BYTE      config
      010093F4H   BLOCK     CODE     NEAR LAB  LVL=1
      0200000AH   SYMBOL    XDATA    CHAR      flash
      00000004H   SYMBOL    DATA     LONG      normalised
      00000004H   SYMBOL    DATA     WORD      gcorValue
      00000004H   SYMBOL    DATA     DWORD     gcorTmp
      ---         BLOCKEND  ---      ---       LVL=1
      010093E6H   LINE      CODE     ---       #1617
      010093F4H   LINE      CODE     ---       #1619
      010093F4H   LINE      CODE     ---       #1625
      0100940AH   LINE      CODE     ---       #1626
      0100940AH   LINE      CODE     ---       #1627
      01009424H   LINE      CODE     ---       #1628
      01009424H   LINE      CODE     ---       #1629
      01009424H   LINE      CODE     ---       #1630
      01009424H   LINE      CODE     ---       #1632
      0100942DH   LINE      CODE     ---       #1633
      0100942DH   LINE      CODE     ---       #1634
      0100943BH   LINE      CODE     ---       #1635
      0100943EH   LINE      CODE     ---       #1637
      0100943EH   LINE      CODE     ---       #1638
      0100944CH   LINE      CODE     ---       #1639
      0100944CH   LINE      CODE     ---       #1640
LX51 LINKER/LOCATER V4.64.0.0                                                         02/02/2018  18:09:00  PAGE 110


      0100944FH   LINE      CODE     ---       #1642
      0100944FH   LINE      CODE     ---       #1644
      01009458H   LINE      CODE     ---       #1645
      01009458H   LINE      CODE     ---       #1646
      01009466H   LINE      CODE     ---       #1647
      01009468H   LINE      CODE     ---       #1649
      01009468H   LINE      CODE     ---       #1650
      01009476H   LINE      CODE     ---       #1651
      01009476H   LINE      CODE     ---       #1652
      01009478H   LINE      CODE     ---       #1654
      01009478H   LINE      CODE     ---       #1656
      01009481H   LINE      CODE     ---       #1657
      01009481H   LINE      CODE     ---       #1658
      0100948FH   LINE      CODE     ---       #1659
      01009491H   LINE      CODE     ---       #1661
      01009491H   LINE      CODE     ---       #1662
      0100949FH   LINE      CODE     ---       #1663
      0100949FH   LINE      CODE     ---       #1664
      010094A1H   LINE      CODE     ---       #1666
      010094A1H   LINE      CODE     ---       #1668
      010094AAH   LINE      CODE     ---       #1669
      010094AAH   LINE      CODE     ---       #1670
      010094B8H   LINE      CODE     ---       #1671
      010094BAH   LINE      CODE     ---       #1673
      010094BAH   LINE      CODE     ---       #1674
      010094C8H   LINE      CODE     ---       #1675
      010094C8H   LINE      CODE     ---       #1676
      010094CAH   LINE      CODE     ---       #1678
      010094CAH   LINE      CODE     ---       #1679
      010094CFH   LINE      CODE     ---       #1680
      010094CFH   LINE      CODE     ---       #1681
      010094CFH   LINE      CODE     ---       #1684
      01009502H   LINE      CODE     ---       #1685
      01009515H   LINE      CODE     ---       #1686
      01009522H   LINE      CODE     ---       #1688
      0100952BH   LINE      CODE     ---       #1689
      0100952BH   LINE      CODE     ---       #1690
      01009542H   LINE      CODE     ---       #1691
      01009558H   LINE      CODE     ---       #1692
      0100955AH   LINE      CODE     ---       #1694
      0100955AH   LINE      CODE     ---       #1696
      0100956EH   LINE      CODE     ---       #1697
      0100956EH   LINE      CODE     ---       #1700
      01009586H   LINE      CODE     ---       #1701
      01009586H   LINE      CODE     ---       #1703
      01009586H   LINE      CODE     ---       #1706
      01009586H   LINE      CODE     ---       #1707
      ---         BLOCKEND  ---      ---       LVL=0

      0100B72EH   BLOCK     CODE     ---       LVL=0
      02000003H   SYMBOL    XDATA    BYTE      value
      0100B733H   BLOCK     CODE     NEAR LAB  LVL=1
      02000004H   SYMBOL    XDATA    BYTE      enableInterrupts
      ---         BLOCKEND  ---      ---       LVL=1
      0100B72EH   LINE      CODE     ---       #1724
      0100B733H   LINE      CODE     ---       #1725
      0100B733H   LINE      CODE     ---       #1727
      0100B73BH   LINE      CODE     ---       #1730
      0100B742H   LINE      CODE     ---       #1731
      0100B747H   LINE      CODE     ---       #1732
      0100B74FH   LINE      CODE     ---       #1735
      0100B756H   LINE      CODE     ---       #1737
      0100B75DH   LINE      CODE     ---       #1738
      0100B762H   LINE      CODE     ---       #1740
      0100B76AH   LINE      CODE     ---       #1741
LX51 LINKER/LOCATER V4.64.0.0                                                         02/02/2018  18:09:00  PAGE 111


      ---         BLOCKEND  ---      ---       LVL=0
      00000007H   SYMBOL    DATA     CHAR      result
      00000006H   SYMBOL    DATA     INT       result
      00000004H   SYMBOL    DATA     LONG      result

      ---         MODULE    ---      ---       DMA_DMA
      02000E69H   PUBLIC    XDATA    BYTE      DMA_DmaHandle
      02000003H   PUBLIC    XDATA    BYTE      ?_DMA_DmaInitialize?BYTE
      0100B511H   PUBLIC    CODE     ---       _DMA_DmaInitialize
      000000CAH   SFRSYM    DATA     BYTE      SFRPRT5SEL
      000000DAH   SFRSYM    DATA     BYTE      SFRPRT6SEL
      000000D0H.6 SFRSYM    DATA     BIT       AC
      000000A8H.7 SFRSYM    DATA     BIT       EA
      000000A8H   SFRSYM    DATA     BYTE      IE
      00000085H   SFRSYM    DATA     BYTE      DPH1
      00000084H   SFRSYM    DATA     BYTE      DPL1
      000000D0H.7 SFRSYM    DATA     BIT       CY
      000000A0H   SFRSYM    DATA     BYTE      P2AX
      00000095H   SFRSYM    DATA     BYTE      DPX1
      00000081H   SFRSYM    DATA     BYTE      SP
      000000D0H.2 SFRSYM    DATA     BIT       OV
      00000080H   SFRSYM    DATA     BYTE      SFRPRT0DR
      00000090H   SFRSYM    DATA     BYTE      SFRPRT1DR
      000000F2H   SFRSYM    DATA     BYTE      SFRPRT12SEL
      00000098H   SFRSYM    DATA     BYTE      SFRPRT2DR
      000000B0H   SFRSYM    DATA     BYTE      SFRPRT3DR
      000000C0H   SFRSYM    DATA     BYTE      SFRPRT4DR
      000000FAH   SFRSYM    DATA     BYTE      SFRPRT15SEL
      000000C8H   SFRSYM    DATA     BYTE      SFRPRT5DR
      000000D8H   SFRSYM    DATA     BYTE      SFRPRT6DR
      00000089H   SFRSYM    DATA     BYTE      SFRPRT0PS
      00000091H   SFRSYM    DATA     BYTE      SFRPRT1PS
      00000099H   SFRSYM    DATA     BYTE      SFRPRT2PS
      000000B1H   SFRSYM    DATA     BYTE      SFRPRT3PS
      000000C1H   SFRSYM    DATA     BYTE      SFRPRT4PS
      000000C9H   SFRSYM    DATA     BYTE      SFRPRT5PS
      000000D9H   SFRSYM    DATA     BYTE      SFRPRT6PS
      000000EAH   SFRSYM    DATA     BYTE      MXAX
      000000F0H   SFRSYM    DATA     BYTE      B
      000000E0H   SFRSYM    DATA     BYTE      ACC
      000000D0H   SFRSYM    DATA     BIT       P
      000000D0H.3 SFRSYM    DATA     BIT       RS0
      000000D0H.4 SFRSYM    DATA     BIT       RS1
      00000083H   SFRSYM    DATA     BYTE      DPH
      000000E8H   SFRSYM    DATA     BYTE      SFRPRT12DR
      00000082H   SFRSYM    DATA     BYTE      DPL
      000000F8H   SFRSYM    DATA     BYTE      SFRPRT15DR
      00000086H   SFRSYM    DATA     BYTE      DPS
      000000E9H   SFRSYM    DATA     BYTE      SFRPRT12PS
      00000093H   SFRSYM    DATA     BYTE      DPX
      000000F9H   SFRSYM    DATA     BYTE      SFRPRT15PS
      000000D0H.5 SFRSYM    DATA     BIT       F0
      000000D0H.1 SFRSYM    DATA     BIT       F1
      0000008AH   SFRSYM    DATA     BYTE      SFRPRT0SEL
      000000D0H   SFRSYM    DATA     BYTE      PSW
      000000A2H   SFRSYM    DATA     BYTE      SFRPRT1SEL
      0000009AH   SFRSYM    DATA     BYTE      SFRPRT2SEL
      000000B2H   SFRSYM    DATA     BYTE      SFRPRT3SEL
      000000C2H   SFRSYM    DATA     BYTE      SFRPRT4SEL

      0100B511H   BLOCK     CODE     ---       LVL=0
      00000007H   SYMBOL    DATA     BYTE      BurstCount
      00000006H   SYMBOL    DATA     BYTE      ReqestPerBurst
      02000005H   SYMBOL    XDATA    WORD      UpperSrcAddress
      02000007H   SYMBOL    XDATA    WORD      UpperDestAddress
LX51 LINKER/LOCATER V4.64.0.0                                                         02/02/2018  18:09:00  PAGE 112


      0100B511H   LINE      CODE     ---       #97
      0100B51BH   LINE      CODE     ---       #98
      0100B51BH   LINE      CODE     ---       #101
      0100B521H   LINE      CODE     ---       #109
      0100B535H   LINE      CODE     ---       #112
      0100B54BH   LINE      CODE     ---       #115
      0100B555H   LINE      CODE     ---       #117
      0100B55AH   LINE      CODE     ---       #118
      ---         BLOCKEND  ---      ---       LVL=0

      ---         MODULE    ---      ---       ADC_SOC
      0100C185H   PUBLIC    CODE     ---       _ADC_SOC_Write

      0100C185H   BLOCK     CODE     ---       LVL=0
      00000007H   SYMBOL    DATA     BYTE      control
      0100C185H   LINE      CODE     ---       #37
      0100C185H   LINE      CODE     ---       #38
      0100C185H   LINE      CODE     ---       #39
      0100C18AH   LINE      CODE     ---       #40
      ---         BLOCKEND  ---      ---       LVL=0

      ---         MODULE    ---      ---       ISR_WATCHDOG
      0100C0F4H   PUBLIC    CODE     ---       ISR_WATCHDOG_Disable
      0100C0EDH   PUBLIC    CODE     ---       ISR_WATCHDOG_Enable
      0100C082H   PUBLIC    CODE     ---       _ISR_WATCHDOG_SetPriority
      0100BF7BH   PUBLIC    CODE     ---       _ISR_WATCHDOG_SetVector
      0100BACBH   PUBLIC    CODE     ---       ISR_WATCHDOG_Interrupt
      0100BC43H   PUBLIC    CODE     ---       _ISR_WATCHDOG_StartEx
      000000CAH   SFRSYM    DATA     BYTE      SFRPRT5SEL
      000000DAH   SFRSYM    DATA     BYTE      SFRPRT6SEL
      000000D0H.6 SFRSYM    DATA     BIT       AC
      000000A8H.7 SFRSYM    DATA     BIT       EA
      000000A8H   SFRSYM    DATA     BYTE      IE
      00000085H   SFRSYM    DATA     BYTE      DPH1
      00000084H   SFRSYM    DATA     BYTE      DPL1
      000000D0H.7 SFRSYM    DATA     BIT       CY
      000000A0H   SFRSYM    DATA     BYTE      P2AX
      00000095H   SFRSYM    DATA     BYTE      DPX1
      00000081H   SFRSYM    DATA     BYTE      SP
      000000D0H.2 SFRSYM    DATA     BIT       OV
      00000080H   SFRSYM    DATA     BYTE      SFRPRT0DR
      00000090H   SFRSYM    DATA     BYTE      SFRPRT1DR
      000000F2H   SFRSYM    DATA     BYTE      SFRPRT12SEL
      00000098H   SFRSYM    DATA     BYTE      SFRPRT2DR
      000000B0H   SFRSYM    DATA     BYTE      SFRPRT3DR
      000000C0H   SFRSYM    DATA     BYTE      SFRPRT4DR
      000000FAH   SFRSYM    DATA     BYTE      SFRPRT15SEL
      000000C8H   SFRSYM    DATA     BYTE      SFRPRT5DR
      000000D8H   SFRSYM    DATA     BYTE      SFRPRT6DR
      00000089H   SFRSYM    DATA     BYTE      SFRPRT0PS
      00000091H   SFRSYM    DATA     BYTE      SFRPRT1PS
      00000099H   SFRSYM    DATA     BYTE      SFRPRT2PS
      000000B1H   SFRSYM    DATA     BYTE      SFRPRT3PS
      000000C1H   SFRSYM    DATA     BYTE      SFRPRT4PS
      000000C9H   SFRSYM    DATA     BYTE      SFRPRT5PS
      000000D9H   SFRSYM    DATA     BYTE      SFRPRT6PS
      000000EAH   SFRSYM    DATA     BYTE      MXAX
      000000F0H   SFRSYM    DATA     BYTE      B
      000000E0H   SFRSYM    DATA     BYTE      ACC
      000000D0H   SFRSYM    DATA     BIT       P
      000000D0H.3 SFRSYM    DATA     BIT       RS0
      000000D0H.4 SFRSYM    DATA     BIT       RS1
      00000083H   SFRSYM    DATA     BYTE      DPH
      000000E8H   SFRSYM    DATA     BYTE      SFRPRT12DR
      00000082H   SFRSYM    DATA     BYTE      DPL
LX51 LINKER/LOCATER V4.64.0.0                                                         02/02/2018  18:09:00  PAGE 113


      000000F8H   SFRSYM    DATA     BYTE      SFRPRT15DR
      00000086H   SFRSYM    DATA     BYTE      DPS
      000000E9H   SFRSYM    DATA     BYTE      SFRPRT12PS
      00000093H   SFRSYM    DATA     BYTE      DPX
      000000F9H   SFRSYM    DATA     BYTE      SFRPRT15PS
      000000D0H.5 SFRSYM    DATA     BIT       F0
      000000D0H.1 SFRSYM    DATA     BIT       F1
      0000008AH   SFRSYM    DATA     BYTE      SFRPRT0SEL
      000000D0H   SFRSYM    DATA     BYTE      PSW
      000000A2H   SFRSYM    DATA     BYTE      SFRPRT1SEL
      0000009AH   SFRSYM    DATA     BYTE      SFRPRT2SEL
      000000B2H   SFRSYM    DATA     BYTE      SFRPRT3SEL
      000000C2H   SFRSYM    DATA     BYTE      SFRPRT4SEL

      0100BC43H   BLOCK     CODE     ---       LVL=0
      02000003H   SYMBOL    XDATA    ---       address
      0100BC43H   LINE      CODE     ---       #94
      0100BC4BH   LINE      CODE     ---       #95
      0100BC4BH   LINE      CODE     ---       #97
      0100BC4EH   LINE      CODE     ---       #100
      0100BC59H   LINE      CODE     ---       #103
      0100BC5EH   LINE      CODE     ---       #106
      0100BC61H   LINE      CODE     ---       #107
      ---         BLOCKEND  ---      ---       LVL=0

      0100BACBH   BLOCK     CODE     ---       LVL=0
      0100BACBH   LINE      CODE     ---       #151
      0100BACBH   LINE      CODE     ---       #168
      ---         BLOCKEND  ---      ---       LVL=0

      0100BF7BH   BLOCK     CODE     ---       LVL=0
      00000006H   SYMBOL    DATA     ---       address
      0100BF7BH   LINE      CODE     ---       #198
      0100BF7BH   LINE      CODE     ---       #199
      0100BF7BH   LINE      CODE     ---       #200
      0100BF88H   LINE      CODE     ---       #201
      ---         BLOCKEND  ---      ---       LVL=0

      0100C082H   BLOCK     CODE     ---       LVL=0
      00000007H   SYMBOL    DATA     BYTE      priority
      0100C082H   LINE      CODE     ---       #248
      0100C082H   LINE      CODE     ---       #249
      0100C082H   LINE      CODE     ---       #250
      0100C08BH   LINE      CODE     ---       #251
      ---         BLOCKEND  ---      ---       LVL=0
      00000007H   SYMBOL    DATA     BYTE      priority

      0100C0EDH   BLOCK     CODE     ---       LVL=0
      0100C0EDH   LINE      CODE     ---       #297
      0100C0EDH   LINE      CODE     ---       #298
      0100C0EDH   LINE      CODE     ---       #300
      0100C0F3H   LINE      CODE     ---       #301
      ---         BLOCKEND  ---      ---       LVL=0

      0100C0F4H   BLOCK     CODE     ---       LVL=0
      0100C0F4H   LINE      CODE     ---       #339
      0100C0F4H   LINE      CODE     ---       #340
      0100C0F4H   LINE      CODE     ---       #342
      0100C0FAH   LINE      CODE     ---       #343
      ---         BLOCKEND  ---      ---       LVL=0

      ---         MODULE    ---      ---       WATCHDOG_COUNTER
      02000E6AH   PUBLIC    XDATA    BYTE      WATCHDOG_COUNTER_initVar
      0100BF89H   PUBLIC    CODE     ---       _WATCHDOG_COUNTER_WritePeriod
      0100BC9FH   PUBLIC    CODE     ---       _WATCHDOG_COUNTER_WriteCounter
LX51 LINKER/LOCATER V4.64.0.0                                                         02/02/2018  18:09:00  PAGE 114


      0100C18BH   PUBLIC    CODE     ---       _WATCHDOG_COUNTER_SetInterruptMode
      0100BE9CH   PUBLIC    CODE     ---       WATCHDOG_COUNTER_Start
      0100BDAEH   PUBLIC    CODE     ---       WATCHDOG_COUNTER_Enable
      0100B83BH   PUBLIC    CODE     ---       WATCHDOG_COUNTER_Init
      000000CAH   SFRSYM    DATA     BYTE      SFRPRT5SEL
      000000DAH   SFRSYM    DATA     BYTE      SFRPRT6SEL
      000000D0H.6 SFRSYM    DATA     BIT       AC
      000000A8H.7 SFRSYM    DATA     BIT       EA
      000000A8H   SFRSYM    DATA     BYTE      IE
      00000085H   SFRSYM    DATA     BYTE      DPH1
      00000084H   SFRSYM    DATA     BYTE      DPL1
      000000D0H.7 SFRSYM    DATA     BIT       CY
      000000A0H   SFRSYM    DATA     BYTE      P2AX
      00000095H   SFRSYM    DATA     BYTE      DPX1
      00000081H   SFRSYM    DATA     BYTE      SP
      000000D0H.2 SFRSYM    DATA     BIT       OV
      00000080H   SFRSYM    DATA     BYTE      SFRPRT0DR
      00000090H   SFRSYM    DATA     BYTE      SFRPRT1DR
      000000F2H   SFRSYM    DATA     BYTE      SFRPRT12SEL
      00000098H   SFRSYM    DATA     BYTE      SFRPRT2DR
      000000B0H   SFRSYM    DATA     BYTE      SFRPRT3DR
      000000C0H   SFRSYM    DATA     BYTE      SFRPRT4DR
      000000FAH   SFRSYM    DATA     BYTE      SFRPRT15SEL
      000000C8H   SFRSYM    DATA     BYTE      SFRPRT5DR
      000000D8H   SFRSYM    DATA     BYTE      SFRPRT6DR
      00000089H   SFRSYM    DATA     BYTE      SFRPRT0PS
      00000091H   SFRSYM    DATA     BYTE      SFRPRT1PS
      00000099H   SFRSYM    DATA     BYTE      SFRPRT2PS
      000000B1H   SFRSYM    DATA     BYTE      SFRPRT3PS
      000000C1H   SFRSYM    DATA     BYTE      SFRPRT4PS
      000000C9H   SFRSYM    DATA     BYTE      SFRPRT5PS
      000000D9H   SFRSYM    DATA     BYTE      SFRPRT6PS
      000000EAH   SFRSYM    DATA     BYTE      MXAX
      000000F0H   SFRSYM    DATA     BYTE      B
      000000E0H   SFRSYM    DATA     BYTE      ACC
      000000D0H   SFRSYM    DATA     BIT       P
      000000D0H.3 SFRSYM    DATA     BIT       RS0
      000000D0H.4 SFRSYM    DATA     BIT       RS1
      00000083H   SFRSYM    DATA     BYTE      DPH
      000000E8H   SFRSYM    DATA     BYTE      SFRPRT12DR
      00000082H   SFRSYM    DATA     BYTE      DPL
      000000F8H   SFRSYM    DATA     BYTE      SFRPRT15DR
      00000086H   SFRSYM    DATA     BYTE      DPS
      000000E9H   SFRSYM    DATA     BYTE      SFRPRT12PS
      00000093H   SFRSYM    DATA     BYTE      DPX
      000000F9H   SFRSYM    DATA     BYTE      SFRPRT15PS
      000000D0H.5 SFRSYM    DATA     BIT       F0
      000000D0H.1 SFRSYM    DATA     BIT       F1
      0000008AH   SFRSYM    DATA     BYTE      SFRPRT0SEL
      000000D0H   SFRSYM    DATA     BYTE      PSW
      000000A2H   SFRSYM    DATA     BYTE      SFRPRT1SEL
      0000009AH   SFRSYM    DATA     BYTE      SFRPRT2SEL
      000000B2H   SFRSYM    DATA     BYTE      SFRPRT3SEL
      000000C2H   SFRSYM    DATA     BYTE      SFRPRT4SEL

      0100B83BH   BLOCK     CODE     ---       LVL=0
      0100B83BH   LINE      CODE     ---       #37
      0100B83BH   LINE      CODE     ---       #38
      0100B83BH   LINE      CODE     ---       #50
      0100B842H   LINE      CODE     ---       #57
      0100B849H   LINE      CODE     ---       #66
      0100B850H   LINE      CODE     ---       #69
      0100B857H   LINE      CODE     ---       #70
      0100B85BH   LINE      CODE     ---       #73
      0100B85FH   LINE      CODE     ---       #74
LX51 LINKER/LOCATER V4.64.0.0                                                         02/02/2018  18:09:00  PAGE 115


      0100B863H   LINE      CODE     ---       #100
      0100B868H   LINE      CODE     ---       #102
      0100B86DH   LINE      CODE     ---       #104
      0100B872H   LINE      CODE     ---       #123
      ---         BLOCKEND  ---      ---       LVL=0

      0100BDAEH   BLOCK     CODE     ---       LVL=0
      0100BDAEH   LINE      CODE     ---       #143
      0100BDAEH   LINE      CODE     ---       #144
      0100BDAEH   LINE      CODE     ---       #147
      0100BDB5H   LINE      CODE     ---       #148
      0100BDBCH   LINE      CODE     ---       #155
      0100BDC3H   LINE      CODE     ---       #158
      ---         BLOCKEND  ---      ---       LVL=0

      0100BE9CH   BLOCK     CODE     ---       LVL=0
      0100BE9CH   LINE      CODE     ---       #178
      0100BE9CH   LINE      CODE     ---       #179
      0100BE9CH   LINE      CODE     ---       #180
      0100BEA2H   LINE      CODE     ---       #181
      0100BEA2H   LINE      CODE     ---       #182
      0100BEA5H   LINE      CODE     ---       #184
      0100BEABH   LINE      CODE     ---       #185
      0100BEABH   LINE      CODE     ---       #188
      0100BEAEH   LINE      CODE     ---       #189
      ---         BLOCKEND  ---      ---       LVL=0

      0100C18BH   BLOCK     CODE     ---       LVL=0
      00000007H   SYMBOL    DATA     BYTE      interruptsMask
      0100C18BH   LINE      CODE     ---       #237
      0100C18BH   LINE      CODE     ---       #238
      0100C18BH   LINE      CODE     ---       #239
      0100C190H   LINE      CODE     ---       #240
      ---         BLOCKEND  ---      ---       LVL=0
      00000007H   SYMBOL    DATA     BYTE      control

      0100BC9FH   BLOCK     CODE     ---       LVL=0
      00000007H   SYMBOL    DATA     BYTE      counter
      0100BC9FH   LINE      CODE     ---       #326
      0100BC9FH   LINE      CODE     ---       #328
      0100BC9FH   LINE      CODE     ---       #333
      0100BCA6H   LINE      CODE     ---       #334
      0100BCB3H   LINE      CODE     ---       #335
      0100BCBAH   LINE      CODE     ---       #339
      ---         BLOCKEND  ---      ---       LVL=0

      0100BF89H   BLOCK     CODE     ---       LVL=0
      00000007H   SYMBOL    DATA     BYTE      period
      0100BF89H   LINE      CODE     ---       #415
      0100BF89H   LINE      CODE     ---       #416
      0100BF89H   LINE      CODE     ---       #418
      0100BF96H   LINE      CODE     ---       #422
      ---         BLOCKEND  ---      ---       LVL=0

      ---         MODULE    ---      ---       WATCHDOG_ENABLER
      0100C191H   PUBLIC    CODE     ---       _WATCHDOG_ENABLER_Write

      0100C191H   BLOCK     CODE     ---       LVL=0
      00000007H   SYMBOL    DATA     BYTE      control
      0100C191H   LINE      CODE     ---       #37
      0100C191H   LINE      CODE     ---       #38
      0100C191H   LINE      CODE     ---       #39
      0100C196H   LINE      CODE     ---       #40
      ---         BLOCKEND  ---      ---       LVL=0

LX51 LINKER/LOCATER V4.64.0.0                                                         02/02/2018  18:09:00  PAGE 116


      ---         MODULE    ---      ---       WATCHDOG_REFRESH
      0100C197H   PUBLIC    CODE     ---       _WATCHDOG_REFRESH_Write

      0100C197H   BLOCK     CODE     ---       LVL=0
      00000007H   SYMBOL    DATA     BYTE      control
      0100C197H   LINE      CODE     ---       #37
      0100C197H   LINE      CODE     ---       #38
      0100C197H   LINE      CODE     ---       #39
      0100C19CH   LINE      CODE     ---       #40
      ---         BLOCKEND  ---      ---       LVL=0

      ---         MODULE    ---      ---       CYDMAC
      0100AE50H   PUBLIC    CODE     ---       _CyDmaTdSetAddress
      02000003H   PUBLIC    XDATA    BYTE      ?_CyDmaTdSetConfiguration?BYTE
      0100AC55H   PUBLIC    CODE     ---       _CyDmaTdSetConfiguration
      0100B6F0H   PUBLIC    CODE     ---       CyDmaTdAllocate
      02000009H   PUBLIC    XDATA    BYTE      ?_CyDmaChSetConfiguration?BYTE
      0100AD5FH   PUBLIC    CODE     ---       _CyDmaChSetConfiguration
      0100BC81H   PUBLIC    CODE     ---       _CyDmaChSetInitialTd
      0100ADD8H   PUBLIC    CODE     ---       _CyDmaChSetExtendedAddress
      0100B6B0H   PUBLIC    CODE     ---       _CyDmaChPriority
      0100B4C6H   PUBLIC    CODE     ---       _CyDmaChEnable
      0100B873H   PUBLIC    CODE     ---       CyDmacConfigure
      000000CAH   SFRSYM    DATA     BYTE      SFRPRT5SEL
      000000DAH   SFRSYM    DATA     BYTE      SFRPRT6SEL
      000000D0H.6 SFRSYM    DATA     BIT       AC
      000000A8H.7 SFRSYM    DATA     BIT       EA
      000000A8H   SFRSYM    DATA     BYTE      IE
      00000085H   SFRSYM    DATA     BYTE      DPH1
      00000084H   SFRSYM    DATA     BYTE      DPL1
      000000D0H.7 SFRSYM    DATA     BIT       CY
      000000A0H   SFRSYM    DATA     BYTE      P2AX
      00000095H   SFRSYM    DATA     BYTE      DPX1
      00000081H   SFRSYM    DATA     BYTE      SP
      000000D0H.2 SFRSYM    DATA     BIT       OV
      00000080H   SFRSYM    DATA     BYTE      SFRPRT0DR
      00000090H   SFRSYM    DATA     BYTE      SFRPRT1DR
      000000F2H   SFRSYM    DATA     BYTE      SFRPRT12SEL
      00000098H   SFRSYM    DATA     BYTE      SFRPRT2DR
      000000B0H   SFRSYM    DATA     BYTE      SFRPRT3DR
      000000C0H   SFRSYM    DATA     BYTE      SFRPRT4DR
      000000FAH   SFRSYM    DATA     BYTE      SFRPRT15SEL
      000000C8H   SFRSYM    DATA     BYTE      SFRPRT5DR
      000000D8H   SFRSYM    DATA     BYTE      SFRPRT6DR
      00000089H   SFRSYM    DATA     BYTE      SFRPRT0PS
      00000091H   SFRSYM    DATA     BYTE      SFRPRT1PS
      00000099H   SFRSYM    DATA     BYTE      SFRPRT2PS
      000000B1H   SFRSYM    DATA     BYTE      SFRPRT3PS
      000000C1H   SFRSYM    DATA     BYTE      SFRPRT4PS
      000000C9H   SFRSYM    DATA     BYTE      SFRPRT5PS
      000000D9H   SFRSYM    DATA     BYTE      SFRPRT6PS
      000000EAH   SFRSYM    DATA     BYTE      MXAX
      000000F0H   SFRSYM    DATA     BYTE      B
      000000E0H   SFRSYM    DATA     BYTE      ACC
      000000D0H   SFRSYM    DATA     BIT       P
      000000D0H.3 SFRSYM    DATA     BIT       RS0
      000000D0H.4 SFRSYM    DATA     BIT       RS1
      00000083H   SFRSYM    DATA     BYTE      DPH
      000000E8H   SFRSYM    DATA     BYTE      SFRPRT12DR
      00000082H   SFRSYM    DATA     BYTE      DPL
      000000F8H   SFRSYM    DATA     BYTE      SFRPRT15DR
      00000086H   SFRSYM    DATA     BYTE      DPS
      000000E9H   SFRSYM    DATA     BYTE      SFRPRT12PS
      00000093H   SFRSYM    DATA     BYTE      DPX
      000000F9H   SFRSYM    DATA     BYTE      SFRPRT15PS
LX51 LINKER/LOCATER V4.64.0.0                                                         02/02/2018  18:09:00  PAGE 117


      000000D0H.5 SFRSYM    DATA     BIT       F0
      000000D0H.1 SFRSYM    DATA     BIT       F1
      0000008AH   SFRSYM    DATA     BYTE      SFRPRT0SEL
      000000D0H   SFRSYM    DATA     BYTE      PSW
      000000A2H   SFRSYM    DATA     BYTE      SFRPRT1SEL
      0000009AH   SFRSYM    DATA     BYTE      SFRPRT2SEL
      000000B2H   SFRSYM    DATA     BYTE      SFRPRT3SEL
      000000C2H   SFRSYM    DATA     BYTE      SFRPRT4SEL
      02000E50H   SYMBOL    XDATA    DWORD     CyDmaChannels
      02000E54H   SYMBOL    XDATA    BYTE      CyDmaTdFreeIndex
      02000E55H   SYMBOL    XDATA    BYTE      CyDmaTdCurrentNumber

      0100B873H   BLOCK     CODE     ---       LVL=0
      0100B873H   BLOCK     CODE     NEAR LAB  LVL=1
      00000007H   SYMBOL    DATA     BYTE      dmaIndex
      ---         BLOCKEND  ---      ---       LVL=1
      0100B873H   LINE      CODE     ---       #61
      0100B873H   LINE      CODE     ---       #62
      0100B873H   LINE      CODE     ---       #66
      0100B879H   LINE      CODE     ---       #67
      0100B87CH   LINE      CODE     ---       #70
      0100B881H   LINE      CODE     ---       #71
      0100B881H   LINE      CODE     ---       #72
      0100B894H   LINE      CODE     ---       #73
      0100B897H   LINE      CODE     ---       #76
      0100B8A8H   LINE      CODE     ---       #77
      ---         BLOCKEND  ---      ---       LVL=0
      00000007H   SYMBOL    DATA     BYTE      error

      0100B4C6H   BLOCK     CODE     ---       LVL=0
      00000007H   SYMBOL    DATA     BYTE      chHandle
      00000005H   SYMBOL    DATA     BYTE      preserveTds
      0100B4C6H   BLOCK     CODE     NEAR LAB  LVL=1
      00000006H   SYMBOL    DATA     BYTE      status
      ---         BLOCKEND  ---      ---       LVL=1
      0100B4C6H   LINE      CODE     ---       #304
      0100B4C6H   LINE      CODE     ---       #305
      0100B4C6H   LINE      CODE     ---       #306
      0100B4C8H   LINE      CODE     ---       #308
      0100B4CEH   LINE      CODE     ---       #309
      0100B4CEH   LINE      CODE     ---       #310
      0100B4D1H   LINE      CODE     ---       #311
      0100B4D1H   LINE      CODE     ---       #315
      0100B4E4H   LINE      CODE     ---       #316
      0100B4E6H   LINE      CODE     ---       #318
      0100B4E6H   LINE      CODE     ---       #320
      0100B4F9H   LINE      CODE     ---       #321
      0100B4F9H   LINE      CODE     ---       #324
      0100B50CH   LINE      CODE     ---       #326
      0100B50EH   LINE      CODE     ---       #327
      0100B50EH   LINE      CODE     ---       #329
      0100B510H   LINE      CODE     ---       #330
      ---         BLOCKEND  ---      ---       LVL=0
      00000007H   SYMBOL    DATA     BYTE      chHandle
      00000006H   SYMBOL    DATA     BYTE      status
      00000007H   SYMBOL    DATA     BYTE      chHandle
      00000006H   SYMBOL    DATA     BYTE      status

      0100B6B0H   BLOCK     CODE     ---       LVL=0
      00000004H   SYMBOL    DATA     BYTE      chHandle
      00000005H   SYMBOL    DATA     BYTE      priority
      0100B6B2H   BLOCK     CODE     NEAR LAB  LVL=1
      00000002H   SYMBOL    DATA     BYTE      value
      00000003H   SYMBOL    DATA     BYTE      status
      ---         BLOCKEND  ---      ---       LVL=1
LX51 LINKER/LOCATER V4.64.0.0                                                         02/02/2018  18:09:00  PAGE 118


      0100B6B0H   LINE      CODE     ---       #429
      0100B6B2H   LINE      CODE     ---       #430
      0100B6B2H   LINE      CODE     ---       #432
      0100B6B4H   LINE      CODE     ---       #434
      0100B6BAH   LINE      CODE     ---       #435
      0100B6BAH   LINE      CODE     ---       #436
      0100B6CDH   LINE      CODE     ---       #438
      0100B6EBH   LINE      CODE     ---       #440
      0100B6EDH   LINE      CODE     ---       #441
      0100B6EDH   LINE      CODE     ---       #443
      0100B6EFH   LINE      CODE     ---       #444
      ---         BLOCKEND  ---      ---       LVL=0

      0100ADD8H   BLOCK     CODE     ---       LVL=0
      02000009H   SYMBOL    XDATA    BYTE      chHandle
      0200000AH   SYMBOL    XDATA    WORD      source
      0200000CH   SYMBOL    XDATA    WORD      destination
      0100ADEBH   BLOCK     CODE     NEAR LAB  LVL=1
      0200000EH   SYMBOL    XDATA    BYTE      status
      0200000FH   SYMBOL    XDATA    ---       convert
      ---         BLOCKEND  ---      ---       LVL=1
      0100ADD8H   LINE      CODE     ---       #470
      0100ADEBH   LINE      CODE     ---       #472
      0100ADEBH   LINE      CODE     ---       #473
      0100ADF1H   LINE      CODE     ---       #492
      0100ADF7H   LINE      CODE     ---       #493
      0100ADF7H   LINE      CODE     ---       #495
      0100AE0EH   LINE      CODE     ---       #496
      0100AE1EH   LINE      CODE     ---       #499
      0100AE35H   LINE      CODE     ---       #500
      0100AE45H   LINE      CODE     ---       #501
      0100AE4AH   LINE      CODE     ---       #502
      0100AE4AH   LINE      CODE     ---       #504
      0100AE4FH   LINE      CODE     ---       #505
      ---         BLOCKEND  ---      ---       LVL=0

      0100BC81H   BLOCK     CODE     ---       LVL=0
      00000007H   SYMBOL    DATA     BYTE      chHandle
      00000005H   SYMBOL    DATA     BYTE      startTd
      0100BC81H   BLOCK     CODE     NEAR LAB  LVL=1
      00000006H   SYMBOL    DATA     BYTE      status
      ---         BLOCKEND  ---      ---       LVL=1
      0100BC81H   LINE      CODE     ---       #529
      0100BC81H   LINE      CODE     ---       #530
      0100BC81H   LINE      CODE     ---       #531
      0100BC83H   LINE      CODE     ---       #533
      0100BC89H   LINE      CODE     ---       #534
      0100BC89H   LINE      CODE     ---       #535
      0100BC9AH   LINE      CODE     ---       #536
      0100BC9CH   LINE      CODE     ---       #537
      0100BC9CH   LINE      CODE     ---       #539
      0100BC9EH   LINE      CODE     ---       #540
      ---         BLOCKEND  ---      ---       LVL=0
      00000007H   SYMBOL    DATA     BYTE      chHandle
      00000005H   SYMBOL    DATA     BYTE      request
      00000006H   SYMBOL    DATA     BYTE      status
      00000007H   SYMBOL    DATA     BYTE      chHandle
      00000003H   SYMBOL    DATA     BYTE      status
      00000007H   SYMBOL    DATA     BYTE      chHandle
      00000006H   SYMBOL    DATA     BYTE      status

      0100AD5FH   BLOCK     CODE     ---       LVL=0
      00000004H   SYMBOL    DATA     BYTE      chHandle
      00000005H   SYMBOL    DATA     BYTE      burstCount
      00000003H   SYMBOL    DATA     BYTE      requestPerBurst
LX51 LINKER/LOCATER V4.64.0.0                                                         02/02/2018  18:09:00  PAGE 119


      0200000CH   SYMBOL    XDATA    BYTE      tdDone0
      0200000DH   SYMBOL    XDATA    BYTE      tdDone1
      0200000EH   SYMBOL    XDATA    BYTE      tdStop
      0100AD61H   BLOCK     CODE     NEAR LAB  LVL=1
      00000002H   SYMBOL    DATA     BYTE      status
      ---         BLOCKEND  ---      ---       LVL=1
      0100AD5FH   LINE      CODE     ---       #716
      0100AD61H   LINE      CODE     ---       #718
      0100AD61H   LINE      CODE     ---       #719
      0100AD63H   LINE      CODE     ---       #721
      0100AD69H   LINE      CODE     ---       #722
      0100AD69H   LINE      CODE     ---       #723
      0100AD87H   LINE      CODE     ---       #724
      0100ADABH   LINE      CODE     ---       #725
      0100ADC3H   LINE      CODE     ---       #726
      0100ADD4H   LINE      CODE     ---       #728
      0100ADD5H   LINE      CODE     ---       #729
      0100ADD5H   LINE      CODE     ---       #731
      0100ADD7H   LINE      CODE     ---       #732
      ---         BLOCKEND  ---      ---       LVL=0

      0100B6F0H   BLOCK     CODE     ---       LVL=0
      0100B6F0H   BLOCK     CODE     NEAR LAB  LVL=1
      00000007H   SYMBOL    DATA     BYTE      interruptState
      02000003H   SYMBOL    XDATA    BYTE      element
      ---         BLOCKEND  ---      ---       LVL=1
      0100B6F0H   LINE      CODE     ---       #752
      0100B6F0H   LINE      CODE     ---       #753
      0100B6F0H   LINE      CODE     ---       #755
      0100B6F6H   LINE      CODE     ---       #758
      0100B6F9H   LINE      CODE     ---       #760
      0100B702H   LINE      CODE     ---       #761
      0100B702H   LINE      CODE     ---       #763
      0100B70BH   LINE      CODE     ---       #766
      0100B711H   LINE      CODE     ---       #769
      0100B725H   LINE      CODE     ---       #770
      0100B725H   LINE      CODE     ---       #773
      0100B728H   LINE      CODE     ---       #775
      0100B72DH   LINE      CODE     ---       #776
      ---         BLOCKEND  ---      ---       LVL=0

      0100AC55H   BLOCK     CODE     ---       LVL=0
      02000003H   SYMBOL    XDATA    BYTE      tdHandle
      02000004H   SYMBOL    XDATA    WORD      transferCount
      02000006H   SYMBOL    XDATA    BYTE      nextTd
      02000007H   SYMBOL    XDATA    BYTE      configuration
      0100AC65H   BLOCK     CODE     NEAR LAB  LVL=1
      02000008H   SYMBOL    XDATA    BYTE      status
      0100AC7AH   BLOCK     CODE     NEAR LAB  LVL=2
      02000009H   SYMBOL    XDATA    ---       convert
      ---         BLOCKEND  ---      ---       LVL=2
      ---         BLOCKEND  ---      ---       LVL=1
      0100AC55H   LINE      CODE     ---       #891
      0100AC65H   LINE      CODE     ---       #893
      0100AC65H   LINE      CODE     ---       #894
      0100AC6BH   LINE      CODE     ---       #896
      0100AC7AH   LINE      CODE     ---       #897
      0100AC7AH   LINE      CODE     ---       #899
      0100AC91H   LINE      CODE     ---       #900
      0100ACA1H   LINE      CODE     ---       #903
      0100ACBBH   LINE      CODE     ---       #906
      0100ACD1H   LINE      CODE     ---       #908
      0100ACD6H   LINE      CODE     ---       #909
      0100ACD6H   LINE      CODE     ---       #911
      0100ACDBH   LINE      CODE     ---       #912
LX51 LINKER/LOCATER V4.64.0.0                                                         02/02/2018  18:09:00  PAGE 120


      ---         BLOCKEND  ---      ---       LVL=0

      0100AE50H   BLOCK     CODE     ---       LVL=0
      02000003H   SYMBOL    XDATA    BYTE      tdHandle
      02000004H   SYMBOL    XDATA    WORD      source
      02000006H   SYMBOL    XDATA    WORD      destination
      0100AE63H   BLOCK     CODE     NEAR LAB  LVL=1
      02000008H   SYMBOL    XDATA    BYTE      status
      02000009H   SYMBOL    XDATA    ---       convert
      ---         BLOCKEND  ---      ---       LVL=1
      0100AE50H   LINE      CODE     ---       #1010
      0100AE63H   LINE      CODE     ---       #1011
      0100AE63H   LINE      CODE     ---       #1012
      0100AE69H   LINE      CODE     ---       #1015
      0100AE6FH   LINE      CODE     ---       #1016
      0100AE6FH   LINE      CODE     ---       #1018
      0100AE86H   LINE      CODE     ---       #1019
      0100AE96H   LINE      CODE     ---       #1022
      0100AEADH   LINE      CODE     ---       #1023
      0100AEBDH   LINE      CODE     ---       #1025
      0100AEC2H   LINE      CODE     ---       #1026
      0100AEC2H   LINE      CODE     ---       #1028
      0100AEC7H   LINE      CODE     ---       #1029
      ---         BLOCKEND  ---      ---       LVL=0
      00000007H   SYMBOL    DATA     BYTE      chHandle
      00000005H   SYMBOL    DATA     BYTE      enableRR
      00000006H   SYMBOL    DATA     BYTE      status

      ---         MODULE    ---      ---       CYLIB
      02000E4CH   PUBLIC    XDATA    DWORD     cydelay_32k_ms
      02000E4BH   PUBLIC    XDATA    BYTE      CyResetStatus
      02000E47H   PUBLIC    XDATA    DWORD     cydelay_freq_hz
      02000E46H   PUBLIC    XDATA    BYTE      cydelay_freq_mhz
      02000E42H   PUBLIC    XDATA    DWORD     cydelay_freq_khz
      0100BD08H   PUBLIC    CODE     ---       _CyIntSetPriority
      0100B2E2H   PUBLIC    CODE     ---       _CyIntSetVector
      0100ABCDH   PUBLIC    CODE     ---       _?CyDelay
      0100C0C0H   PUBLIC    CODE     ---       CySoftwareReset
      000000CAH   SFRSYM    DATA     BYTE      SFRPRT5SEL
      000000DAH   SFRSYM    DATA     BYTE      SFRPRT6SEL
      000000D0H.6 SFRSYM    DATA     BIT       AC
      000000A8H.7 SFRSYM    DATA     BIT       EA
      000000A8H   SFRSYM    DATA     BYTE      IE
      00000085H   SFRSYM    DATA     BYTE      DPH1
      00000084H   SFRSYM    DATA     BYTE      DPL1
      000000D0H.7 SFRSYM    DATA     BIT       CY
      000000A0H   SFRSYM    DATA     BYTE      P2AX
      00000095H   SFRSYM    DATA     BYTE      DPX1
      00000081H   SFRSYM    DATA     BYTE      SP
      000000D0H.2 SFRSYM    DATA     BIT       OV
      00000080H   SFRSYM    DATA     BYTE      SFRPRT0DR
      00000090H   SFRSYM    DATA     BYTE      SFRPRT1DR
      000000F2H   SFRSYM    DATA     BYTE      SFRPRT12SEL
      00000098H   SFRSYM    DATA     BYTE      SFRPRT2DR
      000000B0H   SFRSYM    DATA     BYTE      SFRPRT3DR
      000000C0H   SFRSYM    DATA     BYTE      SFRPRT4DR
      000000FAH   SFRSYM    DATA     BYTE      SFRPRT15SEL
      000000C8H   SFRSYM    DATA     BYTE      SFRPRT5DR
      000000D8H   SFRSYM    DATA     BYTE      SFRPRT6DR
      00000089H   SFRSYM    DATA     BYTE      SFRPRT0PS
      00000091H   SFRSYM    DATA     BYTE      SFRPRT1PS
      00000099H   SFRSYM    DATA     BYTE      SFRPRT2PS
      000000B1H   SFRSYM    DATA     BYTE      SFRPRT3PS
      000000C1H   SFRSYM    DATA     BYTE      SFRPRT4PS
      000000C9H   SFRSYM    DATA     BYTE      SFRPRT5PS
LX51 LINKER/LOCATER V4.64.0.0                                                         02/02/2018  18:09:00  PAGE 121


      000000D9H   SFRSYM    DATA     BYTE      SFRPRT6PS
      000000EAH   SFRSYM    DATA     BYTE      MXAX
      000000F0H   SFRSYM    DATA     BYTE      B
      000000E0H   SFRSYM    DATA     BYTE      ACC
      000000D0H   SFRSYM    DATA     BIT       P
      000000D0H.3 SFRSYM    DATA     BIT       RS0
      000000D0H.4 SFRSYM    DATA     BIT       RS1
      00000083H   SFRSYM    DATA     BYTE      DPH
      000000E8H   SFRSYM    DATA     BYTE      SFRPRT12DR
      00000082H   SFRSYM    DATA     BYTE      DPL
      000000F8H   SFRSYM    DATA     BYTE      SFRPRT15DR
      00000086H   SFRSYM    DATA     BYTE      DPS
      000000E9H   SFRSYM    DATA     BYTE      SFRPRT12PS
      00000093H   SFRSYM    DATA     BYTE      DPX
      000000F9H   SFRSYM    DATA     BYTE      SFRPRT15PS
      000000D0H.5 SFRSYM    DATA     BIT       F0
      000000D0H.1 SFRSYM    DATA     BIT       F1
      0000008AH   SFRSYM    DATA     BYTE      SFRPRT0SEL
      000000D0H   SFRSYM    DATA     BYTE      PSW
      000000A2H   SFRSYM    DATA     BYTE      SFRPRT1SEL
      0000009AH   SFRSYM    DATA     BYTE      SFRPRT2SEL
      000000B2H   SFRSYM    DATA     BYTE      SFRPRT3SEL
      000000C2H   SFRSYM    DATA     BYTE      SFRPRT4SEL
      00000007H   SYMBOL    DATA     BYTE      wait
      00000007H   SYMBOL    DATA     BYTE      pDiv
      00000005H   SYMBOL    DATA     BYTE      qDiv
      00000003H   SYMBOL    DATA     BYTE      current
      00000007H   SYMBOL    DATA     BYTE      source
      00000007H   SYMBOL    DATA     BYTE      wait
      00000007H   SYMBOL    DATA     BYTE      poweredOn
      00000006H   SYMBOL    DATA     BYTE      freq
      00000007H   SYMBOL    DATA     BYTE      source
      00000007H   SYMBOL    DATA     BYTE      source
      00000007H   SYMBOL    DATA     BYTE      divider
      00000006H   SYMBOL    DATA     WORD      divider
      00000005H   SYMBOL    DATA     BYTE      masterClkDiv
      00000006H   SYMBOL    DATA     WORD      busClkDiv
      00000001H   SYMBOL    DATA     BYTE      interruptState
      00000007H   SYMBOL    DATA     BYTE      divider
      00000007H   SYMBOL    DATA     BYTE      source
      00000007H   SYMBOL    DATA     BYTE      source
      00000007H   SYMBOL    DATA     BYTE      mode
      00000006H   SYMBOL    DATA     BYTE      state
      00000007H   SYMBOL    DATA     BYTE      mode
      00000007H   SYMBOL    DATA     BYTE      wait
      00000007H   SYMBOL    DATA     BYTE      setting
      00000007H   SYMBOL    DATA     BYTE      setting
      00000007H   SYMBOL    DATA     BYTE      setting
      00000000H   SYMBOL    XSTK     BYTE      reason

      0100C0C0H   BLOCK     CODE     ---       LVL=0
      0100C0C0H   LINE      CODE     ---       #1666
      0100C0C0H   LINE      CODE     ---       #1667
      0100C0C0H   LINE      CODE     ---       #1668
      0100C0C7H   LINE      CODE     ---       #1669
      ---         BLOCKEND  ---      ---       LVL=0

      0100ABCDH   BLOCK     CODE     ---       LVL=0
      00000000H   SYMBOL    XSTK     DWORD     milliseconds
      0100ABCDH   LINE      CODE     ---       #1692
      0100ABD6H   LINE      CODE     ---       #1694
      0100ABECH   LINE      CODE     ---       #1695
      0100ABECH   LINE      CODE     ---       #1700
      0100ABFDH   LINE      CODE     ---       #1701
      0100AC27H   LINE      CODE     ---       #1702
LX51 LINKER/LOCATER V4.64.0.0                                                         02/02/2018  18:09:00  PAGE 122


      0100AC29H   LINE      CODE     ---       #1704
      0100AC4EH   LINE      CODE     ---       #1705
      ---         BLOCKEND  ---      ---       LVL=0
      00000000H   SYMBOL    XSTK     DWORD     freq
      00000007H   SYMBOL    DATA     BYTE      ticks
      00000005H   SYMBOL    DATA     BYTE      lpMode
      02000E41H   SYMBOL    XDATA    BYTE      interruptStatus
      00000005H   SYMBOL    DATA     BYTE      interruptState
      00000005H   SYMBOL    DATA     BYTE      interruptState
      00000003H   SYMBOL    DATA     BYTE      interruptState

      0100B2E2H   BLOCK     CODE     ---       LVL=0
      02000003H   SYMBOL    XDATA    BYTE      number
      02000004H   SYMBOL    XDATA    ---       address
      0100B2EFH   BLOCK     CODE     NEAR LAB  LVL=1
      02000006H   SYMBOL    XDATA    ---       oldIsr
      ---         BLOCKEND  ---      ---       LVL=1
      0100B2E2H   LINE      CODE     ---       #2641
      0100B2EFH   LINE      CODE     ---       #2642
      0100B2EFH   LINE      CODE     ---       #2648
      0100B30DH   LINE      CODE     ---       #2652
      0100B32DH   LINE      CODE     ---       #2654
      0100B335H   LINE      CODE     ---       #2655
      ---         BLOCKEND  ---      ---       LVL=0
      00000007H   SYMBOL    DATA     BYTE      number

      0100BD08H   BLOCK     CODE     ---       LVL=0
      00000004H   SYMBOL    DATA     BYTE      number
      00000005H   SYMBOL    DATA     BYTE      priority
      0100BD08H   LINE      CODE     ---       #2696
      0100BD0AH   LINE      CODE     ---       #2697
      0100BD0AH   LINE      CODE     ---       #2702
      0100BD20H   LINE      CODE     ---       #2704
      ---         BLOCKEND  ---      ---       LVL=0
      00000007H   SYMBOL    DATA     BYTE      number
      00000007H   SYMBOL    DATA     BYTE      priority
      00000005H   SYMBOL    DATA     BYTE      number
      00000006H   SYMBOL    DATA     ---       stateReg

      ---         MODULE    ---      ---       CYBOOTASMKEIL
      0100BDC4H   PUBLIC    CODE     NEAR LAB  CyEnterCriticalSection
      0100B800H   PUBLIC    CODE     NEAR LAB  _CyDelayCycles
      0100BACCH   PUBLIC    CODE     NEAR LAB  _CyDelayUs
      0100BD52H   PUBLIC    CODE     NEAR LAB  _CyExitCriticalSection

      ---         MODULE    ---      ---       CYMEM
      02000000H   PUBLIC    XDATA    BYTE      ?_cyconfigcpy?BYTE
      0100B912H   PUBLIC    CODE     NEAR LAB  _cyconfigcpy
      0100BB99H   PUBLIC    CODE     NEAR LAB  _cyconfigcpycode
      0100BF17H   PUBLIC    CODE     NEAR LAB  _cyread16
      0100BF19H   PUBLIC    CODE     NEAR LAB  _cyread16_nodpx
      0100BEAFH   PUBLIC    CODE     NEAR LAB  _cyread24
      0100BEB1H   PUBLIC    CODE     NEAR LAB  _cyread24_nodpx
      0100BFD8H   PUBLIC    CODE     NEAR LAB  _cyread8
      0100BFDAH   PUBLIC    CODE     NEAR LAB  _cyread8_nodpx
      0100BF26H   PUBLIC    CODE     NEAR LAB  _cywrite16
      0100BF28H   PUBLIC    CODE     NEAR LAB  _cywrite16_nodpx
      0100BED4H   PUBLIC    CODE     NEAR LAB  _cywrite24
      0100BED6H   PUBLIC    CODE     NEAR LAB  _cywrite24_nodpx
      0100BFE4H   PUBLIC    CODE     NEAR LAB  _cywrite8
      0100BFE6H   PUBLIC    CODE     NEAR LAB  _cywrite8_nodpx

      ---         MODULE    ---      ---       ?C_STARTUP
      00000000H   PUBLIC    NUMBER   ---       ?C?XPAGE1RST
      00000093H   PUBLIC    DATA     BYTE      ?C?XPAGE1SFR
LX51 LINKER/LOCATER V4.64.0.0                                                         02/02/2018  18:09:00  PAGE 123


      01002600H   PUBLIC    CODE     NEAR LAB  ?C_STARTUP
      0100A0C5H   PUBLIC    CODE     NEAR LAB  STARTUP1
      01002604H   PUBLIC    CODE     NEAR LAB  _dma_wait

      ---         MODULE    ---      ---       UART_RS485_INT
      0100A80FH   PUBLIC    CODE     ---       UART_RS485_RXISR
      000000CAH   SFRSYM    DATA     BYTE      SFRPRT5SEL
      000000DAH   SFRSYM    DATA     BYTE      SFRPRT6SEL
      000000D0H.6 SFRSYM    DATA     BIT       AC
      000000A8H.7 SFRSYM    DATA     BIT       EA
      000000A8H   SFRSYM    DATA     BYTE      IE
      00000085H   SFRSYM    DATA     BYTE      DPH1
      00000084H   SFRSYM    DATA     BYTE      DPL1
      000000D0H.7 SFRSYM    DATA     BIT       CY
      000000A0H   SFRSYM    DATA     BYTE      P2AX
      00000095H   SFRSYM    DATA     BYTE      DPX1
      00000081H   SFRSYM    DATA     BYTE      SP
      000000D0H.2 SFRSYM    DATA     BIT       OV
      00000080H   SFRSYM    DATA     BYTE      SFRPRT0DR
      00000090H   SFRSYM    DATA     BYTE      SFRPRT1DR
      000000F2H   SFRSYM    DATA     BYTE      SFRPRT12SEL
      00000098H   SFRSYM    DATA     BYTE      SFRPRT2DR
      000000B0H   SFRSYM    DATA     BYTE      SFRPRT3DR
      000000C0H   SFRSYM    DATA     BYTE      SFRPRT4DR
      000000FAH   SFRSYM    DATA     BYTE      SFRPRT15SEL
      000000C8H   SFRSYM    DATA     BYTE      SFRPRT5DR
      000000D8H   SFRSYM    DATA     BYTE      SFRPRT6DR
      00000089H   SFRSYM    DATA     BYTE      SFRPRT0PS
      00000091H   SFRSYM    DATA     BYTE      SFRPRT1PS
      00000099H   SFRSYM    DATA     BYTE      SFRPRT2PS
      000000B1H   SFRSYM    DATA     BYTE      SFRPRT3PS
      000000C1H   SFRSYM    DATA     BYTE      SFRPRT4PS
      000000C9H   SFRSYM    DATA     BYTE      SFRPRT5PS
      000000D9H   SFRSYM    DATA     BYTE      SFRPRT6PS
      000000EAH   SFRSYM    DATA     BYTE      MXAX
      000000F0H   SFRSYM    DATA     BYTE      B
      000000E0H   SFRSYM    DATA     BYTE      ACC
      000000D0H   SFRSYM    DATA     BIT       P
      000000D0H.3 SFRSYM    DATA     BIT       RS0
      000000D0H.4 SFRSYM    DATA     BIT       RS1
      00000083H   SFRSYM    DATA     BYTE      DPH
      000000E8H   SFRSYM    DATA     BYTE      SFRPRT12DR
      00000082H   SFRSYM    DATA     BYTE      DPL
      000000F8H   SFRSYM    DATA     BYTE      SFRPRT15DR
      00000086H   SFRSYM    DATA     BYTE      DPS
      000000E9H   SFRSYM    DATA     BYTE      SFRPRT12PS
      00000093H   SFRSYM    DATA     BYTE      DPX
      000000F9H   SFRSYM    DATA     BYTE      SFRPRT15PS
      000000D0H.5 SFRSYM    DATA     BIT       F0
      000000D0H.1 SFRSYM    DATA     BIT       F1
      0000008AH   SFRSYM    DATA     BYTE      SFRPRT0SEL
      000000D0H   SFRSYM    DATA     BYTE      PSW
      000000A2H   SFRSYM    DATA     BYTE      SFRPRT1SEL
      0000009AH   SFRSYM    DATA     BYTE      SFRPRT2SEL
      000000B2H   SFRSYM    DATA     BYTE      SFRPRT3SEL
      000000C2H   SFRSYM    DATA     BYTE      SFRPRT4SEL

      0100A80FH   BLOCK     CODE     ---       LVL=0
      0100A832H   BLOCK     CODE     NEAR LAB  LVL=1
      00000006H   SYMBOL    DATA     BYTE      readData
      00000007H   SYMBOL    DATA     BYTE      readStatus
      00000003H   SYMBOL    DATA     BYTE      increment_pointer
      00000002H   SYMBOL    DATA     BYTE      int_en
      ---         BLOCKEND  ---      ---       LVL=1
      0100A80FH   LINE      CODE     ---       #59
LX51 LINKER/LOCATER V4.64.0.0                                                         02/02/2018  18:09:00  PAGE 124


      0100A832H   LINE      CODE     ---       #63
      0100A834H   LINE      CODE     ---       #79
      0100A838H   LINE      CODE     ---       #80
      0100A840H   LINE      CODE     ---       #84
      0100A840H   LINE      CODE     ---       #86
      0100A845H   LINE      CODE     ---       #90
      0100A846H   LINE      CODE     ---       #95
      0100A84BH   LINE      CODE     ---       #96
      0100A84BH   LINE      CODE     ---       #101
      0100A851H   LINE      CODE     ---       #109
      0100A851H   LINE      CODE     ---       #111
      0100A855H   LINE      CODE     ---       #112
      0100A855H   LINE      CODE     ---       #114
      0100A85AH   LINE      CODE     ---       #141
      0100A869H   LINE      CODE     ---       #142
      0100A86BH   LINE      CODE     ---       #146
      0100A86EH   LINE      CODE     ---       #147
      0100A86EH   LINE      CODE     ---       #148
      0100A874H   LINE      CODE     ---       #149
      0100A874H   LINE      CODE     ---       #150
      0100A87AH   LINE      CODE     ---       #151
      0100A87AH   LINE      CODE     ---       #153
      0100A880H   LINE      CODE     ---       #156
      0100A886H   LINE      CODE     ---       #157
      0100A886H   LINE      CODE     ---       #158
      0100A888H   LINE      CODE     ---       #159
      0100A888H   LINE      CODE     ---       #162
      0100A894H   LINE      CODE     ---       #163
      0100A894H   LINE      CODE     ---       #164
      0100A89AH   LINE      CODE     ---       #172
      0100A89AH   LINE      CODE     ---       #173
      0100A89AH   LINE      CODE     ---       #174
      0100A89AH   LINE      CODE     ---       #175
      0100A89EH   LINE      CODE     ---       #187
      0100A8A5H   LINE      CODE     ---       #189
      ---         BLOCKEND  ---      ---       LVL=0

      ---         MODULE    ---      ---       ADC_INT
      0100C1B1H   PUBLIC    CODE     ---       ADC_ISR4
      0100C1B0H   PUBLIC    CODE     ---       ADC_ISR3
      0100C1AFH   PUBLIC    CODE     ---       ADC_ISR2
      0100C1AEH   PUBLIC    CODE     ---       ADC_ISR1
      000000CAH   SFRSYM    DATA     BYTE      SFRPRT5SEL
      000000DAH   SFRSYM    DATA     BYTE      SFRPRT6SEL
      000000D0H.6 SFRSYM    DATA     BIT       AC
      000000A8H.7 SFRSYM    DATA     BIT       EA
      000000A8H   SFRSYM    DATA     BYTE      IE
      00000085H   SFRSYM    DATA     BYTE      DPH1
      00000084H   SFRSYM    DATA     BYTE      DPL1
      000000D0H.7 SFRSYM    DATA     BIT       CY
      000000A0H   SFRSYM    DATA     BYTE      P2AX
      00000095H   SFRSYM    DATA     BYTE      DPX1
      00000081H   SFRSYM    DATA     BYTE      SP
      000000D0H.2 SFRSYM    DATA     BIT       OV
      00000080H   SFRSYM    DATA     BYTE      SFRPRT0DR
      00000090H   SFRSYM    DATA     BYTE      SFRPRT1DR
      000000F2H   SFRSYM    DATA     BYTE      SFRPRT12SEL
      00000098H   SFRSYM    DATA     BYTE      SFRPRT2DR
      000000B0H   SFRSYM    DATA     BYTE      SFRPRT3DR
      000000C0H   SFRSYM    DATA     BYTE      SFRPRT4DR
      000000FAH   SFRSYM    DATA     BYTE      SFRPRT15SEL
      000000C8H   SFRSYM    DATA     BYTE      SFRPRT5DR
      000000D8H   SFRSYM    DATA     BYTE      SFRPRT6DR
      00000089H   SFRSYM    DATA     BYTE      SFRPRT0PS
      00000091H   SFRSYM    DATA     BYTE      SFRPRT1PS
LX51 LINKER/LOCATER V4.64.0.0                                                         02/02/2018  18:09:00  PAGE 125


      00000099H   SFRSYM    DATA     BYTE      SFRPRT2PS
      000000B1H   SFRSYM    DATA     BYTE      SFRPRT3PS
      000000C1H   SFRSYM    DATA     BYTE      SFRPRT4PS
      000000C9H   SFRSYM    DATA     BYTE      SFRPRT5PS
      000000D9H   SFRSYM    DATA     BYTE      SFRPRT6PS
      000000EAH   SFRSYM    DATA     BYTE      MXAX
      000000F0H   SFRSYM    DATA     BYTE      B
      000000E0H   SFRSYM    DATA     BYTE      ACC
      000000D0H   SFRSYM    DATA     BIT       P
      000000D0H.3 SFRSYM    DATA     BIT       RS0
      000000D0H.4 SFRSYM    DATA     BIT       RS1
      00000083H   SFRSYM    DATA     BYTE      DPH
      000000E8H   SFRSYM    DATA     BYTE      SFRPRT12DR
      00000082H   SFRSYM    DATA     BYTE      DPL
      000000F8H   SFRSYM    DATA     BYTE      SFRPRT15DR
      00000086H   SFRSYM    DATA     BYTE      DPS
      000000E9H   SFRSYM    DATA     BYTE      SFRPRT12PS
      00000093H   SFRSYM    DATA     BYTE      DPX
      000000F9H   SFRSYM    DATA     BYTE      SFRPRT15PS
      000000D0H.5 SFRSYM    DATA     BIT       F0
      000000D0H.1 SFRSYM    DATA     BIT       F1
      0000008AH   SFRSYM    DATA     BYTE      SFRPRT0SEL
      000000D0H   SFRSYM    DATA     BYTE      PSW
      000000A2H   SFRSYM    DATA     BYTE      SFRPRT1SEL
      0000009AH   SFRSYM    DATA     BYTE      SFRPRT2SEL
      000000B2H   SFRSYM    DATA     BYTE      SFRPRT3SEL
      000000C2H   SFRSYM    DATA     BYTE      SFRPRT4SEL

      0100C1AEH   BLOCK     CODE     ---       LVL=0
      0100C1AEH   LINE      CODE     ---       #51
      0100C1AEH   LINE      CODE     ---       #81
      ---         BLOCKEND  ---      ---       LVL=0

      0100C1AFH   BLOCK     CODE     ---       LVL=0
      0100C1AFH   LINE      CODE     ---       #101
      0100C1AFH   LINE      CODE     ---       #131
      ---         BLOCKEND  ---      ---       LVL=0

      0100C1B0H   BLOCK     CODE     ---       LVL=0
      0100C1B0H   LINE      CODE     ---       #151
      0100C1B0H   LINE      CODE     ---       #181
      ---         BLOCKEND  ---      ---       LVL=0

      0100C1B1H   BLOCK     CODE     ---       LVL=0
      0100C1B1H   LINE      CODE     ---       #201
      0100C1B1H   LINE      CODE     ---       #231
      ---         BLOCKEND  ---      ---       LVL=0

      ---         MODULE    ---      ---       ADC_AMUX
      0100BD21H   PUBLIC    CODE     ---       _ADC_AMux_Select
      0100BC03H   PUBLIC    CODE     ---       ADC_AMux_Start
      02000E6BH   SYMBOL    XDATA    BYTE      ADC_AMux_lastChannel

      0100BC03H   BLOCK     CODE     ---       LVL=0
      0100BC03H   BLOCK     CODE     NEAR LAB  LVL=1
      02000004H   SYMBOL    XDATA    BYTE      chan
      ---         BLOCKEND  ---      ---       LVL=1
      0100BC03H   LINE      CODE     ---       #36
      0100BC03H   LINE      CODE     ---       #37
      0100BC03H   LINE      CODE     ---       #40
      0100BC12H   LINE      CODE     ---       #41
      0100BC12H   LINE      CODE     ---       #43
      0100BC15H   LINE      CODE     ---       #48
      0100BC1DH   LINE      CODE     ---       #50
      0100BC23H   LINE      CODE     ---       #51
LX51 LINKER/LOCATER V4.64.0.0                                                         02/02/2018  18:09:00  PAGE 126


      ---         BLOCKEND  ---      ---       LVL=0

      0100BD21H   BLOCK     CODE     ---       LVL=0
      02000003H   SYMBOL    XDATA    BYTE      channel
      0100BD21H   LINE      CODE     ---       #69
      0100BD26H   LINE      CODE     ---       #70
      0100BD26H   LINE      CODE     ---       #71
      0100BD29H   LINE      CODE     ---       #72
      0100BD31H   LINE      CODE     ---       #73
      0100BD39H   LINE      CODE     ---       #74
      ---         BLOCKEND  ---      ---       LVL=0

      ---         MODULE    ---      ---       ADC_EXT_CP_CLK
      0100C0C8H   PUBLIC    CODE     ---       ADC_Ext_CP_Clk_GetSourceRegister
      0100BFBEH   PUBLIC    CODE     ---       _ADC_Ext_CP_Clk_SetModeRegister
      0100C08CH   PUBLIC    CODE     ---       ADC_Ext_CP_Clk_GetDividerRegister
      010099B3H   PUBLIC    CODE     ---       _ADC_Ext_CP_Clk_SetDividerRegister
      00000007H   SYMBOL    DATA     BYTE      state

      010099B3H   BLOCK     CODE     ---       LVL=0
      02000003H   SYMBOL    XDATA    WORD      clkDivider
      02000005H   SYMBOL    XDATA    BYTE      restart
      010099BEH   BLOCK     CODE     NEAR LAB  LVL=1
      02000006H   SYMBOL    XDATA    BYTE      enabled
      02000007H   SYMBOL    XDATA    BYTE      currSrc
      02000008H   SYMBOL    XDATA    WORD      oldDivider
      ---         BLOCKEND  ---      ---       LVL=1
      010099B3H   LINE      CODE     ---       #193
      010099BEH   LINE      CODE     ---       #195
      010099BEH   LINE      CODE     ---       #198
      010099C6H   LINE      CODE     ---       #199
      010099D1H   LINE      CODE     ---       #201
      010099E3H   LINE      CODE     ---       #202
      010099E3H   LINE      CODE     ---       #203
      010099EDH   LINE      CODE     ---       #205
      010099FEH   LINE      CODE     ---       #206
      010099FEH   LINE      CODE     ---       #208
      01009A02H   LINE      CODE     ---       #209
      01009A02H   LINE      CODE     ---       #213
      01009A0BH   LINE      CODE     ---       #214
      01009A12H   LINE      CODE     ---       #215
      01009A13H   LINE      CODE     ---       #217
      01009A13H   LINE      CODE     ---       #220
      01009A1AH   LINE      CODE     ---       #221
      01009A2BH   LINE      CODE     ---       #222
      01009A2BH   LINE      CODE     ---       #223
      01009A2CH   LINE      CODE     ---       #225
      01009A2CH   LINE      CODE     ---       #227
      01009A32H   LINE      CODE     ---       #228
      01009A32H   LINE      CODE     ---       #229
      01009A37H   LINE      CODE     ---       #236
      01009A3DH   LINE      CODE     ---       #237
      01009A42H   LINE      CODE     ---       #240
      01009A49H   LINE      CODE     ---       #243
      01009A5BH   LINE      CODE     ---       #244
      01009A5BH   LINE      CODE     ---       #246
      01009A6CH   LINE      CODE     ---       #247
      01009A72H   LINE      CODE     ---       #250
      01009A7AH   LINE      CODE     ---       #253
      01009A81H   LINE      CODE     ---       #257
      01009A86H   LINE      CODE     ---       #259
      01009A86H   LINE      CODE     ---       #260
      01009A86H   LINE      CODE     ---       #263
      01009A8EH   LINE      CODE     ---       #264
      01009A8EH   LINE      CODE     ---       #266
LX51 LINKER/LOCATER V4.64.0.0                                                         02/02/2018  18:09:00  PAGE 127


      01009A9FH   LINE      CODE     ---       #268
      01009AB2H   LINE      CODE     ---       #269
      01009ABCH   LINE      CODE     ---       #270
      01009ABDH   LINE      CODE     ---       #272
      01009ABDH   LINE      CODE     ---       #274
      01009ACEH   LINE      CODE     ---       #275
      01009AE3H   LINE      CODE     ---       #276
      01009AE3H   LINE      CODE     ---       #277
      01009AE3H   LINE      CODE     ---       #278
      01009AE3H   LINE      CODE     ---       #279
      ---         BLOCKEND  ---      ---       LVL=0

      0100C08CH   BLOCK     CODE     ---       LVL=0
      0100C08CH   LINE      CODE     ---       #297
      0100C08CH   LINE      CODE     ---       #298
      0100C08CH   LINE      CODE     ---       #299
      0100C095H   LINE      CODE     ---       #300
      ---         BLOCKEND  ---      ---       LVL=0

      0100BFBEH   BLOCK     CODE     ---       LVL=0
      00000007H   SYMBOL    DATA     BYTE      modeBitMask
      0100BFBEH   LINE      CODE     ---       #332
      0100BFBEH   LINE      CODE     ---       #333
      0100BFBEH   LINE      CODE     ---       #334
      0100BFCAH   LINE      CODE     ---       #335
      ---         BLOCKEND  ---      ---       LVL=0
      00000007H   SYMBOL    DATA     BYTE      modeBitMask
      00000007H   SYMBOL    DATA     BYTE      oldSrc

      0100C0C8H   BLOCK     CODE     ---       LVL=0
      0100C0C8H   LINE      CODE     ---       #464
      0100C0C8H   LINE      CODE     ---       #465
      0100C0C8H   LINE      CODE     ---       #466
      0100C0CFH   LINE      CODE     ---       #467
      ---         BLOCKEND  ---      ---       LVL=0

      ---         MODULE    ---      ---       ADC_THEACLK
      0100C0D0H   PUBLIC    CODE     ---       ADC_theACLK_GetSourceRegister
      0100BFCBH   PUBLIC    CODE     ---       _ADC_theACLK_SetModeRegister
      0100C096H   PUBLIC    CODE     ---       ADC_theACLK_GetDividerRegister
      01009D43H   PUBLIC    CODE     ---       _ADC_theACLK_SetDividerRegister
      00000007H   SYMBOL    DATA     BYTE      state

      01009D43H   BLOCK     CODE     ---       LVL=0
      02000003H   SYMBOL    XDATA    WORD      clkDivider
      02000005H   SYMBOL    XDATA    BYTE      restart
      01009D4EH   BLOCK     CODE     NEAR LAB  LVL=1
      02000006H   SYMBOL    XDATA    BYTE      enabled
      02000007H   SYMBOL    XDATA    BYTE      currSrc
      02000008H   SYMBOL    XDATA    WORD      oldDivider
      ---         BLOCKEND  ---      ---       LVL=1
      01009D43H   LINE      CODE     ---       #193
      01009D4EH   LINE      CODE     ---       #195
      01009D4EH   LINE      CODE     ---       #198
      01009D56H   LINE      CODE     ---       #199
      01009D61H   LINE      CODE     ---       #201
      01009D73H   LINE      CODE     ---       #202
      01009D73H   LINE      CODE     ---       #203
      01009D7DH   LINE      CODE     ---       #205
      01009D8EH   LINE      CODE     ---       #206
      01009D8EH   LINE      CODE     ---       #208
      01009D92H   LINE      CODE     ---       #209
      01009D92H   LINE      CODE     ---       #213
      01009D9AH   LINE      CODE     ---       #214
      01009DA1H   LINE      CODE     ---       #215
LX51 LINKER/LOCATER V4.64.0.0                                                         02/02/2018  18:09:00  PAGE 128


      01009DA2H   LINE      CODE     ---       #217
      01009DA2H   LINE      CODE     ---       #220
      01009DA9H   LINE      CODE     ---       #221
      01009DBAH   LINE      CODE     ---       #222
      01009DBAH   LINE      CODE     ---       #223
      01009DBBH   LINE      CODE     ---       #225
      01009DBBH   LINE      CODE     ---       #227
      01009DC1H   LINE      CODE     ---       #228
      01009DC1H   LINE      CODE     ---       #229
      01009DC6H   LINE      CODE     ---       #233
      01009DCBH   LINE      CODE     ---       #234
      01009DD0H   LINE      CODE     ---       #240
      01009DD7H   LINE      CODE     ---       #243
      01009DE9H   LINE      CODE     ---       #244
      01009DE9H   LINE      CODE     ---       #246
      01009DFAH   LINE      CODE     ---       #247
      01009E00H   LINE      CODE     ---       #250
      01009E08H   LINE      CODE     ---       #253
      01009E0FH   LINE      CODE     ---       #257
      01009E14H   LINE      CODE     ---       #259
      01009E14H   LINE      CODE     ---       #260
      01009E14H   LINE      CODE     ---       #263
      01009E1CH   LINE      CODE     ---       #264
      01009E1CH   LINE      CODE     ---       #266
      01009E2DH   LINE      CODE     ---       #268
      01009E40H   LINE      CODE     ---       #269
      01009E4AH   LINE      CODE     ---       #270
      01009E4BH   LINE      CODE     ---       #272
      01009E4BH   LINE      CODE     ---       #274
      01009E5CH   LINE      CODE     ---       #275
      01009E71H   LINE      CODE     ---       #276
      01009E71H   LINE      CODE     ---       #277
      01009E71H   LINE      CODE     ---       #278
      01009E71H   LINE      CODE     ---       #279
      ---         BLOCKEND  ---      ---       LVL=0

      0100C096H   BLOCK     CODE     ---       LVL=0
      0100C096H   LINE      CODE     ---       #297
      0100C096H   LINE      CODE     ---       #298
      0100C096H   LINE      CODE     ---       #299
      0100C09FH   LINE      CODE     ---       #300
      ---         BLOCKEND  ---      ---       LVL=0

      0100BFCBH   BLOCK     CODE     ---       LVL=0
      00000007H   SYMBOL    DATA     BYTE      modeBitMask
      0100BFCBH   LINE      CODE     ---       #332
      0100BFCBH   LINE      CODE     ---       #333
      0100BFCBH   LINE      CODE     ---       #334
      0100BFD7H   LINE      CODE     ---       #335
      ---         BLOCKEND  ---      ---       LVL=0
      00000007H   SYMBOL    DATA     BYTE      modeBitMask
      00000007H   SYMBOL    DATA     BYTE      oldSrc

      0100C0D0H   BLOCK     CODE     ---       LVL=0
      0100C0D0H   LINE      CODE     ---       #464
      0100C0D0H   LINE      CODE     ---       #465
      0100C0D0H   LINE      CODE     ---       #466
      0100C0D7H   LINE      CODE     ---       #467
      ---         BLOCKEND  ---      ---       LVL=0
      00000007H   SYMBOL    DATA     BYTE      clkPhase

      ---         MODULE    ---      ---       CYFLASH
      02000E59H   PUBLIC    XDATA    ---       dieTemperature
      0100B9DCH   PUBLIC    CODE     ---       CyEEPROM_Start
      0100BD6AH   PUBLIC    CODE     ---       CySetTemp
LX51 LINKER/LOCATER V4.64.0.0                                                         02/02/2018  18:09:00  PAGE 129


      000000CAH   SFRSYM    DATA     BYTE      SFRPRT5SEL
      000000DAH   SFRSYM    DATA     BYTE      SFRPRT6SEL
      000000D0H.6 SFRSYM    DATA     BIT       AC
      000000A8H.7 SFRSYM    DATA     BIT       EA
      000000A8H   SFRSYM    DATA     BYTE      IE
      00000085H   SFRSYM    DATA     BYTE      DPH1
      00000084H   SFRSYM    DATA     BYTE      DPL1
      000000D0H.7 SFRSYM    DATA     BIT       CY
      000000A0H   SFRSYM    DATA     BYTE      P2AX
      00000095H   SFRSYM    DATA     BYTE      DPX1
      00000081H   SFRSYM    DATA     BYTE      SP
      000000D0H.2 SFRSYM    DATA     BIT       OV
      00000080H   SFRSYM    DATA     BYTE      SFRPRT0DR
      00000090H   SFRSYM    DATA     BYTE      SFRPRT1DR
      000000F2H   SFRSYM    DATA     BYTE      SFRPRT12SEL
      00000098H   SFRSYM    DATA     BYTE      SFRPRT2DR
      000000B0H   SFRSYM    DATA     BYTE      SFRPRT3DR
      000000C0H   SFRSYM    DATA     BYTE      SFRPRT4DR
      000000FAH   SFRSYM    DATA     BYTE      SFRPRT15SEL
      000000C8H   SFRSYM    DATA     BYTE      SFRPRT5DR
      000000D8H   SFRSYM    DATA     BYTE      SFRPRT6DR
      00000089H   SFRSYM    DATA     BYTE      SFRPRT0PS
      00000091H   SFRSYM    DATA     BYTE      SFRPRT1PS
      00000099H   SFRSYM    DATA     BYTE      SFRPRT2PS
      000000B1H   SFRSYM    DATA     BYTE      SFRPRT3PS
      000000C1H   SFRSYM    DATA     BYTE      SFRPRT4PS
      000000C9H   SFRSYM    DATA     BYTE      SFRPRT5PS
      000000D9H   SFRSYM    DATA     BYTE      SFRPRT6PS
      000000EAH   SFRSYM    DATA     BYTE      MXAX
      000000F0H   SFRSYM    DATA     BYTE      B
      000000E0H   SFRSYM    DATA     BYTE      ACC
      000000D0H   SFRSYM    DATA     BIT       P
      000000D0H.3 SFRSYM    DATA     BIT       RS0
      000000D0H.4 SFRSYM    DATA     BIT       RS1
      00000083H   SFRSYM    DATA     BYTE      DPH
      000000E8H   SFRSYM    DATA     BYTE      SFRPRT12DR
      00000082H   SFRSYM    DATA     BYTE      DPL
      000000F8H   SFRSYM    DATA     BYTE      SFRPRT15DR
      00000086H   SFRSYM    DATA     BYTE      DPS
      000000E9H   SFRSYM    DATA     BYTE      SFRPRT12PS
      00000093H   SFRSYM    DATA     BYTE      DPX
      000000F9H   SFRSYM    DATA     BYTE      SFRPRT15PS
      000000D0H.5 SFRSYM    DATA     BIT       F0
      000000D0H.1 SFRSYM    DATA     BIT       F1
      0000008AH   SFRSYM    DATA     BYTE      SFRPRT0SEL
      000000D0H   SFRSYM    DATA     BYTE      PSW
      000000A2H   SFRSYM    DATA     BYTE      SFRPRT1SEL
      0000009AH   SFRSYM    DATA     BYTE      SFRPRT2SEL
      000000B2H   SFRSYM    DATA     BYTE      SFRPRT3SEL
      000000C2H   SFRSYM    DATA     BYTE      SFRPRT4SEL
      0100B3DAH   SYMBOL    CODE     ---       CyFlashGetSpcAlgorithm
      0100B28CH   SYMBOL    CODE     ---       CySetTempInt
      02000E56H   SYMBOL    XDATA    ---       rowBuffer
      00000007H   SYMBOL    DATA     BYTE      interruptState
      00000007H   SYMBOL    DATA     BYTE      interruptState

      0100B28CH   BLOCK     CODE     ---       LVL=0
      0100B28CH   BLOCK     CODE     NEAR LAB  LVL=1
      02000033H   SYMBOL    XDATA    BYTE      status
      ---         BLOCKEND  ---      ---       LVL=1
      0100B28CH   LINE      CODE     ---       #155
      0100B28CH   LINE      CODE     ---       #156
      0100B28CH   LINE      CODE     ---       #160
      0100B28FH   LINE      CODE     ---       #163
      0100B295H   LINE      CODE     ---       #165
LX51 LINKER/LOCATER V4.64.0.0                                                         02/02/2018  18:09:00  PAGE 130


      0100B29BH   LINE      CODE     ---       #166
      0100B29BH   LINE      CODE     ---       #168
      0100B2A5H   LINE      CODE     ---       #169
      0100B2A5H   LINE      CODE     ---       #171
      0100B2A5H   LINE      CODE     ---       #172
      0100B2B4H   LINE      CODE     ---       #173
      0100B2B4H   LINE      CODE     ---       #174
      0100B2B9H   LINE      CODE     ---       #176
      0100B2C1H   LINE      CODE     ---       #177
      0100B2C1H   LINE      CODE     ---       #179
      0100B2C7H   LINE      CODE     ---       #180
      0100B2C9H   LINE      CODE     ---       #181
      0100B2C9H   LINE      CODE     ---       #182
      0100B2C9H   LINE      CODE     ---       #184
      0100B2D1H   LINE      CODE     ---       #185
      0100B2D1H   LINE      CODE     ---       #187
      0100B2D4H   LINE      CODE     ---       #188
      0100B2D6H   LINE      CODE     ---       #190
      0100B2D6H   LINE      CODE     ---       #191
      0100B2DCH   LINE      CODE     ---       #192
      0100B2DCH   LINE      CODE     ---       #194
      0100B2E1H   LINE      CODE     ---       #195
      ---         BLOCKEND  ---      ---       LVL=0

      0100B3DAH   BLOCK     CODE     ---       LVL=0
      0100B3DAH   BLOCK     CODE     NEAR LAB  LVL=1
      02000033H   SYMBOL    XDATA    BYTE      status
      ---         BLOCKEND  ---      ---       LVL=1
      0100B3DAH   LINE      CODE     ---       #215
      0100B3DAH   LINE      CODE     ---       #216
      0100B3DAH   LINE      CODE     ---       #220
      0100B3DDH   LINE      CODE     ---       #222
      0100B3E3H   LINE      CODE     ---       #223
      0100B3E3H   LINE      CODE     ---       #224
      0100B3EBH   LINE      CODE     ---       #226
      0100B3EFH   LINE      CODE     ---       #227
      0100B3EFH   LINE      CODE     ---       #228
      0100B3F7H   LINE      CODE     ---       #229
      0100B3F7H   LINE      CODE     ---       #231
      0100B3FDH   LINE      CODE     ---       #232
      0100B3FFH   LINE      CODE     ---       #234
      0100B415H   LINE      CODE     ---       #235
      0100B415H   LINE      CODE     ---       #236
      0100B419H   LINE      CODE     ---       #237
      0100B419H   LINE      CODE     ---       #238
      0100B419H   LINE      CODE     ---       #239
      0100B41CH   LINE      CODE     ---       #240
      0100B41EH   LINE      CODE     ---       #242
      0100B41EH   LINE      CODE     ---       #243
      0100B424H   LINE      CODE     ---       #244
      0100B424H   LINE      CODE     ---       #246
      0100B429H   LINE      CODE     ---       #247
      ---         BLOCKEND  ---      ---       LVL=0

      0100BD6AH   BLOCK     CODE     ---       LVL=0
      0100BD6AH   BLOCK     CODE     NEAR LAB  LVL=1
      02000032H   SYMBOL    XDATA    BYTE      status
      ---         BLOCKEND  ---      ---       LVL=1
      0100BD6AH   LINE      CODE     ---       #273
      0100BD6AH   LINE      CODE     ---       #274
      0100BD6AH   LINE      CODE     ---       #275
      0100BD72H   LINE      CODE     ---       #277
      0100BD74H   LINE      CODE     ---       #278
      0100BD74H   LINE      CODE     ---       #279
      0100BD7CH   LINE      CODE     ---       #280
LX51 LINKER/LOCATER V4.64.0.0                                                         02/02/2018  18:09:00  PAGE 131


      0100BD7CH   LINE      CODE     ---       #282
      0100BD81H   LINE      CODE     ---       #283
      ---         BLOCKEND  ---      ---       LVL=0
      00000004H   SYMBOL    DATA     WORD      rowAddress
      00000001H   SYMBOL    DATA     ---       rowData
      00000007H   SYMBOL    DATA     BYTE      status
      00000007H   SYMBOL    DATA     BYTE      interruptState

      0100B9DCH   BLOCK     CODE     ---       LVL=0
      0100B9DCH   BLOCK     CODE     NEAR LAB  LVL=1
      00000007H   SYMBOL    DATA     BYTE      interruptState
      ---         BLOCKEND  ---      ---       LVL=1
      0100B9DCH   LINE      CODE     ---       #636
      0100B9DCH   LINE      CODE     ---       #637
      0100B9DCH   LINE      CODE     ---       #640
      0100B9DFH   LINE      CODE     ---       #647
      0100B9E6H   LINE      CODE     ---       #648
      0100B9EDH   LINE      CODE     ---       #661
      0100B9F3H   LINE      CODE     ---       #668
      0100B9FAH   LINE      CODE     ---       #669
      0100BA01H   LINE      CODE     ---       #671
      0100BA09H   LINE      CODE     ---       #672
      0100BA09H   LINE      CODE     ---       #674
      0100BA09H   LINE      CODE     ---       #676
      0100BA0CH   LINE      CODE     ---       #677
      ---         BLOCKEND  ---      ---       LVL=0
      00000007H   SYMBOL    DATA     BYTE      interruptState

      ---         MODULE    ---      ---       CYPM
      000000CAH   SFRSYM    DATA     BYTE      SFRPRT5SEL
      000000DAH   SFRSYM    DATA     BYTE      SFRPRT6SEL
      000000D0H.6 SFRSYM    DATA     BIT       AC
      000000A8H.7 SFRSYM    DATA     BIT       EA
      000000A8H   SFRSYM    DATA     BYTE      IE
      00000085H   SFRSYM    DATA     BYTE      DPH1
      00000084H   SFRSYM    DATA     BYTE      DPL1
      000000D0H.7 SFRSYM    DATA     BIT       CY
      000000A0H   SFRSYM    DATA     BYTE      P2AX
      00000095H   SFRSYM    DATA     BYTE      DPX1
      00000081H   SFRSYM    DATA     BYTE      SP
      000000D0H.2 SFRSYM    DATA     BIT       OV
      00000080H   SFRSYM    DATA     BYTE      SFRPRT0DR
      00000090H   SFRSYM    DATA     BYTE      SFRPRT1DR
      000000F2H   SFRSYM    DATA     BYTE      SFRPRT12SEL
      00000098H   SFRSYM    DATA     BYTE      SFRPRT2DR
      000000B0H   SFRSYM    DATA     BYTE      SFRPRT3DR
      000000C0H   SFRSYM    DATA     BYTE      SFRPRT4DR
      000000FAH   SFRSYM    DATA     BYTE      SFRPRT15SEL
      000000C8H   SFRSYM    DATA     BYTE      SFRPRT5DR
      000000D8H   SFRSYM    DATA     BYTE      SFRPRT6DR
      00000089H   SFRSYM    DATA     BYTE      SFRPRT0PS
      00000091H   SFRSYM    DATA     BYTE      SFRPRT1PS
      00000099H   SFRSYM    DATA     BYTE      SFRPRT2PS
      000000B1H   SFRSYM    DATA     BYTE      SFRPRT3PS
      000000C1H   SFRSYM    DATA     BYTE      SFRPRT4PS
      000000C9H   SFRSYM    DATA     BYTE      SFRPRT5PS
      000000D9H   SFRSYM    DATA     BYTE      SFRPRT6PS
      000000EAH   SFRSYM    DATA     BYTE      MXAX
      000000F0H   SFRSYM    DATA     BYTE      B
      000000E0H   SFRSYM    DATA     BYTE      ACC
      000000D0H   SFRSYM    DATA     BIT       P
      000000D0H.3 SFRSYM    DATA     BIT       RS0
      000000D0H.4 SFRSYM    DATA     BIT       RS1
      00000083H   SFRSYM    DATA     BYTE      DPH
      000000E8H   SFRSYM    DATA     BYTE      SFRPRT12DR
LX51 LINKER/LOCATER V4.64.0.0                                                         02/02/2018  18:09:00  PAGE 132


      00000082H   SFRSYM    DATA     BYTE      DPL
      000000F8H   SFRSYM    DATA     BYTE      SFRPRT15DR
      00000086H   SFRSYM    DATA     BYTE      DPS
      000000E9H   SFRSYM    DATA     BYTE      SFRPRT12PS
      00000093H   SFRSYM    DATA     BYTE      DPX
      000000F9H   SFRSYM    DATA     BYTE      SFRPRT15PS
      000000D0H.5 SFRSYM    DATA     BIT       F0
      000000D0H.1 SFRSYM    DATA     BIT       F1
      0000008AH   SFRSYM    DATA     BYTE      SFRPRT0SEL
      000000D0H   SFRSYM    DATA     BYTE      PSW
      000000A2H   SFRSYM    DATA     BYTE      SFRPRT1SEL
      0000009AH   SFRSYM    DATA     BYTE      SFRPRT2SEL
      000000B2H   SFRSYM    DATA     BYTE      SFRPRT3SEL
      000000C2H   SFRSYM    DATA     BYTE      SFRPRT4SEL
      02000DA0H   SYMBOL    XDATA    ---       cyPmClockBackup
      02000DB0H   SYMBOL    XDATA    ---       cyPmBackup
      00000006H   SYMBOL    DATA     WORD      clkBusDivTmp
      02000D9FH   SYMBOL    XDATA    BYTE      interruptStatus
      00000005H   SYMBOL    DATA     BYTE      interruptState

      ---         MODULE    ---      ---       CYSPC
      02000E6CH   PUBLIC    XDATA    BYTE      SpcLockState
      0100BCBBH   PUBLIC    CODE     ---       CySpcGetAlgorithm
      0100BFF0H   PUBLIC    CODE     ---       CySpcUnlock
      0100BC62H   PUBLIC    CODE     ---       CySpcLock
      0100BA9CH   PUBLIC    CODE     ---       _CySpcGetTemp
      02000037H   PUBLIC    XDATA    BYTE      ?_CySpcWriteRow?BYTE
      0100B336H   PUBLIC    CODE     ---       _CySpcWriteRow
      02000037H   PUBLIC    XDATA    BYTE      ?_CySpcLoadRow?BYTE
      0100AFB2H   PUBLIC    CODE     ---       _CySpcLoadRow
      0100B1D1H   PUBLIC    CODE     ---       _CySpcReadData
      0100BDD9H   PUBLIC    CODE     ---       CySpcStart
      000000CAH   SFRSYM    DATA     BYTE      SFRPRT5SEL
      000000DAH   SFRSYM    DATA     BYTE      SFRPRT6SEL
      000000D0H.6 SFRSYM    DATA     BIT       AC
      000000A8H.7 SFRSYM    DATA     BIT       EA
      000000A8H   SFRSYM    DATA     BYTE      IE
      00000085H   SFRSYM    DATA     BYTE      DPH1
      00000084H   SFRSYM    DATA     BYTE      DPL1
      000000D0H.7 SFRSYM    DATA     BIT       CY
      000000A0H   SFRSYM    DATA     BYTE      P2AX
      00000095H   SFRSYM    DATA     BYTE      DPX1
      00000081H   SFRSYM    DATA     BYTE      SP
      000000D0H.2 SFRSYM    DATA     BIT       OV
      00000080H   SFRSYM    DATA     BYTE      SFRPRT0DR
      00000090H   SFRSYM    DATA     BYTE      SFRPRT1DR
      000000F2H   SFRSYM    DATA     BYTE      SFRPRT12SEL
      00000098H   SFRSYM    DATA     BYTE      SFRPRT2DR
      000000B0H   SFRSYM    DATA     BYTE      SFRPRT3DR
      000000C0H   SFRSYM    DATA     BYTE      SFRPRT4DR
      000000FAH   SFRSYM    DATA     BYTE      SFRPRT15SEL
      000000C8H   SFRSYM    DATA     BYTE      SFRPRT5DR
      000000D8H   SFRSYM    DATA     BYTE      SFRPRT6DR
      00000089H   SFRSYM    DATA     BYTE      SFRPRT0PS
      00000091H   SFRSYM    DATA     BYTE      SFRPRT1PS
      00000099H   SFRSYM    DATA     BYTE      SFRPRT2PS
      000000B1H   SFRSYM    DATA     BYTE      SFRPRT3PS
      000000C1H   SFRSYM    DATA     BYTE      SFRPRT4PS
      000000C9H   SFRSYM    DATA     BYTE      SFRPRT5PS
      000000D9H   SFRSYM    DATA     BYTE      SFRPRT6PS
      000000EAH   SFRSYM    DATA     BYTE      MXAX
      000000F0H   SFRSYM    DATA     BYTE      B
      000000E0H   SFRSYM    DATA     BYTE      ACC
      000000D0H   SFRSYM    DATA     BIT       P
      000000D0H.3 SFRSYM    DATA     BIT       RS0
LX51 LINKER/LOCATER V4.64.0.0                                                         02/02/2018  18:09:00  PAGE 133


      000000D0H.4 SFRSYM    DATA     BIT       RS1
      00000083H   SFRSYM    DATA     BYTE      DPH
      000000E8H   SFRSYM    DATA     BYTE      SFRPRT12DR
      00000082H   SFRSYM    DATA     BYTE      DPL
      000000F8H   SFRSYM    DATA     BYTE      SFRPRT15DR
      00000086H   SFRSYM    DATA     BYTE      DPS
      000000E9H   SFRSYM    DATA     BYTE      SFRPRT12PS
      00000093H   SFRSYM    DATA     BYTE      DPX
      000000F9H   SFRSYM    DATA     BYTE      SFRPRT15PS
      000000D0H.5 SFRSYM    DATA     BIT       F0
      000000D0H.1 SFRSYM    DATA     BIT       F1
      0000008AH   SFRSYM    DATA     BYTE      SFRPRT0SEL
      000000D0H   SFRSYM    DATA     BYTE      PSW
      000000A2H   SFRSYM    DATA     BYTE      SFRPRT1SEL
      0000009AH   SFRSYM    DATA     BYTE      SFRPRT2SEL
      000000B2H   SFRSYM    DATA     BYTE      SFRPRT3SEL
      000000C2H   SFRSYM    DATA     BYTE      SFRPRT4SEL

      0100BDD9H   BLOCK     CODE     ---       LVL=0
      0100BDD9H   BLOCK     CODE     NEAR LAB  LVL=1
      00000007H   SYMBOL    DATA     BYTE      interruptState
      ---         BLOCKEND  ---      ---       LVL=1
      0100BDD9H   LINE      CODE     ---       #78
      0100BDD9H   LINE      CODE     ---       #79
      0100BDD9H   LINE      CODE     ---       #81
      0100BDDCH   LINE      CODE     ---       #83
      0100BDE3H   LINE      CODE     ---       #84
      0100BDEAH   LINE      CODE     ---       #87
      0100BDEDH   LINE      CODE     ---       #88
      ---         BLOCKEND  ---      ---       LVL=0
      00000007H   SYMBOL    DATA     BYTE      interruptState

      0100B1D1H   BLOCK     CODE     ---       LVL=0
      02000034H   SYMBOL    XDATA    ---       buffer
      02000037H   SYMBOL    XDATA    BYTE      size
      0100B1DFH   BLOCK     CODE     NEAR LAB  LVL=1
      02000038H   SYMBOL    XDATA    BYTE      i
      ---         BLOCKEND  ---      ---       LVL=1
      0100B1D1H   LINE      CODE     ---       #135
      0100B1DFH   LINE      CODE     ---       #136
      0100B1DFH   LINE      CODE     ---       #139
      0100B1EDH   LINE      CODE     ---       #140
      0100B1EDH   LINE      CODE     ---       #141
      0100B1FBH   LINE      CODE     ---       #142
      0100B1FBH   LINE      CODE     ---       #143
      0100B202H   LINE      CODE     ---       #144
      0100B204H   LINE      CODE     ---       #145
      0100B223H   LINE      CODE     ---       #146
      0100B22BH   LINE      CODE     ---       #148
      0100B230H   LINE      CODE     ---       #149
      ---         BLOCKEND  ---      ---       LVL=0
      00000005H   SYMBOL    DATA     BYTE      status
      00000007H   SYMBOL    DATA     BYTE      i

      0100AFB2H   BLOCK     CODE     ---       LVL=0
      00000007H   SYMBOL    DATA     BYTE      array
      02000038H   SYMBOL    XDATA    ---       buffer
      0200003BH   SYMBOL    XDATA    WORD      size
      0100AFBDH   BLOCK     CODE     NEAR LAB  LVL=1
      0200003DH   SYMBOL    XDATA    BYTE      status
      00000006H   SYMBOL    DATA     WORD      i
      ---         BLOCKEND  ---      ---       LVL=1
      0100AFB2H   LINE      CODE     ---       #258
      0100AFBDH   LINE      CODE     ---       #259
      0100AFBDH   LINE      CODE     ---       #260
LX51 LINKER/LOCATER V4.64.0.0                                                         02/02/2018  18:09:00  PAGE 134


      0100AFC3H   LINE      CODE     ---       #264
      0100AFCBH   LINE      CODE     ---       #265
      0100AFCBH   LINE      CODE     ---       #266
      0100AFD1H   LINE      CODE     ---       #267
      0100AFD4H   LINE      CODE     ---       #268
      0100AFD7H   LINE      CODE     ---       #271
      0100AFDFH   LINE      CODE     ---       #272
      0100AFDFH   LINE      CODE     ---       #273
      0100AFE4H   LINE      CODE     ---       #275
      0100AFF4H   LINE      CODE     ---       #276
      0100AFF4H   LINE      CODE     ---       #277
      0100B00AH   LINE      CODE     ---       #278
      0100B011H   LINE      CODE     ---       #279
      0100B011H   LINE      CODE     ---       #281
      0100B011H   LINE      CODE     ---       #282
      0100B017H   LINE      CODE     ---       #283
      0100B017H   LINE      CODE     ---       #284
      0100B019H   LINE      CODE     ---       #286
      0100B019H   LINE      CODE     ---       #287
      0100B01FH   LINE      CODE     ---       #288
      0100B01FH   LINE      CODE     ---       #290
      0100B024H   LINE      CODE     ---       #291
      ---         BLOCKEND  ---      ---       LVL=0

      0100B336H   BLOCK     CODE     ---       LVL=0
      00000004H   SYMBOL    DATA     BYTE      array
      02000038H   SYMBOL    XDATA    WORD      address
      00000003H   SYMBOL    DATA     BYTE      tempPolarity
      0200003BH   SYMBOL    XDATA    BYTE      tempMagnitude
      0100B340H   BLOCK     CODE     NEAR LAB  LVL=1
      00000005H   SYMBOL    DATA     BYTE      status
      ---         BLOCKEND  ---      ---       LVL=1
      0100B336H   LINE      CODE     ---       #464
      0100B340H   LINE      CODE     ---       #466
      0100B340H   LINE      CODE     ---       #467
      0100B342H   LINE      CODE     ---       #470
      0100B34AH   LINE      CODE     ---       #471
      0100B34AH   LINE      CODE     ---       #472
      0100B350H   LINE      CODE     ---       #473
      0100B353H   LINE      CODE     ---       #474
      0100B356H   LINE      CODE     ---       #477
      0100B35EH   LINE      CODE     ---       #478
      0100B35EH   LINE      CODE     ---       #479
      0100B363H   LINE      CODE     ---       #480
      0100B36BH   LINE      CODE     ---       #481
      0100B375H   LINE      CODE     ---       #482
      0100B377H   LINE      CODE     ---       #483
      0100B37FH   LINE      CODE     ---       #484
      0100B381H   LINE      CODE     ---       #486
      0100B381H   LINE      CODE     ---       #487
      0100B383H   LINE      CODE     ---       #488
      0100B383H   LINE      CODE     ---       #489
      0100B385H   LINE      CODE     ---       #491
      0100B385H   LINE      CODE     ---       #492
      0100B387H   LINE      CODE     ---       #493
      0100B387H   LINE      CODE     ---       #495
      0100B389H   LINE      CODE     ---       #496
      ---         BLOCKEND  ---      ---       LVL=0
      00000007H   SYMBOL    DATA     BYTE      array
      00000005H   SYMBOL    DATA     BYTE      sectorNumber
      00000006H   SYMBOL    DATA     BYTE      status

      0100BA9CH   BLOCK     CODE     ---       LVL=0
      00000007H   SYMBOL    DATA     BYTE      numSamples
      0100BA9CH   BLOCK     CODE     NEAR LAB  LVL=1
LX51 LINKER/LOCATER V4.64.0.0                                                         02/02/2018  18:09:00  PAGE 135


      00000006H   SYMBOL    DATA     BYTE      status
      ---         BLOCKEND  ---      ---       LVL=1
      0100BA9CH   LINE      CODE     ---       #573
      0100BA9CH   LINE      CODE     ---       #574
      0100BA9CH   LINE      CODE     ---       #575
      0100BA9EH   LINE      CODE     ---       #578
      0100BAA6H   LINE      CODE     ---       #579
      0100BAA6H   LINE      CODE     ---       #580
      0100BAACH   LINE      CODE     ---       #581
      0100BAAFH   LINE      CODE     ---       #582
      0100BAB2H   LINE      CODE     ---       #585
      0100BABAH   LINE      CODE     ---       #586
      0100BABAH   LINE      CODE     ---       #587
      0100BABFH   LINE      CODE     ---       #588
      0100BAC1H   LINE      CODE     ---       #590
      0100BAC1H   LINE      CODE     ---       #591
      0100BAC3H   LINE      CODE     ---       #592
      0100BAC3H   LINE      CODE     ---       #593
      0100BAC5H   LINE      CODE     ---       #595
      0100BAC5H   LINE      CODE     ---       #596
      0100BAC7H   LINE      CODE     ---       #597
      0100BAC7H   LINE      CODE     ---       #599
      0100BAC9H   LINE      CODE     ---       #600
      ---         BLOCKEND  ---      ---       LVL=0

      0100BC62H   BLOCK     CODE     ---       LVL=0
      0100BC62H   BLOCK     CODE     NEAR LAB  LVL=1
      02000037H   SYMBOL    XDATA    BYTE      status
      00000007H   SYMBOL    DATA     BYTE      interruptState
      ---         BLOCKEND  ---      ---       LVL=1
      0100BC62H   LINE      CODE     ---       #618
      0100BC62H   LINE      CODE     ---       #619
      0100BC62H   LINE      CODE     ---       #620
      0100BC68H   LINE      CODE     ---       #624
      0100BC6BH   LINE      CODE     ---       #626
      0100BC71H   LINE      CODE     ---       #627
      0100BC71H   LINE      CODE     ---       #628
      0100BC73H   LINE      CODE     ---       #629
      0100BC78H   LINE      CODE     ---       #647
      0100BC78H   LINE      CODE     ---       #650
      0100BC7BH   LINE      CODE     ---       #652
      0100BC80H   LINE      CODE     ---       #653
      ---         BLOCKEND  ---      ---       LVL=0

      0100BFF0H   BLOCK     CODE     ---       LVL=0
      0100BFF0H   BLOCK     CODE     NEAR LAB  LVL=1
      00000007H   SYMBOL    DATA     BYTE      interruptState
      ---         BLOCKEND  ---      ---       LVL=1
      0100BFF0H   LINE      CODE     ---       #670
      0100BFF0H   LINE      CODE     ---       #671
      0100BFF0H   LINE      CODE     ---       #675
      0100BFF3H   LINE      CODE     ---       #678
      0100BFF8H   LINE      CODE     ---       #698
      0100BFFBH   LINE      CODE     ---       #699
      ---         BLOCKEND  ---      ---       LVL=0

      0100BCBBH   BLOCK     CODE     ---       LVL=0
      0100BCBBH   BLOCK     CODE     NEAR LAB  LVL=1
      00000007H   SYMBOL    DATA     BYTE      status
      ---         BLOCKEND  ---      ---       LVL=1
      0100BCBBH   LINE      CODE     ---       #716
      0100BCBBH   LINE      CODE     ---       #717
      0100BCBBH   LINE      CODE     ---       #718
      0100BCBDH   LINE      CODE     ---       #721
      0100BCC5H   LINE      CODE     ---       #722
LX51 LINKER/LOCATER V4.64.0.0                                                         02/02/2018  18:09:00  PAGE 136


      0100BCC5H   LINE      CODE     ---       #723
      0100BCCBH   LINE      CODE     ---       #724
      0100BCCEH   LINE      CODE     ---       #725
      0100BCD1H   LINE      CODE     ---       #726
      0100BCD3H   LINE      CODE     ---       #728
      0100BCD3H   LINE      CODE     ---       #729
      0100BCD5H   LINE      CODE     ---       #730
      0100BCD5H   LINE      CODE     ---       #732
      0100BCD5H   LINE      CODE     ---       #733
      ---         BLOCKEND  ---      ---       LVL=0

      ---         MODULE    ---      ---       ?C?FPMUL
      01006D94H   PUBLIC    CODE     ---       ?C?FPMUL

      ---         MODULE    ---      ---       ?C?FPDIV
      01006E9DH   PUBLIC    CODE     ---       ?C?FPDIV

      ---         MODULE    ---      ---       ?C?FPCMP
      01006F3CH   PUBLIC    CODE     ---       ?C?FPCMP
      01006F3AH   PUBLIC    CODE     ---       ?C?FPCMP3

      ---         MODULE    ---      ---       ?C?FCAST
      01006FBDH   PUBLIC    CODE     ---       ?C?FCASTC
      01006FB8H   PUBLIC    CODE     ---       ?C?FCASTI
      01006FB3H   PUBLIC    CODE     ---       ?C?FCASTL

      ---         MODULE    ---      ---       ?C?CASTF
      01006FF1H   PUBLIC    CODE     ---       ?C?CASTF

      ---         MODULE    ---      ---       PRINTF
      0200063CH   PUBLIC    XDATA    ---       ?_PRINTF?BYTE
      0200063CH   PUBLIC    XDATA    ---       ?_SPRINTF?BYTE
      01007D5DH   PUBLIC    CODE     ---       _PRINTF
      01007D57H   PUBLIC    CODE     ---       _SPRINTF

      ---         MODULE    ---      ---       ?C?FPGETOPN
      01007028H   PUBLIC    CODE     ---       ?C?FPGETOPN2
      0100705DH   PUBLIC    CODE     ---       ?C?FPNANRESULT
      01007067H   PUBLIC    CODE     ---       ?C?FPOVERFLOW
      0100703FH   PUBLIC    CODE     ---       ?C?FPRESULT
      01007053H   PUBLIC    CODE     ---       ?C?FPRESULT2
      01007064H   PUBLIC    CODE     ---       ?C?FPUNDERFLOW

      ---         MODULE    ---      ---       ?C?FPROUND
      01007072H   PUBLIC    CODE     ---       ?C?FPROUND

      ---         MODULE    ---      ---       ?C?FPCONVERT
      010070AFH   PUBLIC    CODE     ---       ?C?FPCONVERT

      ---         MODULE    ---      ---       ?C?FPADD
      010071BBH   PUBLIC    CODE     ---       ?C?FPADD
      010071B7H   PUBLIC    CODE     ---       ?C?FPSUB

      ---         MODULE    ---      ---       ?C?FTNPWR
      010072DCH   PUBLIC    CODE     ---       ?C?FTNPWR

      ---         MODULE    ---      ---       ?C_INIT
      0100A19DH   PUBLIC    CODE     ---       ?C_START

      ---         MODULE    ---      ---       ?C?CLDPTR
      0100731CH   PUBLIC    CODE     ---       ?C?CLDPTR

      ---         MODULE    ---      ---       ?C?CLDOPTR
      01007335H   PUBLIC    CODE     ---       ?C?CLDOPTR

LX51 LINKER/LOCATER V4.64.0.0                                                         02/02/2018  18:09:00  PAGE 137


      ---         MODULE    ---      ---       ?C?CSTPTR
      01007362H   PUBLIC    CODE     ---       ?C?CSTPTR

      ---         MODULE    ---      ---       ?C?IMUL
      01007374H   PUBLIC    CODE     ---       ?C?IMUL

      ---         MODULE    ---      ---       ?C?ISTPTR
      01007386H   PUBLIC    CODE     ---       ?C?ISTPTR

      ---         MODULE    ---      ---       ?C?LMUL
      010073A5H   PUBLIC    CODE     ---       ?C?LMUL

      ---         MODULE    ---      ---       ?C?ULDIV
      01007430H   PUBLIC    CODE     ---       ?C?ULDIV

      ---         MODULE    ---      ---       ?C?SLDIV
      0100B5E8H   PUBLIC    CODE     ---       ?C?SLDIV

      ---         MODULE    ---      ---       ?C?LNOT
      010074C2H   PUBLIC    CODE     ---       ?C?LNOT

      ---         MODULE    ---      ---       ?C?LNEG
      010074CFH   PUBLIC    CODE     ---       ?C?LNEG

      ---         MODULE    ---      ---       ?C?SLCMP
      010074DDH   PUBLIC    CODE     ---       ?C?SLCMP

      ---         MODULE    ---      ---       ?C?ULCMP
      010074F3H   PUBLIC    CODE     ---       ?C?ULCMP

      ---         MODULE    ---      ---       ?C?ULSHR
      01007504H   PUBLIC    CODE     ---       ?C?ULSHR

      ---         MODULE    ---      ---       ?C?SLSHR
      01007517H   PUBLIC    CODE     ---       ?C?SLSHR

      ---         MODULE    ---      ---       ?C?LSHL
      0100752BH   PUBLIC    CODE     ---       ?C?LSHL

      ---         MODULE    ---      ---       ?C?LLDPTR
      0100753EH   PUBLIC    CODE     ---       ?C?LLDPTR

      ---         MODULE    ---      ---       ?C?LSTPTR
      0100755EH   PUBLIC    CODE     ---       ?C?LSTPTR

      ---         MODULE    ---      ---       ?C?LSTXDATA
      01007578H   PUBLIC    CODE     ---       ?C?LSTXDATA

      ---         MODULE    ---      ---       ?C?PLDIXDATA
      01007584H   PUBLIC    CODE     ---       ?C?PLDIXDATA

      ---         MODULE    ---      ---       ?C?PSTXDATA
      0100759BH   PUBLIC    CODE     ---       ?C?PSTXDATA

      ---         MODULE    ---      ---       ?C?CCASE
      010075A4H   PUBLIC    CODE     ---       ?C?CCASE

      ---         MODULE    ---      ---       ?C_XBP
      0000000EH   PUBLIC    DATA     ---       ?C_XBP

      ---         MODULE    ---      ---       ?C?ADDXBP
      010075CAH   PUBLIC    CODE     ---       ?C?ADDXBP

      ---         MODULE    ---      ---       ?C?LIMUL
      010075EEH   PUBLIC    CODE     ---       ?C?LIMUL
LX51 LINKER/LOCATER V4.64.0.0                                                         02/02/2018  18:09:00  PAGE 138



      ---         MODULE    ---      ---       PUTCHAR
      0100BB4CH   PUBLIC    CODE     ---       _PUTCHAR

      ---         MODULE    ---      ---       ABS
      0100BFFCH   PUBLIC    CODE     ---       _ABS

      ---         MODULE    ---      ---       STRCAT
      02000B02H   PUBLIC    XDATA    ---       ?_STRCAT?BYTE
      0100B100H   PUBLIC    CODE     ---       _STRCAT

      ---         MODULE    ---      ---       STRLEN
      0100BDEEH   PUBLIC    CODE     ---       _STRLEN

      ---         MODULE    ---      ---       ?C?COPYAMD
      010076D7H   PUBLIC    CODE     ---       ?C?COPYAMD

      ---         MODULE    ---      ---       ?C?STRCPYAMD
      010077B5H   PUBLIC    CODE     ---       ?C?STRCPYAMD

      ---         MODULE    ---      ---       ?C?IILDX
      010077D2H   PUBLIC    CODE     ---       ?C?IILDX

      ---         MODULE    ---      ---       ?C?ILDIX
      010077E8H   PUBLIC    CODE     ---       ?C?ILDIX

      ---         MODULE    ---      ---       ?C?LLDIDATA
      010077FEH   PUBLIC    CODE     ---       ?C?LLDIDATA

      ---         MODULE    ---      ---       ?C?LLDXDATA
      0100780AH   PUBLIC    CODE     ---       ?C?LLDXDATA

      ---         MODULE    ---      ---       ?C?LLDPDATA
      01007816H   PUBLIC    CODE     ---       ?C?LLDPDATA

      ---         MODULE    ---      ---       ?C?LLDCODE
      01007822H   PUBLIC    CODE     ---       ?C?LLDCODE

      ---         MODULE    ---      ---       ?C?LSTIDATA
      01007832H   PUBLIC    CODE     ---       ?C?LSTIDATA

      ---         MODULE    ---      ---       ?C?LSTPDATA
      0100783EH   PUBLIC    CODE     ---       ?C?LSTPDATA



INTER-MODULE CROSS-REFERENCE LISTING


NAME . . . . . . . . . . . . . . . . . . CLASS    MODULE NAMES
==============================================================

?_Bootloadable_SetFlashByte?BYTE . . . . XDATA    BOOTLOADABLE  
?_commWrite?BYTE . . . . . . . . . . . . XDATA    COMMAND_PROCESSING  
?_commWrite_old_id?BYTE. . . . . . . . . XDATA    COMMAND_PROCESSING  
?_cyconfigcpy?BYTE . . . . . . . . . . . XDATA    CYMEM  CYFITTER_CFG  
?_CyDmaChSetConfiguration?BYTE . . . . . XDATA    CYDMAC  DMA_DMA  
?_CyDmaChStatus?BYTE . . . . . . . . . . XDATA    CYDMAC  
?_CyDmaTdGetAddress?BYTE . . . . . . . . XDATA    CYDMAC  
?_CyDmaTdGetConfiguration?BYTE . . . . . XDATA    CYDMAC  
?_CyDmaTdSetConfiguration?BYTE . . . . . XDATA    CYDMAC  MAIN  
?_CySpcLoadMultiByte?BYTE. . . . . . . . XDATA    CYSPC  EEPROM  
?_CySpcLoadRow?BYTE. . . . . . . . . . . XDATA    CYSPC  EEPROM  
?_CySpcLoadRowFull?BYTE. . . . . . . . . XDATA    CYSPC  CYFLASH  
?_CySpcWriteRow?BYTE . . . . . . . . . . XDATA    CYSPC  CYFLASH  EEPROM  
LX51 LINKER/LOCATER V4.64.0.0                                                         02/02/2018  18:09:00  PAGE 139


?_CyWriteRowFull?BYTE. . . . . . . . . . XDATA    CYFLASH  
?_DMA_DmaInitialize?BYTE . . . . . . . . XDATA    DMA_DMA  MAIN  
?_PRINTF?BYTE. . . . . . . . . . . . . . XDATA    PRINTF  
?_SPRINTF?BYTE . . . . . . . . . . . . . XDATA    PRINTF  COMMAND_PROCESSING  
?_strcat?BYTE. . . . . . . . . . . . . . XDATA    STRCAT  COMMAND_PROCESSING  
?C?ADDXBP. . . . . . . . . . . . . . . . CODE     ?C?ADDXBP  CYLIB  
?C?CASTF . . . . . . . . . . . . . . . . CODE     ?C?CASTF  ADC  COMMAND_PROCESSING  INTERRUPTIONS  
?C?CCASE . . . . . . . . . . . . . . . . CODE     ?C?CCASE  COMMAND_PROCESSING  PRINTF  
?C?CLDOPTR . . . . . . . . . . . . . . . CODE     ?C?CLDOPTR  PRINTF  
?C?CLDPTR. . . . . . . . . . . . . . . . CODE     ?C?CLDPTR  COMMAND_PROCESSING  CYSPC  PRINTF  STRCAT  STRLEN  UART_RS4
                                                  85  UTILS  
?C?CODESEG . . . . . . . . . . . . . . . NUMBER   ** LX51 GENERATED **  
?C?COPYAMD . . . . . . . . . . . . . . . CODE     ?C?COPYAMD  COMMAND_PROCESSING  INTERRUPTIONS  MAIN  
?C?CSTPTR. . . . . . . . . . . . . . . . CODE     ?C?CSTPTR  CYDMAC  CYSPC  PRINTF  STRCAT  
?C?FCASTC. . . . . . . . . . . . . . . . CODE     ?C?FCAST  
?C?FCASTI. . . . . . . . . . . . . . . . CODE     ?C?FCAST  ADC  COMMAND_PROCESSING  
?C?FCASTL. . . . . . . . . . . . . . . . CODE     ?C?FCAST  ADC  COMMAND_PROCESSING  INTERRUPTIONS  
?C?FPADD . . . . . . . . . . . . . . . . CODE     ?C?FPADD  ?C?FPCONVERT  
?C?FPCMP . . . . . . . . . . . . . . . . CODE     ?C?FPCMP  
?C?FPCMP3. . . . . . . . . . . . . . . . CODE     ?C?FPCMP  ADC  COMMAND_PROCESSING  INTERRUPTIONS  
?C?FPCONVERT . . . . . . . . . . . . . . CODE     ?C?FPCONVERT  PRINTF  
?C?FPDIV . . . . . . . . . . . . . . . . CODE     ?C?FPDIV  ?C?FPCONVERT  ADC  COMMAND_PROCESSING  
?C?FPGETOPN2 . . . . . . . . . . . . . . CODE     ?C?FPGETOPN  ?C?FPADD  ?C?FPDIV  ?C?FPMUL  
?C?FPMUL . . . . . . . . . . . . . . . . CODE     ?C?FPMUL  ?C?FPCONVERT  ?C?FTNPWR  ADC  COMMAND_PROCESSING  INTERRUPTI
                                                  ONS  
?C?FPNANRESULT . . . . . . . . . . . . . CODE     ?C?FPGETOPN  ?C?FPADD  ?C?FPDIV  ?C?FPMUL  
?C?FPOVERFLOW. . . . . . . . . . . . . . CODE     ?C?FPGETOPN  ?C?FPADD  ?C?FPDIV  ?C?FPMUL  
?C?FPRESULT. . . . . . . . . . . . . . . CODE     ?C?FPGETOPN  ?C?FPADD  ?C?FPDIV  ?C?FPMUL  
?C?FPRESULT2 . . . . . . . . . . . . . . CODE     ?C?FPGETOPN  ?C?FPDIV  ?C?FPMUL  
?C?FPROUND . . . . . . . . . . . . . . . CODE     ?C?FPROUND  PRINTF  
?C?FPSUB . . . . . . . . . . . . . . . . CODE     ?C?FPADD  
?C?FPUNDERFLOW . . . . . . . . . . . . . CODE     ?C?FPGETOPN  ?C?FPADD  ?C?FPDIV  ?C?FPMUL  
?C?FTNPWR. . . . . . . . . . . . . . . . CODE     ?C?FTNPWR  ?C?FPCONVERT  
?C?IILDX . . . . . . . . . . . . . . . . CODE     ?C?IILDX  STRCAT  
?C?ILDIX . . . . . . . . . . . . . . . . CODE     ?C?ILDIX  STRCAT  
?C?IMUL. . . . . . . . . . . . . . . . . CODE     ?C?IMUL  INTERRUPTIONS  
?C?ISTPTR. . . . . . . . . . . . . . . . CODE     ?C?ISTPTR  CYDMAC  
?C?LIMUL . . . . . . . . . . . . . . . . CODE     ?C?LIMUL  COMMAND_PROCESSING  CYSPC  
?C?LLDCODE . . . . . . . . . . . . . . . CODE     ?C?LLDCODE  ?C?LLDPTR  
?C?LLDIDATA. . . . . . . . . . . . . . . CODE     ?C?LLDIDATA  ?C?LLDPTR  
?C?LLDPDATA. . . . . . . . . . . . . . . CODE     ?C?LLDPDATA  ?C?LLDPTR  
?C?LLDPTR. . . . . . . . . . . . . . . . CODE     ?C?LLDPTR  CYLIB  
?C?LLDXDATA. . . . . . . . . . . . . . . CODE     ?C?LLDXDATA  ?C?LLDPTR  
?C?LMUL. . . . . . . . . . . . . . . . . CODE     ?C?LMUL  ADC  COMMAND_PROCESSING  CYLIB  CYPM  INTERRUPTIONS  UTILS  
?C?LNEG. . . . . . . . . . . . . . . . . CODE     ?C?LNEG  ?C?CASTF  ?C?FCAST  MAIN  
?C?LNOT. . . . . . . . . . . . . . . . . CODE     ?C?LNOT  CYDMAC  
?C?LSHL. . . . . . . . . . . . . . . . . CODE     ?C?LSHL  ADC  COMMAND_PROCESSING  CYDMAC  CYLIB  INTERRUPTIONS  UTILS 
                                                   
?C?LSTIDATA. . . . . . . . . . . . . . . CODE     ?C?LSTIDATA  ?C?LSTPTR  
?C?LSTPDATA. . . . . . . . . . . . . . . CODE     ?C?LSTPDATA  ?C?LSTPTR  
?C?LSTPTR. . . . . . . . . . . . . . . . CODE     ?C?LSTPTR  CYLIB  
?C?LSTXDATA. . . . . . . . . . . . . . . CODE     ?C?LSTXDATA  ?C?LSTPTR  ADC  BOOTLOADABLE  COMMAND_PROCESSING  CYDMAC 
                                                   CYFITTER_CFG  CYLIB  CYSPC  INTERRUPTIONS  MAIN  SHIFTREG_ENC_1  SHIF
                                                  TREG_ENC_2  SHIFTREG_ENC_3  SHIFTREG_ENC_4  UTILS  
?C?PLDIXDATA . . . . . . . . . . . . . . CODE     ?C?PLDIXDATA  PRINTF  
?C?PSTXDATA. . . . . . . . . . . . . . . CODE     ?C?PSTXDATA  PRINTF  
?C?SLCMP . . . . . . . . . . . . . . . . CODE     ?C?SLCMP  COMMAND_PROCESSING  INTERRUPTIONS  
?C?SLDIV . . . . . . . . . . . . . . . . CODE     ?C?SLDIV  ADC  COMMAND_PROCESSING  INTERRUPTIONS  UTILS  
?C?SLSHR . . . . . . . . . . . . . . . . CODE     ?C?SLSHR  COMMAND_PROCESSING  INTERRUPTIONS  UTILS  
?C?STRCPYAMD . . . . . . . . . . . . . . CODE     ?C?STRCPYAMD  COMMAND_PROCESSING  
?C?ULCMP . . . . . . . . . . . . . . . . CODE     ?C?ULCMP  COMMAND_PROCESSING  CYDMAC  CYFLASH  
?C?ULDIV . . . . . . . . . . . . . . . . CODE     ?C?ULDIV  ?C?SLDIV  ADC  BOOTLOADABLE  CYLIB  CYPM  
?C?ULSHR . . . . . . . . . . . . . . . . CODE     ?C?ULSHR  COMMAND_PROCESSING  CYLIB  INTERRUPTIONS  
?C?XDATASEG. . . . . . . . . . . . . . . NUMBER   ** LX51 GENERATED **  
?C?XPAGE1RST . . . . . . . . . . . . . . NUMBER   ?C_STARTUP  ADC_INT  INTERRUPTIONS  ISR_RS485_RX  ISR_WATCHDOG  UART_R
LX51 LINKER/LOCATER V4.64.0.0                                                         02/02/2018  18:09:00  PAGE 140


                                                  S485_INT  
?C?XPAGE1SFR . . . . . . . . . . . . . . DATA     ?C_STARTUP  ADC_INT  INTERRUPTIONS  ISR_RS485_RX  ISR_WATCHDOG  UART_R
                                                  S485_INT  
?C_START . . . . . . . . . . . . . . . . CODE     ?C_INIT  ?C_STARTUP  
?C_STARTUP . . . . . . . . . . . . . . . CODE     ?C_STARTUP  MAIN  
?C_XBP . . . . . . . . . . . . . . . . . DATA     ?C_XBP  ?C?ADDXBP  ?C_STARTUP  CYLIB  
_?CyDelay. . . . . . . . . . . . . . . . CODE     CYLIB  COMMAND_PROCESSING  CYBOOTASMKEIL  MAIN  
_?CyDelayFreq. . . . . . . . . . . . . . CODE     CYLIB  
_?CyHalt . . . . . . . . . . . . . . . . CODE     CYLIB  
_ABS . . . . . . . . . . . . . . . . . . CODE     ABS  INTERRUPTIONS  
_ADC_AMux_FastSelect . . . . . . . . . . CODE     ADC_AMUX  
_ADC_AMux_Select . . . . . . . . . . . . CODE     ADC_AMUX  ADC  
_ADC_AMux_Set. . . . . . . . . . . . . . CODE     CYFITTER_CFG  ADC_AMUX  
_ADC_AMux_Unset. . . . . . . . . . . . . CODE     CYFITTER_CFG  ADC_AMUX  
_ADC_CountsTo_mVolts . . . . . . . . . . CODE     ADC  
_ADC_CountsTo_uVolts . . . . . . . . . . CODE     ADC  
_ADC_CountsTo_Volts. . . . . . . . . . . CODE     ADC  
_ADC_Ext_CP_Clk_ClearModeRegister. . . . CODE     ADC_EXT_CP_CLK  
_ADC_Ext_CP_Clk_SetDividerRegister . . . CODE     ADC_EXT_CP_CLK  ADC  
_ADC_Ext_CP_Clk_SetModeRegister. . . . . CODE     ADC_EXT_CP_CLK  ADC  
_ADC_Ext_CP_Clk_SetSourceRegister. . . . CODE     ADC_EXT_CP_CLK  
_ADC_Ext_CP_Clk_StandbyPower . . . . . . CODE     ADC_EXT_CP_CLK  
_ADC_IsEndConversion . . . . . . . . . . CODE     ADC  
_ADC_SelectConfiguration . . . . . . . . CODE     ADC  
_ADC_SetBufferGain . . . . . . . . . . . CODE     ADC  
_ADC_SetCoherency. . . . . . . . . . . . CODE     ADC  
_ADC_SetGain . . . . . . . . . . . . . . CODE     ADC  
_ADC_SetGCOR . . . . . . . . . . . . . . CODE     ADC  
_ADC_SetOffset . . . . . . . . . . . . . CODE     ADC  
_ADC_SOC_Write . . . . . . . . . . . . . CODE     ADC_SOC  INTERRUPTIONS  MAIN  
_ADC_STATUS_WriteMask. . . . . . . . . . CODE     ADC_STATUS  
_ADC_theACLK_ClearModeRegister . . . . . CODE     ADC_THEACLK  
_ADC_theACLK_SetDividerRegister. . . . . CODE     ADC_THEACLK  ADC  
_ADC_theACLK_SetModeRegister . . . . . . CODE     ADC_THEACLK  ADC  
_ADC_theACLK_SetPhaseRegister. . . . . . CODE     ADC_THEACLK  
_ADC_theACLK_SetSourceRegister . . . . . CODE     ADC_THEACLK  
_ADC_theACLK_StandbyPower. . . . . . . . CODE     ADC_THEACLK  
_Bootloadable_SetFlashByte . . . . . . . CODE     BOOTLOADABLE  
_cfg_write_bytes . . . . . . . . . . . . CODE     CYMEM  
_cfg_write_bytes_code. . . . . . . . . . CODE     CYMEM  
_check_enc_data. . . . . . . . . . . . . CODE     UTILS  INTERRUPTIONS  
_CLOCK_UART_ClearModeRegister. . . . . . CODE     CLOCK_UART  
_CLOCK_UART_SetDividerRegister . . . . . CODE     CLOCK_UART  COMMAND_PROCESSING  
_CLOCK_UART_SetModeRegister. . . . . . . CODE     CLOCK_UART  
_CLOCK_UART_SetSourceRegister. . . . . . CODE     CLOCK_UART  
_CLOCK_UART_StandbyPower . . . . . . . . CODE     CLOCK_UART  
_commWrite . . . . . . . . . . . . . . . CODE     COMMAND_PROCESSING  
_commWrite_old_id. . . . . . . . . . . . CODE     COMMAND_PROCESSING  
_COUNTER_ENC_SetInterruptMode. . . . . . CODE     COUNTER_ENC  
_COUNTER_ENC_WriteCompare. . . . . . . . CODE     COUNTER_ENC  
_COUNTER_ENC_WriteControlRegister. . . . CODE     COUNTER_ENC  
_COUNTER_ENC_WriteCounter. . . . . . . . CODE     COUNTER_ENC  
_COUNTER_ENC_WritePeriod . . . . . . . . CODE     COUNTER_ENC  
_CyBusClk_SetDivider . . . . . . . . . . CODE     CYLIB  CYPM  
_cyconfigcpy . . . . . . . . . . . . . . CODE     CYMEM  CYFITTER_CFG  
_cyconfigcpycode . . . . . . . . . . . . CODE     CYMEM  CYFITTER_CFG  
_CyCpuClk_SetDivider . . . . . . . . . . CODE     CYLIB  
_CyDelay . . . . . . . . . . . . . . . . CODE     CYBOOTASMKEIL  
_CyDelayCycles . . . . . . . . . . . . . CODE     CYBOOTASMKEIL  CYFITTER_CFG  CYLIB  CYPM  
_CyDelayUs . . . . . . . . . . . . . . . CODE     CYBOOTASMKEIL  ADC  CYFLASH  CYLIB  CYPM  CYSPC  
_CyDmacClearError. . . . . . . . . . . . CODE     CYDMAC  
_CyDmaChDisable. . . . . . . . . . . . . CODE     CYDMAC  DMA_DMA  
_CyDmaChEnable . . . . . . . . . . . . . CODE     CYDMAC  MAIN  
_CyDmaChFree . . . . . . . . . . . . . . CODE     CYDMAC  
_CyDmaChGetRequest . . . . . . . . . . . CODE     CYDMAC  
LX51 LINKER/LOCATER V4.64.0.0                                                         02/02/2018  18:09:00  PAGE 141


_CyDmaChPriority . . . . . . . . . . . . CODE     CYDMAC  DMA_DMA  
_CyDmaChRoundRobin . . . . . . . . . . . CODE     CYDMAC  
_CyDmaChSetConfiguration . . . . . . . . CODE     CYDMAC  DMA_DMA  
_CyDmaChSetExtendedAddress . . . . . . . CODE     CYDMAC  DMA_DMA  
_CyDmaChSetInitialTd . . . . . . . . . . CODE     CYDMAC  MAIN  
_CyDmaChSetRequest . . . . . . . . . . . CODE     CYDMAC  
_CyDmaChStatus . . . . . . . . . . . . . CODE     CYDMAC  
_CyDmaClearPendingDrq. . . . . . . . . . CODE     CYDMAC  
_CyDmaTdFree . . . . . . . . . . . . . . CODE     CYDMAC  
_CyDmaTdGetAddress . . . . . . . . . . . CODE     CYDMAC  
_CyDmaTdGetConfiguration . . . . . . . . CODE     CYDMAC  
_CyDmaTdSetAddress . . . . . . . . . . . CODE     CYDMAC  MAIN  
_CyDmaTdSetConfiguration . . . . . . . . CODE     CYDMAC  MAIN  
_CyEnableInts. . . . . . . . . . . . . . CODE     CYLIB  
_CyExitCriticalSection . . . . . . . . . CODE     CYBOOTASMKEIL  ADC  ADC_STATUS  COUNTER_ENC  CYDMAC  CYFLASH  CYLIB  C
                                                  YPM  CYSPC  EEPROM  FF_STATUS  MY_TIMER  SHIFTREG_ENC_1  SHIFTREG_ENC_
                                                  2  SHIFTREG_ENC_3  SHIFTREG_ENC_4  UART_RS485  
_CyFlash_SetWaitCycles . . . . . . . . . CODE     CYFLASH  CYPM  
_CyGetUniqueId . . . . . . . . . . . . . CODE     CYLIB  
_CyILO_SetPowerMode. . . . . . . . . . . CODE     CYLIB  CYPM  
_CyILO_SetSource . . . . . . . . . . . . CODE     CYLIB  
_CyIMO_SetFreq . . . . . . . . . . . . . CODE     CYLIB  CYPM  
_CyIMO_SetSource . . . . . . . . . . . . CODE     CYLIB  CYPM  
_CyIMO_Start . . . . . . . . . . . . . . CODE     CYLIB  CYPM  
_CyIntGetPriority. . . . . . . . . . . . CODE     CYLIB  
_CyIntGetState . . . . . . . . . . . . . CODE     CYLIB  
_CyIntGetVector. . . . . . . . . . . . . CODE     CYLIB  
_CyIntSetPriority. . . . . . . . . . . . CODE     CYLIB  ADC  UART_RS485  
_CyIntSetVector. . . . . . . . . . . . . CODE     CYLIB  ADC  UART_RS485  
_CyMasterClk_SetDivider. . . . . . . . . CODE     CYLIB  CYPM  
_CyMasterClk_SetSource . . . . . . . . . CODE     CYLIB  CYPM  
_cymemzero . . . . . . . . . . . . . . . CODE     CYMEM  
_CyPLL_OUT_SetPQ . . . . . . . . . . . . CODE     CYLIB  
_CyPLL_OUT_SetSource . . . . . . . . . . CODE     CYLIB  
_CyPLL_OUT_Start . . . . . . . . . . . . CODE     CYLIB  CYPM  
_CyPmAltAct. . . . . . . . . . . . . . . CODE     CYPM  
_CyPmCtwSetInterval. . . . . . . . . . . CODE     CYPM  
_CyPmFtwSetInterval. . . . . . . . . . . CODE     CYPM  CYLIB  
_CyPmHibernateEx . . . . . . . . . . . . CODE     CYPM  
_CyPmReadStatus. . . . . . . . . . . . . CODE     CYPM  CYLIB  
_CyPmSleep . . . . . . . . . . . . . . . CODE     CYPM  
_cyread16. . . . . . . . . . . . . . . . CODE     CYMEM  
_cyread16_nodpx. . . . . . . . . . . . . CODE     CYMEM  ADC  ADC_EXT_CP_CLK  ADC_THEACLK  CLOCK_UART  CYDMAC  CYLIB  IS
                                                  R_RS485_RX  ISR_WATCHDOG  PACER_TIMER  WATCHDOG_COUNTER  
_cyread24. . . . . . . . . . . . . . . . CODE     CYMEM  
_cyread24_nodpx. . . . . . . . . . . . . CODE     CYMEM  MY_TIMER  SHIFTREG_ENC_1  SHIFTREG_ENC_2  SHIFTREG_ENC_3  SHIFT
                                                  REG_ENC_4  
_cyread32. . . . . . . . . . . . . . . . CODE     CYMEM  
_cyread32_nodpx. . . . . . . . . . . . . CODE     CYMEM  CYDMAC  
_cyread8 . . . . . . . . . . . . . . . . CODE     CYMEM  ADC  CYFITTER_CFG  CYLIB  CYSPC  
_cyread8_nodpx . . . . . . . . . . . . . CODE     CYMEM  
_CySetFlashEEBuffer. . . . . . . . . . . CODE     CYFLASH  
_CySpcEraseSector. . . . . . . . . . . . CODE     CYSPC  EEPROM  
_CySpcGetTemp. . . . . . . . . . . . . . CODE     CYSPC  CYFLASH  
_CySpcLoadMultiByte. . . . . . . . . . . CODE     CYSPC  EEPROM  
_CySpcLoadRow. . . . . . . . . . . . . . CODE     CYSPC  EEPROM  
_CySpcLoadRowFull. . . . . . . . . . . . CODE     CYSPC  CYFLASH  
_CySpcReadData . . . . . . . . . . . . . CODE     CYSPC  CYFLASH  
_CySpcWriteRow . . . . . . . . . . . . . CODE     CYSPC  CYFLASH  EEPROM  
_CyUsbClk_SetSource. . . . . . . . . . . CODE     CYLIB  
_CyVdLvAnalogEnable. . . . . . . . . . . CODE     CYLIB  CYPM  
_CyVdLvDigitEnable . . . . . . . . . . . CODE     CYLIB  CYPM  
_CyVdStickyStatus. . . . . . . . . . . . CODE     CYLIB  
_CyWdtStart. . . . . . . . . . . . . . . CODE     CYLIB  
_cywrite16 . . . . . . . . . . . . . . . CODE     CYMEM  CYFITTER_CFG  
LX51 LINKER/LOCATER V4.64.0.0                                                         02/02/2018  18:09:00  PAGE 142


_cywrite16_nodpx . . . . . . . . . . . . CODE     CYMEM  ADC  ADC_EXT_CP_CLK  ADC_THEACLK  CLOCK_UART  CYDMAC  CYFITTER_
                                                  CFG  CYLIB  ISR_RS485_RX  ISR_WATCHDOG  PACER_TIMER  WATCHDOG_COUNTER 
                                                   
_cywrite24 . . . . . . . . . . . . . . . CODE     CYMEM  
_cywrite24_nodpx . . . . . . . . . . . . CODE     CYMEM  MY_TIMER  SHIFTREG_ENC_1  SHIFTREG_ENC_2  SHIFTREG_ENC_3  SHIFT
                                                  REG_ENC_4  
_cywrite32 . . . . . . . . . . . . . . . CODE     CYMEM  
_cywrite32_nodpx . . . . . . . . . . . . CODE     CYMEM  
_cywrite8. . . . . . . . . . . . . . . . CODE     CYMEM  CYFITTER_CFG  
_cywrite8_nodpx. . . . . . . . . . . . . CODE     CYMEM  
_CyWriteRowData. . . . . . . . . . . . . CODE     CYFLASH  BOOTLOADABLE  
_CyWriteRowFull. . . . . . . . . . . . . CODE     CYFLASH  
_CyXTAL_32KHZ_SetPowerMode . . . . . . . CODE     CYLIB  
_CyXTAL_SetFbVoltage . . . . . . . . . . CODE     CYLIB  
_CyXTAL_SetStartup . . . . . . . . . . . CODE     CYLIB  
_CyXTAL_SetWdVoltage . . . . . . . . . . CODE     CYLIB  
_CyXTAL_Start. . . . . . . . . . . . . . CODE     CYLIB  CYPM  
_DMA_DmaInitialize . . . . . . . . . . . CODE     DMA_DMA  MAIN  
_dma_wait. . . . . . . . . . . . . . . . CODE     ?C_STARTUP  
_EEPROM_ByteWritePos . . . . . . . . . . CODE     EEPROM  
_EEPROM_EraseSector. . . . . . . . . . . CODE     EEPROM  
_EEPROM_ReadByte . . . . . . . . . . . . CODE     EEPROM  
_EEPROM_StartErase . . . . . . . . . . . CODE     EEPROM  
_EEPROM_StartWrite . . . . . . . . . . . CODE     EEPROM  
_EEPROM_Write. . . . . . . . . . . . . . CODE     EEPROM  COMMAND_PROCESSING  
_EEPROM_WriteByte. . . . . . . . . . . . CODE     EEPROM  
_encoder_reading . . . . . . . . . . . . CODE     INTERRUPTIONS  MAIN  
_FF_STATUS_WriteMask . . . . . . . . . . CODE     FF_STATUS  
_filter_i1 . . . . . . . . . . . . . . . CODE     UTILS  INTERRUPTIONS  
_filter_i2 . . . . . . . . . . . . . . . CODE     UTILS  INTERRUPTIONS  
_filter_vel_1. . . . . . . . . . . . . . CODE     UTILS  
_filter_vel_2. . . . . . . . . . . . . . CODE     UTILS  
_filter_vel_3. . . . . . . . . . . . . . CODE     UTILS  
_FTDI_ENABLE_REG_Write . . . . . . . . . CODE     FTDI_ENABLE_REG  COMMAND_PROCESSING  MAIN  
_get_param_list. . . . . . . . . . . . . CODE     COMMAND_PROCESSING  
_infoGet . . . . . . . . . . . . . . . . CODE     COMMAND_PROCESSING  INTERRUPTIONS  
_infoPrepare . . . . . . . . . . . . . . CODE     COMMAND_PROCESSING  
_ISR_RS485_RX_SetPriority. . . . . . . . CODE     ISR_RS485_RX  
_ISR_RS485_RX_SetVector. . . . . . . . . CODE     ISR_RS485_RX  
_ISR_RS485_RX_StartEx. . . . . . . . . . CODE     ISR_RS485_RX  MAIN  
_ISR_WATCHDOG_SetPriority. . . . . . . . CODE     ISR_WATCHDOG  
_ISR_WATCHDOG_SetVector. . . . . . . . . CODE     ISR_WATCHDOG  
_ISR_WATCHDOG_StartEx. . . . . . . . . . CODE     ISR_WATCHDOG  MAIN  
_LCRChecksum . . . . . . . . . . . . . . CODE     UTILS  COMMAND_PROCESSING  
_memStore. . . . . . . . . . . . . . . . CODE     COMMAND_PROCESSING  MAIN  
_motor_control . . . . . . . . . . . . . CODE     INTERRUPTIONS  
_MOTOR_DIR_Write . . . . . . . . . . . . CODE     MOTOR_DIR  INTERRUPTIONS  MAIN  
_MOTOR_ON_OFF_Write. . . . . . . . . . . CODE     MOTOR_ON_OFF  COMMAND_PROCESSING  MAIN  
_MY_TIMER_SetInterruptMode . . . . . . . CODE     MY_TIMER  
_MY_TIMER_WriteControlRegister . . . . . CODE     MY_TIMER  
_MY_TIMER_WriteCounter . . . . . . . . . CODE     MY_TIMER  INTERRUPTIONS  
_MY_TIMER_WritePeriod. . . . . . . . . . CODE     MY_TIMER  
_PACER_TIMER_SetInterruptMode. . . . . . CODE     PACER_TIMER  
_PACER_TIMER_WriteControlRegister. . . . CODE     PACER_TIMER  
_PACER_TIMER_WriteCounter. . . . . . . . CODE     PACER_TIMER  
_PACER_TIMER_WritePeriod . . . . . . . . CODE     PACER_TIMER  
_PRINTF. . . . . . . . . . . . . . . . . CODE     PRINTF  
_PUTCHAR . . . . . . . . . . . . . . . . CODE     PUTCHAR  PRINTF  
_PWM_MOTORS_WriteCompare1. . . . . . . . CODE     PWM_MOTORS  COMMAND_PROCESSING  INTERRUPTIONS  MAIN  
_PWM_MOTORS_WriteCompare2. . . . . . . . CODE     PWM_MOTORS  COMMAND_PROCESSING  INTERRUPTIONS  MAIN  
_PWM_MOTORS_WriteControlRegister . . . . CODE     PWM_MOTORS  
_PWM_MOTORS_WriteCounter . . . . . . . . CODE     PWM_MOTORS  
_PWM_MOTORS_WritePeriod. . . . . . . . . CODE     PWM_MOTORS  
_RESET_FF_Write. . . . . . . . . . . . . CODE     RESET_FF  MAIN  
_RS485_CTS_Write . . . . . . . . . . . . CODE     RS485_CTS  COMMAND_PROCESSING  INTERRUPTIONS  MAIN  
LX51 LINKER/LOCATER V4.64.0.0                                                         02/02/2018  18:09:00  PAGE 143


_sendAcknowledgment. . . . . . . . . . . CODE     COMMAND_PROCESSING  MAIN  
_SetAnalogRoutingPumps . . . . . . . . . CODE     CYFITTER_CFG  
_SHIFTREG_ENC_1_GetFIFOStatus. . . . . . CODE     SHIFTREG_ENC_1  
_SHIFTREG_ENC_1_SetIntMode . . . . . . . CODE     SHIFTREG_ENC_1  
_SHIFTREG_ENC_1_WriteRegValue. . . . . . CODE     SHIFTREG_ENC_1  
_SHIFTREG_ENC_2_GetFIFOStatus. . . . . . CODE     SHIFTREG_ENC_2  
_SHIFTREG_ENC_2_SetIntMode . . . . . . . CODE     SHIFTREG_ENC_2  
_SHIFTREG_ENC_2_WriteRegValue. . . . . . CODE     SHIFTREG_ENC_2  
_SHIFTREG_ENC_3_GetFIFOStatus. . . . . . CODE     SHIFTREG_ENC_3  
_SHIFTREG_ENC_3_SetIntMode . . . . . . . CODE     SHIFTREG_ENC_3  
_SHIFTREG_ENC_3_WriteRegValue. . . . . . CODE     SHIFTREG_ENC_3  
_SHIFTREG_ENC_4_GetFIFOStatus. . . . . . CODE     SHIFTREG_ENC_4  
_SHIFTREG_ENC_4_SetIntMode . . . . . . . CODE     SHIFTREG_ENC_4  
_SHIFTREG_ENC_4_WriteRegValue. . . . . . CODE     SHIFTREG_ENC_4  
_SPRINTF . . . . . . . . . . . . . . . . CODE     PRINTF  COMMAND_PROCESSING  
_strcat. . . . . . . . . . . . . . . . . CODE     STRCAT  COMMAND_PROCESSING  
_STRLEN. . . . . . . . . . . . . . . . . CODE     STRLEN  COMMAND_PROCESSING  
_UART_RS485_PutArray . . . . . . . . . . CODE     UART_RS485  
_UART_RS485_PutChar. . . . . . . . . . . CODE     UART_RS485  COMMAND_PROCESSING  
_UART_RS485_PutCRLF. . . . . . . . . . . CODE     UART_RS485  
_UART_RS485_PutString. . . . . . . . . . CODE     UART_RS485  COMMAND_PROCESSING  
_UART_RS485_SendBreak. . . . . . . . . . CODE     UART_RS485  
_UART_RS485_SetRxAddress1. . . . . . . . CODE     UART_RS485  
_UART_RS485_SetRxAddress2. . . . . . . . CODE     UART_RS485  
_UART_RS485_SetRxAddressMode . . . . . . CODE     UART_RS485  
_UART_RS485_SetRxInterruptMode . . . . . CODE     UART_RS485  
_UART_RS485_SetTxAddressMode . . . . . . CODE     UART_RS485  
_UART_RS485_SetTxInterruptMode . . . . . CODE     UART_RS485  
_UART_RS485_WriteControlRegister . . . . CODE     UART_RS485  
_UART_RS485_WriteTxData. . . . . . . . . CODE     UART_RS485  
_WATCHDOG_COUNTER_SetInterruptMode . . . CODE     WATCHDOG_COUNTER  
_WATCHDOG_COUNTER_WriteControlRegister . CODE     WATCHDOG_COUNTER  
_WATCHDOG_COUNTER_WriteCounter . . . . . CODE     WATCHDOG_COUNTER  
_WATCHDOG_COUNTER_WritePeriod. . . . . . CODE     WATCHDOG_COUNTER  COMMAND_PROCESSING  
_WATCHDOG_ENABLER_Write. . . . . . . . . CODE     WATCHDOG_ENABLER  COMMAND_PROCESSING  MAIN  
_WATCHDOG_REFRESH_Write. . . . . . . . . CODE     WATCHDOG_REFRESH  MAIN  
AC . . . . . . . . . . . . . . . . . . . DATA     COMMAND_PROCESSING  
ACC. . . . . . . . . . . . . . . . . . . DATA     COMMAND_PROCESSING  
ADC_AMux__addrTable. . . . . . . . . . . CONST    CYFITTER_CFG  
ADC_AMux__maskTable. . . . . . . . . . . CONST    CYFITTER_CFG  
ADC_AMux_Start . . . . . . . . . . . . . CODE     ADC_AMUX  
ADC_buf. . . . . . . . . . . . . . . . . XDATA    GLOBALS  INTERRUPTIONS  MAIN  
ADC_Config . . . . . . . . . . . . . . . XDATA    ADC  
ADC_convDone . . . . . . . . . . . . . . XDATA    ADC  
ADC_CountsPerVolt. . . . . . . . . . . . XDATA    ADC  
ADC_Enable . . . . . . . . . . . . . . . CODE     ADC  
ADC_Ext_CP_Clk_GetDividerRegister. . . . CODE     ADC_EXT_CP_CLK  
ADC_Ext_CP_Clk_GetModeRegister . . . . . CODE     ADC_EXT_CP_CLK  
ADC_Ext_CP_Clk_GetSourceRegister . . . . CODE     ADC_EXT_CP_CLK  
ADC_Ext_CP_Clk_Start . . . . . . . . . . CODE     ADC_EXT_CP_CLK  
ADC_Ext_CP_Clk_Stop. . . . . . . . . . . CODE     ADC_EXT_CP_CLK  
ADC_Ext_CP_Clk_StopBlock . . . . . . . . CODE     ADC_EXT_CP_CLK  
ADC_GetResult16. . . . . . . . . . . . . CODE     ADC  
ADC_GetResult32. . . . . . . . . . . . . CODE     ADC  
ADC_GetResult8 . . . . . . . . . . . . . CODE     ADC  
ADC_Init . . . . . . . . . . . . . . . . CODE     ADC  
ADC_initVar. . . . . . . . . . . . . . . XDATA    ADC  
ADC_ISR1 . . . . . . . . . . . . . . . . CODE     ADC_INT  ADC  
ADC_ISR2 . . . . . . . . . . . . . . . . CODE     ADC_INT  
ADC_ISR3 . . . . . . . . . . . . . . . . CODE     ADC_INT  
ADC_ISR4 . . . . . . . . . . . . . . . . CODE     ADC_INT  
ADC_Offset . . . . . . . . . . . . . . . XDATA    ADC  
ADC_Read16 . . . . . . . . . . . . . . . CODE     ADC  
ADC_Read32 . . . . . . . . . . . . . . . CODE     ADC  
ADC_Read8. . . . . . . . . . . . . . . . CODE     ADC  
LX51 LINKER/LOCATER V4.64.0.0                                                         02/02/2018  18:09:00  PAGE 144


ADC_ReadGCOR . . . . . . . . . . . . . . CODE     ADC  
ADC_SOC_Read . . . . . . . . . . . . . . CODE     ADC_SOC  
ADC_Start. . . . . . . . . . . . . . . . CODE     ADC  MAIN  
ADC_StartConvert . . . . . . . . . . . . CODE     ADC  
ADC_started. . . . . . . . . . . . . . . XDATA    ADC  
ADC_STATUS_InterruptDisable. . . . . . . CODE     ADC_STATUS  
ADC_STATUS_InterruptEnable . . . . . . . CODE     ADC_STATUS  
ADC_STATUS_Read. . . . . . . . . . . . . CODE     ADC_STATUS  INTERRUPTIONS  
ADC_STATUS_ReadMask. . . . . . . . . . . CODE     ADC_STATUS  
ADC_Stop . . . . . . . . . . . . . . . . CODE     ADC  
ADC_stopConversion . . . . . . . . . . . XDATA    ADC  
ADC_StopConvert. . . . . . . . . . . . . CODE     ADC  
ADC_theACLK_GetDividerRegister . . . . . CODE     ADC_THEACLK  
ADC_theACLK_GetModeRegister. . . . . . . CODE     ADC_THEACLK  
ADC_theACLK_GetPhaseRegister . . . . . . CODE     ADC_THEACLK  
ADC_theACLK_GetSourceRegister. . . . . . CODE     ADC_THEACLK  
ADC_theACLK_Start. . . . . . . . . . . . CODE     ADC_THEACLK  
ADC_theACLK_Stop . . . . . . . . . . . . CODE     ADC_THEACLK  
ADC_theACLK_StopBlock. . . . . . . . . . CODE     ADC_THEACLK  
analog_read_end. . . . . . . . . . . . . CODE     INTERRUPTIONS  
B. . . . . . . . . . . . . . . . . . . . DATA     COMMAND_PROCESSING  
Bootloadable_Load. . . . . . . . . . . . CODE     BOOTLOADABLE  COMMAND_PROCESSING  
c_mem. . . . . . . . . . . . . . . . . . XDATA    GLOBALS  COMMAND_PROCESSING  INTERRUPTIONS  MAIN  
calibration_flag . . . . . . . . . . . . XDATA    GLOBALS  MAIN  
CLOCK_UART_GetDividerRegister. . . . . . CODE     CLOCK_UART  
CLOCK_UART_GetModeRegister . . . . . . . CODE     CLOCK_UART  
CLOCK_UART_GetSourceRegister . . . . . . CODE     CLOCK_UART  
CLOCK_UART_Start . . . . . . . . . . . . CODE     CLOCK_UART  
CLOCK_UART_Stop. . . . . . . . . . . . . CODE     CLOCK_UART  
CLOCK_UART_StopBlock . . . . . . . . . . CODE     CLOCK_UART  
cmd_activate . . . . . . . . . . . . . . CODE     COMMAND_PROCESSING  
cmd_get_activate . . . . . . . . . . . . CODE     COMMAND_PROCESSING  
cmd_get_curr_and_meas. . . . . . . . . . CODE     COMMAND_PROCESSING  
cmd_get_currents . . . . . . . . . . . . CODE     COMMAND_PROCESSING  
cmd_get_inputs . . . . . . . . . . . . . CODE     COMMAND_PROCESSING  
cmd_get_measurements . . . . . . . . . . CODE     COMMAND_PROCESSING  
cmd_get_velocities . . . . . . . . . . . CODE     COMMAND_PROCESSING  
cmd_ping . . . . . . . . . . . . . . . . CODE     COMMAND_PROCESSING  
cmd_set_baudrate . . . . . . . . . . . . CODE     COMMAND_PROCESSING  
cmd_set_inputs . . . . . . . . . . . . . CODE     COMMAND_PROCESSING  
cmd_set_pos_stiff. . . . . . . . . . . . CODE     COMMAND_PROCESSING  
cmd_set_watchdog . . . . . . . . . . . . CODE     COMMAND_PROCESSING  
cmd_store_params . . . . . . . . . . . . CODE     COMMAND_PROCESSING  
commProcess. . . . . . . . . . . . . . . CODE     COMMAND_PROCESSING  INTERRUPTIONS  
COUNTER_ENC_ClearFIFO. . . . . . . . . . CODE     COUNTER_ENC  
COUNTER_ENC_Enable . . . . . . . . . . . CODE     COUNTER_ENC  
COUNTER_ENC_Init . . . . . . . . . . . . CODE     COUNTER_ENC  
COUNTER_ENC_initVar. . . . . . . . . . . XDATA    COUNTER_ENC  
COUNTER_ENC_ReadCapture. . . . . . . . . CODE     COUNTER_ENC  
COUNTER_ENC_ReadCompare. . . . . . . . . CODE     COUNTER_ENC  
COUNTER_ENC_ReadControlRegister. . . . . CODE     COUNTER_ENC  
COUNTER_ENC_ReadCounter. . . . . . . . . CODE     COUNTER_ENC  
COUNTER_ENC_ReadPeriod . . . . . . . . . CODE     COUNTER_ENC  
COUNTER_ENC_ReadStatusRegister . . . . . CODE     COUNTER_ENC  
COUNTER_ENC_Start. . . . . . . . . . . . CODE     COUNTER_ENC  MAIN  
COUNTER_ENC_Stop . . . . . . . . . . . . CODE     COUNTER_ENC  
cuff_flag_force. . . . . . . . . . . . . BIT      GLOBALS  COMMAND_PROCESSING  INTERRUPTIONS  MAIN  
cuff_flag_force_proprio. . . . . . . . . BIT      GLOBALS  COMMAND_PROCESSING  INTERRUPTIONS  MAIN  
cuff_flag_proprio. . . . . . . . . . . . BIT      GLOBALS  COMMAND_PROCESSING  INTERRUPTIONS  MAIN  
CY . . . . . . . . . . . . . . . . . . . DATA     COMMAND_PROCESSING  
cydelay_32k_ms . . . . . . . . . . . . . XDATA    CYLIB  
cydelay_freq_hz. . . . . . . . . . . . . XDATA    CYLIB  
cydelay_freq_khz . . . . . . . . . . . . XDATA    CYLIB  
cydelay_freq_mhz . . . . . . . . . . . . XDATA    CYLIB  CYBOOTASMKEIL  
CyDisableInts. . . . . . . . . . . . . . CODE     CYLIB  
LX51 LINKER/LOCATER V4.64.0.0                                                         02/02/2018  18:09:00  PAGE 145


CyDmacConfigure. . . . . . . . . . . . . CODE     CYDMAC  ?C_STARTUP  
CyDmacError. . . . . . . . . . . . . . . CODE     CYDMAC  
CyDmacErrorAddress . . . . . . . . . . . CODE     CYDMAC  
CyDmaChAlloc . . . . . . . . . . . . . . CODE     CYDMAC  
CyDmaTdAllocate. . . . . . . . . . . . . CODE     CYDMAC  MAIN  
CyDmaTdFreeCount . . . . . . . . . . . . CODE     CYDMAC  
CyEEPROM_ReadRelease . . . . . . . . . . CODE     CYFLASH  EEPROM  
CyEEPROM_ReadReserve . . . . . . . . . . CODE     CYFLASH  EEPROM  
CyEEPROM_Start . . . . . . . . . . . . . CODE     CYFLASH  EEPROM  
CyEEPROM_Stop. . . . . . . . . . . . . . CODE     CYFLASH  EEPROM  
CyEnterCriticalSection . . . . . . . . . CODE     CYBOOTASMKEIL  ADC  ADC_STATUS  COUNTER_ENC  CYDMAC  CYFLASH  CYLIB  C
                                                  YPM  CYSPC  EEPROM  FF_STATUS  MY_TIMER  SHIFTREG_ENC_1  SHIFTREG_ENC_
                                                  2  SHIFTREG_ENC_3  SHIFTREG_ENC_4  UART_RS485  
cyfitter_cfg . . . . . . . . . . . . . . CODE     CYFITTER_CFG  ?C_STARTUP  
CyFlash_Start. . . . . . . . . . . . . . CODE     CYFLASH  
CyFlash_Stop . . . . . . . . . . . . . . CODE     CYFLASH  
CyILO_Disable33K . . . . . . . . . . . . CODE     CYLIB  
CyILO_Enable33K. . . . . . . . . . . . . CODE     CYLIB  
CyILO_Start100K. . . . . . . . . . . . . CODE     CYLIB  CYPM  
CyILO_Start1K. . . . . . . . . . . . . . CODE     CYLIB  CYPM  
CyILO_Stop100K . . . . . . . . . . . . . CODE     CYLIB  
CyILO_Stop1K . . . . . . . . . . . . . . CODE     CYLIB  
CyIMO_DisableDoubler . . . . . . . . . . CODE     CYLIB  CYPM  
CyIMO_EnableDoubler. . . . . . . . . . . CODE     CYLIB  CYPM  
CyIMO_Stop . . . . . . . . . . . . . . . CODE     CYLIB  CYPM  
CyPLL_OUT_Stop . . . . . . . . . . . . . CODE     CYLIB  CYPM  
CyPmHibernate. . . . . . . . . . . . . . CODE     CYPM  
CyPmOppsSet. . . . . . . . . . . . . . . CODE     CYPM  
CyPmRestoreClocks. . . . . . . . . . . . CODE     CYPM  
CyPmSaveClocks . . . . . . . . . . . . . CODE     CYPM  
CyResetStatus. . . . . . . . . . . . . . XDATA    CYLIB  ?C_STARTUP  
CySetTemp. . . . . . . . . . . . . . . . CODE     CYFLASH  EEPROM  
CySoftwareReset. . . . . . . . . . . . . CODE     CYLIB  BOOTLOADABLE  
CySpcGetAlgorithm. . . . . . . . . . . . CODE     CYSPC  CYFLASH  
CySpcLock. . . . . . . . . . . . . . . . CODE     CYSPC  CYFLASH  EEPROM  
CySpcStart . . . . . . . . . . . . . . . CODE     CYSPC  CYFLASH  EEPROM  
CySpcStop. . . . . . . . . . . . . . . . CODE     CYSPC  
CySpcUnlock. . . . . . . . . . . . . . . CODE     CYSPC  CYFLASH  EEPROM  
CyVdHvAnalogDisable. . . . . . . . . . . CODE     CYLIB  CYPM  
CyVdHvAnalogEnable . . . . . . . . . . . CODE     CYLIB  CYPM  
CyVdLvAnalogDisable. . . . . . . . . . . CODE     CYLIB  CYPM  
CyVdLvDigitDisable . . . . . . . . . . . CODE     CYLIB  CYPM  
CyVdRealTimeStatus . . . . . . . . . . . CODE     CYLIB  
CyWdtClear . . . . . . . . . . . . . . . CODE     CYLIB  
CyXTAL_32KHZ_ReadStatus. . . . . . . . . CODE     CYLIB  
CyXTAL_32KHZ_Start . . . . . . . . . . . CODE     CYLIB  CYPM  
CyXTAL_32KHZ_Stop. . . . . . . . . . . . CODE     CYLIB  
CyXTAL_DisableErrStatus. . . . . . . . . CODE     CYLIB  
CyXTAL_DisableFaultRecovery. . . . . . . CODE     CYLIB  
CyXTAL_EnableErrStatus . . . . . . . . . CODE     CYLIB  
CyXTAL_EnableFaultRecovery . . . . . . . CODE     CYLIB  
CyXTAL_ReadStatus. . . . . . . . . . . . CODE     CYLIB  
CyXTAL_Stop. . . . . . . . . . . . . . . CODE     CYLIB  CYPM  
dev_pwm_limit. . . . . . . . . . . . . . XDATA    GLOBALS  COMMAND_PROCESSING  INTERRUPTIONS  MAIN  
dev_tension. . . . . . . . . . . . . . . XDATA    GLOBALS  COMMAND_PROCESSING  INTERRUPTIONS  
dieTemperature . . . . . . . . . . . . . XDATA    CYFLASH  EEPROM  
DMA_DmaHandle. . . . . . . . . . . . . . XDATA    DMA_DMA  
DMA_DmaRelease . . . . . . . . . . . . . CODE     DMA_DMA  
DPH. . . . . . . . . . . . . . . . . . . DATA     COMMAND_PROCESSING  
DPH1 . . . . . . . . . . . . . . . . . . DATA     COMMAND_PROCESSING  
DPL. . . . . . . . . . . . . . . . . . . DATA     COMMAND_PROCESSING  
DPL1 . . . . . . . . . . . . . . . . . . DATA     COMMAND_PROCESSING  
DPS. . . . . . . . . . . . . . . . . . . DATA     COMMAND_PROCESSING  
DPX. . . . . . . . . . . . . . . . . . . DATA     COMMAND_PROCESSING  
DPX1 . . . . . . . . . . . . . . . . . . DATA     COMMAND_PROCESSING  
LX51 LINKER/LOCATER V4.64.0.0                                                         02/02/2018  18:09:00  PAGE 146


drive_cuff . . . . . . . . . . . . . . . CODE     COMMAND_PROCESSING  INTERRUPTIONS  
EA . . . . . . . . . . . . . . . . . . . DATA     COMMAND_PROCESSING  
EEPROM_ADDR. . . . . . . . . . . . . . . XDATA    COMMAND_PROCESSING  
EEPROM_Enable. . . . . . . . . . . . . . CODE     EEPROM  
EEPROM_Query . . . . . . . . . . . . . . CODE     EEPROM  
EEPROM_Start . . . . . . . . . . . . . . CODE     EEPROM  MAIN  
EEPROM_Stop. . . . . . . . . . . . . . . CODE     EEPROM  
EEPROM_UpdateTemperature . . . . . . . . CODE     EEPROM  COMMAND_PROCESSING  
F0 . . . . . . . . . . . . . . . . . . . DATA     COMMAND_PROCESSING  
F1 . . . . . . . . . . . . . . . . . . . DATA     COMMAND_PROCESSING  
FF_STATUS_InterruptDisable . . . . . . . CODE     FF_STATUS  
FF_STATUS_InterruptEnable. . . . . . . . CODE     FF_STATUS  
FF_STATUS_Read . . . . . . . . . . . . . CODE     FF_STATUS  MAIN  
FF_STATUS_ReadMask . . . . . . . . . . . CODE     FF_STATUS  
force_and_slide_cuff . . . . . . . . . . CODE     COMMAND_PROCESSING  INTERRUPTIONS  
FTDI_ENABLE_REG_Read . . . . . . . . . . CODE     FTDI_ENABLE_REG  
function_scheduler . . . . . . . . . . . CODE     INTERRUPTIONS  MAIN  
g_meas . . . . . . . . . . . . . . . . . XDATA    GLOBALS  COMMAND_PROCESSING  INTERRUPTIONS  MAIN  
g_measOld. . . . . . . . . . . . . . . . XDATA    GLOBALS  COMMAND_PROCESSING  INTERRUPTIONS  
g_mem. . . . . . . . . . . . . . . . . . XDATA    GLOBALS  COMMAND_PROCESSING  INTERRUPTIONS  MAIN  
g_ref. . . . . . . . . . . . . . . . . . XDATA    GLOBALS  COMMAND_PROCESSING  INTERRUPTIONS  MAIN  
g_refNew . . . . . . . . . . . . . . . . XDATA    GLOBALS  COMMAND_PROCESSING  INTERRUPTIONS  MAIN  
g_refOld . . . . . . . . . . . . . . . . XDATA    GLOBALS  COMMAND_PROCESSING  INTERRUPTIONS  
g_rx . . . . . . . . . . . . . . . . . . XDATA    GLOBALS  COMMAND_PROCESSING  INTERRUPTIONS  MAIN  
hitech_pwm_preload_values. . . . . . . . CONST    INTERRUPTIONS  
hitech_pwm_preload_values_6v . . . . . . CONST    INTERRUPTIONS  
IE . . . . . . . . . . . . . . . . . . . DATA     COMMAND_PROCESSING  
interrupt_flag . . . . . . . . . . . . . BIT      GLOBALS  COMMAND_PROCESSING  INTERRUPTIONS  MAIN  
interrupt_manager. . . . . . . . . . . . CODE     INTERRUPTIONS  COMMAND_PROCESSING  MAIN  
ISR_RS485_RX_ClearPending. . . . . . . . CODE     ISR_RS485_RX  
ISR_RS485_RX_Disable . . . . . . . . . . CODE     ISR_RS485_RX  
ISR_RS485_RX_Enable. . . . . . . . . . . CODE     ISR_RS485_RX  
ISR_RS485_RX_ExInterrupt . . . . . . . . CODE     INTERRUPTIONS  MAIN  
ISR_RS485_RX_GetPriority . . . . . . . . CODE     ISR_RS485_RX  
ISR_RS485_RX_GetState. . . . . . . . . . CODE     ISR_RS485_RX  
ISR_RS485_RX_GetVector . . . . . . . . . CODE     ISR_RS485_RX  
ISR_RS485_RX_Interrupt . . . . . . . . . CODE     ISR_RS485_RX  
ISR_RS485_RX_SetPending. . . . . . . . . CODE     ISR_RS485_RX  
ISR_RS485_RX_Start . . . . . . . . . . . CODE     ISR_RS485_RX  
ISR_RS485_RX_Stop. . . . . . . . . . . . CODE     ISR_RS485_RX  
ISR_WATCHDOG_ClearPending. . . . . . . . CODE     ISR_WATCHDOG  
ISR_WATCHDOG_Disable . . . . . . . . . . CODE     ISR_WATCHDOG  
ISR_WATCHDOG_Enable. . . . . . . . . . . CODE     ISR_WATCHDOG  
ISR_WATCHDOG_GetPriority . . . . . . . . CODE     ISR_WATCHDOG  
ISR_WATCHDOG_GetState. . . . . . . . . . CODE     ISR_WATCHDOG  
ISR_WATCHDOG_GetVector . . . . . . . . . CODE     ISR_WATCHDOG  
ISR_WATCHDOG_Handler . . . . . . . . . . CODE     INTERRUPTIONS  MAIN  
ISR_WATCHDOG_Interrupt . . . . . . . . . CODE     ISR_WATCHDOG  
ISR_WATCHDOG_SetPending. . . . . . . . . CODE     ISR_WATCHDOG  
ISR_WATCHDOG_Start . . . . . . . . . . . CODE     ISR_WATCHDOG  
ISR_WATCHDOG_Stop. . . . . . . . . . . . CODE     ISR_WATCHDOG  
main . . . . . . . . . . . . . . . . . . CODE     MAIN  ?C_INIT  
memInit. . . . . . . . . . . . . . . . . CODE     COMMAND_PROCESSING  
memRecall. . . . . . . . . . . . . . . . CODE     COMMAND_PROCESSING  MAIN  
memRestore . . . . . . . . . . . . . . . CODE     COMMAND_PROCESSING  
MOTOR_DIR_Read . . . . . . . . . . . . . CODE     MOTOR_DIR  
MOTOR_ON_OFF_Read. . . . . . . . . . . . CODE     MOTOR_ON_OFF  
MXAX . . . . . . . . . . . . . . . . . . DATA     COMMAND_PROCESSING  
MY_TIMER_ClearFIFO . . . . . . . . . . . CODE     MY_TIMER  
MY_TIMER_Enable. . . . . . . . . . . . . CODE     MY_TIMER  
MY_TIMER_Init. . . . . . . . . . . . . . CODE     MY_TIMER  
MY_TIMER_initVar . . . . . . . . . . . . XDATA    MY_TIMER  
MY_TIMER_ReadCapture . . . . . . . . . . CODE     MY_TIMER  
MY_TIMER_ReadControlRegister . . . . . . CODE     MY_TIMER  
MY_TIMER_ReadCounter . . . . . . . . . . CODE     MY_TIMER  COMMAND_PROCESSING  INTERRUPTIONS  
LX51 LINKER/LOCATER V4.64.0.0                                                         02/02/2018  18:09:00  PAGE 147


MY_TIMER_ReadPeriod. . . . . . . . . . . CODE     MY_TIMER  
MY_TIMER_ReadStatusRegister. . . . . . . CODE     MY_TIMER  
MY_TIMER_SoftwareCapture . . . . . . . . CODE     MY_TIMER  
MY_TIMER_Start . . . . . . . . . . . . . CODE     MY_TIMER  MAIN  
MY_TIMER_Stop. . . . . . . . . . . . . . CODE     MY_TIMER  
OV . . . . . . . . . . . . . . . . . . . DATA     COMMAND_PROCESSING  
P. . . . . . . . . . . . . . . . . . . . DATA     COMMAND_PROCESSING  
P2AX . . . . . . . . . . . . . . . . . . DATA     COMMAND_PROCESSING  
PACER_TIMER_Enable . . . . . . . . . . . CODE     PACER_TIMER  
PACER_TIMER_Init . . . . . . . . . . . . CODE     PACER_TIMER  
PACER_TIMER_initVar. . . . . . . . . . . XDATA    PACER_TIMER  
PACER_TIMER_ReadCapture. . . . . . . . . CODE     PACER_TIMER  
PACER_TIMER_ReadControlRegister. . . . . CODE     PACER_TIMER  
PACER_TIMER_ReadCounter. . . . . . . . . CODE     PACER_TIMER  
PACER_TIMER_ReadPeriod . . . . . . . . . CODE     PACER_TIMER  
PACER_TIMER_ReadStatusRegister . . . . . CODE     PACER_TIMER  
PACER_TIMER_SoftwareCapture. . . . . . . CODE     PACER_TIMER  
PACER_TIMER_Start. . . . . . . . . . . . CODE     PACER_TIMER  MAIN  
PACER_TIMER_Stop . . . . . . . . . . . . CODE     PACER_TIMER  
pret_done. . . . . . . . . . . . . . . . BIT      GLOBALS  COMMAND_PROCESSING  INTERRUPTIONS  MAIN  
pret_offset_pos. . . . . . . . . . . . . XDATA    GLOBALS  COMMAND_PROCESSING  INTERRUPTIONS  
pretensioning_flag . . . . . . . . . . . BIT      GLOBALS  COMMAND_PROCESSING  INTERRUPTIONS  MAIN  
pretensioning_process. . . . . . . . . . CODE     INTERRUPTIONS  
PSW. . . . . . . . . . . . . . . . . . . DATA     COMMAND_PROCESSING  
pwm_limit_search . . . . . . . . . . . . CODE     INTERRUPTIONS  
PWM_MOTORS_Enable. . . . . . . . . . . . CODE     PWM_MOTORS  
PWM_MOTORS_Init. . . . . . . . . . . . . CODE     PWM_MOTORS  
PWM_MOTORS_initVar . . . . . . . . . . . XDATA    PWM_MOTORS  
PWM_MOTORS_ReadCapture . . . . . . . . . CODE     PWM_MOTORS  
PWM_MOTORS_ReadCompare1. . . . . . . . . CODE     PWM_MOTORS  
PWM_MOTORS_ReadCompare2. . . . . . . . . CODE     PWM_MOTORS  
PWM_MOTORS_ReadControlRegister . . . . . CODE     PWM_MOTORS  
PWM_MOTORS_ReadCounter . . . . . . . . . CODE     PWM_MOTORS  
PWM_MOTORS_ReadPeriod. . . . . . . . . . CODE     PWM_MOTORS  
PWM_MOTORS_Start . . . . . . . . . . . . CODE     PWM_MOTORS  MAIN  
PWM_MOTORS_Stop. . . . . . . . . . . . . CODE     PWM_MOTORS  
pwm_preload_values . . . . . . . . . . . CONST    INTERRUPTIONS  
pwm_sign . . . . . . . . . . . . . . . . XDATA    GLOBALS  INTERRUPTIONS  
RESET_FF_Read. . . . . . . . . . . . . . CODE     RESET_FF  
reset_last_value_flag. . . . . . . . . . BIT      GLOBALS  COMMAND_PROCESSING  INTERRUPTIONS  MAIN  
RS0. . . . . . . . . . . . . . . . . . . DATA     COMMAND_PROCESSING  
RS1. . . . . . . . . . . . . . . . . . . DATA     COMMAND_PROCESSING  
RS485_CTS_Read . . . . . . . . . . . . . CODE     RS485_CTS  
setZeros . . . . . . . . . . . . . . . . CODE     COMMAND_PROCESSING  
SFRPRT0DR. . . . . . . . . . . . . . . . DATA     COMMAND_PROCESSING  
SFRPRT0PS. . . . . . . . . . . . . . . . DATA     COMMAND_PROCESSING  
SFRPRT0SEL . . . . . . . . . . . . . . . DATA     COMMAND_PROCESSING  
SFRPRT12DR . . . . . . . . . . . . . . . DATA     COMMAND_PROCESSING  
SFRPRT12PS . . . . . . . . . . . . . . . DATA     COMMAND_PROCESSING  
SFRPRT12SEL. . . . . . . . . . . . . . . DATA     COMMAND_PROCESSING  
SFRPRT15DR . . . . . . . . . . . . . . . DATA     COMMAND_PROCESSING  
SFRPRT15PS . . . . . . . . . . . . . . . DATA     COMMAND_PROCESSING  
SFRPRT15SEL. . . . . . . . . . . . . . . DATA     COMMAND_PROCESSING  
SFRPRT1DR. . . . . . . . . . . . . . . . DATA     COMMAND_PROCESSING  
SFRPRT1PS. . . . . . . . . . . . . . . . DATA     COMMAND_PROCESSING  
SFRPRT1SEL . . . . . . . . . . . . . . . DATA     COMMAND_PROCESSING  
SFRPRT2DR. . . . . . . . . . . . . . . . DATA     COMMAND_PROCESSING  
SFRPRT2PS. . . . . . . . . . . . . . . . DATA     COMMAND_PROCESSING  
SFRPRT2SEL . . . . . . . . . . . . . . . DATA     COMMAND_PROCESSING  
SFRPRT3DR. . . . . . . . . . . . . . . . DATA     COMMAND_PROCESSING  
SFRPRT3PS. . . . . . . . . . . . . . . . DATA     COMMAND_PROCESSING  
SFRPRT3SEL . . . . . . . . . . . . . . . DATA     COMMAND_PROCESSING  
SFRPRT4DR. . . . . . . . . . . . . . . . DATA     COMMAND_PROCESSING  
SFRPRT4PS. . . . . . . . . . . . . . . . DATA     COMMAND_PROCESSING  
SFRPRT4SEL . . . . . . . . . . . . . . . DATA     COMMAND_PROCESSING  
LX51 LINKER/LOCATER V4.64.0.0                                                         02/02/2018  18:09:00  PAGE 148


SFRPRT5DR. . . . . . . . . . . . . . . . DATA     COMMAND_PROCESSING  
SFRPRT5PS. . . . . . . . . . . . . . . . DATA     COMMAND_PROCESSING  
SFRPRT5SEL . . . . . . . . . . . . . . . DATA     COMMAND_PROCESSING  
SFRPRT6DR. . . . . . . . . . . . . . . . DATA     COMMAND_PROCESSING  
SFRPRT6PS. . . . . . . . . . . . . . . . DATA     COMMAND_PROCESSING  
SFRPRT6SEL . . . . . . . . . . . . . . . DATA     COMMAND_PROCESSING  
SHIFTREG_ENC_1_DisableInt. . . . . . . . CODE     SHIFTREG_ENC_1  
SHIFTREG_ENC_1_Enable. . . . . . . . . . CODE     SHIFTREG_ENC_1  
SHIFTREG_ENC_1_EnableInt . . . . . . . . CODE     SHIFTREG_ENC_1  
SHIFTREG_ENC_1_GetIntStatus. . . . . . . CODE     SHIFTREG_ENC_1  
SHIFTREG_ENC_1_Init. . . . . . . . . . . CODE     SHIFTREG_ENC_1  
SHIFTREG_ENC_1_initVar . . . . . . . . . XDATA    SHIFTREG_ENC_1  
SHIFTREG_ENC_1_ReadData. . . . . . . . . CODE     SHIFTREG_ENC_1  INTERRUPTIONS  
SHIFTREG_ENC_1_ReadRegValue. . . . . . . CODE     SHIFTREG_ENC_1  
SHIFTREG_ENC_1_Start . . . . . . . . . . CODE     SHIFTREG_ENC_1  MAIN  
SHIFTREG_ENC_1_Stop. . . . . . . . . . . CODE     SHIFTREG_ENC_1  
SHIFTREG_ENC_2_DisableInt. . . . . . . . CODE     SHIFTREG_ENC_2  
SHIFTREG_ENC_2_Enable. . . . . . . . . . CODE     SHIFTREG_ENC_2  
SHIFTREG_ENC_2_EnableInt . . . . . . . . CODE     SHIFTREG_ENC_2  
SHIFTREG_ENC_2_GetIntStatus. . . . . . . CODE     SHIFTREG_ENC_2  
SHIFTREG_ENC_2_Init. . . . . . . . . . . CODE     SHIFTREG_ENC_2  
SHIFTREG_ENC_2_initVar . . . . . . . . . XDATA    SHIFTREG_ENC_2  
SHIFTREG_ENC_2_ReadData. . . . . . . . . CODE     SHIFTREG_ENC_2  INTERRUPTIONS  
SHIFTREG_ENC_2_ReadRegValue. . . . . . . CODE     SHIFTREG_ENC_2  
SHIFTREG_ENC_2_Start . . . . . . . . . . CODE     SHIFTREG_ENC_2  MAIN  
SHIFTREG_ENC_2_Stop. . . . . . . . . . . CODE     SHIFTREG_ENC_2  
SHIFTREG_ENC_3_DisableInt. . . . . . . . CODE     SHIFTREG_ENC_3  
SHIFTREG_ENC_3_Enable. . . . . . . . . . CODE     SHIFTREG_ENC_3  
SHIFTREG_ENC_3_EnableInt . . . . . . . . CODE     SHIFTREG_ENC_3  
SHIFTREG_ENC_3_GetIntStatus. . . . . . . CODE     SHIFTREG_ENC_3  
SHIFTREG_ENC_3_Init. . . . . . . . . . . CODE     SHIFTREG_ENC_3  
SHIFTREG_ENC_3_initVar . . . . . . . . . XDATA    SHIFTREG_ENC_3  
SHIFTREG_ENC_3_ReadData. . . . . . . . . CODE     SHIFTREG_ENC_3  INTERRUPTIONS  
SHIFTREG_ENC_3_ReadRegValue. . . . . . . CODE     SHIFTREG_ENC_3  
SHIFTREG_ENC_3_Start . . . . . . . . . . CODE     SHIFTREG_ENC_3  
SHIFTREG_ENC_3_Stop. . . . . . . . . . . CODE     SHIFTREG_ENC_3  
SHIFTREG_ENC_4_DisableInt. . . . . . . . CODE     SHIFTREG_ENC_4  
SHIFTREG_ENC_4_Enable. . . . . . . . . . CODE     SHIFTREG_ENC_4  
SHIFTREG_ENC_4_EnableInt . . . . . . . . CODE     SHIFTREG_ENC_4  
SHIFTREG_ENC_4_GetIntStatus. . . . . . . CODE     SHIFTREG_ENC_4  
SHIFTREG_ENC_4_Init. . . . . . . . . . . CODE     SHIFTREG_ENC_4  
SHIFTREG_ENC_4_initVar . . . . . . . . . XDATA    SHIFTREG_ENC_4  
SHIFTREG_ENC_4_ReadData. . . . . . . . . CODE     SHIFTREG_ENC_4  INTERRUPTIONS  
SHIFTREG_ENC_4_ReadRegValue. . . . . . . CODE     SHIFTREG_ENC_4  
SHIFTREG_ENC_4_Start . . . . . . . . . . CODE     SHIFTREG_ENC_4  
SHIFTREG_ENC_4_Stop. . . . . . . . . . . CODE     SHIFTREG_ENC_4  
slide_cuff . . . . . . . . . . . . . . . CODE     COMMAND_PROCESSING  INTERRUPTIONS  
SP . . . . . . . . . . . . . . . . . . . DATA     COMMAND_PROCESSING  
SpcLockState . . . . . . . . . . . . . . XDATA    CYSPC  
STARTUP1 . . . . . . . . . . . . . . . . CODE     ?C_STARTUP  
tension_valid. . . . . . . . . . . . . . BIT      GLOBALS  MAIN  
timer_value. . . . . . . . . . . . . . . XDATA    GLOBALS  COMMAND_PROCESSING  INTERRUPTIONS  
timer_value0 . . . . . . . . . . . . . . XDATA    GLOBALS  COMMAND_PROCESSING  INTERRUPTIONS  
UART_RS485_ClearRxBuffer . . . . . . . . CODE     UART_RS485  MAIN  
UART_RS485_ClearTxBuffer . . . . . . . . CODE     UART_RS485  COMMAND_PROCESSING  MAIN  
UART_RS485_Enable. . . . . . . . . . . . CODE     UART_RS485  
UART_RS485_errorStatus . . . . . . . . . XDATA    UART_RS485  UART_RS485_INT  
UART_RS485_GetByte . . . . . . . . . . . CODE     UART_RS485  
UART_RS485_GetChar . . . . . . . . . . . CODE     UART_RS485  INTERRUPTIONS  
UART_RS485_GetRxBufferSize . . . . . . . CODE     UART_RS485  INTERRUPTIONS  
UART_RS485_GetTxBufferSize . . . . . . . CODE     UART_RS485  
UART_RS485_Init. . . . . . . . . . . . . CODE     UART_RS485  MAIN  
UART_RS485_initVar . . . . . . . . . . . XDATA    UART_RS485  
UART_RS485_ReadControlRegister . . . . . CODE     UART_RS485  
UART_RS485_ReadRxData. . . . . . . . . . CODE     UART_RS485  
LX51 LINKER/LOCATER V4.64.0.0                                                         02/02/2018  18:09:00  PAGE 149


UART_RS485_ReadRxStatus. . . . . . . . . CODE     UART_RS485  MAIN  
UART_RS485_ReadTxStatus. . . . . . . . . CODE     UART_RS485  COMMAND_PROCESSING  
UART_RS485_rxBuffer. . . . . . . . . . . XDATA    UART_RS485  UART_RS485_INT  
UART_RS485_rxBufferLoopDetect. . . . . . XDATA    UART_RS485  UART_RS485_INT  
UART_RS485_rxBufferOverflow. . . . . . . XDATA    UART_RS485  UART_RS485_INT  
UART_RS485_rxBufferRead. . . . . . . . . XDATA    UART_RS485  UART_RS485_INT  
UART_RS485_rxBufferWrite . . . . . . . . XDATA    UART_RS485  UART_RS485_INT  
UART_RS485_RXISR . . . . . . . . . . . . CODE     UART_RS485_INT  UART_RS485  
UART_RS485_Start . . . . . . . . . . . . CODE     UART_RS485  MAIN  
UART_RS485_Stop. . . . . . . . . . . . . CODE     UART_RS485  MAIN  
WATCHDOG_COUNTER_Enable. . . . . . . . . CODE     WATCHDOG_COUNTER  
WATCHDOG_COUNTER_Init. . . . . . . . . . CODE     WATCHDOG_COUNTER  
WATCHDOG_COUNTER_initVar . . . . . . . . XDATA    WATCHDOG_COUNTER  
WATCHDOG_COUNTER_ReadCapture . . . . . . CODE     WATCHDOG_COUNTER  
WATCHDOG_COUNTER_ReadControlRegister . . CODE     WATCHDOG_COUNTER  
WATCHDOG_COUNTER_ReadCounter . . . . . . CODE     WATCHDOG_COUNTER  
WATCHDOG_COUNTER_ReadPeriod. . . . . . . CODE     WATCHDOG_COUNTER  
WATCHDOG_COUNTER_ReadStatusRegister. . . CODE     WATCHDOG_COUNTER  
WATCHDOG_COUNTER_Start . . . . . . . . . CODE     WATCHDOG_COUNTER  MAIN  
WATCHDOG_COUNTER_Stop. . . . . . . . . . CODE     WATCHDOG_COUNTER  
WATCHDOG_ENABLER_Read. . . . . . . . . . CODE     WATCHDOG_ENABLER  
watchdog_flag. . . . . . . . . . . . . . BIT      GLOBALS  INTERRUPTIONS  MAIN  
WATCHDOG_REFRESH_Read. . . . . . . . . . CODE     WATCHDOG_REFRESH  

Program Size: data=113.6 xdata=3693 const=3000 code=39858
LX51 RUN COMPLETE.  0 WARNING(S),  0 ERROR(S)
